ARM GAS  /tmp/cckRYAkY.s 			page 1


   1              		.syntax unified
   2              		.cpu cortex-m4
   3              		.fpu softvfp
   4              		.eabi_attribute 20, 1
   5              		.eabi_attribute 21, 1
   6              		.eabi_attribute 23, 3
   7              		.eabi_attribute 24, 1
   8              		.eabi_attribute 25, 1
   9              		.eabi_attribute 26, 1
  10              		.eabi_attribute 30, 6
  11              		.eabi_attribute 34, 1
  12              		.eabi_attribute 18, 4
  13              		.thumb
  14              		.file	"Accelerometer.c"
  15              		.text
  16              	.Ltext0:
  17              		.cfi_sections	.debug_frame
  18              		.section	.rodata
  19              		.type	BW_XL_400, %object
  20              		.size	BW_XL_400, 1
  21              	BW_XL_400:
  22 0000 00       		.space	1
  23              		.type	BW_XL_200, %object
  24              		.size	BW_XL_200, 1
  25              	BW_XL_200:
  26 0001 01       		.byte	1
  27              		.type	BW_XL_100, %object
  28              		.size	BW_XL_100, 1
  29              	BW_XL_100:
  30 0002 02       		.byte	2
  31              		.type	BW_XL_50, %object
  32              		.size	BW_XL_50, 1
  33              	BW_XL_50:
  34 0003 03       		.byte	3
  35              		.type	FS_XL_2, %object
  36              		.size	FS_XL_2, 1
  37              	FS_XL_2:
  38 0004 00       		.space	1
  39              		.type	FS_XL_4, %object
  40              		.size	FS_XL_4, 1
  41              	FS_XL_4:
  42 0005 08       		.byte	8
  43              		.type	FS_XL_8, %object
  44              		.size	FS_XL_8, 1
  45              	FS_XL_8:
  46 0006 0C       		.byte	12
  47              		.type	FS_XL_16, %object
  48              		.size	FS_XL_16, 1
  49              	FS_XL_16:
  50 0007 04       		.byte	4
  51              		.type	ODR_XL_POWERDOWN, %object
  52              		.size	ODR_XL_POWERDOWN, 1
  53              	ODR_XL_POWERDOWN:
  54 0008 00       		.space	1
  55              		.type	ODR_XL_12_5, %object
  56              		.size	ODR_XL_12_5, 1
  57              	ODR_XL_12_5:
ARM GAS  /tmp/cckRYAkY.s 			page 2


  58 0009 10       		.byte	16
  59              		.type	ODR_XL_26, %object
  60              		.size	ODR_XL_26, 1
  61              	ODR_XL_26:
  62 000a 20       		.byte	32
  63              		.type	ODR_XL_52, %object
  64              		.size	ODR_XL_52, 1
  65              	ODR_XL_52:
  66 000b 30       		.byte	48
  67              		.type	ODR_XL_104, %object
  68              		.size	ODR_XL_104, 1
  69              	ODR_XL_104:
  70 000c 40       		.byte	64
  71              		.type	ODR_XL_208, %object
  72              		.size	ODR_XL_208, 1
  73              	ODR_XL_208:
  74 000d 50       		.byte	80
  75              		.type	ODR_XL_416, %object
  76              		.size	ODR_XL_416, 1
  77              	ODR_XL_416:
  78 000e 60       		.byte	96
  79              		.type	ODR_XL_833, %object
  80              		.size	ODR_XL_833, 1
  81              	ODR_XL_833:
  82 000f 70       		.byte	112
  83              		.type	ODR_XL_1_66k, %object
  84              		.size	ODR_XL_1_66k, 1
  85              	ODR_XL_1_66k:
  86 0010 80       		.byte	-128
  87              		.type	ODR_XL_3_33k, %object
  88              		.size	ODR_XL_3_33k, 1
  89              	ODR_XL_3_33k:
  90 0011 90       		.byte	-112
  91              		.type	ODR_XL_6_66k, %object
  92              		.size	ODR_XL_6_66k, 1
  93              	ODR_XL_6_66k:
  94 0012 A0       		.byte	-96
  95              		.text
  96              		.align	2
  97              		.p2align 4,,15
  98              		.global	AccelerometerInit
  99              		.thumb
 100              		.thumb_func
 101              		.type	AccelerometerInit, %function
 102              	AccelerometerInit:
 103              	.LFB279:
 104              		.file 1 "Accelerometer.c"
 105              		.loc 1 13 0
 106              		.cfi_startproc
 107              		@ args = 0, pretend = 0, frame = 0
 108              		@ frame_needed = 0, uses_anonymous_args = 0
 109 0000 08B5     		push	{r3, lr}
 110              		.cfi_def_cfa_offset 8
 111              		.cfi_offset 3, -8
 112              		.cfi_offset 14, -4
 113              		.loc 1 23 0
 114 0002 1348     		ldr	r0, .L3
ARM GAS  /tmp/cckRYAkY.s 			page 3


 115 0004 4FF48071 		mov	r1, #256
 116 0008 40F20622 		movw	r2, #518
 117 000c FFF7FEFF 		bl	_pal_lld_setgroupmode
 118              		.loc 1 24 0
 119 0010 0F48     		ldr	r0, .L3
 120 0012 4FF40071 		mov	r1, #512
 121 0016 40F20622 		movw	r2, #518
 122 001a FFF7FEFF 		bl	_pal_lld_setgroupmode
 123              		.loc 1 26 0
 124 001e 0C48     		ldr	r0, .L3
 125 0020 4FF48061 		mov	r1, #1024
 126 0024 40F28232 		movw	r2, #898
 127 0028 FFF7FEFF 		bl	_pal_lld_setgroupmode
 128              		.loc 1 27 0
 129 002c 0848     		ldr	r0, .L3
 130 002e 4FF40061 		mov	r1, #2048
 131 0032 40F28232 		movw	r2, #898
 132 0036 FFF7FEFF 		bl	_pal_lld_setgroupmode
 133              		.loc 1 29 0
 134 003a 0648     		ldr	r0, .L3+4
 135 003c 0649     		ldr	r1, .L3+8
 136 003e FFF7FEFF 		bl	i2cStart
 137              		.loc 1 30 0
 138 0042 0648     		ldr	r0, .L3+12
 139 0044 0021     		movs	r1, #0
 140 0046 FFF7FEFF 		bl	sdStart
 141              		.loc 1 32 0
 142 004a 0123     		movs	r3, #1
 143              		.loc 1 34 0
 144 004c 1846     		mov	r0, r3
 145 004e 08BD     		pop	{r3, pc}
 146              	.L4:
 147              		.align	2
 148              	.L3:
 149 0050 00040240 		.word	1073873920
 150 0054 00000000 		.word	I2CD1
 151 0058 14000000 		.word	i2ccfg.7673
 152 005c 00000000 		.word	SD3
 153              		.cfi_endproc
 154              	.LFE279:
 155              		.size	AccelerometerInit, .-AccelerometerInit
 156              		.align	2
 157              		.p2align 4,,15
 158              		.global	AccelerometerConfig
 159              		.thumb
 160              		.thumb_func
 161              		.type	AccelerometerConfig, %function
 162              	AccelerometerConfig:
 163              	.LFB280:
 164              		.loc 1 44 0
 165              		.cfi_startproc
 166              		@ args = 0, pretend = 0, frame = 24
 167              		@ frame_needed = 0, uses_anonymous_args = 0
 168 0060 00B5     		push	{lr}
 169              		.cfi_def_cfa_offset 4
 170              		.cfi_offset 14, -4
 171 0062 8BB0     		sub	sp, sp, #44
ARM GAS  /tmp/cckRYAkY.s 			page 4


 172              		.cfi_def_cfa_offset 48
 173 0064 0346     		mov	r3, r0
 174 0066 8DF81730 		strb	r3, [sp, #23]
 175              		.loc 1 48 0
 176 006a 9DF81730 		ldrb	r3, [sp, #23]
 177 006e 8DF82730 		strb	r3, [sp, #39]
 178              		.loc 1 52 0
 179 0072 1023     		movs	r3, #16
 180 0074 8DF81C30 		strb	r3, [sp, #28]
 181 0078 9DF82730 		ldrb	r3, [sp, #39]
 182 007c 8DF81D30 		strb	r3, [sp, #29]
 183              		.loc 1 54 0
 184 0080 07AB     		add	r3, sp, #28
 185 0082 0893     		str	r3, [sp, #32]
 186              		.loc 1 55 0
 187 0084 0DF11F03 		add	r3, sp, #31
 188 0088 0093     		str	r3, [sp]
 189 008a 0023     		movs	r3, #0
 190 008c 0193     		str	r3, [sp, #4]
 191 008e 42F21073 		movw	r3, #10000
 192 0092 0293     		str	r3, [sp, #8]
 193 0094 0648     		ldr	r0, .L7
 194 0096 6A21     		movs	r1, #106
 195 0098 089A     		ldr	r2, [sp, #32]
 196 009a 0223     		movs	r3, #2
 197 009c FFF7FEFF 		bl	i2cMasterTransmitTimeout
 198 00a0 0346     		mov	r3, r0
 199 00a2 0693     		str	r3, [sp, #24]
 200              		.loc 1 57 0
 201 00a4 069B     		ldr	r3, [sp, #24]
 202              		.loc 1 59 0
 203 00a6 0123     		movs	r3, #1
 204              		.loc 1 61 0
 205 00a8 1846     		mov	r0, r3
 206 00aa 0BB0     		add	sp, sp, #44
 207              		.cfi_def_cfa_offset 4
 208              		@ sp needed
 209 00ac 5DF804FB 		ldr	pc, [sp], #4
 210              	.L8:
 211              		.align	2
 212              	.L7:
 213 00b0 00000000 		.word	I2CD1
 214              		.cfi_endproc
 215              	.LFE280:
 216              		.size	AccelerometerConfig, .-AccelerometerConfig
 217              		.align	2
 218 00b4 AFF30080 		.p2align 4,,15
 218      AFF30080 
 218      AFF30080 
 219              		.global	AccelerometerGetValues
 220              		.thumb
 221              		.thumb_func
 222              		.type	AccelerometerGetValues, %function
 223              	AccelerometerGetValues:
 224              	.LFB281:
 225              		.loc 1 73 0
 226              		.cfi_startproc
ARM GAS  /tmp/cckRYAkY.s 			page 5


 227              		@ args = 0, pretend = 0, frame = 64
 228              		@ frame_needed = 0, uses_anonymous_args = 0
 229 00c0 00B5     		push	{lr}
 230              		.cfi_def_cfa_offset 4
 231              		.cfi_offset 14, -4
 232 00c2 95B0     		sub	sp, sp, #84
 233              		.cfi_def_cfa_offset 88
 234 00c4 0590     		str	r0, [sp, #20]
 235              		.loc 1 85 0
 236 00c6 2823     		movs	r3, #40
 237 00c8 8DF84530 		strb	r3, [sp, #69]
 238              		.loc 1 87 0
 239 00cc 2923     		movs	r3, #41
 240 00ce 8DF84430 		strb	r3, [sp, #68]
 241              		.loc 1 90 0
 242 00d2 2A23     		movs	r3, #42
 243 00d4 8DF84330 		strb	r3, [sp, #67]
 244              		.loc 1 92 0
 245 00d8 2B23     		movs	r3, #43
 246 00da 8DF84230 		strb	r3, [sp, #66]
 247              		.loc 1 95 0
 248 00de 2C23     		movs	r3, #44
 249 00e0 8DF84130 		strb	r3, [sp, #65]
 250              		.loc 1 97 0
 251 00e4 2D23     		movs	r3, #45
 252 00e6 8DF84030 		strb	r3, [sp, #64]
 253              		.loc 1 102 0
 254 00ea 0DF14503 		add	r3, sp, #69
 255 00ee 1393     		str	r3, [sp, #76]
 256              		.loc 1 104 0
 257 00f0 0DF13F03 		add	r3, sp, #63
 258 00f4 0093     		str	r3, [sp]
 259 00f6 0123     		movs	r3, #1
 260 00f8 0193     		str	r3, [sp, #4]
 261 00fa 42F21073 		movw	r3, #10000
 262 00fe 0293     		str	r3, [sp, #8]
 263 0100 6248     		ldr	r0, .L11
 264 0102 6A21     		movs	r1, #106
 265 0104 139A     		ldr	r2, [sp, #76]
 266 0106 0123     		movs	r3, #1
 267 0108 FFF7FEFF 		bl	i2cMasterTransmitTimeout
 268 010c 0346     		mov	r3, r0
 269 010e 0E93     		str	r3, [sp, #56]
 270              		.loc 1 105 0
 271 0110 9DF83F30 		ldrb	r3, [sp, #63]
 272 0114 8DF84B30 		strb	r3, [sp, #75]
 273              		.loc 1 107 0
 274 0118 11AB     		add	r3, sp, #68
 275 011a 1393     		str	r3, [sp, #76]
 276              		.loc 1 108 0
 277 011c 0DF13F03 		add	r3, sp, #63
 278 0120 0093     		str	r3, [sp]
 279 0122 0123     		movs	r3, #1
 280 0124 0193     		str	r3, [sp, #4]
 281 0126 42F21073 		movw	r3, #10000
 282 012a 0293     		str	r3, [sp, #8]
 283 012c 5748     		ldr	r0, .L11
ARM GAS  /tmp/cckRYAkY.s 			page 6


 284 012e 6A21     		movs	r1, #106
 285 0130 139A     		ldr	r2, [sp, #76]
 286 0132 0123     		movs	r3, #1
 287 0134 FFF7FEFF 		bl	i2cMasterTransmitTimeout
 288 0138 0346     		mov	r3, r0
 289 013a 0D93     		str	r3, [sp, #52]
 290              		.loc 1 109 0
 291 013c 9DF83F30 		ldrb	r3, [sp, #63]
 292 0140 8DF84A30 		strb	r3, [sp, #74]
 293              		.loc 1 111 0
 294 0144 0DF14303 		add	r3, sp, #67
 295 0148 1393     		str	r3, [sp, #76]
 296              		.loc 1 112 0
 297 014a 0DF13F03 		add	r3, sp, #63
 298 014e 0093     		str	r3, [sp]
 299 0150 0123     		movs	r3, #1
 300 0152 0193     		str	r3, [sp, #4]
 301 0154 42F21073 		movw	r3, #10000
 302 0158 0293     		str	r3, [sp, #8]
 303 015a 4C48     		ldr	r0, .L11
 304 015c 6A21     		movs	r1, #106
 305 015e 139A     		ldr	r2, [sp, #76]
 306 0160 0123     		movs	r3, #1
 307 0162 FFF7FEFF 		bl	i2cMasterTransmitTimeout
 308 0166 0346     		mov	r3, r0
 309 0168 0C93     		str	r3, [sp, #48]
 310              		.loc 1 113 0
 311 016a 9DF83F30 		ldrb	r3, [sp, #63]
 312 016e 8DF84930 		strb	r3, [sp, #73]
 313              		.loc 1 115 0
 314 0172 0DF14203 		add	r3, sp, #66
 315 0176 1393     		str	r3, [sp, #76]
 316              		.loc 1 116 0
 317 0178 0DF13F03 		add	r3, sp, #63
 318 017c 0093     		str	r3, [sp]
 319 017e 0123     		movs	r3, #1
 320 0180 0193     		str	r3, [sp, #4]
 321 0182 42F21073 		movw	r3, #10000
 322 0186 0293     		str	r3, [sp, #8]
 323 0188 4048     		ldr	r0, .L11
 324 018a 6A21     		movs	r1, #106
 325 018c 139A     		ldr	r2, [sp, #76]
 326 018e 0123     		movs	r3, #1
 327 0190 FFF7FEFF 		bl	i2cMasterTransmitTimeout
 328 0194 0346     		mov	r3, r0
 329 0196 0B93     		str	r3, [sp, #44]
 330              		.loc 1 117 0
 331 0198 9DF83F30 		ldrb	r3, [sp, #63]
 332 019c 8DF84830 		strb	r3, [sp, #72]
 333              		.loc 1 119 0
 334 01a0 0DF14103 		add	r3, sp, #65
 335 01a4 1393     		str	r3, [sp, #76]
 336              		.loc 1 120 0
 337 01a6 0DF13F03 		add	r3, sp, #63
 338 01aa 0093     		str	r3, [sp]
 339 01ac 0123     		movs	r3, #1
 340 01ae 0193     		str	r3, [sp, #4]
ARM GAS  /tmp/cckRYAkY.s 			page 7


 341 01b0 42F21073 		movw	r3, #10000
 342 01b4 0293     		str	r3, [sp, #8]
 343 01b6 3548     		ldr	r0, .L11
 344 01b8 6A21     		movs	r1, #106
 345 01ba 139A     		ldr	r2, [sp, #76]
 346 01bc 0123     		movs	r3, #1
 347 01be FFF7FEFF 		bl	i2cMasterTransmitTimeout
 348 01c2 0346     		mov	r3, r0
 349 01c4 0A93     		str	r3, [sp, #40]
 350              		.loc 1 121 0
 351 01c6 9DF83F30 		ldrb	r3, [sp, #63]
 352 01ca 8DF84730 		strb	r3, [sp, #71]
 353              		.loc 1 123 0
 354 01ce 10AB     		add	r3, sp, #64
 355 01d0 1393     		str	r3, [sp, #76]
 356              		.loc 1 124 0
 357 01d2 0DF13F03 		add	r3, sp, #63
 358 01d6 0093     		str	r3, [sp]
 359 01d8 0123     		movs	r3, #1
 360 01da 0193     		str	r3, [sp, #4]
 361 01dc 42F21073 		movw	r3, #10000
 362 01e0 0293     		str	r3, [sp, #8]
 363 01e2 2A48     		ldr	r0, .L11
 364 01e4 6A21     		movs	r1, #106
 365 01e6 139A     		ldr	r2, [sp, #76]
 366 01e8 0123     		movs	r3, #1
 367 01ea FFF7FEFF 		bl	i2cMasterTransmitTimeout
 368 01ee 0346     		mov	r3, r0
 369 01f0 0993     		str	r3, [sp, #36]
 370              		.loc 1 125 0
 371 01f2 9DF83F30 		ldrb	r3, [sp, #63]
 372 01f6 8DF84630 		strb	r3, [sp, #70]
 373              		.loc 1 127 0
 374 01fa 9DF84A30 		ldrb	r3, [sp, #74]	@ zero_extendqisi2
 375 01fe 1B02     		lsls	r3, r3, #8
 376 0200 9AB2     		uxth	r2, r3
 377 0202 9DF84B30 		ldrb	r3, [sp, #75]	@ zero_extendqisi2
 378 0206 9BB2     		uxth	r3, r3
 379 0208 1343     		orrs	r3, r3, r2
 380 020a 9BB2     		uxth	r3, r3
 381 020c 9BB2     		uxth	r3, r3
 382 020e ADF82230 		strh	r3, [sp, #34]	@ movhi
 383              		.loc 1 129 0
 384 0212 BDF82230 		ldrh	r3, [sp, #34]
 385 0216 ADF82030 		strh	r3, [sp, #32]	@ movhi
 386              		.loc 1 131 0
 387 021a 9DF84830 		ldrb	r3, [sp, #72]	@ zero_extendqisi2
 388 021e 1B02     		lsls	r3, r3, #8
 389 0220 9AB2     		uxth	r2, r3
 390 0222 9DF84930 		ldrb	r3, [sp, #73]	@ zero_extendqisi2
 391 0226 9BB2     		uxth	r3, r3
 392 0228 1343     		orrs	r3, r3, r2
 393 022a 9BB2     		uxth	r3, r3
 394 022c 9BB2     		uxth	r3, r3
 395 022e ADF81E30 		strh	r3, [sp, #30]	@ movhi
 396              		.loc 1 133 0
 397 0232 BDF81E30 		ldrh	r3, [sp, #30]
ARM GAS  /tmp/cckRYAkY.s 			page 8


 398 0236 ADF81C30 		strh	r3, [sp, #28]	@ movhi
 399              		.loc 1 135 0
 400 023a 9DF84630 		ldrb	r3, [sp, #70]	@ zero_extendqisi2
 401 023e 1B02     		lsls	r3, r3, #8
 402 0240 9AB2     		uxth	r2, r3
 403 0242 9DF84730 		ldrb	r3, [sp, #71]	@ zero_extendqisi2
 404 0246 9BB2     		uxth	r3, r3
 405 0248 1343     		orrs	r3, r3, r2
 406 024a 9BB2     		uxth	r3, r3
 407 024c 9BB2     		uxth	r3, r3
 408 024e ADF81A30 		strh	r3, [sp, #26]	@ movhi
 409              		.loc 1 137 0
 410 0252 BDF81A30 		ldrh	r3, [sp, #26]
 411 0256 ADF81830 		strh	r3, [sp, #24]	@ movhi
 412              		.loc 1 139 0
 413 025a BDF82020 		ldrh	r2, [sp, #32]
 414 025e 059B     		ldr	r3, [sp, #20]
 415 0260 1A80     		strh	r2, [r3]	@ movhi
 416              		.loc 1 140 0
 417 0262 059B     		ldr	r3, [sp, #20]
 418 0264 0233     		adds	r3, r3, #2
 419 0266 BDF81C20 		ldrh	r2, [sp, #28]
 420 026a 1A80     		strh	r2, [r3]	@ movhi
 421              		.loc 1 141 0
 422 026c 059B     		ldr	r3, [sp, #20]
 423 026e 0433     		adds	r3, r3, #4
 424 0270 BDF81820 		ldrh	r2, [sp, #24]
 425 0274 1A80     		strh	r2, [r3]	@ movhi
 426              		.loc 1 143 0
 427 0276 0E9B     		ldr	r3, [sp, #56]
 428              		.loc 1 144 0
 429 0278 0D9B     		ldr	r3, [sp, #52]
 430              		.loc 1 145 0
 431 027a 0C9B     		ldr	r3, [sp, #48]
 432              		.loc 1 146 0
 433 027c 0B9B     		ldr	r3, [sp, #44]
 434              		.loc 1 147 0
 435 027e 0A9B     		ldr	r3, [sp, #40]
 436              		.loc 1 148 0
 437 0280 099B     		ldr	r3, [sp, #36]
 438              		.loc 1 150 0
 439 0282 0123     		movs	r3, #1
 440              		.loc 1 153 0
 441 0284 1846     		mov	r0, r3
 442 0286 15B0     		add	sp, sp, #84
 443              		.cfi_def_cfa_offset 4
 444              		@ sp needed
 445 0288 5DF804FB 		ldr	pc, [sp], #4
 446              	.L12:
 447              		.align	2
 448              	.L11:
 449 028c 00000000 		.word	I2CD1
 450              		.cfi_endproc
 451              	.LFE281:
 452              		.size	AccelerometerGetValues, .-AccelerometerGetValues
 453              		.section	.rodata
 454 0013 00       		.align	2
ARM GAS  /tmp/cckRYAkY.s 			page 9


 455              		.type	i2ccfg.7673, %object
 456              		.size	i2ccfg.7673, 12
 457              	i2ccfg.7673:
 458 0014 01       		.byte	1
 459 0015 000000   		.space	3
 460 0018 A0860100 		.word	100000
 461 001c 01       		.byte	1
 462 001d 000000   		.space	3
 463              		.text
 464              	.Letext0:
 465              		.file 2 "/usr/lib/gcc/arm-none-eabi/4.9.3/include/stddef.h"
 466              		.file 3 "/usr/include/newlib/machine/_default_types.h"
 467              		.file 4 "/usr/include/newlib/sys/_stdint.h"
 468              		.file 5 "../../../os/common/ports/ARMCMx/compilers/GCC/chtypes.h"
 469              		.file 6 "../../../os/rt/include/chsystypes.h"
 470              		.file 7 "../../../os/rt/include/chschd.h"
 471              		.file 8 "../../../os/common/ext/CMSIS/ST/STM32F4xx/stm32f407xx.h"
 472              		.file 9 "../../../os/common/ports/ARMCMx/chcore.h"
 473              		.file 10 "../../../os/common/ports/ARMCMx/chcore_v7m.h"
 474              		.file 11 "../../../os/rt/include/chtm.h"
 475              		.file 12 "../../../os/rt/include/chsem.h"
 476              		.file 13 "../../../os/rt/include/chmtx.h"
 477              		.file 14 "../../../os/rt/include/chevents.h"
 478              		.file 15 "../../../os/hal/ports/STM32/LLD/DMAv2/stm32_dma.h"
 479              		.file 16 "../../../os/hal/include/hal_queues.h"
 480              		.file 17 "../../../os/hal/ports/STM32/LLD/GPIOv2/hal_pal_lld.h"
 481              		.file 18 "../../../os/hal/include/hal_i2c.h"
 482              		.file 19 "../../../os/hal/ports/STM32/LLD/I2Cv1/hal_i2c_lld.h"
 483              		.file 20 "../../../os/hal/include/hal_serial.h"
 484              		.file 21 "Accelerometer.h"
 485              		.file 22 "../../../os/common/ext/CMSIS/include/core_cm4.h"
 486              		.file 23 "../../../os/hal/ports/STM32/LLD/USARTv1/hal_serial_lld.h"
 487              		.section	.debug_info,"",%progbits
 488              	.Ldebug_info0:
 489 0000 BA110000 		.4byte	0x11ba
 490 0004 0400     		.2byte	0x4
 491 0006 00000000 		.4byte	.Ldebug_abbrev0
 492 000a 04       		.byte	0x4
 493 000b 01       		.uleb128 0x1
 494 000c 02060000 		.4byte	.LASF241
 495 0010 01       		.byte	0x1
 496 0011 C8000000 		.4byte	.LASF242
 497 0015 75090000 		.4byte	.LASF243
 498 0019 00000000 		.4byte	.Ltext0
 499 001d 90020000 		.4byte	.Letext0-.Ltext0
 500 0021 00000000 		.4byte	.Ldebug_line0
 501 0025 02       		.uleb128 0x2
 502 0026 04       		.byte	0x4
 503 0027 05       		.byte	0x5
 504 0028 696E7400 		.ascii	"int\000"
 505 002c 03       		.uleb128 0x3
 506 002d 23000000 		.4byte	.LASF2
 507 0031 02       		.byte	0x2
 508 0032 D4       		.byte	0xd4
 509 0033 37000000 		.4byte	0x37
 510 0037 04       		.uleb128 0x4
 511 0038 04       		.byte	0x4
ARM GAS  /tmp/cckRYAkY.s 			page 10


 512 0039 07       		.byte	0x7
 513 003a 16050000 		.4byte	.LASF0
 514 003e 04       		.uleb128 0x4
 515 003f 01       		.byte	0x1
 516 0040 06       		.byte	0x6
 517 0041 B8010000 		.4byte	.LASF1
 518 0045 03       		.uleb128 0x3
 519 0046 05010000 		.4byte	.LASF3
 520 004a 03       		.byte	0x3
 521 004b 1D       		.byte	0x1d
 522 004c 50000000 		.4byte	0x50
 523 0050 04       		.uleb128 0x4
 524 0051 01       		.byte	0x1
 525 0052 08       		.byte	0x8
 526 0053 E5010000 		.4byte	.LASF4
 527 0057 03       		.uleb128 0x3
 528 0058 41070000 		.4byte	.LASF5
 529 005c 03       		.byte	0x3
 530 005d 29       		.byte	0x29
 531 005e 62000000 		.4byte	0x62
 532 0062 04       		.uleb128 0x4
 533 0063 02       		.byte	0x2
 534 0064 05       		.byte	0x5
 535 0065 D3070000 		.4byte	.LASF6
 536 0069 03       		.uleb128 0x3
 537 006a A0020000 		.4byte	.LASF7
 538 006e 03       		.byte	0x3
 539 006f 2B       		.byte	0x2b
 540 0070 74000000 		.4byte	0x74
 541 0074 04       		.uleb128 0x4
 542 0075 02       		.byte	0x2
 543 0076 07       		.byte	0x7
 544 0077 29090000 		.4byte	.LASF8
 545 007b 03       		.uleb128 0x3
 546 007c B6090000 		.4byte	.LASF9
 547 0080 03       		.byte	0x3
 548 0081 3F       		.byte	0x3f
 549 0082 86000000 		.4byte	0x86
 550 0086 04       		.uleb128 0x4
 551 0087 04       		.byte	0x4
 552 0088 05       		.byte	0x5
 553 0089 5A010000 		.4byte	.LASF10
 554 008d 03       		.uleb128 0x3
 555 008e 4E040000 		.4byte	.LASF11
 556 0092 03       		.byte	0x3
 557 0093 41       		.byte	0x41
 558 0094 98000000 		.4byte	0x98
 559 0098 04       		.uleb128 0x4
 560 0099 04       		.byte	0x4
 561 009a 07       		.byte	0x7
 562 009b A3030000 		.4byte	.LASF12
 563 009f 04       		.uleb128 0x4
 564 00a0 08       		.byte	0x8
 565 00a1 05       		.byte	0x5
 566 00a2 61040000 		.4byte	.LASF13
 567 00a6 03       		.uleb128 0x3
 568 00a7 98030000 		.4byte	.LASF14
ARM GAS  /tmp/cckRYAkY.s 			page 11


 569 00ab 03       		.byte	0x3
 570 00ac 5B       		.byte	0x5b
 571 00ad B1000000 		.4byte	0xb1
 572 00b1 04       		.uleb128 0x4
 573 00b2 08       		.byte	0x8
 574 00b3 07       		.byte	0x7
 575 00b4 85060000 		.4byte	.LASF15
 576 00b8 03       		.uleb128 0x3
 577 00b9 CB010000 		.4byte	.LASF16
 578 00bd 04       		.byte	0x4
 579 00be 14       		.byte	0x14
 580 00bf 45000000 		.4byte	0x45
 581 00c3 03       		.uleb128 0x3
 582 00c4 26080000 		.4byte	.LASF17
 583 00c8 04       		.byte	0x4
 584 00c9 19       		.byte	0x19
 585 00ca 57000000 		.4byte	0x57
 586 00ce 03       		.uleb128 0x3
 587 00cf A8060000 		.4byte	.LASF18
 588 00d3 04       		.byte	0x4
 589 00d4 1A       		.byte	0x1a
 590 00d5 69000000 		.4byte	0x69
 591 00d9 03       		.uleb128 0x3
 592 00da 52000000 		.4byte	.LASF19
 593 00de 04       		.byte	0x4
 594 00df 1F       		.byte	0x1f
 595 00e0 7B000000 		.4byte	0x7b
 596 00e4 03       		.uleb128 0x3
 597 00e5 E0080000 		.4byte	.LASF20
 598 00e9 04       		.byte	0x4
 599 00ea 20       		.byte	0x20
 600 00eb 8D000000 		.4byte	0x8d
 601 00ef 03       		.uleb128 0x3
 602 00f0 00080000 		.4byte	.LASF21
 603 00f4 04       		.byte	0x4
 604 00f5 26       		.byte	0x26
 605 00f6 A6000000 		.4byte	0xa6
 606 00fa 03       		.uleb128 0x3
 607 00fb 23050000 		.4byte	.LASF22
 608 00ff 05       		.byte	0x5
 609 0100 39       		.byte	0x39
 610 0101 E4000000 		.4byte	0xe4
 611 0105 03       		.uleb128 0x3
 612 0106 76070000 		.4byte	.LASF23
 613 010a 05       		.byte	0x5
 614 010b 3C       		.byte	0x3c
 615 010c B8000000 		.4byte	0xb8
 616 0110 03       		.uleb128 0x3
 617 0111 77010000 		.4byte	.LASF24
 618 0115 05       		.byte	0x5
 619 0116 3D       		.byte	0x3d
 620 0117 B8000000 		.4byte	0xb8
 621 011b 03       		.uleb128 0x3
 622 011c A4080000 		.4byte	.LASF25
 623 0120 05       		.byte	0x5
 624 0121 3E       		.byte	0x3e
 625 0122 B8000000 		.4byte	0xb8
ARM GAS  /tmp/cckRYAkY.s 			page 12


 626 0126 03       		.uleb128 0x3
 627 0127 4A000000 		.4byte	.LASF26
 628 012b 05       		.byte	0x5
 629 012c 40       		.byte	0x40
 630 012d E4000000 		.4byte	0xe4
 631 0131 03       		.uleb128 0x3
 632 0132 BC060000 		.4byte	.LASF27
 633 0136 05       		.byte	0x5
 634 0137 41       		.byte	0x41
 635 0138 D9000000 		.4byte	0xd9
 636 013c 03       		.uleb128 0x3
 637 013d D3010000 		.4byte	.LASF28
 638 0141 05       		.byte	0x5
 639 0142 43       		.byte	0x43
 640 0143 E4000000 		.4byte	0xe4
 641 0147 03       		.uleb128 0x3
 642 0148 D3060000 		.4byte	.LASF29
 643 014c 05       		.byte	0x5
 644 014d 44       		.byte	0x44
 645 014e E4000000 		.4byte	0xe4
 646 0152 03       		.uleb128 0x3
 647 0153 32030000 		.4byte	.LASF30
 648 0157 05       		.byte	0x5
 649 0158 45       		.byte	0x45
 650 0159 D9000000 		.4byte	0xd9
 651 015d 03       		.uleb128 0x3
 652 015e 3A000000 		.4byte	.LASF31
 653 0162 06       		.byte	0x6
 654 0163 33       		.byte	0x33
 655 0164 E4000000 		.4byte	0xe4
 656 0168 03       		.uleb128 0x3
 657 0169 77050000 		.4byte	.LASF32
 658 016d 06       		.byte	0x6
 659 016e 3F       		.byte	0x3f
 660 016f 73010000 		.4byte	0x173
 661 0173 05       		.uleb128 0x5
 662 0174 C2030000 		.4byte	.LASF50
 663 0178 44       		.byte	0x44
 664 0179 07       		.byte	0x7
 665 017a 9A       		.byte	0x9a
 666 017b 51020000 		.4byte	0x251
 667 017f 06       		.uleb128 0x6
 668 0180 04070000 		.4byte	.LASF33
 669 0184 07       		.byte	0x7
 670 0185 9B       		.byte	0x9b
 671 0186 86020000 		.4byte	0x286
 672 018a 00       		.byte	0
 673 018b 06       		.uleb128 0x6
 674 018c F7000000 		.4byte	.LASF34
 675 0190 07       		.byte	0x7
 676 0191 9C       		.byte	0x9c
 677 0192 26010000 		.4byte	0x126
 678 0196 08       		.byte	0x8
 679 0197 07       		.uleb128 0x7
 680 0198 63747800 		.ascii	"ctx\000"
 681 019c 07       		.byte	0x7
 682 019d 9D       		.byte	0x9d
ARM GAS  /tmp/cckRYAkY.s 			page 13


 683 019e F1050000 		.4byte	0x5f1
 684 01a2 0C       		.byte	0xc
 685 01a3 06       		.uleb128 0x6
 686 01a4 DA080000 		.4byte	.LASF35
 687 01a8 07       		.byte	0x7
 688 01a9 9F       		.byte	0x9f
 689 01aa 5C020000 		.4byte	0x25c
 690 01ae 10       		.byte	0x10
 691 01af 06       		.uleb128 0x6
 692 01b0 05040000 		.4byte	.LASF36
 693 01b4 07       		.byte	0x7
 694 01b5 A0       		.byte	0xa0
 695 01b6 5C020000 		.4byte	0x25c
 696 01ba 14       		.byte	0x14
 697 01bb 06       		.uleb128 0x6
 698 01bc B8070000 		.4byte	.LASF37
 699 01c0 07       		.byte	0x7
 700 01c1 A7       		.byte	0xa7
 701 01c2 76070000 		.4byte	0x776
 702 01c6 18       		.byte	0x18
 703 01c7 06       		.uleb128 0x6
 704 01c8 4B070000 		.4byte	.LASF38
 705 01cc 07       		.byte	0x7
 706 01cd B0       		.byte	0xb0
 707 01ce 88070000 		.4byte	0x788
 708 01d2 1C       		.byte	0x1c
 709 01d3 06       		.uleb128 0x6
 710 01d4 D8000000 		.4byte	.LASF39
 711 01d8 07       		.byte	0x7
 712 01d9 B5       		.byte	0xb5
 713 01da 10010000 		.4byte	0x110
 714 01de 20       		.byte	0x20
 715 01df 06       		.uleb128 0x6
 716 01e0 C0020000 		.4byte	.LASF40
 717 01e4 07       		.byte	0x7
 718 01e5 B9       		.byte	0xb9
 719 01e6 05010000 		.4byte	0x105
 720 01ea 21       		.byte	0x21
 721 01eb 06       		.uleb128 0x6
 722 01ec FF060000 		.4byte	.LASF41
 723 01f0 07       		.byte	0x7
 724 01f1 BE       		.byte	0xbe
 725 01f2 1B010000 		.4byte	0x11b
 726 01f6 22       		.byte	0x22
 727 01f7 08       		.uleb128 0x8
 728 01f8 7500     		.ascii	"u\000"
 729 01fa 07       		.byte	0x7
 730 01fb 0F01     		.2byte	0x10f
 731 01fd AB060000 		.4byte	0x6ab
 732 0201 24       		.byte	0x24
 733 0202 09       		.uleb128 0x9
 734 0203 94080000 		.4byte	.LASF42
 735 0207 07       		.byte	0x7
 736 0208 1401     		.2byte	0x114
 737 020a 62020000 		.4byte	0x262
 738 020e 28       		.byte	0x28
 739 020f 09       		.uleb128 0x9
ARM GAS  /tmp/cckRYAkY.s 			page 14


 740 0210 2E080000 		.4byte	.LASF43
 741 0214 07       		.byte	0x7
 742 0215 1A01     		.2byte	0x11a
 743 0217 86020000 		.4byte	0x286
 744 021b 2C       		.byte	0x2c
 745 021c 09       		.uleb128 0x9
 746 021d 80010000 		.4byte	.LASF44
 747 0221 07       		.byte	0x7
 748 0222 2001     		.2byte	0x120
 749 0224 3C010000 		.4byte	0x13c
 750 0228 34       		.byte	0x34
 751 0229 09       		.uleb128 0x9
 752 022a 59040000 		.4byte	.LASF45
 753 022e 07       		.byte	0x7
 754 022f 2701     		.2byte	0x127
 755 0231 70070000 		.4byte	0x770
 756 0235 38       		.byte	0x38
 757 0236 09       		.uleb128 0x9
 758 0237 10040000 		.4byte	.LASF46
 759 023b 07       		.byte	0x7
 760 023c 2B01     		.2byte	0x12b
 761 023e 26010000 		.4byte	0x126
 762 0242 3C       		.byte	0x3c
 763 0243 09       		.uleb128 0x9
 764 0244 FD020000 		.4byte	.LASF47
 765 0248 07       		.byte	0x7
 766 0249 3201     		.2byte	0x132
 767 024b 39030000 		.4byte	0x339
 768 024f 40       		.byte	0x40
 769 0250 00       		.byte	0
 770 0251 03       		.uleb128 0x3
 771 0252 9C050000 		.4byte	.LASF48
 772 0256 06       		.byte	0x6
 773 0257 44       		.byte	0x44
 774 0258 5C020000 		.4byte	0x25c
 775 025c 0A       		.uleb128 0xa
 776 025d 04       		.byte	0x4
 777 025e 68010000 		.4byte	0x168
 778 0262 03       		.uleb128 0x3
 779 0263 B9080000 		.4byte	.LASF49
 780 0267 06       		.byte	0x6
 781 0268 49       		.byte	0x49
 782 0269 6D020000 		.4byte	0x26d
 783 026d 05       		.uleb128 0x5
 784 026e 19040000 		.4byte	.LASF51
 785 0272 04       		.byte	0x4
 786 0273 07       		.byte	0x7
 787 0274 88       		.byte	0x88
 788 0275 86020000 		.4byte	0x286
 789 0279 06       		.uleb128 0x6
 790 027a E2090000 		.4byte	.LASF52
 791 027e 07       		.byte	0x7
 792 027f 89       		.byte	0x89
 793 0280 5C020000 		.4byte	0x25c
 794 0284 00       		.byte	0
 795 0285 00       		.byte	0
 796 0286 03       		.uleb128 0x3
ARM GAS  /tmp/cckRYAkY.s 			page 15


 797 0287 89010000 		.4byte	.LASF53
 798 028b 06       		.byte	0x6
 799 028c 50       		.byte	0x50
 800 028d 91020000 		.4byte	0x291
 801 0291 05       		.uleb128 0x5
 802 0292 C2060000 		.4byte	.LASF54
 803 0296 08       		.byte	0x8
 804 0297 07       		.byte	0x7
 805 0298 8F       		.byte	0x8f
 806 0299 B6020000 		.4byte	0x2b6
 807 029d 06       		.uleb128 0x6
 808 029e E2090000 		.4byte	.LASF52
 809 02a2 07       		.byte	0x7
 810 02a3 90       		.byte	0x90
 811 02a4 5C020000 		.4byte	0x25c
 812 02a8 00       		.byte	0
 813 02a9 06       		.uleb128 0x6
 814 02aa EC090000 		.4byte	.LASF55
 815 02ae 07       		.byte	0x7
 816 02af 91       		.byte	0x91
 817 02b0 5C020000 		.4byte	0x25c
 818 02b4 04       		.byte	0x4
 819 02b5 00       		.byte	0
 820 02b6 03       		.uleb128 0x3
 821 02b7 F8030000 		.4byte	.LASF56
 822 02bb 06       		.byte	0x6
 823 02bc 57       		.byte	0x57
 824 02bd C1020000 		.4byte	0x2c1
 825 02c1 0B       		.uleb128 0xb
 826 02c2 5A030000 		.4byte	.LASF57
 827 02c6 1C       		.byte	0x1c
 828 02c7 07       		.byte	0x7
 829 02c8 6A01     		.2byte	0x16a
 830 02ca 1D030000 		.4byte	0x31d
 831 02ce 09       		.uleb128 0x9
 832 02cf 04070000 		.4byte	.LASF33
 833 02d3 07       		.byte	0x7
 834 02d4 6B01     		.2byte	0x16b
 835 02d6 86020000 		.4byte	0x286
 836 02da 00       		.byte	0
 837 02db 09       		.uleb128 0x9
 838 02dc F7000000 		.4byte	.LASF34
 839 02e0 07       		.byte	0x7
 840 02e1 6C01     		.2byte	0x16c
 841 02e3 26010000 		.4byte	0x126
 842 02e7 08       		.byte	0x8
 843 02e8 08       		.uleb128 0x8
 844 02e9 63747800 		.ascii	"ctx\000"
 845 02ed 07       		.byte	0x7
 846 02ee 6E01     		.2byte	0x16e
 847 02f0 F1050000 		.4byte	0x5f1
 848 02f4 0C       		.byte	0xc
 849 02f5 09       		.uleb128 0x9
 850 02f6 DA080000 		.4byte	.LASF35
 851 02fa 07       		.byte	0x7
 852 02fb 7101     		.2byte	0x171
 853 02fd 5C020000 		.4byte	0x25c
ARM GAS  /tmp/cckRYAkY.s 			page 16


 854 0301 10       		.byte	0x10
 855 0302 09       		.uleb128 0x9
 856 0303 05040000 		.4byte	.LASF36
 857 0307 07       		.byte	0x7
 858 0308 7201     		.2byte	0x172
 859 030a 5C020000 		.4byte	0x25c
 860 030e 14       		.byte	0x14
 861 030f 09       		.uleb128 0x9
 862 0310 2B050000 		.4byte	.LASF58
 863 0314 07       		.byte	0x7
 864 0315 7501     		.2byte	0x175
 865 0317 5C020000 		.4byte	0x25c
 866 031b 18       		.byte	0x18
 867 031c 00       		.byte	0
 868 031d 03       		.uleb128 0x3
 869 031e 6E000000 		.4byte	.LASF59
 870 0322 06       		.byte	0x6
 871 0323 5C       		.byte	0x5c
 872 0324 28030000 		.4byte	0x328
 873 0328 0A       		.uleb128 0xa
 874 0329 04       		.byte	0x4
 875 032a 2E030000 		.4byte	0x32e
 876 032e 0C       		.uleb128 0xc
 877 032f 39030000 		.4byte	0x339
 878 0333 0D       		.uleb128 0xd
 879 0334 39030000 		.4byte	0x339
 880 0338 00       		.byte	0
 881 0339 0E       		.uleb128 0xe
 882 033a 04       		.byte	0x4
 883 033b 03       		.uleb128 0x3
 884 033c E8030000 		.4byte	.LASF60
 885 0340 06       		.byte	0x6
 886 0341 61       		.byte	0x61
 887 0342 46030000 		.4byte	0x346
 888 0346 0B       		.uleb128 0xb
 889 0347 E4050000 		.4byte	.LASF61
 890 034b 14       		.byte	0x14
 891 034c 07       		.byte	0x7
 892 034d 4501     		.2byte	0x145
 893 034f 95030000 		.4byte	0x395
 894 0353 09       		.uleb128 0x9
 895 0354 E2090000 		.4byte	.LASF52
 896 0358 07       		.byte	0x7
 897 0359 4601     		.2byte	0x146
 898 035b 8E070000 		.4byte	0x78e
 899 035f 00       		.byte	0
 900 0360 09       		.uleb128 0x9
 901 0361 EC090000 		.4byte	.LASF55
 902 0365 07       		.byte	0x7
 903 0366 4701     		.2byte	0x147
 904 0368 8E070000 		.4byte	0x78e
 905 036c 04       		.byte	0x4
 906 036d 09       		.uleb128 0x9
 907 036e F4060000 		.4byte	.LASF62
 908 0372 07       		.byte	0x7
 909 0373 4801     		.2byte	0x148
 910 0375 5D010000 		.4byte	0x15d
ARM GAS  /tmp/cckRYAkY.s 			page 17


 911 0379 08       		.byte	0x8
 912 037a 09       		.uleb128 0x9
 913 037b 18080000 		.4byte	.LASF63
 914 037f 07       		.byte	0x7
 915 0380 4901     		.2byte	0x149
 916 0382 1D030000 		.4byte	0x31d
 917 0386 0C       		.byte	0xc
 918 0387 08       		.uleb128 0x8
 919 0388 70617200 		.ascii	"par\000"
 920 038c 07       		.byte	0x7
 921 038d 4B01     		.2byte	0x14b
 922 038f 39030000 		.4byte	0x339
 923 0393 10       		.byte	0x10
 924 0394 00       		.byte	0
 925 0395 03       		.uleb128 0x3
 926 0396 CC030000 		.4byte	.LASF64
 927 039a 06       		.byte	0x6
 928 039b 66       		.byte	0x66
 929 039c A0030000 		.4byte	0x3a0
 930 03a0 0B       		.uleb128 0xb
 931 03a1 7F000000 		.4byte	.LASF65
 932 03a5 10       		.byte	0x10
 933 03a6 07       		.byte	0x7
 934 03a7 5501     		.2byte	0x155
 935 03a9 E2030000 		.4byte	0x3e2
 936 03ad 09       		.uleb128 0x9
 937 03ae E2090000 		.4byte	.LASF52
 938 03b2 07       		.byte	0x7
 939 03b3 5601     		.2byte	0x156
 940 03b5 8E070000 		.4byte	0x78e
 941 03b9 00       		.byte	0
 942 03ba 09       		.uleb128 0x9
 943 03bb EC090000 		.4byte	.LASF55
 944 03bf 07       		.byte	0x7
 945 03c0 5801     		.2byte	0x158
 946 03c2 8E070000 		.4byte	0x78e
 947 03c6 04       		.byte	0x4
 948 03c7 09       		.uleb128 0x9
 949 03c8 F4060000 		.4byte	.LASF62
 950 03cc 07       		.byte	0x7
 951 03cd 5A01     		.2byte	0x15a
 952 03cf 5D010000 		.4byte	0x15d
 953 03d3 08       		.byte	0x8
 954 03d4 09       		.uleb128 0x9
 955 03d5 FA010000 		.4byte	.LASF66
 956 03d9 07       		.byte	0x7
 957 03da 6201     		.2byte	0x162
 958 03dc 5D010000 		.4byte	0x15d
 959 03e0 0C       		.byte	0xc
 960 03e1 00       		.byte	0
 961 03e2 03       		.uleb128 0x3
 962 03e3 2E020000 		.4byte	.LASF67
 963 03e7 06       		.byte	0x6
 964 03e8 6B       		.byte	0x6b
 965 03e9 ED030000 		.4byte	0x3ed
 966 03ed 0B       		.uleb128 0xb
 967 03ee 50080000 		.4byte	.LASF68
ARM GAS  /tmp/cckRYAkY.s 			page 18


 968 03f2 04       		.byte	0x4
 969 03f3 07       		.byte	0x7
 970 03f4 7C01     		.2byte	0x17c
 971 03f6 08040000 		.4byte	0x408
 972 03fa 09       		.uleb128 0x9
 973 03fb 1A020000 		.4byte	.LASF69
 974 03ff 07       		.byte	0x7
 975 0400 8401     		.2byte	0x184
 976 0402 94070000 		.4byte	0x794
 977 0406 00       		.byte	0
 978 0407 00       		.byte	0
 979 0408 03       		.uleb128 0x3
 980 0409 5A090000 		.4byte	.LASF70
 981 040d 06       		.byte	0x6
 982 040e 70       		.byte	0x70
 983 040f 13040000 		.4byte	0x413
 984 0413 0B       		.uleb128 0xb
 985 0414 C8080000 		.4byte	.LASF71
 986 0418 78       		.byte	0x78
 987 0419 07       		.byte	0x7
 988 041a 9C01     		.2byte	0x19c
 989 041c 61040000 		.4byte	0x461
 990 0420 09       		.uleb128 0x9
 991 0421 70070000 		.4byte	.LASF72
 992 0425 07       		.byte	0x7
 993 0426 A001     		.2byte	0x1a0
 994 0428 B6020000 		.4byte	0x2b6
 995 042c 00       		.byte	0
 996 042d 09       		.uleb128 0x9
 997 042e 8D080000 		.4byte	.LASF73
 998 0432 07       		.byte	0x7
 999 0433 A401     		.2byte	0x1a4
 1000 0435 95030000 		.4byte	0x395
 1001 0439 1C       		.byte	0x1c
 1002 043a 08       		.uleb128 0x8
 1003 043b 64626700 		.ascii	"dbg\000"
 1004 043f 07       		.byte	0x7
 1005 0440 A801     		.2byte	0x1a8
 1006 0442 E2030000 		.4byte	0x3e2
 1007 0446 2C       		.byte	0x2c
 1008 0447 09       		.uleb128 0x9
 1009 0448 2C070000 		.4byte	.LASF74
 1010 044c 07       		.byte	0x7
 1011 044d AC01     		.2byte	0x1ac
 1012 044f 68010000 		.4byte	0x168
 1013 0453 30       		.byte	0x30
 1014 0454 08       		.uleb128 0x8
 1015 0455 746D00   		.ascii	"tm\000"
 1016 0458 07       		.byte	0x7
 1017 0459 B101     		.2byte	0x1b1
 1018 045b A0060000 		.4byte	0x6a0
 1019 045f 74       		.byte	0x74
 1020 0460 00       		.byte	0
 1021 0461 04       		.uleb128 0x4
 1022 0462 04       		.byte	0x4
 1023 0463 07       		.byte	0x7
 1024 0464 2A000000 		.4byte	.LASF75
ARM GAS  /tmp/cckRYAkY.s 			page 19


 1025 0468 0F       		.uleb128 0xf
 1026 0469 E4000000 		.4byte	0xe4
 1027 046d 0F       		.uleb128 0xf
 1028 046e B8000000 		.4byte	0xb8
 1029 0472 10       		.uleb128 0x10
 1030 0473 18       		.byte	0x18
 1031 0474 08       		.byte	0x8
 1032 0475 6B01     		.2byte	0x16b
 1033 0477 C9040000 		.4byte	0x4c9
 1034 047b 08       		.uleb128 0x8
 1035 047c 435200   		.ascii	"CR\000"
 1036 047f 08       		.byte	0x8
 1037 0480 6D01     		.2byte	0x16d
 1038 0482 68040000 		.4byte	0x468
 1039 0486 00       		.byte	0
 1040 0487 09       		.uleb128 0x9
 1041 0488 C8090000 		.4byte	.LASF76
 1042 048c 08       		.byte	0x8
 1043 048d 6E01     		.2byte	0x16e
 1044 048f 68040000 		.4byte	0x468
 1045 0493 04       		.byte	0x4
 1046 0494 08       		.uleb128 0x8
 1047 0495 50415200 		.ascii	"PAR\000"
 1048 0499 08       		.byte	0x8
 1049 049a 6F01     		.2byte	0x16f
 1050 049c 68040000 		.4byte	0x468
 1051 04a0 08       		.byte	0x8
 1052 04a1 09       		.uleb128 0x9
 1053 04a2 B3070000 		.4byte	.LASF77
 1054 04a6 08       		.byte	0x8
 1055 04a7 7001     		.2byte	0x170
 1056 04a9 68040000 		.4byte	0x468
 1057 04ad 0C       		.byte	0xc
 1058 04ae 09       		.uleb128 0x9
 1059 04af 00000000 		.4byte	.LASF78
 1060 04b3 08       		.byte	0x8
 1061 04b4 7101     		.2byte	0x171
 1062 04b6 68040000 		.4byte	0x468
 1063 04ba 10       		.byte	0x10
 1064 04bb 08       		.uleb128 0x8
 1065 04bc 46435200 		.ascii	"FCR\000"
 1066 04c0 08       		.byte	0x8
 1067 04c1 7201     		.2byte	0x172
 1068 04c3 68040000 		.4byte	0x468
 1069 04c7 14       		.byte	0x14
 1070 04c8 00       		.byte	0
 1071 04c9 11       		.uleb128 0x11
 1072 04ca 5C050000 		.4byte	.LASF79
 1073 04ce 08       		.byte	0x8
 1074 04cf 7301     		.2byte	0x173
 1075 04d1 72040000 		.4byte	0x472
 1076 04d5 10       		.uleb128 0x10
 1077 04d6 28       		.byte	0x28
 1078 04d7 08       		.byte	0x8
 1079 04d8 3E02     		.2byte	0x23e
 1080 04da 60050000 		.4byte	0x560
 1081 04de 08       		.uleb128 0x8
ARM GAS  /tmp/cckRYAkY.s 			page 20


 1082 04df 43523100 		.ascii	"CR1\000"
 1083 04e3 08       		.byte	0x8
 1084 04e4 4002     		.2byte	0x240
 1085 04e6 68040000 		.4byte	0x468
 1086 04ea 00       		.byte	0
 1087 04eb 08       		.uleb128 0x8
 1088 04ec 43523200 		.ascii	"CR2\000"
 1089 04f0 08       		.byte	0x8
 1090 04f1 4102     		.2byte	0x241
 1091 04f3 68040000 		.4byte	0x468
 1092 04f7 04       		.byte	0x4
 1093 04f8 09       		.uleb128 0x9
 1094 04f9 7E070000 		.4byte	.LASF80
 1095 04fd 08       		.byte	0x8
 1096 04fe 4202     		.2byte	0x242
 1097 0500 68040000 		.4byte	0x468
 1098 0504 08       		.byte	0x8
 1099 0505 09       		.uleb128 0x9
 1100 0506 83070000 		.4byte	.LASF81
 1101 050a 08       		.byte	0x8
 1102 050b 4302     		.2byte	0x243
 1103 050d 68040000 		.4byte	0x468
 1104 0511 0C       		.byte	0xc
 1105 0512 08       		.uleb128 0x8
 1106 0513 445200   		.ascii	"DR\000"
 1107 0516 08       		.byte	0x8
 1108 0517 4402     		.2byte	0x244
 1109 0519 68040000 		.4byte	0x468
 1110 051d 10       		.byte	0x10
 1111 051e 08       		.uleb128 0x8
 1112 051f 53523100 		.ascii	"SR1\000"
 1113 0523 08       		.byte	0x8
 1114 0524 4502     		.2byte	0x245
 1115 0526 68040000 		.4byte	0x468
 1116 052a 14       		.byte	0x14
 1117 052b 08       		.uleb128 0x8
 1118 052c 53523200 		.ascii	"SR2\000"
 1119 0530 08       		.byte	0x8
 1120 0531 4602     		.2byte	0x246
 1121 0533 68040000 		.4byte	0x468
 1122 0537 18       		.byte	0x18
 1123 0538 08       		.uleb128 0x8
 1124 0539 43435200 		.ascii	"CCR\000"
 1125 053d 08       		.byte	0x8
 1126 053e 4702     		.2byte	0x247
 1127 0540 68040000 		.4byte	0x468
 1128 0544 1C       		.byte	0x1c
 1129 0545 09       		.uleb128 0x9
 1130 0546 E2030000 		.4byte	.LASF82
 1131 054a 08       		.byte	0x8
 1132 054b 4802     		.2byte	0x248
 1133 054d 68040000 		.4byte	0x468
 1134 0551 20       		.byte	0x20
 1135 0552 09       		.uleb128 0x9
 1136 0553 AF040000 		.4byte	.LASF83
 1137 0557 08       		.byte	0x8
 1138 0558 4902     		.2byte	0x249
ARM GAS  /tmp/cckRYAkY.s 			page 21


 1139 055a 68040000 		.4byte	0x468
 1140 055e 24       		.byte	0x24
 1141 055f 00       		.byte	0
 1142 0560 11       		.uleb128 0x11
 1143 0561 11070000 		.4byte	.LASF84
 1144 0565 08       		.byte	0x8
 1145 0566 4A02     		.2byte	0x24a
 1146 0568 D5040000 		.4byte	0x4d5
 1147 056c 10       		.uleb128 0x10
 1148 056d 1C       		.byte	0x1c
 1149 056e 08       		.byte	0x8
 1150 056f 0803     		.2byte	0x308
 1151 0571 CF050000 		.4byte	0x5cf
 1152 0575 08       		.uleb128 0x8
 1153 0576 535200   		.ascii	"SR\000"
 1154 0579 08       		.byte	0x8
 1155 057a 0A03     		.2byte	0x30a
 1156 057c 68040000 		.4byte	0x468
 1157 0580 00       		.byte	0
 1158 0581 08       		.uleb128 0x8
 1159 0582 445200   		.ascii	"DR\000"
 1160 0585 08       		.byte	0x8
 1161 0586 0B03     		.2byte	0x30b
 1162 0588 68040000 		.4byte	0x468
 1163 058c 04       		.byte	0x4
 1164 058d 08       		.uleb128 0x8
 1165 058e 42525200 		.ascii	"BRR\000"
 1166 0592 08       		.byte	0x8
 1167 0593 0C03     		.2byte	0x30c
 1168 0595 68040000 		.4byte	0x468
 1169 0599 08       		.byte	0x8
 1170 059a 08       		.uleb128 0x8
 1171 059b 43523100 		.ascii	"CR1\000"
 1172 059f 08       		.byte	0x8
 1173 05a0 0D03     		.2byte	0x30d
 1174 05a2 68040000 		.4byte	0x468
 1175 05a6 0C       		.byte	0xc
 1176 05a7 08       		.uleb128 0x8
 1177 05a8 43523200 		.ascii	"CR2\000"
 1178 05ac 08       		.byte	0x8
 1179 05ad 0E03     		.2byte	0x30e
 1180 05af 68040000 		.4byte	0x468
 1181 05b3 10       		.byte	0x10
 1182 05b4 08       		.uleb128 0x8
 1183 05b5 43523300 		.ascii	"CR3\000"
 1184 05b9 08       		.byte	0x8
 1185 05ba 0F03     		.2byte	0x30f
 1186 05bc 68040000 		.4byte	0x468
 1187 05c0 14       		.byte	0x14
 1188 05c1 09       		.uleb128 0x9
 1189 05c2 8B040000 		.4byte	.LASF85
 1190 05c6 08       		.byte	0x8
 1191 05c7 1003     		.2byte	0x310
 1192 05c9 68040000 		.4byte	0x468
 1193 05cd 18       		.byte	0x18
 1194 05ce 00       		.byte	0
 1195 05cf 11       		.uleb128 0x11
ARM GAS  /tmp/cckRYAkY.s 			page 22


 1196 05d0 D6020000 		.4byte	.LASF86
 1197 05d4 08       		.byte	0x8
 1198 05d5 1103     		.2byte	0x311
 1199 05d7 6C050000 		.4byte	0x56c
 1200 05db 03       		.uleb128 0x3
 1201 05dc A0010000 		.4byte	.LASF87
 1202 05e0 09       		.byte	0x9
 1203 05e1 65       		.byte	0x65
 1204 05e2 39030000 		.4byte	0x339
 1205 05e6 03       		.uleb128 0x3
 1206 05e7 CB020000 		.4byte	.LASF88
 1207 05eb 09       		.byte	0x9
 1208 05ec 6D       		.byte	0x6d
 1209 05ed EF000000 		.4byte	0xef
 1210 05f1 05       		.uleb128 0x5
 1211 05f2 AC080000 		.4byte	.LASF89
 1212 05f6 04       		.byte	0x4
 1213 05f7 09       		.byte	0x9
 1214 05f8 89       		.byte	0x89
 1215 05f9 09060000 		.4byte	0x609
 1216 05fd 07       		.uleb128 0x7
 1217 05fe 737000   		.ascii	"sp\000"
 1218 0601 09       		.byte	0x9
 1219 0602 8A       		.byte	0x8a
 1220 0603 85060000 		.4byte	0x685
 1221 0607 00       		.byte	0
 1222 0608 00       		.byte	0
 1223 0609 0B       		.uleb128 0xb
 1224 060a B7050000 		.4byte	.LASF90
 1225 060e 24       		.byte	0x24
 1226 060f 0A       		.byte	0xa
 1227 0610 5901     		.2byte	0x159
 1228 0612 85060000 		.4byte	0x685
 1229 0616 08       		.uleb128 0x8
 1230 0617 723400   		.ascii	"r4\000"
 1231 061a 0A       		.byte	0xa
 1232 061b 6C01     		.2byte	0x16c
 1233 061d DB050000 		.4byte	0x5db
 1234 0621 00       		.byte	0
 1235 0622 08       		.uleb128 0x8
 1236 0623 723500   		.ascii	"r5\000"
 1237 0626 0A       		.byte	0xa
 1238 0627 6D01     		.2byte	0x16d
 1239 0629 DB050000 		.4byte	0x5db
 1240 062d 04       		.byte	0x4
 1241 062e 08       		.uleb128 0x8
 1242 062f 723600   		.ascii	"r6\000"
 1243 0632 0A       		.byte	0xa
 1244 0633 6E01     		.2byte	0x16e
 1245 0635 DB050000 		.4byte	0x5db
 1246 0639 08       		.byte	0x8
 1247 063a 08       		.uleb128 0x8
 1248 063b 723700   		.ascii	"r7\000"
 1249 063e 0A       		.byte	0xa
 1250 063f 6F01     		.2byte	0x16f
 1251 0641 DB050000 		.4byte	0x5db
 1252 0645 0C       		.byte	0xc
ARM GAS  /tmp/cckRYAkY.s 			page 23


 1253 0646 08       		.uleb128 0x8
 1254 0647 723800   		.ascii	"r8\000"
 1255 064a 0A       		.byte	0xa
 1256 064b 7001     		.2byte	0x170
 1257 064d DB050000 		.4byte	0x5db
 1258 0651 10       		.byte	0x10
 1259 0652 08       		.uleb128 0x8
 1260 0653 723900   		.ascii	"r9\000"
 1261 0656 0A       		.byte	0xa
 1262 0657 7101     		.2byte	0x171
 1263 0659 DB050000 		.4byte	0x5db
 1264 065d 14       		.byte	0x14
 1265 065e 08       		.uleb128 0x8
 1266 065f 72313000 		.ascii	"r10\000"
 1267 0663 0A       		.byte	0xa
 1268 0664 7201     		.2byte	0x172
 1269 0666 DB050000 		.4byte	0x5db
 1270 066a 18       		.byte	0x18
 1271 066b 08       		.uleb128 0x8
 1272 066c 72313100 		.ascii	"r11\000"
 1273 0670 0A       		.byte	0xa
 1274 0671 7301     		.2byte	0x173
 1275 0673 DB050000 		.4byte	0x5db
 1276 0677 1C       		.byte	0x1c
 1277 0678 08       		.uleb128 0x8
 1278 0679 6C7200   		.ascii	"lr\000"
 1279 067c 0A       		.byte	0xa
 1280 067d 7401     		.2byte	0x174
 1281 067f DB050000 		.4byte	0x5db
 1282 0683 20       		.byte	0x20
 1283 0684 00       		.byte	0
 1284 0685 0A       		.uleb128 0xa
 1285 0686 04       		.byte	0x4
 1286 0687 09060000 		.4byte	0x609
 1287 068b 12       		.uleb128 0x12
 1288 068c 04       		.byte	0x4
 1289 068d 0B       		.byte	0xb
 1290 068e 38       		.byte	0x38
 1291 068f A0060000 		.4byte	0x6a0
 1292 0693 06       		.uleb128 0x6
 1293 0694 46050000 		.4byte	.LASF91
 1294 0698 0B       		.byte	0xb
 1295 0699 3C       		.byte	0x3c
 1296 069a FA000000 		.4byte	0xfa
 1297 069e 00       		.byte	0
 1298 069f 00       		.byte	0
 1299 06a0 03       		.uleb128 0x3
 1300 06a1 9B070000 		.4byte	.LASF92
 1301 06a5 0B       		.byte	0xb
 1302 06a6 3D       		.byte	0x3d
 1303 06a7 8B060000 		.4byte	0x68b
 1304 06ab 13       		.uleb128 0x13
 1305 06ac 04       		.byte	0x4
 1306 06ad 07       		.byte	0x7
 1307 06ae D2       		.byte	0xd2
 1308 06af 0E070000 		.4byte	0x70e
 1309 06b3 14       		.uleb128 0x14
ARM GAS  /tmp/cckRYAkY.s 			page 24


 1310 06b4 1A090000 		.4byte	.LASF93
 1311 06b8 07       		.byte	0x7
 1312 06b9 D9       		.byte	0xd9
 1313 06ba 31010000 		.4byte	0x131
 1314 06be 14       		.uleb128 0x14
 1315 06bf FC000000 		.4byte	.LASF94
 1316 06c3 07       		.byte	0x7
 1317 06c4 E0       		.byte	0xe0
 1318 06c5 31010000 		.4byte	0x131
 1319 06c9 14       		.uleb128 0x14
 1320 06ca AB020000 		.4byte	.LASF95
 1321 06ce 07       		.byte	0x7
 1322 06cf E7       		.byte	0xe7
 1323 06d0 39030000 		.4byte	0x339
 1324 06d4 14       		.uleb128 0x14
 1325 06d5 DF010000 		.4byte	.LASF96
 1326 06d9 07       		.byte	0x7
 1327 06da EE       		.byte	0xee
 1328 06db 0E070000 		.4byte	0x70e
 1329 06df 14       		.uleb128 0x14
 1330 06e0 AF050000 		.4byte	.LASF97
 1331 06e4 07       		.byte	0x7
 1332 06e5 F3       		.byte	0xf3
 1333 06e6 31010000 		.4byte	0x131
 1334 06ea 14       		.uleb128 0x14
 1335 06eb 33000000 		.4byte	.LASF98
 1336 06ef 07       		.byte	0x7
 1337 06f0 FC       		.byte	0xfc
 1338 06f1 39070000 		.4byte	0x739
 1339 06f5 15       		.uleb128 0x15
 1340 06f6 4A030000 		.4byte	.LASF99
 1341 06fa 07       		.byte	0x7
 1342 06fb 0501     		.2byte	0x105
 1343 06fd 70070000 		.4byte	0x770
 1344 0701 15       		.uleb128 0x15
 1345 0702 C4010000 		.4byte	.LASF100
 1346 0706 07       		.byte	0x7
 1347 0707 0D01     		.2byte	0x10d
 1348 0709 3C010000 		.4byte	0x13c
 1349 070d 00       		.byte	0
 1350 070e 0A       		.uleb128 0xa
 1351 070f 04       		.byte	0x4
 1352 0710 51020000 		.4byte	0x251
 1353 0714 05       		.uleb128 0x5
 1354 0715 B5030000 		.4byte	.LASF101
 1355 0719 0C       		.byte	0xc
 1356 071a 0C       		.byte	0xc
 1357 071b 34       		.byte	0x34
 1358 071c 39070000 		.4byte	0x739
 1359 0720 06       		.uleb128 0x6
 1360 0721 04070000 		.4byte	.LASF33
 1361 0725 0C       		.byte	0xc
 1362 0726 35       		.byte	0x35
 1363 0727 86020000 		.4byte	0x286
 1364 072b 00       		.byte	0
 1365 072c 07       		.uleb128 0x7
 1366 072d 636E7400 		.ascii	"cnt\000"
ARM GAS  /tmp/cckRYAkY.s 			page 25


 1367 0731 0C       		.byte	0xc
 1368 0732 37       		.byte	0x37
 1369 0733 52010000 		.4byte	0x152
 1370 0737 08       		.byte	0x8
 1371 0738 00       		.byte	0
 1372 0739 0A       		.uleb128 0xa
 1373 073a 04       		.byte	0x4
 1374 073b 14070000 		.4byte	0x714
 1375 073f 05       		.uleb128 0x5
 1376 0740 1D080000 		.4byte	.LASF102
 1377 0744 10       		.byte	0x10
 1378 0745 0D       		.byte	0xd
 1379 0746 39       		.byte	0x39
 1380 0747 70070000 		.4byte	0x770
 1381 074b 06       		.uleb128 0x6
 1382 074c 04070000 		.4byte	.LASF33
 1383 0750 0D       		.byte	0xd
 1384 0751 3A       		.byte	0x3a
 1385 0752 86020000 		.4byte	0x286
 1386 0756 00       		.byte	0
 1387 0757 06       		.uleb128 0x6
 1388 0758 44000000 		.4byte	.LASF103
 1389 075c 0D       		.byte	0xd
 1390 075d 3C       		.byte	0x3c
 1391 075e 5C020000 		.4byte	0x25c
 1392 0762 08       		.byte	0x8
 1393 0763 06       		.uleb128 0x6
 1394 0764 E2090000 		.4byte	.LASF52
 1395 0768 0D       		.byte	0xd
 1396 0769 3E       		.byte	0x3e
 1397 076a A4070000 		.4byte	0x7a4
 1398 076e 0C       		.byte	0xc
 1399 076f 00       		.byte	0
 1400 0770 0A       		.uleb128 0xa
 1401 0771 04       		.byte	0x4
 1402 0772 3F070000 		.4byte	0x73f
 1403 0776 0A       		.uleb128 0xa
 1404 0777 04       		.byte	0x4
 1405 0778 7C070000 		.4byte	0x77c
 1406 077c 16       		.uleb128 0x16
 1407 077d 81070000 		.4byte	0x781
 1408 0781 04       		.uleb128 0x4
 1409 0782 01       		.byte	0x1
 1410 0783 08       		.byte	0x8
 1411 0784 7E020000 		.4byte	.LASF104
 1412 0788 0A       		.uleb128 0xa
 1413 0789 04       		.byte	0x4
 1414 078a E6050000 		.4byte	0x5e6
 1415 078e 0A       		.uleb128 0xa
 1416 078f 04       		.byte	0x4
 1417 0790 3B030000 		.4byte	0x33b
 1418 0794 0F       		.uleb128 0xf
 1419 0795 76070000 		.4byte	0x776
 1420 0799 03       		.uleb128 0x3
 1421 079a 9C080000 		.4byte	.LASF105
 1422 079e 0D       		.byte	0xd
 1423 079f 34       		.byte	0x34
ARM GAS  /tmp/cckRYAkY.s 			page 26


 1424 07a0 3F070000 		.4byte	0x73f
 1425 07a4 0A       		.uleb128 0xa
 1426 07a5 04       		.byte	0x4
 1427 07a6 99070000 		.4byte	0x799
 1428 07aa 03       		.uleb128 0x3
 1429 07ab 0A030000 		.4byte	.LASF106
 1430 07af 0E       		.byte	0xe
 1431 07b0 34       		.byte	0x34
 1432 07b1 B5070000 		.4byte	0x7b5
 1433 07b5 05       		.uleb128 0x5
 1434 07b6 02090000 		.4byte	.LASF107
 1435 07ba 14       		.byte	0x14
 1436 07bb 0E       		.byte	0xe
 1437 07bc 39       		.byte	0x39
 1438 07bd FE070000 		.4byte	0x7fe
 1439 07c1 06       		.uleb128 0x6
 1440 07c2 E2090000 		.4byte	.LASF52
 1441 07c6 0E       		.byte	0xe
 1442 07c7 3A       		.byte	0x3a
 1443 07c8 FE070000 		.4byte	0x7fe
 1444 07cc 00       		.byte	0
 1445 07cd 06       		.uleb128 0x6
 1446 07ce BD070000 		.4byte	.LASF108
 1447 07d2 0E       		.byte	0xe
 1448 07d3 3D       		.byte	0x3d
 1449 07d4 5C020000 		.4byte	0x25c
 1450 07d8 04       		.byte	0x4
 1451 07d9 06       		.uleb128 0x6
 1452 07da DB090000 		.4byte	.LASF109
 1453 07de 0E       		.byte	0xe
 1454 07df 3F       		.byte	0x3f
 1455 07e0 3C010000 		.4byte	0x13c
 1456 07e4 08       		.byte	0x8
 1457 07e5 06       		.uleb128 0x6
 1458 07e6 C0020000 		.4byte	.LASF40
 1459 07ea 0E       		.byte	0xe
 1460 07eb 41       		.byte	0x41
 1461 07ec 47010000 		.4byte	0x147
 1462 07f0 0C       		.byte	0xc
 1463 07f1 06       		.uleb128 0x6
 1464 07f2 80050000 		.4byte	.LASF110
 1465 07f6 0E       		.byte	0xe
 1466 07f7 43       		.byte	0x43
 1467 07f8 47010000 		.4byte	0x147
 1468 07fc 10       		.byte	0x10
 1469 07fd 00       		.byte	0
 1470 07fe 0A       		.uleb128 0xa
 1471 07ff 04       		.byte	0x4
 1472 0800 AA070000 		.4byte	0x7aa
 1473 0804 05       		.uleb128 0x5
 1474 0805 DD070000 		.4byte	.LASF111
 1475 0809 04       		.byte	0x4
 1476 080a 0E       		.byte	0xe
 1477 080b 4A       		.byte	0x4a
 1478 080c 1D080000 		.4byte	0x81d
 1479 0810 06       		.uleb128 0x6
 1480 0811 E2090000 		.4byte	.LASF52
ARM GAS  /tmp/cckRYAkY.s 			page 27


 1481 0815 0E       		.byte	0xe
 1482 0816 4B       		.byte	0x4b
 1483 0817 FE070000 		.4byte	0x7fe
 1484 081b 00       		.byte	0
 1485 081c 00       		.byte	0
 1486 081d 03       		.uleb128 0x3
 1487 081e 90040000 		.4byte	.LASF112
 1488 0822 0E       		.byte	0xe
 1489 0823 4E       		.byte	0x4e
 1490 0824 04080000 		.4byte	0x804
 1491 0828 04       		.uleb128 0x4
 1492 0829 01       		.byte	0x1
 1493 082a 02       		.byte	0x2
 1494 082b 55020000 		.4byte	.LASF113
 1495 082f 0A       		.uleb128 0xa
 1496 0830 04       		.byte	0x4
 1497 0831 B8000000 		.4byte	0xb8
 1498 0835 10       		.uleb128 0x10
 1499 0836 0C       		.byte	0xc
 1500 0837 0F       		.byte	0xf
 1501 0838 6D01     		.2byte	0x16d
 1502 083a 80080000 		.4byte	0x880
 1503 083e 09       		.uleb128 0x9
 1504 083f 03030000 		.4byte	.LASF114
 1505 0843 0F       		.byte	0xf
 1506 0844 6E01     		.2byte	0x16e
 1507 0846 80080000 		.4byte	0x880
 1508 084a 00       		.byte	0
 1509 084b 09       		.uleb128 0x9
 1510 084c CD090000 		.4byte	.LASF115
 1511 0850 0F       		.byte	0xf
 1512 0851 6F01     		.2byte	0x16f
 1513 0853 86080000 		.4byte	0x886
 1514 0857 04       		.byte	0x4
 1515 0858 09       		.uleb128 0x9
 1516 0859 89020000 		.4byte	.LASF116
 1517 085d 0F       		.byte	0xf
 1518 085e 7001     		.2byte	0x170
 1519 0860 B8000000 		.4byte	0xb8
 1520 0864 08       		.byte	0x8
 1521 0865 09       		.uleb128 0x9
 1522 0866 0C050000 		.4byte	.LASF117
 1523 086a 0F       		.byte	0xf
 1524 086b 7201     		.2byte	0x172
 1525 086d B8000000 		.4byte	0xb8
 1526 0871 09       		.byte	0x9
 1527 0872 09       		.uleb128 0x9
 1528 0873 0A070000 		.4byte	.LASF118
 1529 0877 0F       		.byte	0xf
 1530 0878 7301     		.2byte	0x173
 1531 087a B8000000 		.4byte	0xb8
 1532 087e 0A       		.byte	0xa
 1533 087f 00       		.byte	0
 1534 0880 0A       		.uleb128 0xa
 1535 0881 04       		.byte	0x4
 1536 0882 C9040000 		.4byte	0x4c9
 1537 0886 0A       		.uleb128 0xa
ARM GAS  /tmp/cckRYAkY.s 			page 28


 1538 0887 04       		.byte	0x4
 1539 0888 68040000 		.4byte	0x468
 1540 088c 11       		.uleb128 0x11
 1541 088d 05000000 		.4byte	.LASF119
 1542 0891 0F       		.byte	0xf
 1543 0892 7401     		.2byte	0x174
 1544 0894 35080000 		.4byte	0x835
 1545 0898 17       		.uleb128 0x17
 1546 0899 2C000000 		.4byte	0x2c
 1547 089d B1080000 		.4byte	0x8b1
 1548 08a1 0D       		.uleb128 0xd
 1549 08a2 39030000 		.4byte	0x339
 1550 08a6 0D       		.uleb128 0xd
 1551 08a7 B1080000 		.4byte	0x8b1
 1552 08ab 0D       		.uleb128 0xd
 1553 08ac 2C000000 		.4byte	0x2c
 1554 08b0 00       		.byte	0
 1555 08b1 0A       		.uleb128 0xa
 1556 08b2 04       		.byte	0x4
 1557 08b3 B7080000 		.4byte	0x8b7
 1558 08b7 16       		.uleb128 0x16
 1559 08b8 B8000000 		.4byte	0xb8
 1560 08bc 0A       		.uleb128 0xa
 1561 08bd 04       		.byte	0x4
 1562 08be 98080000 		.4byte	0x898
 1563 08c2 17       		.uleb128 0x17
 1564 08c3 2C000000 		.4byte	0x2c
 1565 08c7 DB080000 		.4byte	0x8db
 1566 08cb 0D       		.uleb128 0xd
 1567 08cc 39030000 		.4byte	0x339
 1568 08d0 0D       		.uleb128 0xd
 1569 08d1 2F080000 		.4byte	0x82f
 1570 08d5 0D       		.uleb128 0xd
 1571 08d6 2C000000 		.4byte	0x2c
 1572 08da 00       		.byte	0
 1573 08db 0A       		.uleb128 0xa
 1574 08dc 04       		.byte	0x4
 1575 08dd C2080000 		.4byte	0x8c2
 1576 08e1 17       		.uleb128 0x17
 1577 08e2 31010000 		.4byte	0x131
 1578 08e6 F5080000 		.4byte	0x8f5
 1579 08ea 0D       		.uleb128 0xd
 1580 08eb 39030000 		.4byte	0x339
 1581 08ef 0D       		.uleb128 0xd
 1582 08f0 B8000000 		.4byte	0xb8
 1583 08f4 00       		.byte	0
 1584 08f5 0A       		.uleb128 0xa
 1585 08f6 04       		.byte	0x4
 1586 08f7 E1080000 		.4byte	0x8e1
 1587 08fb 17       		.uleb128 0x17
 1588 08fc 31010000 		.4byte	0x131
 1589 0900 0A090000 		.4byte	0x90a
 1590 0904 0D       		.uleb128 0xd
 1591 0905 39030000 		.4byte	0x339
 1592 0909 00       		.byte	0
 1593 090a 0A       		.uleb128 0xa
 1594 090b 04       		.byte	0x4
ARM GAS  /tmp/cckRYAkY.s 			page 29


 1595 090c FB080000 		.4byte	0x8fb
 1596 0910 17       		.uleb128 0x17
 1597 0911 31010000 		.4byte	0x131
 1598 0915 29090000 		.4byte	0x929
 1599 0919 0D       		.uleb128 0xd
 1600 091a 39030000 		.4byte	0x339
 1601 091e 0D       		.uleb128 0xd
 1602 091f B8000000 		.4byte	0xb8
 1603 0923 0D       		.uleb128 0xd
 1604 0924 5D010000 		.4byte	0x15d
 1605 0928 00       		.byte	0
 1606 0929 0A       		.uleb128 0xa
 1607 092a 04       		.byte	0x4
 1608 092b 10090000 		.4byte	0x910
 1609 092f 17       		.uleb128 0x17
 1610 0930 31010000 		.4byte	0x131
 1611 0934 43090000 		.4byte	0x943
 1612 0938 0D       		.uleb128 0xd
 1613 0939 39030000 		.4byte	0x339
 1614 093d 0D       		.uleb128 0xd
 1615 093e 5D010000 		.4byte	0x15d
 1616 0942 00       		.byte	0
 1617 0943 0A       		.uleb128 0xa
 1618 0944 04       		.byte	0x4
 1619 0945 2F090000 		.4byte	0x92f
 1620 0949 17       		.uleb128 0x17
 1621 094a 2C000000 		.4byte	0x2c
 1622 094e 67090000 		.4byte	0x967
 1623 0952 0D       		.uleb128 0xd
 1624 0953 39030000 		.4byte	0x339
 1625 0957 0D       		.uleb128 0xd
 1626 0958 B1080000 		.4byte	0x8b1
 1627 095c 0D       		.uleb128 0xd
 1628 095d 2C000000 		.4byte	0x2c
 1629 0961 0D       		.uleb128 0xd
 1630 0962 5D010000 		.4byte	0x15d
 1631 0966 00       		.byte	0
 1632 0967 0A       		.uleb128 0xa
 1633 0968 04       		.byte	0x4
 1634 0969 49090000 		.4byte	0x949
 1635 096d 17       		.uleb128 0x17
 1636 096e 2C000000 		.4byte	0x2c
 1637 0972 8B090000 		.4byte	0x98b
 1638 0976 0D       		.uleb128 0xd
 1639 0977 39030000 		.4byte	0x339
 1640 097b 0D       		.uleb128 0xd
 1641 097c 2F080000 		.4byte	0x82f
 1642 0980 0D       		.uleb128 0xd
 1643 0981 2C000000 		.4byte	0x2c
 1644 0985 0D       		.uleb128 0xd
 1645 0986 5D010000 		.4byte	0x15d
 1646 098a 00       		.byte	0
 1647 098b 0A       		.uleb128 0xa
 1648 098c 04       		.byte	0x4
 1649 098d 6D090000 		.4byte	0x96d
 1650 0991 0F       		.uleb128 0xf
 1651 0992 2C000000 		.4byte	0x2c
ARM GAS  /tmp/cckRYAkY.s 			page 30


 1652 0996 03       		.uleb128 0x3
 1653 0997 7D080000 		.4byte	.LASF120
 1654 099b 10       		.byte	0x10
 1655 099c 2A       		.byte	0x2a
 1656 099d A1090000 		.4byte	0x9a1
 1657 09a1 05       		.uleb128 0x5
 1658 09a2 A9010000 		.4byte	.LASF121
 1659 09a6 24       		.byte	0x24
 1660 09a7 10       		.byte	0x10
 1661 09a8 3B       		.byte	0x3b
 1662 09a9 0E0A0000 		.4byte	0xa0e
 1663 09ad 06       		.uleb128 0x6
 1664 09ae 66070000 		.4byte	.LASF122
 1665 09b2 10       		.byte	0x10
 1666 09b3 3C       		.byte	0x3c
 1667 09b4 86020000 		.4byte	0x286
 1668 09b8 00       		.byte	0
 1669 09b9 06       		.uleb128 0x6
 1670 09ba 8E030000 		.4byte	.LASF123
 1671 09be 10       		.byte	0x10
 1672 09bf 3D       		.byte	0x3d
 1673 09c0 91090000 		.4byte	0x991
 1674 09c4 08       		.byte	0x8
 1675 09c5 06       		.uleb128 0x6
 1676 09c6 34010000 		.4byte	.LASF124
 1677 09ca 10       		.byte	0x10
 1678 09cb 3E       		.byte	0x3e
 1679 09cc 2F080000 		.4byte	0x82f
 1680 09d0 0C       		.byte	0xc
 1681 09d1 06       		.uleb128 0x6
 1682 09d2 19010000 		.4byte	.LASF125
 1683 09d6 10       		.byte	0x10
 1684 09d7 3F       		.byte	0x3f
 1685 09d8 2F080000 		.4byte	0x82f
 1686 09dc 10       		.byte	0x10
 1687 09dd 06       		.uleb128 0x6
 1688 09de 21090000 		.4byte	.LASF126
 1689 09e2 10       		.byte	0x10
 1690 09e3 41       		.byte	0x41
 1691 09e4 2F080000 		.4byte	0x82f
 1692 09e8 14       		.byte	0x14
 1693 09e9 06       		.uleb128 0x6
 1694 09ea 63010000 		.4byte	.LASF127
 1695 09ee 10       		.byte	0x10
 1696 09ef 42       		.byte	0x42
 1697 09f0 2F080000 		.4byte	0x82f
 1698 09f4 18       		.byte	0x18
 1699 09f5 06       		.uleb128 0x6
 1700 09f6 47010000 		.4byte	.LASF128
 1701 09fa 10       		.byte	0x10
 1702 09fb 43       		.byte	0x43
 1703 09fc 0E0A0000 		.4byte	0xa0e
 1704 0a00 1C       		.byte	0x1c
 1705 0a01 06       		.uleb128 0x6
 1706 0a02 F3010000 		.4byte	.LASF129
 1707 0a06 10       		.byte	0x10
 1708 0a07 44       		.byte	0x44
ARM GAS  /tmp/cckRYAkY.s 			page 31


 1709 0a08 39030000 		.4byte	0x339
 1710 0a0c 20       		.byte	0x20
 1711 0a0d 00       		.byte	0
 1712 0a0e 03       		.uleb128 0x3
 1713 0a0f E1040000 		.4byte	.LASF130
 1714 0a13 10       		.byte	0x10
 1715 0a14 31       		.byte	0x31
 1716 0a15 190A0000 		.4byte	0xa19
 1717 0a19 0A       		.uleb128 0xa
 1718 0a1a 04       		.byte	0x4
 1719 0a1b 1F0A0000 		.4byte	0xa1f
 1720 0a1f 0C       		.uleb128 0xc
 1721 0a20 2A0A0000 		.4byte	0xa2a
 1722 0a24 0D       		.uleb128 0xd
 1723 0a25 2A0A0000 		.4byte	0xa2a
 1724 0a29 00       		.byte	0
 1725 0a2a 0A       		.uleb128 0xa
 1726 0a2b 04       		.byte	0x4
 1727 0a2c 96090000 		.4byte	0x996
 1728 0a30 03       		.uleb128 0x3
 1729 0a31 E9080000 		.4byte	.LASF131
 1730 0a35 10       		.byte	0x10
 1731 0a36 7A       		.byte	0x7a
 1732 0a37 96090000 		.4byte	0x996
 1733 0a3b 03       		.uleb128 0x3
 1734 0a3c 66090000 		.4byte	.LASF132
 1735 0a40 10       		.byte	0x10
 1736 0a41 CA       		.byte	0xca
 1737 0a42 96090000 		.4byte	0x996
 1738 0a46 12       		.uleb128 0x12
 1739 0a47 04       		.byte	0x4
 1740 0a48 11       		.byte	0x11
 1741 0a49 E7       		.byte	0xe7
 1742 0a4a 670A0000 		.4byte	0xa67
 1743 0a4e 07       		.uleb128 0x7
 1744 0a4f 73657400 		.ascii	"set\000"
 1745 0a53 11       		.byte	0x11
 1746 0a54 E8       		.byte	0xe8
 1747 0a55 CE000000 		.4byte	0xce
 1748 0a59 00       		.byte	0
 1749 0a5a 06       		.uleb128 0x6
 1750 0a5b 7E030000 		.4byte	.LASF133
 1751 0a5f 11       		.byte	0x11
 1752 0a60 E9       		.byte	0xe9
 1753 0a61 CE000000 		.4byte	0xce
 1754 0a65 02       		.byte	0x2
 1755 0a66 00       		.byte	0
 1756 0a67 13       		.uleb128 0x13
 1757 0a68 04       		.byte	0x4
 1758 0a69 11       		.byte	0x11
 1759 0a6a E5       		.byte	0xe5
 1760 0a6b 820A0000 		.4byte	0xa82
 1761 0a6f 18       		.uleb128 0x18
 1762 0a70 5700     		.ascii	"W\000"
 1763 0a72 11       		.byte	0x11
 1764 0a73 E6       		.byte	0xe6
 1765 0a74 E4000000 		.4byte	0xe4
ARM GAS  /tmp/cckRYAkY.s 			page 32


 1766 0a78 18       		.uleb128 0x18
 1767 0a79 4800     		.ascii	"H\000"
 1768 0a7b 11       		.byte	0x11
 1769 0a7c EA       		.byte	0xea
 1770 0a7d 460A0000 		.4byte	0xa46
 1771 0a81 00       		.byte	0
 1772 0a82 12       		.uleb128 0x12
 1773 0a83 2C       		.byte	0x2c
 1774 0a84 11       		.byte	0x11
 1775 0a85 DD       		.byte	0xdd
 1776 0a86 0F0B0000 		.4byte	0xb0f
 1777 0a8a 06       		.uleb128 0x6
 1778 0a8b FC040000 		.4byte	.LASF134
 1779 0a8f 11       		.byte	0x11
 1780 0a90 DF       		.byte	0xdf
 1781 0a91 68040000 		.4byte	0x468
 1782 0a95 00       		.byte	0
 1783 0a96 06       		.uleb128 0x6
 1784 0a97 5F070000 		.4byte	.LASF135
 1785 0a9b 11       		.byte	0x11
 1786 0a9c E0       		.byte	0xe0
 1787 0a9d 68040000 		.4byte	0x468
 1788 0aa1 04       		.byte	0x4
 1789 0aa2 06       		.uleb128 0x6
 1790 0aa3 29040000 		.4byte	.LASF136
 1791 0aa7 11       		.byte	0x11
 1792 0aa8 E1       		.byte	0xe1
 1793 0aa9 68040000 		.4byte	0x468
 1794 0aad 08       		.byte	0x8
 1795 0aae 06       		.uleb128 0x6
 1796 0aaf 85040000 		.4byte	.LASF137
 1797 0ab3 11       		.byte	0x11
 1798 0ab4 E2       		.byte	0xe2
 1799 0ab5 68040000 		.4byte	0x468
 1800 0ab9 0C       		.byte	0xc
 1801 0aba 07       		.uleb128 0x7
 1802 0abb 49445200 		.ascii	"IDR\000"
 1803 0abf 11       		.byte	0x11
 1804 0ac0 E3       		.byte	0xe3
 1805 0ac1 68040000 		.4byte	0x468
 1806 0ac5 10       		.byte	0x10
 1807 0ac6 07       		.uleb128 0x7
 1808 0ac7 4F445200 		.ascii	"ODR\000"
 1809 0acb 11       		.byte	0x11
 1810 0acc E4       		.byte	0xe4
 1811 0acd 68040000 		.4byte	0x468
 1812 0ad1 14       		.byte	0x14
 1813 0ad2 06       		.uleb128 0x6
 1814 0ad3 88080000 		.4byte	.LASF138
 1815 0ad7 11       		.byte	0x11
 1816 0ad8 EB       		.byte	0xeb
 1817 0ad9 0F0B0000 		.4byte	0xb0f
 1818 0add 18       		.byte	0x18
 1819 0ade 06       		.uleb128 0x6
 1820 0adf 0B040000 		.4byte	.LASF139
 1821 0ae3 11       		.byte	0x11
 1822 0ae4 EC       		.byte	0xec
ARM GAS  /tmp/cckRYAkY.s 			page 33


 1823 0ae5 68040000 		.4byte	0x468
 1824 0ae9 1C       		.byte	0x1c
 1825 0aea 06       		.uleb128 0x6
 1826 0aeb 07050000 		.4byte	.LASF140
 1827 0aef 11       		.byte	0x11
 1828 0af0 ED       		.byte	0xed
 1829 0af1 68040000 		.4byte	0x468
 1830 0af5 20       		.byte	0x20
 1831 0af6 06       		.uleb128 0x6
 1832 0af7 FA060000 		.4byte	.LASF141
 1833 0afb 11       		.byte	0x11
 1834 0afc EE       		.byte	0xee
 1835 0afd 68040000 		.4byte	0x468
 1836 0b01 24       		.byte	0x24
 1837 0b02 07       		.uleb128 0x7
 1838 0b03 42525200 		.ascii	"BRR\000"
 1839 0b07 11       		.byte	0x11
 1840 0b08 EF       		.byte	0xef
 1841 0b09 68040000 		.4byte	0x468
 1842 0b0d 28       		.byte	0x28
 1843 0b0e 00       		.byte	0
 1844 0b0f 0F       		.uleb128 0xf
 1845 0b10 670A0000 		.4byte	0xa67
 1846 0b14 03       		.uleb128 0x3
 1847 0b15 03020000 		.4byte	.LASF142
 1848 0b19 11       		.byte	0x11
 1849 0b1a F0       		.byte	0xf0
 1850 0b1b 820A0000 		.4byte	0xa82
 1851 0b1f 11       		.uleb128 0x11
 1852 0b20 1B030000 		.4byte	.LASF143
 1853 0b24 11       		.byte	0x11
 1854 0b25 3F01     		.2byte	0x13f
 1855 0b27 E4000000 		.4byte	0xe4
 1856 0b2b 19       		.uleb128 0x19
 1857 0b2c 01       		.byte	0x1
 1858 0b2d 12       		.byte	0x12
 1859 0b2e 4C       		.byte	0x4c
 1860 0b2f 580B0000 		.4byte	0xb58
 1861 0b33 1A       		.uleb128 0x1a
 1862 0b34 6F040000 		.4byte	.LASF144
 1863 0b38 00       		.sleb128 0
 1864 0b39 1A       		.uleb128 0x1a
 1865 0b3a D2090000 		.4byte	.LASF145
 1866 0b3e 01       		.sleb128 1
 1867 0b3f 1A       		.uleb128 0x1a
 1868 0b40 3C050000 		.4byte	.LASF146
 1869 0b44 02       		.sleb128 2
 1870 0b45 1A       		.uleb128 0x1a
 1871 0b46 EF020000 		.4byte	.LASF147
 1872 0b4a 03       		.sleb128 3
 1873 0b4b 1A       		.uleb128 0x1a
 1874 0b4c 47020000 		.4byte	.LASF148
 1875 0b50 04       		.sleb128 4
 1876 0b51 1A       		.uleb128 0x1a
 1877 0b52 68030000 		.4byte	.LASF149
 1878 0b56 05       		.sleb128 5
 1879 0b57 00       		.byte	0
ARM GAS  /tmp/cckRYAkY.s 			page 34


 1880 0b58 03       		.uleb128 0x3
 1881 0b59 B4040000 		.4byte	.LASF150
 1882 0b5d 12       		.byte	0x12
 1883 0b5e 53       		.byte	0x53
 1884 0b5f 2B0B0000 		.4byte	0xb2b
 1885 0b63 11       		.uleb128 0x11
 1886 0b64 0F010000 		.4byte	.LASF151
 1887 0b68 13       		.byte	0x13
 1888 0b69 6A01     		.2byte	0x16a
 1889 0b6b CE000000 		.4byte	0xce
 1890 0b6f 11       		.uleb128 0x11
 1891 0b70 F7080000 		.4byte	.LASF152
 1892 0b74 13       		.byte	0x13
 1893 0b75 6F01     		.2byte	0x16f
 1894 0b77 E4000000 		.4byte	0xe4
 1895 0b7b 1B       		.uleb128 0x1b
 1896 0b7c 01       		.byte	0x1
 1897 0b7d 13       		.byte	0x13
 1898 0b7e 7401     		.2byte	0x174
 1899 0b80 970B0000 		.4byte	0xb97
 1900 0b84 1A       		.uleb128 0x1a
 1901 0b85 73020000 		.4byte	.LASF153
 1902 0b89 01       		.sleb128 1
 1903 0b8a 1A       		.uleb128 0x1a
 1904 0b8b E0060000 		.4byte	.LASF154
 1905 0b8f 02       		.sleb128 2
 1906 0b90 1A       		.uleb128 0x1a
 1907 0b91 3E080000 		.4byte	.LASF155
 1908 0b95 03       		.sleb128 3
 1909 0b96 00       		.byte	0
 1910 0b97 11       		.uleb128 0x11
 1911 0b98 9C060000 		.4byte	.LASF156
 1912 0b9c 13       		.byte	0x13
 1913 0b9d 7801     		.2byte	0x178
 1914 0b9f 7B0B0000 		.4byte	0xb7b
 1915 0ba3 1B       		.uleb128 0x1b
 1916 0ba4 01       		.byte	0x1
 1917 0ba5 13       		.byte	0x13
 1918 0ba6 7D01     		.2byte	0x17d
 1919 0ba8 BF0B0000 		.4byte	0xbbf
 1920 0bac 1A       		.uleb128 0x1a
 1921 0bad 1D070000 		.4byte	.LASF157
 1922 0bb1 01       		.sleb128 1
 1923 0bb2 1A       		.uleb128 0x1a
 1924 0bb3 9D000000 		.4byte	.LASF158
 1925 0bb7 02       		.sleb128 2
 1926 0bb8 1A       		.uleb128 0x1a
 1927 0bb9 87050000 		.4byte	.LASF159
 1928 0bbd 03       		.sleb128 3
 1929 0bbe 00       		.byte	0
 1930 0bbf 11       		.uleb128 0x11
 1931 0bc0 1F010000 		.4byte	.LASF160
 1932 0bc4 13       		.byte	0x13
 1933 0bc5 8101     		.2byte	0x181
 1934 0bc7 A30B0000 		.4byte	0xba3
 1935 0bcb 10       		.uleb128 0x10
 1936 0bcc 0C       		.byte	0xc
ARM GAS  /tmp/cckRYAkY.s 			page 35


 1937 0bcd 13       		.byte	0x13
 1938 0bce 8601     		.2byte	0x186
 1939 0bd0 FC0B0000 		.4byte	0xbfc
 1940 0bd4 09       		.uleb128 0x9
 1941 0bd5 D2080000 		.4byte	.LASF161
 1942 0bd9 13       		.byte	0x13
 1943 0bda 8801     		.2byte	0x188
 1944 0bdc 970B0000 		.4byte	0xb97
 1945 0be0 00       		.byte	0
 1946 0be1 09       		.uleb128 0x9
 1947 0be2 4E090000 		.4byte	.LASF162
 1948 0be6 13       		.byte	0x13
 1949 0be7 8901     		.2byte	0x189
 1950 0be9 E4000000 		.4byte	0xe4
 1951 0bed 04       		.byte	0x4
 1952 0bee 09       		.uleb128 0x9
 1953 0bef 73030000 		.4byte	.LASF163
 1954 0bf3 13       		.byte	0x13
 1955 0bf4 8C01     		.2byte	0x18c
 1956 0bf6 BF0B0000 		.4byte	0xbbf
 1957 0bfa 08       		.byte	0x8
 1958 0bfb 00       		.byte	0
 1959 0bfc 11       		.uleb128 0x11
 1960 0bfd D2050000 		.4byte	.LASF164
 1961 0c01 13       		.byte	0x13
 1962 0c02 8E01     		.2byte	0x18e
 1963 0c04 CB0B0000 		.4byte	0xbcb
 1964 0c08 11       		.uleb128 0x11
 1965 0c09 84030000 		.4byte	.LASF165
 1966 0c0d 13       		.byte	0x13
 1967 0c0e 9301     		.2byte	0x193
 1968 0c10 140C0000 		.4byte	0xc14
 1969 0c14 0B       		.uleb128 0xb
 1970 0c15 84030000 		.4byte	.LASF165
 1971 0c19 38       		.byte	0x38
 1972 0c1a 13       		.byte	0x13
 1973 0c1b 9801     		.2byte	0x198
 1974 0c1d B10C0000 		.4byte	0xcb1
 1975 0c21 09       		.uleb128 0x9
 1976 0c22 D8000000 		.4byte	.LASF39
 1977 0c26 13       		.byte	0x13
 1978 0c27 9C01     		.2byte	0x19c
 1979 0c29 580B0000 		.4byte	0xb58
 1980 0c2d 00       		.byte	0
 1981 0c2e 09       		.uleb128 0x9
 1982 0c2f B2020000 		.4byte	.LASF166
 1983 0c33 13       		.byte	0x13
 1984 0c34 A001     		.2byte	0x1a0
 1985 0c36 B10C0000 		.4byte	0xcb1
 1986 0c3a 04       		.byte	0x4
 1987 0c3b 09       		.uleb128 0x9
 1988 0c3c B9020000 		.4byte	.LASF167
 1989 0c40 13       		.byte	0x13
 1990 0c41 A401     		.2byte	0x1a4
 1991 0c43 6F0B0000 		.4byte	0xb6f
 1992 0c47 08       		.byte	0x8
 1993 0c48 09       		.uleb128 0x9
ARM GAS  /tmp/cckRYAkY.s 			page 36


 1994 0c49 BF040000 		.4byte	.LASF168
 1995 0c4d 13       		.byte	0x13
 1996 0c4e A901     		.2byte	0x1a9
 1997 0c50 99070000 		.4byte	0x799
 1998 0c54 0C       		.byte	0xc
 1999 0c55 09       		.uleb128 0x9
 2000 0c56 AC070000 		.4byte	.LASF169
 2001 0c5a 13       		.byte	0x13
 2002 0c5b B201     		.2byte	0x1b2
 2003 0c5d 51020000 		.4byte	0x251
 2004 0c61 1C       		.byte	0x1c
 2005 0c62 09       		.uleb128 0x9
 2006 0c63 F1040000 		.4byte	.LASF170
 2007 0c67 13       		.byte	0x13
 2008 0c68 B601     		.2byte	0x1b6
 2009 0c6a 630B0000 		.4byte	0xb63
 2010 0c6e 20       		.byte	0x20
 2011 0c6f 09       		.uleb128 0x9
 2012 0c70 D7040000 		.4byte	.LASF171
 2013 0c74 13       		.byte	0x13
 2014 0c75 BA01     		.2byte	0x1ba
 2015 0c77 E4000000 		.4byte	0xe4
 2016 0c7b 24       		.byte	0x24
 2017 0c7c 09       		.uleb128 0x9
 2018 0c7d F1090000 		.4byte	.LASF172
 2019 0c81 13       		.byte	0x13
 2020 0c82 BE01     		.2byte	0x1be
 2021 0c84 E4000000 		.4byte	0xe4
 2022 0c88 28       		.byte	0x28
 2023 0c89 09       		.uleb128 0x9
 2024 0c8a 31040000 		.4byte	.LASF173
 2025 0c8e 13       		.byte	0x13
 2026 0c8f C201     		.2byte	0x1c2
 2027 0c91 BC0C0000 		.4byte	0xcbc
 2028 0c95 2C       		.byte	0x2c
 2029 0c96 09       		.uleb128 0x9
 2030 0c97 F6040000 		.4byte	.LASF174
 2031 0c9b 13       		.byte	0x13
 2032 0c9c C601     		.2byte	0x1c6
 2033 0c9e BC0C0000 		.4byte	0xcbc
 2034 0ca2 30       		.byte	0x30
 2035 0ca3 08       		.uleb128 0x8
 2036 0ca4 69326300 		.ascii	"i2c\000"
 2037 0ca8 13       		.byte	0x13
 2038 0ca9 CA01     		.2byte	0x1ca
 2039 0cab C70C0000 		.4byte	0xcc7
 2040 0caf 34       		.byte	0x34
 2041 0cb0 00       		.byte	0
 2042 0cb1 0A       		.uleb128 0xa
 2043 0cb2 04       		.byte	0x4
 2044 0cb3 B70C0000 		.4byte	0xcb7
 2045 0cb7 16       		.uleb128 0x16
 2046 0cb8 FC0B0000 		.4byte	0xbfc
 2047 0cbc 0A       		.uleb128 0xa
 2048 0cbd 04       		.byte	0x4
 2049 0cbe C20C0000 		.4byte	0xcc2
 2050 0cc2 16       		.uleb128 0x16
ARM GAS  /tmp/cckRYAkY.s 			page 37


 2051 0cc3 8C080000 		.4byte	0x88c
 2052 0cc7 0A       		.uleb128 0xa
 2053 0cc8 04       		.byte	0x4
 2054 0cc9 60050000 		.4byte	0x560
 2055 0ccd 19       		.uleb128 0x19
 2056 0cce 01       		.byte	0x1
 2057 0ccf 14       		.byte	0x14
 2058 0cd0 58       		.byte	0x58
 2059 0cd1 E80C0000 		.4byte	0xce8
 2060 0cd5 1A       		.uleb128 0x1a
 2061 0cd6 3D020000 		.4byte	.LASF175
 2062 0cda 00       		.sleb128 0
 2063 0cdb 1A       		.uleb128 0x1a
 2064 0cdc C0090000 		.4byte	.LASF176
 2065 0ce0 01       		.sleb128 1
 2066 0ce1 1A       		.uleb128 0x1a
 2067 0ce2 92070000 		.4byte	.LASF177
 2068 0ce6 02       		.sleb128 2
 2069 0ce7 00       		.byte	0
 2070 0ce8 03       		.uleb128 0x3
 2071 0ce9 88070000 		.4byte	.LASF178
 2072 0ced 14       		.byte	0x14
 2073 0cee 5C       		.byte	0x5c
 2074 0cef CD0C0000 		.4byte	0xccd
 2075 0cf3 03       		.uleb128 0x3
 2076 0cf4 52070000 		.4byte	.LASF179
 2077 0cf8 14       		.byte	0x14
 2078 0cf9 61       		.byte	0x61
 2079 0cfa FE0C0000 		.4byte	0xcfe
 2080 0cfe 05       		.uleb128 0x5
 2081 0cff 52070000 		.4byte	.LASF179
 2082 0d03 7C       		.byte	0x7c
 2083 0d04 14       		.byte	0x14
 2084 0d05 7B       		.byte	0x7b
 2085 0d06 750D0000 		.4byte	0xd75
 2086 0d0a 07       		.uleb128 0x7
 2087 0d0b 766D7400 		.ascii	"vmt\000"
 2088 0d0f 14       		.byte	0x14
 2089 0d10 7D       		.byte	0x7d
 2090 0d11 E20D0000 		.4byte	0xde2
 2091 0d15 00       		.byte	0
 2092 0d16 06       		.uleb128 0x6
 2093 0d17 EB040000 		.4byte	.LASF180
 2094 0d1b 14       		.byte	0x14
 2095 0d1c 7E       		.byte	0x7e
 2096 0d1d 1D080000 		.4byte	0x81d
 2097 0d21 04       		.byte	0x4
 2098 0d22 06       		.uleb128 0x6
 2099 0d23 D8000000 		.4byte	.LASF39
 2100 0d27 14       		.byte	0x14
 2101 0d28 7E       		.byte	0x7e
 2102 0d29 E80C0000 		.4byte	0xce8
 2103 0d2d 08       		.byte	0x8
 2104 0d2e 06       		.uleb128 0x6
 2105 0d2f 37080000 		.4byte	.LASF181
 2106 0d33 14       		.byte	0x14
 2107 0d34 7E       		.byte	0x7e
ARM GAS  /tmp/cckRYAkY.s 			page 38


 2108 0d35 300A0000 		.4byte	0xa30
 2109 0d39 0C       		.byte	0xc
 2110 0d3a 06       		.uleb128 0x6
 2111 0d3b 99010000 		.4byte	.LASF182
 2112 0d3f 14       		.byte	0x14
 2113 0d40 7E       		.byte	0x7e
 2114 0d41 3B0A0000 		.4byte	0xa3b
 2115 0d45 30       		.byte	0x30
 2116 0d46 07       		.uleb128 0x7
 2117 0d47 696200   		.ascii	"ib\000"
 2118 0d4a 14       		.byte	0x14
 2119 0d4b 7E       		.byte	0x7e
 2120 0d4c ED0D0000 		.4byte	0xded
 2121 0d50 54       		.byte	0x54
 2122 0d51 07       		.uleb128 0x7
 2123 0d52 6F6200   		.ascii	"ob\000"
 2124 0d55 14       		.byte	0x14
 2125 0d56 7E       		.byte	0x7e
 2126 0d57 ED0D0000 		.4byte	0xded
 2127 0d5b 64       		.byte	0x64
 2128 0d5c 06       		.uleb128 0x6
 2129 0d5d B2010000 		.4byte	.LASF183
 2130 0d61 14       		.byte	0x14
 2131 0d62 7E       		.byte	0x7e
 2132 0d63 FD0D0000 		.4byte	0xdfd
 2133 0d67 74       		.byte	0x74
 2134 0d68 06       		.uleb128 0x6
 2135 0d69 38030000 		.4byte	.LASF184
 2136 0d6d 14       		.byte	0x14
 2137 0d6e 7E       		.byte	0x7e
 2138 0d6f B8000000 		.4byte	0xb8
 2139 0d73 78       		.byte	0x78
 2140 0d74 00       		.byte	0
 2141 0d75 05       		.uleb128 0x5
 2142 0d76 9F040000 		.4byte	.LASF185
 2143 0d7a 20       		.byte	0x20
 2144 0d7b 14       		.byte	0x14
 2145 0d7c 70       		.byte	0x70
 2146 0d7d E20D0000 		.4byte	0xde2
 2147 0d81 06       		.uleb128 0x6
 2148 0d82 B4000000 		.4byte	.LASF186
 2149 0d86 14       		.byte	0x14
 2150 0d87 71       		.byte	0x71
 2151 0d88 BC080000 		.4byte	0x8bc
 2152 0d8c 00       		.byte	0
 2153 0d8d 06       		.uleb128 0x6
 2154 0d8e 02050000 		.4byte	.LASF187
 2155 0d92 14       		.byte	0x14
 2156 0d93 71       		.byte	0x71
 2157 0d94 DB080000 		.4byte	0x8db
 2158 0d98 04       		.byte	0x4
 2159 0d99 07       		.uleb128 0x7
 2160 0d9a 70757400 		.ascii	"put\000"
 2161 0d9e 14       		.byte	0x14
 2162 0d9f 71       		.byte	0x71
 2163 0da0 F5080000 		.4byte	0x8f5
 2164 0da4 08       		.byte	0x8
ARM GAS  /tmp/cckRYAkY.s 			page 39


 2165 0da5 07       		.uleb128 0x7
 2166 0da6 67657400 		.ascii	"get\000"
 2167 0daa 14       		.byte	0x14
 2168 0dab 71       		.byte	0x71
 2169 0dac 0A090000 		.4byte	0x90a
 2170 0db0 0C       		.byte	0xc
 2171 0db1 06       		.uleb128 0x6
 2172 0db2 DE000000 		.4byte	.LASF188
 2173 0db6 14       		.byte	0x14
 2174 0db7 71       		.byte	0x71
 2175 0db8 29090000 		.4byte	0x929
 2176 0dbc 10       		.byte	0x10
 2177 0dbd 06       		.uleb128 0x6
 2178 0dbe C6020000 		.4byte	.LASF189
 2179 0dc2 14       		.byte	0x14
 2180 0dc3 71       		.byte	0x71
 2181 0dc4 43090000 		.4byte	0x943
 2182 0dc8 14       		.byte	0x14
 2183 0dc9 06       		.uleb128 0x6
 2184 0dca 5A000000 		.4byte	.LASF190
 2185 0dce 14       		.byte	0x14
 2186 0dcf 71       		.byte	0x71
 2187 0dd0 67090000 		.4byte	0x967
 2188 0dd4 18       		.byte	0x18
 2189 0dd5 06       		.uleb128 0x6
 2190 0dd6 2E010000 		.4byte	.LASF191
 2191 0dda 14       		.byte	0x14
 2192 0ddb 71       		.byte	0x71
 2193 0ddc 8B090000 		.4byte	0x98b
 2194 0de0 1C       		.byte	0x1c
 2195 0de1 00       		.byte	0
 2196 0de2 0A       		.uleb128 0xa
 2197 0de3 04       		.byte	0x4
 2198 0de4 E80D0000 		.4byte	0xde8
 2199 0de8 16       		.uleb128 0x16
 2200 0de9 750D0000 		.4byte	0xd75
 2201 0ded 1C       		.uleb128 0x1c
 2202 0dee B8000000 		.4byte	0xb8
 2203 0df2 FD0D0000 		.4byte	0xdfd
 2204 0df6 1D       		.uleb128 0x1d
 2205 0df7 61040000 		.4byte	0x461
 2206 0dfb 0F       		.byte	0xf
 2207 0dfc 00       		.byte	0
 2208 0dfd 0A       		.uleb128 0xa
 2209 0dfe 04       		.byte	0x4
 2210 0dff CF050000 		.4byte	0x5cf
 2211 0e03 1E       		.uleb128 0x1e
 2212 0e04 3C090000 		.4byte	.LASF192
 2213 0e08 01       		.byte	0x1
 2214 0e09 0D       		.byte	0xd
 2215 0e0a 25000000 		.4byte	0x25
 2216 0e0e 00000000 		.4byte	.LFB279
 2217 0e12 60000000 		.4byte	.LFE279-.LFB279
 2218 0e16 01       		.uleb128 0x1
 2219 0e17 9C       		.byte	0x9c
 2220 0e18 2E0E0000 		.4byte	0xe2e
 2221 0e1c 1F       		.uleb128 0x1f
ARM GAS  /tmp/cckRYAkY.s 			page 40


 2222 0e1d 4D050000 		.4byte	.LASF194
 2223 0e21 01       		.byte	0x1
 2224 0e22 0F       		.byte	0xf
 2225 0e23 B70C0000 		.4byte	0xcb7
 2226 0e27 05       		.uleb128 0x5
 2227 0e28 03       		.byte	0x3
 2228 0e29 14000000 		.4byte	i2ccfg.7673
 2229 0e2d 00       		.byte	0
 2230 0e2e 1E       		.uleb128 0x1e
 2231 0e2f E3000000 		.4byte	.LASF193
 2232 0e33 01       		.byte	0x1
 2233 0e34 2C       		.byte	0x2c
 2234 0e35 25000000 		.4byte	0x25
 2235 0e39 60000000 		.4byte	.LFB280
 2236 0e3d 54000000 		.4byte	.LFE280-.LFB280
 2237 0e41 01       		.uleb128 0x1
 2238 0e42 9C       		.byte	0x9c
 2239 0e43 9C0E0000 		.4byte	0xe9c
 2240 0e47 20       		.uleb128 0x20
 2241 0e48 10020000 		.4byte	.LASF200
 2242 0e4c 01       		.byte	0x1
 2243 0e4d 2C       		.byte	0x2c
 2244 0e4e B8000000 		.4byte	0xb8
 2245 0e52 02       		.uleb128 0x2
 2246 0e53 91       		.byte	0x91
 2247 0e54 67       		.sleb128 -25
 2248 0e55 1F       		.uleb128 0x1f
 2249 0e56 68080000 		.4byte	.LASF195
 2250 0e5a 01       		.byte	0x1
 2251 0e5b 30       		.byte	0x30
 2252 0e5c B8000000 		.4byte	0xb8
 2253 0e60 02       		.uleb128 0x2
 2254 0e61 91       		.byte	0x91
 2255 0e62 77       		.sleb128 -9
 2256 0e63 1F       		.uleb128 0x1f
 2257 0e64 3F030000 		.4byte	.LASF196
 2258 0e68 01       		.byte	0x1
 2259 0e69 32       		.byte	0x32
 2260 0e6a 6D040000 		.4byte	0x46d
 2261 0e6e 02       		.uleb128 0x2
 2262 0e6f 91       		.byte	0x91
 2263 0e70 6F       		.sleb128 -17
 2264 0e71 1F       		.uleb128 0x1f
 2265 0e72 E7090000 		.4byte	.LASF197
 2266 0e76 01       		.byte	0x1
 2267 0e77 34       		.byte	0x34
 2268 0e78 9C0E0000 		.4byte	0xe9c
 2269 0e7c 02       		.uleb128 0x2
 2270 0e7d 91       		.byte	0x91
 2271 0e7e 6C       		.sleb128 -20
 2272 0e7f 1F       		.uleb128 0x1f
 2273 0e80 33050000 		.4byte	.LASF198
 2274 0e84 01       		.byte	0x1
 2275 0e85 35       		.byte	0x35
 2276 0e86 2F080000 		.4byte	0x82f
 2277 0e8a 02       		.uleb128 0x2
 2278 0e8b 91       		.byte	0x91
ARM GAS  /tmp/cckRYAkY.s 			page 41


 2279 0e8c 70       		.sleb128 -16
 2280 0e8d 21       		.uleb128 0x21
 2281 0e8e 65727200 		.ascii	"err\000"
 2282 0e92 01       		.byte	0x1
 2283 0e93 37       		.byte	0x37
 2284 0e94 AC0E0000 		.4byte	0xeac
 2285 0e98 02       		.uleb128 0x2
 2286 0e99 91       		.byte	0x91
 2287 0e9a 68       		.sleb128 -24
 2288 0e9b 00       		.byte	0
 2289 0e9c 1C       		.uleb128 0x1c
 2290 0e9d B8000000 		.4byte	0xb8
 2291 0ea1 AC0E0000 		.4byte	0xeac
 2292 0ea5 1D       		.uleb128 0x1d
 2293 0ea6 61040000 		.4byte	0x461
 2294 0eaa 01       		.byte	0x1
 2295 0eab 00       		.byte	0
 2296 0eac 0F       		.uleb128 0xf
 2297 0ead 31010000 		.4byte	0x131
 2298 0eb1 1E       		.uleb128 0x1e
 2299 0eb2 37040000 		.4byte	.LASF199
 2300 0eb6 01       		.byte	0x1
 2301 0eb7 49       		.byte	0x49
 2302 0eb8 25000000 		.4byte	0x25
 2303 0ebc C0000000 		.4byte	.LFB281
 2304 0ec0 D0010000 		.4byte	.LFE281-.LFB281
 2305 0ec4 01       		.uleb128 0x1
 2306 0ec5 9C       		.byte	0x9c
 2307 0ec6 40100000 		.4byte	0x1040
 2308 0eca 20       		.uleb128 0x20
 2309 0ecb D2040000 		.4byte	.LASF201
 2310 0ecf 01       		.byte	0x1
 2311 0ed0 49       		.byte	0x49
 2312 0ed1 40100000 		.4byte	0x1040
 2313 0ed5 03       		.uleb128 0x3
 2314 0ed6 91       		.byte	0x91
 2315 0ed7 BC7F     		.sleb128 -68
 2316 0ed9 1F       		.uleb128 0x1f
 2317 0eda 6F050000 		.4byte	.LASF202
 2318 0ede 01       		.byte	0x1
 2319 0edf 4B       		.byte	0x4b
 2320 0ee0 B8000000 		.4byte	0xb8
 2321 0ee4 02       		.uleb128 0x2
 2322 0ee5 91       		.byte	0x91
 2323 0ee6 73       		.sleb128 -13
 2324 0ee7 1F       		.uleb128 0x1f
 2325 0ee8 60080000 		.4byte	.LASF203
 2326 0eec 01       		.byte	0x1
 2327 0eed 4C       		.byte	0x4c
 2328 0eee B8000000 		.4byte	0xb8
 2329 0ef2 02       		.uleb128 0x2
 2330 0ef3 91       		.byte	0x91
 2331 0ef4 72       		.sleb128 -14
 2332 0ef5 1F       		.uleb128 0x1f
 2333 0ef6 DC050000 		.4byte	.LASF204
 2334 0efa 01       		.byte	0x1
 2335 0efb 4E       		.byte	0x4e
ARM GAS  /tmp/cckRYAkY.s 			page 42


 2336 0efc B8000000 		.4byte	0xb8
 2337 0f00 02       		.uleb128 0x2
 2338 0f01 91       		.byte	0x91
 2339 0f02 71       		.sleb128 -15
 2340 0f03 1F       		.uleb128 0x1f
 2341 0f04 54050000 		.4byte	.LASF205
 2342 0f08 01       		.byte	0x1
 2343 0f09 4F       		.byte	0x4f
 2344 0f0a B8000000 		.4byte	0xb8
 2345 0f0e 02       		.uleb128 0x2
 2346 0f0f 91       		.byte	0x91
 2347 0f10 70       		.sleb128 -16
 2348 0f11 1F       		.uleb128 0x1f
 2349 0f12 77000000 		.4byte	.LASF206
 2350 0f16 01       		.byte	0x1
 2351 0f17 51       		.byte	0x51
 2352 0f18 B8000000 		.4byte	0xb8
 2353 0f1c 02       		.uleb128 0x2
 2354 0f1d 91       		.byte	0x91
 2355 0f1e 6F       		.sleb128 -17
 2356 0f1f 1F       		.uleb128 0x1f
 2357 0f20 C3050000 		.4byte	.LASF207
 2358 0f24 01       		.byte	0x1
 2359 0f25 52       		.byte	0x52
 2360 0f26 B8000000 		.4byte	0xb8
 2361 0f2a 02       		.uleb128 0x2
 2362 0f2b 91       		.byte	0x91
 2363 0f2c 6E       		.sleb128 -18
 2364 0f2d 21       		.uleb128 0x21
 2365 0f2e 783000   		.ascii	"x0\000"
 2366 0f31 01       		.byte	0x1
 2367 0f32 55       		.byte	0x55
 2368 0f33 B8000000 		.4byte	0xb8
 2369 0f37 02       		.uleb128 0x2
 2370 0f38 91       		.byte	0x91
 2371 0f39 6D       		.sleb128 -19
 2372 0f3a 21       		.uleb128 0x21
 2373 0f3b 783100   		.ascii	"x1\000"
 2374 0f3e 01       		.byte	0x1
 2375 0f3f 57       		.byte	0x57
 2376 0f40 B8000000 		.4byte	0xb8
 2377 0f44 02       		.uleb128 0x2
 2378 0f45 91       		.byte	0x91
 2379 0f46 6C       		.sleb128 -20
 2380 0f47 21       		.uleb128 0x21
 2381 0f48 793000   		.ascii	"y0\000"
 2382 0f4b 01       		.byte	0x1
 2383 0f4c 5A       		.byte	0x5a
 2384 0f4d B8000000 		.4byte	0xb8
 2385 0f51 02       		.uleb128 0x2
 2386 0f52 91       		.byte	0x91
 2387 0f53 6B       		.sleb128 -21
 2388 0f54 21       		.uleb128 0x21
 2389 0f55 793100   		.ascii	"y1\000"
 2390 0f58 01       		.byte	0x1
 2391 0f59 5C       		.byte	0x5c
 2392 0f5a B8000000 		.4byte	0xb8
ARM GAS  /tmp/cckRYAkY.s 			page 43


 2393 0f5e 02       		.uleb128 0x2
 2394 0f5f 91       		.byte	0x91
 2395 0f60 6A       		.sleb128 -22
 2396 0f61 21       		.uleb128 0x21
 2397 0f62 7A3000   		.ascii	"z0\000"
 2398 0f65 01       		.byte	0x1
 2399 0f66 5F       		.byte	0x5f
 2400 0f67 B8000000 		.4byte	0xb8
 2401 0f6b 02       		.uleb128 0x2
 2402 0f6c 91       		.byte	0x91
 2403 0f6d 69       		.sleb128 -23
 2404 0f6e 21       		.uleb128 0x21
 2405 0f6f 7A3100   		.ascii	"z1\000"
 2406 0f72 01       		.byte	0x1
 2407 0f73 61       		.byte	0x61
 2408 0f74 B8000000 		.4byte	0xb8
 2409 0f78 02       		.uleb128 0x2
 2410 0f79 91       		.byte	0x91
 2411 0f7a 68       		.sleb128 -24
 2412 0f7b 1F       		.uleb128 0x1f
 2413 0f7c 3F030000 		.4byte	.LASF196
 2414 0f80 01       		.byte	0x1
 2415 0f81 63       		.byte	0x63
 2416 0f82 6D040000 		.4byte	0x46d
 2417 0f86 02       		.uleb128 0x2
 2418 0f87 91       		.byte	0x91
 2419 0f88 67       		.sleb128 -25
 2420 0f89 1F       		.uleb128 0x1f
 2421 0f8a 33050000 		.4byte	.LASF198
 2422 0f8e 01       		.byte	0x1
 2423 0f8f 65       		.byte	0x65
 2424 0f90 2F080000 		.4byte	0x82f
 2425 0f94 02       		.uleb128 0x2
 2426 0f95 91       		.byte	0x91
 2427 0f96 74       		.sleb128 -12
 2428 0f97 1F       		.uleb128 0x1f
 2429 0f98 FB070000 		.4byte	.LASF208
 2430 0f9c 01       		.byte	0x1
 2431 0f9d 68       		.byte	0x68
 2432 0f9e AC0E0000 		.4byte	0xeac
 2433 0fa2 02       		.uleb128 0x2
 2434 0fa3 91       		.byte	0x91
 2435 0fa4 60       		.sleb128 -32
 2436 0fa5 1F       		.uleb128 0x1f
 2437 0fa6 AF000000 		.4byte	.LASF209
 2438 0faa 01       		.byte	0x1
 2439 0fab 6C       		.byte	0x6c
 2440 0fac AC0E0000 		.4byte	0xeac
 2441 0fb0 02       		.uleb128 0x2
 2442 0fb1 91       		.byte	0x91
 2443 0fb2 5C       		.sleb128 -36
 2444 0fb3 1F       		.uleb128 0x1f
 2445 0fb4 09080000 		.4byte	.LASF210
 2446 0fb8 01       		.byte	0x1
 2447 0fb9 70       		.byte	0x70
 2448 0fba AC0E0000 		.4byte	0xeac
 2449 0fbe 02       		.uleb128 0x2
ARM GAS  /tmp/cckRYAkY.s 			page 44


 2450 0fbf 91       		.byte	0x91
 2451 0fc0 58       		.sleb128 -40
 2452 0fc1 1F       		.uleb128 0x1f
 2453 0fc2 0E080000 		.4byte	.LASF211
 2454 0fc6 01       		.byte	0x1
 2455 0fc7 74       		.byte	0x74
 2456 0fc8 AC0E0000 		.4byte	0xeac
 2457 0fcc 02       		.uleb128 0x2
 2458 0fcd 91       		.byte	0x91
 2459 0fce 54       		.sleb128 -44
 2460 0fcf 1F       		.uleb128 0x1f
 2461 0fd0 13080000 		.4byte	.LASF212
 2462 0fd4 01       		.byte	0x1
 2463 0fd5 78       		.byte	0x78
 2464 0fd6 AC0E0000 		.4byte	0xeac
 2465 0fda 02       		.uleb128 0x2
 2466 0fdb 91       		.byte	0x91
 2467 0fdc 50       		.sleb128 -48
 2468 0fdd 1F       		.uleb128 0x1f
 2469 0fde BA000000 		.4byte	.LASF213
 2470 0fe2 01       		.byte	0x1
 2471 0fe3 7C       		.byte	0x7c
 2472 0fe4 AC0E0000 		.4byte	0xeac
 2473 0fe8 02       		.uleb128 0x2
 2474 0fe9 91       		.byte	0x91
 2475 0fea 4C       		.sleb128 -52
 2476 0feb 1F       		.uleb128 0x1f
 2477 0fec 51030000 		.4byte	.LASF214
 2478 0ff0 01       		.byte	0x1
 2479 0ff1 7F       		.byte	0x7f
 2480 0ff2 CE000000 		.4byte	0xce
 2481 0ff6 02       		.uleb128 0x2
 2482 0ff7 91       		.byte	0x91
 2483 0ff8 4A       		.sleb128 -54
 2484 0ff9 1F       		.uleb128 0x1f
 2485 0ffa 96000000 		.4byte	.LASF215
 2486 0ffe 01       		.byte	0x1
 2487 0fff 80       		.byte	0x80
 2488 1000 C3000000 		.4byte	0xc3
 2489 1004 02       		.uleb128 0x2
 2490 1005 91       		.byte	0x91
 2491 1006 48       		.sleb128 -56
 2492 1007 1F       		.uleb128 0x1f
 2493 1008 FB090000 		.4byte	.LASF216
 2494 100c 01       		.byte	0x1
 2495 100d 83       		.byte	0x83
 2496 100e CE000000 		.4byte	0xce
 2497 1012 02       		.uleb128 0x2
 2498 1013 91       		.byte	0x91
 2499 1014 46       		.sleb128 -58
 2500 1015 1F       		.uleb128 0x1f
 2501 1016 CB050000 		.4byte	.LASF217
 2502 101a 01       		.byte	0x1
 2503 101b 84       		.byte	0x84
 2504 101c C3000000 		.4byte	0xc3
 2505 1020 02       		.uleb128 0x2
 2506 1021 91       		.byte	0x91
ARM GAS  /tmp/cckRYAkY.s 			page 45


 2507 1022 44       		.sleb128 -60
 2508 1023 1F       		.uleb128 0x1f
 2509 1024 11090000 		.4byte	.LASF218
 2510 1028 01       		.byte	0x1
 2511 1029 87       		.byte	0x87
 2512 102a CE000000 		.4byte	0xce
 2513 102e 02       		.uleb128 0x2
 2514 102f 91       		.byte	0x91
 2515 1030 42       		.sleb128 -62
 2516 1031 1F       		.uleb128 0x1f
 2517 1032 99020000 		.4byte	.LASF219
 2518 1036 01       		.byte	0x1
 2519 1037 88       		.byte	0x88
 2520 1038 C3000000 		.4byte	0xc3
 2521 103c 02       		.uleb128 0x2
 2522 103d 91       		.byte	0x91
 2523 103e 40       		.sleb128 -64
 2524 103f 00       		.byte	0
 2525 1040 0A       		.uleb128 0xa
 2526 1041 04       		.byte	0x4
 2527 1042 C3000000 		.4byte	0xc3
 2528 1046 1F       		.uleb128 0x1f
 2529 1047 37070000 		.4byte	.LASF220
 2530 104b 15       		.byte	0x15
 2531 104c 05       		.byte	0x5
 2532 104d B7080000 		.4byte	0x8b7
 2533 1051 05       		.uleb128 0x5
 2534 1052 03       		.byte	0x3
 2535 1053 00000000 		.4byte	BW_XL_400
 2536 1057 1F       		.uleb128 0x1f
 2537 1058 28030000 		.4byte	.LASF221
 2538 105c 15       		.byte	0x15
 2539 105d 06       		.byte	0x6
 2540 105e B7080000 		.4byte	0x8b7
 2541 1062 05       		.uleb128 0x5
 2542 1063 03       		.byte	0x3
 2543 1064 01000000 		.4byte	BW_XL_200
 2544 1068 1F       		.uleb128 0x1f
 2545 1069 3D010000 		.4byte	.LASF222
 2546 106d 15       		.byte	0x15
 2547 106e 07       		.byte	0x7
 2548 106f B7080000 		.4byte	0x8b7
 2549 1073 05       		.uleb128 0x5
 2550 1074 03       		.byte	0x3
 2551 1075 02000000 		.4byte	BW_XL_100
 2552 1079 1F       		.uleb128 0x1f
 2553 107a BF000000 		.4byte	.LASF223
 2554 107e 15       		.byte	0x15
 2555 107f 08       		.byte	0x8
 2556 1080 B7080000 		.4byte	0x8b7
 2557 1084 05       		.uleb128 0x5
 2558 1085 03       		.byte	0x3
 2559 1086 03000000 		.4byte	BW_XL_50
 2560 108a 1F       		.uleb128 0x1f
 2561 108b 5B020000 		.4byte	.LASF224
 2562 108f 15       		.byte	0x15
 2563 1090 0A       		.byte	0xa
ARM GAS  /tmp/cckRYAkY.s 			page 46


 2564 1091 B7080000 		.4byte	0x8b7
 2565 1095 05       		.uleb128 0x5
 2566 1096 03       		.byte	0x3
 2567 1097 04000000 		.4byte	FS_XL_2
 2568 109b 1F       		.uleb128 0x1f
 2569 109c 63020000 		.4byte	.LASF225
 2570 10a0 15       		.byte	0x15
 2571 10a1 0B       		.byte	0xb
 2572 10a2 B7080000 		.4byte	0x8b7
 2573 10a6 05       		.uleb128 0x5
 2574 10a7 03       		.byte	0x3
 2575 10a8 05000000 		.4byte	FS_XL_4
 2576 10ac 1F       		.uleb128 0x1f
 2577 10ad 6B020000 		.4byte	.LASF226
 2578 10b1 15       		.byte	0x15
 2579 10b2 0C       		.byte	0xc
 2580 10b3 B7080000 		.4byte	0x8b7
 2581 10b7 05       		.uleb128 0x5
 2582 10b8 03       		.byte	0x3
 2583 10b9 06000000 		.4byte	FS_XL_8
 2584 10bd 1F       		.uleb128 0x1f
 2585 10be 90020000 		.4byte	.LASF227
 2586 10c2 15       		.byte	0x15
 2587 10c3 0D       		.byte	0xd
 2588 10c4 B7080000 		.4byte	0x8b7
 2589 10c8 05       		.uleb128 0x5
 2590 10c9 03       		.byte	0x3
 2591 10ca 07000000 		.4byte	FS_XL_16
 2592 10ce 1F       		.uleb128 0x1f
 2593 10cf EA070000 		.4byte	.LASF228
 2594 10d3 15       		.byte	0x15
 2595 10d4 0F       		.byte	0xf
 2596 10d5 B7080000 		.4byte	0x8b7
 2597 10d9 05       		.uleb128 0x5
 2598 10da 03       		.byte	0x3
 2599 10db 08000000 		.4byte	ODR_XL_POWERDOWN
 2600 10df 1F       		.uleb128 0x1f
 2601 10e0 6B010000 		.4byte	.LASF229
 2602 10e4 15       		.byte	0x15
 2603 10e5 10       		.byte	0x10
 2604 10e6 B7080000 		.4byte	0x8b7
 2605 10ea 05       		.uleb128 0x5
 2606 10eb 03       		.byte	0x3
 2607 10ec 09000000 		.4byte	ODR_XL_12_5
 2608 10f0 1F       		.uleb128 0x1f
 2609 10f1 50010000 		.4byte	.LASF230
 2610 10f5 15       		.byte	0x15
 2611 10f6 11       		.byte	0x11
 2612 10f7 B7080000 		.4byte	0x8b7
 2613 10fb 05       		.uleb128 0x5
 2614 10fc 03       		.byte	0x3
 2615 10fd 0A000000 		.4byte	ODR_XL_26
 2616 1101 1F       		.uleb128 0x1f
 2617 1102 24020000 		.4byte	.LASF231
 2618 1106 15       		.byte	0x15
 2619 1107 12       		.byte	0x12
 2620 1108 B7080000 		.4byte	0x8b7
ARM GAS  /tmp/cckRYAkY.s 			page 47


 2621 110c 05       		.uleb128 0x5
 2622 110d 03       		.byte	0x3
 2623 110e 0B000000 		.4byte	ODR_XL_52
 2624 1112 1F       		.uleb128 0x1f
 2625 1113 7A040000 		.4byte	.LASF232
 2626 1117 15       		.byte	0x15
 2627 1118 13       		.byte	0x13
 2628 1119 B7080000 		.4byte	0x8b7
 2629 111d 05       		.uleb128 0x5
 2630 111e 03       		.byte	0x3
 2631 111f 0C000000 		.4byte	ODR_XL_104
 2632 1123 1F       		.uleb128 0x1f
 2633 1124 B1060000 		.4byte	.LASF233
 2634 1128 15       		.byte	0x15
 2635 1129 14       		.byte	0x14
 2636 112a B7080000 		.4byte	0x8b7
 2637 112e 05       		.uleb128 0x5
 2638 112f 03       		.byte	0x3
 2639 1130 0D000000 		.4byte	ODR_XL_208
 2640 1134 1F       		.uleb128 0x1f
 2641 1135 E4020000 		.4byte	.LASF234
 2642 1139 15       		.byte	0x15
 2643 113a 15       		.byte	0x15
 2644 113b B7080000 		.4byte	0x8b7
 2645 113f 05       		.uleb128 0x5
 2646 1140 03       		.byte	0x3
 2647 1141 0E000000 		.4byte	ODR_XL_416
 2648 1145 1F       		.uleb128 0x1f
 2649 1146 18000000 		.4byte	.LASF235
 2650 114a 15       		.byte	0x15
 2651 114b 16       		.byte	0x16
 2652 114c B7080000 		.4byte	0x8b7
 2653 1150 05       		.uleb128 0x5
 2654 1151 03       		.byte	0x3
 2655 1152 0F000000 		.4byte	ODR_XL_833
 2656 1156 1F       		.uleb128 0x1f
 2657 1157 C6070000 		.4byte	.LASF236
 2658 115b 15       		.byte	0x15
 2659 115c 17       		.byte	0x17
 2660 115d B7080000 		.4byte	0x8b7
 2661 1161 05       		.uleb128 0x5
 2662 1162 03       		.byte	0x3
 2663 1163 10000000 		.4byte	ODR_XL_1_66k
 2664 1167 1F       		.uleb128 0x1f
 2665 1168 F5050000 		.4byte	.LASF237
 2666 116c 15       		.byte	0x15
 2667 116d 18       		.byte	0x18
 2668 116e B7080000 		.4byte	0x8b7
 2669 1172 05       		.uleb128 0x5
 2670 1173 03       		.byte	0x3
 2671 1174 11000000 		.4byte	ODR_XL_3_33k
 2672 1178 1F       		.uleb128 0x1f
 2673 1179 61000000 		.4byte	.LASF238
 2674 117d 15       		.byte	0x15
 2675 117e 19       		.byte	0x19
 2676 117f B7080000 		.4byte	0x8b7
 2677 1183 05       		.uleb128 0x5
ARM GAS  /tmp/cckRYAkY.s 			page 48


 2678 1184 03       		.byte	0x3
 2679 1185 12000000 		.4byte	ODR_XL_6_66k
 2680 1189 22       		.uleb128 0x22
 2681 118a C5040000 		.4byte	.LASF239
 2682 118e 16       		.byte	0x16
 2683 118f 4407     		.2byte	0x744
 2684 1191 95110000 		.4byte	0x1195
 2685 1195 0F       		.uleb128 0xf
 2686 1196 D9000000 		.4byte	0xd9
 2687 119a 23       		.uleb128 0x23
 2688 119b 636800   		.ascii	"ch\000"
 2689 119e 07       		.byte	0x7
 2690 119f D201     		.2byte	0x1d2
 2691 11a1 08040000 		.4byte	0x408
 2692 11a5 22       		.uleb128 0x22
 2693 11a6 83020000 		.4byte	.LASF240
 2694 11aa 13       		.byte	0x13
 2695 11ab E001     		.2byte	0x1e0
 2696 11ad 080C0000 		.4byte	0xc08
 2697 11b1 23       		.uleb128 0x23
 2698 11b2 53443300 		.ascii	"SD3\000"
 2699 11b6 17       		.byte	0x17
 2700 11b7 4A01     		.2byte	0x14a
 2701 11b9 F30C0000 		.4byte	0xcf3
 2702 11bd 00       		.byte	0
 2703              		.section	.debug_abbrev,"",%progbits
 2704              	.Ldebug_abbrev0:
 2705 0000 01       		.uleb128 0x1
 2706 0001 11       		.uleb128 0x11
 2707 0002 01       		.byte	0x1
 2708 0003 25       		.uleb128 0x25
 2709 0004 0E       		.uleb128 0xe
 2710 0005 13       		.uleb128 0x13
 2711 0006 0B       		.uleb128 0xb
 2712 0007 03       		.uleb128 0x3
 2713 0008 0E       		.uleb128 0xe
 2714 0009 1B       		.uleb128 0x1b
 2715 000a 0E       		.uleb128 0xe
 2716 000b 11       		.uleb128 0x11
 2717 000c 01       		.uleb128 0x1
 2718 000d 12       		.uleb128 0x12
 2719 000e 06       		.uleb128 0x6
 2720 000f 10       		.uleb128 0x10
 2721 0010 17       		.uleb128 0x17
 2722 0011 00       		.byte	0
 2723 0012 00       		.byte	0
 2724 0013 02       		.uleb128 0x2
 2725 0014 24       		.uleb128 0x24
 2726 0015 00       		.byte	0
 2727 0016 0B       		.uleb128 0xb
 2728 0017 0B       		.uleb128 0xb
 2729 0018 3E       		.uleb128 0x3e
 2730 0019 0B       		.uleb128 0xb
 2731 001a 03       		.uleb128 0x3
 2732 001b 08       		.uleb128 0x8
 2733 001c 00       		.byte	0
 2734 001d 00       		.byte	0
ARM GAS  /tmp/cckRYAkY.s 			page 49


 2735 001e 03       		.uleb128 0x3
 2736 001f 16       		.uleb128 0x16
 2737 0020 00       		.byte	0
 2738 0021 03       		.uleb128 0x3
 2739 0022 0E       		.uleb128 0xe
 2740 0023 3A       		.uleb128 0x3a
 2741 0024 0B       		.uleb128 0xb
 2742 0025 3B       		.uleb128 0x3b
 2743 0026 0B       		.uleb128 0xb
 2744 0027 49       		.uleb128 0x49
 2745 0028 13       		.uleb128 0x13
 2746 0029 00       		.byte	0
 2747 002a 00       		.byte	0
 2748 002b 04       		.uleb128 0x4
 2749 002c 24       		.uleb128 0x24
 2750 002d 00       		.byte	0
 2751 002e 0B       		.uleb128 0xb
 2752 002f 0B       		.uleb128 0xb
 2753 0030 3E       		.uleb128 0x3e
 2754 0031 0B       		.uleb128 0xb
 2755 0032 03       		.uleb128 0x3
 2756 0033 0E       		.uleb128 0xe
 2757 0034 00       		.byte	0
 2758 0035 00       		.byte	0
 2759 0036 05       		.uleb128 0x5
 2760 0037 13       		.uleb128 0x13
 2761 0038 01       		.byte	0x1
 2762 0039 03       		.uleb128 0x3
 2763 003a 0E       		.uleb128 0xe
 2764 003b 0B       		.uleb128 0xb
 2765 003c 0B       		.uleb128 0xb
 2766 003d 3A       		.uleb128 0x3a
 2767 003e 0B       		.uleb128 0xb
 2768 003f 3B       		.uleb128 0x3b
 2769 0040 0B       		.uleb128 0xb
 2770 0041 01       		.uleb128 0x1
 2771 0042 13       		.uleb128 0x13
 2772 0043 00       		.byte	0
 2773 0044 00       		.byte	0
 2774 0045 06       		.uleb128 0x6
 2775 0046 0D       		.uleb128 0xd
 2776 0047 00       		.byte	0
 2777 0048 03       		.uleb128 0x3
 2778 0049 0E       		.uleb128 0xe
 2779 004a 3A       		.uleb128 0x3a
 2780 004b 0B       		.uleb128 0xb
 2781 004c 3B       		.uleb128 0x3b
 2782 004d 0B       		.uleb128 0xb
 2783 004e 49       		.uleb128 0x49
 2784 004f 13       		.uleb128 0x13
 2785 0050 38       		.uleb128 0x38
 2786 0051 0B       		.uleb128 0xb
 2787 0052 00       		.byte	0
 2788 0053 00       		.byte	0
 2789 0054 07       		.uleb128 0x7
 2790 0055 0D       		.uleb128 0xd
 2791 0056 00       		.byte	0
ARM GAS  /tmp/cckRYAkY.s 			page 50


 2792 0057 03       		.uleb128 0x3
 2793 0058 08       		.uleb128 0x8
 2794 0059 3A       		.uleb128 0x3a
 2795 005a 0B       		.uleb128 0xb
 2796 005b 3B       		.uleb128 0x3b
 2797 005c 0B       		.uleb128 0xb
 2798 005d 49       		.uleb128 0x49
 2799 005e 13       		.uleb128 0x13
 2800 005f 38       		.uleb128 0x38
 2801 0060 0B       		.uleb128 0xb
 2802 0061 00       		.byte	0
 2803 0062 00       		.byte	0
 2804 0063 08       		.uleb128 0x8
 2805 0064 0D       		.uleb128 0xd
 2806 0065 00       		.byte	0
 2807 0066 03       		.uleb128 0x3
 2808 0067 08       		.uleb128 0x8
 2809 0068 3A       		.uleb128 0x3a
 2810 0069 0B       		.uleb128 0xb
 2811 006a 3B       		.uleb128 0x3b
 2812 006b 05       		.uleb128 0x5
 2813 006c 49       		.uleb128 0x49
 2814 006d 13       		.uleb128 0x13
 2815 006e 38       		.uleb128 0x38
 2816 006f 0B       		.uleb128 0xb
 2817 0070 00       		.byte	0
 2818 0071 00       		.byte	0
 2819 0072 09       		.uleb128 0x9
 2820 0073 0D       		.uleb128 0xd
 2821 0074 00       		.byte	0
 2822 0075 03       		.uleb128 0x3
 2823 0076 0E       		.uleb128 0xe
 2824 0077 3A       		.uleb128 0x3a
 2825 0078 0B       		.uleb128 0xb
 2826 0079 3B       		.uleb128 0x3b
 2827 007a 05       		.uleb128 0x5
 2828 007b 49       		.uleb128 0x49
 2829 007c 13       		.uleb128 0x13
 2830 007d 38       		.uleb128 0x38
 2831 007e 0B       		.uleb128 0xb
 2832 007f 00       		.byte	0
 2833 0080 00       		.byte	0
 2834 0081 0A       		.uleb128 0xa
 2835 0082 0F       		.uleb128 0xf
 2836 0083 00       		.byte	0
 2837 0084 0B       		.uleb128 0xb
 2838 0085 0B       		.uleb128 0xb
 2839 0086 49       		.uleb128 0x49
 2840 0087 13       		.uleb128 0x13
 2841 0088 00       		.byte	0
 2842 0089 00       		.byte	0
 2843 008a 0B       		.uleb128 0xb
 2844 008b 13       		.uleb128 0x13
 2845 008c 01       		.byte	0x1
 2846 008d 03       		.uleb128 0x3
 2847 008e 0E       		.uleb128 0xe
 2848 008f 0B       		.uleb128 0xb
ARM GAS  /tmp/cckRYAkY.s 			page 51


 2849 0090 0B       		.uleb128 0xb
 2850 0091 3A       		.uleb128 0x3a
 2851 0092 0B       		.uleb128 0xb
 2852 0093 3B       		.uleb128 0x3b
 2853 0094 05       		.uleb128 0x5
 2854 0095 01       		.uleb128 0x1
 2855 0096 13       		.uleb128 0x13
 2856 0097 00       		.byte	0
 2857 0098 00       		.byte	0
 2858 0099 0C       		.uleb128 0xc
 2859 009a 15       		.uleb128 0x15
 2860 009b 01       		.byte	0x1
 2861 009c 27       		.uleb128 0x27
 2862 009d 19       		.uleb128 0x19
 2863 009e 01       		.uleb128 0x1
 2864 009f 13       		.uleb128 0x13
 2865 00a0 00       		.byte	0
 2866 00a1 00       		.byte	0
 2867 00a2 0D       		.uleb128 0xd
 2868 00a3 05       		.uleb128 0x5
 2869 00a4 00       		.byte	0
 2870 00a5 49       		.uleb128 0x49
 2871 00a6 13       		.uleb128 0x13
 2872 00a7 00       		.byte	0
 2873 00a8 00       		.byte	0
 2874 00a9 0E       		.uleb128 0xe
 2875 00aa 0F       		.uleb128 0xf
 2876 00ab 00       		.byte	0
 2877 00ac 0B       		.uleb128 0xb
 2878 00ad 0B       		.uleb128 0xb
 2879 00ae 00       		.byte	0
 2880 00af 00       		.byte	0
 2881 00b0 0F       		.uleb128 0xf
 2882 00b1 35       		.uleb128 0x35
 2883 00b2 00       		.byte	0
 2884 00b3 49       		.uleb128 0x49
 2885 00b4 13       		.uleb128 0x13
 2886 00b5 00       		.byte	0
 2887 00b6 00       		.byte	0
 2888 00b7 10       		.uleb128 0x10
 2889 00b8 13       		.uleb128 0x13
 2890 00b9 01       		.byte	0x1
 2891 00ba 0B       		.uleb128 0xb
 2892 00bb 0B       		.uleb128 0xb
 2893 00bc 3A       		.uleb128 0x3a
 2894 00bd 0B       		.uleb128 0xb
 2895 00be 3B       		.uleb128 0x3b
 2896 00bf 05       		.uleb128 0x5
 2897 00c0 01       		.uleb128 0x1
 2898 00c1 13       		.uleb128 0x13
 2899 00c2 00       		.byte	0
 2900 00c3 00       		.byte	0
 2901 00c4 11       		.uleb128 0x11
 2902 00c5 16       		.uleb128 0x16
 2903 00c6 00       		.byte	0
 2904 00c7 03       		.uleb128 0x3
 2905 00c8 0E       		.uleb128 0xe
ARM GAS  /tmp/cckRYAkY.s 			page 52


 2906 00c9 3A       		.uleb128 0x3a
 2907 00ca 0B       		.uleb128 0xb
 2908 00cb 3B       		.uleb128 0x3b
 2909 00cc 05       		.uleb128 0x5
 2910 00cd 49       		.uleb128 0x49
 2911 00ce 13       		.uleb128 0x13
 2912 00cf 00       		.byte	0
 2913 00d0 00       		.byte	0
 2914 00d1 12       		.uleb128 0x12
 2915 00d2 13       		.uleb128 0x13
 2916 00d3 01       		.byte	0x1
 2917 00d4 0B       		.uleb128 0xb
 2918 00d5 0B       		.uleb128 0xb
 2919 00d6 3A       		.uleb128 0x3a
 2920 00d7 0B       		.uleb128 0xb
 2921 00d8 3B       		.uleb128 0x3b
 2922 00d9 0B       		.uleb128 0xb
 2923 00da 01       		.uleb128 0x1
 2924 00db 13       		.uleb128 0x13
 2925 00dc 00       		.byte	0
 2926 00dd 00       		.byte	0
 2927 00de 13       		.uleb128 0x13
 2928 00df 17       		.uleb128 0x17
 2929 00e0 01       		.byte	0x1
 2930 00e1 0B       		.uleb128 0xb
 2931 00e2 0B       		.uleb128 0xb
 2932 00e3 3A       		.uleb128 0x3a
 2933 00e4 0B       		.uleb128 0xb
 2934 00e5 3B       		.uleb128 0x3b
 2935 00e6 0B       		.uleb128 0xb
 2936 00e7 01       		.uleb128 0x1
 2937 00e8 13       		.uleb128 0x13
 2938 00e9 00       		.byte	0
 2939 00ea 00       		.byte	0
 2940 00eb 14       		.uleb128 0x14
 2941 00ec 0D       		.uleb128 0xd
 2942 00ed 00       		.byte	0
 2943 00ee 03       		.uleb128 0x3
 2944 00ef 0E       		.uleb128 0xe
 2945 00f0 3A       		.uleb128 0x3a
 2946 00f1 0B       		.uleb128 0xb
 2947 00f2 3B       		.uleb128 0x3b
 2948 00f3 0B       		.uleb128 0xb
 2949 00f4 49       		.uleb128 0x49
 2950 00f5 13       		.uleb128 0x13
 2951 00f6 00       		.byte	0
 2952 00f7 00       		.byte	0
 2953 00f8 15       		.uleb128 0x15
 2954 00f9 0D       		.uleb128 0xd
 2955 00fa 00       		.byte	0
 2956 00fb 03       		.uleb128 0x3
 2957 00fc 0E       		.uleb128 0xe
 2958 00fd 3A       		.uleb128 0x3a
 2959 00fe 0B       		.uleb128 0xb
 2960 00ff 3B       		.uleb128 0x3b
 2961 0100 05       		.uleb128 0x5
 2962 0101 49       		.uleb128 0x49
ARM GAS  /tmp/cckRYAkY.s 			page 53


 2963 0102 13       		.uleb128 0x13
 2964 0103 00       		.byte	0
 2965 0104 00       		.byte	0
 2966 0105 16       		.uleb128 0x16
 2967 0106 26       		.uleb128 0x26
 2968 0107 00       		.byte	0
 2969 0108 49       		.uleb128 0x49
 2970 0109 13       		.uleb128 0x13
 2971 010a 00       		.byte	0
 2972 010b 00       		.byte	0
 2973 010c 17       		.uleb128 0x17
 2974 010d 15       		.uleb128 0x15
 2975 010e 01       		.byte	0x1
 2976 010f 27       		.uleb128 0x27
 2977 0110 19       		.uleb128 0x19
 2978 0111 49       		.uleb128 0x49
 2979 0112 13       		.uleb128 0x13
 2980 0113 01       		.uleb128 0x1
 2981 0114 13       		.uleb128 0x13
 2982 0115 00       		.byte	0
 2983 0116 00       		.byte	0
 2984 0117 18       		.uleb128 0x18
 2985 0118 0D       		.uleb128 0xd
 2986 0119 00       		.byte	0
 2987 011a 03       		.uleb128 0x3
 2988 011b 08       		.uleb128 0x8
 2989 011c 3A       		.uleb128 0x3a
 2990 011d 0B       		.uleb128 0xb
 2991 011e 3B       		.uleb128 0x3b
 2992 011f 0B       		.uleb128 0xb
 2993 0120 49       		.uleb128 0x49
 2994 0121 13       		.uleb128 0x13
 2995 0122 00       		.byte	0
 2996 0123 00       		.byte	0
 2997 0124 19       		.uleb128 0x19
 2998 0125 04       		.uleb128 0x4
 2999 0126 01       		.byte	0x1
 3000 0127 0B       		.uleb128 0xb
 3001 0128 0B       		.uleb128 0xb
 3002 0129 3A       		.uleb128 0x3a
 3003 012a 0B       		.uleb128 0xb
 3004 012b 3B       		.uleb128 0x3b
 3005 012c 0B       		.uleb128 0xb
 3006 012d 01       		.uleb128 0x1
 3007 012e 13       		.uleb128 0x13
 3008 012f 00       		.byte	0
 3009 0130 00       		.byte	0
 3010 0131 1A       		.uleb128 0x1a
 3011 0132 28       		.uleb128 0x28
 3012 0133 00       		.byte	0
 3013 0134 03       		.uleb128 0x3
 3014 0135 0E       		.uleb128 0xe
 3015 0136 1C       		.uleb128 0x1c
 3016 0137 0D       		.uleb128 0xd
 3017 0138 00       		.byte	0
 3018 0139 00       		.byte	0
 3019 013a 1B       		.uleb128 0x1b
ARM GAS  /tmp/cckRYAkY.s 			page 54


 3020 013b 04       		.uleb128 0x4
 3021 013c 01       		.byte	0x1
 3022 013d 0B       		.uleb128 0xb
 3023 013e 0B       		.uleb128 0xb
 3024 013f 3A       		.uleb128 0x3a
 3025 0140 0B       		.uleb128 0xb
 3026 0141 3B       		.uleb128 0x3b
 3027 0142 05       		.uleb128 0x5
 3028 0143 01       		.uleb128 0x1
 3029 0144 13       		.uleb128 0x13
 3030 0145 00       		.byte	0
 3031 0146 00       		.byte	0
 3032 0147 1C       		.uleb128 0x1c
 3033 0148 01       		.uleb128 0x1
 3034 0149 01       		.byte	0x1
 3035 014a 49       		.uleb128 0x49
 3036 014b 13       		.uleb128 0x13
 3037 014c 01       		.uleb128 0x1
 3038 014d 13       		.uleb128 0x13
 3039 014e 00       		.byte	0
 3040 014f 00       		.byte	0
 3041 0150 1D       		.uleb128 0x1d
 3042 0151 21       		.uleb128 0x21
 3043 0152 00       		.byte	0
 3044 0153 49       		.uleb128 0x49
 3045 0154 13       		.uleb128 0x13
 3046 0155 2F       		.uleb128 0x2f
 3047 0156 0B       		.uleb128 0xb
 3048 0157 00       		.byte	0
 3049 0158 00       		.byte	0
 3050 0159 1E       		.uleb128 0x1e
 3051 015a 2E       		.uleb128 0x2e
 3052 015b 01       		.byte	0x1
 3053 015c 3F       		.uleb128 0x3f
 3054 015d 19       		.uleb128 0x19
 3055 015e 03       		.uleb128 0x3
 3056 015f 0E       		.uleb128 0xe
 3057 0160 3A       		.uleb128 0x3a
 3058 0161 0B       		.uleb128 0xb
 3059 0162 3B       		.uleb128 0x3b
 3060 0163 0B       		.uleb128 0xb
 3061 0164 27       		.uleb128 0x27
 3062 0165 19       		.uleb128 0x19
 3063 0166 49       		.uleb128 0x49
 3064 0167 13       		.uleb128 0x13
 3065 0168 11       		.uleb128 0x11
 3066 0169 01       		.uleb128 0x1
 3067 016a 12       		.uleb128 0x12
 3068 016b 06       		.uleb128 0x6
 3069 016c 40       		.uleb128 0x40
 3070 016d 18       		.uleb128 0x18
 3071 016e 9642     		.uleb128 0x2116
 3072 0170 19       		.uleb128 0x19
 3073 0171 01       		.uleb128 0x1
 3074 0172 13       		.uleb128 0x13
 3075 0173 00       		.byte	0
 3076 0174 00       		.byte	0
ARM GAS  /tmp/cckRYAkY.s 			page 55


 3077 0175 1F       		.uleb128 0x1f
 3078 0176 34       		.uleb128 0x34
 3079 0177 00       		.byte	0
 3080 0178 03       		.uleb128 0x3
 3081 0179 0E       		.uleb128 0xe
 3082 017a 3A       		.uleb128 0x3a
 3083 017b 0B       		.uleb128 0xb
 3084 017c 3B       		.uleb128 0x3b
 3085 017d 0B       		.uleb128 0xb
 3086 017e 49       		.uleb128 0x49
 3087 017f 13       		.uleb128 0x13
 3088 0180 02       		.uleb128 0x2
 3089 0181 18       		.uleb128 0x18
 3090 0182 00       		.byte	0
 3091 0183 00       		.byte	0
 3092 0184 20       		.uleb128 0x20
 3093 0185 05       		.uleb128 0x5
 3094 0186 00       		.byte	0
 3095 0187 03       		.uleb128 0x3
 3096 0188 0E       		.uleb128 0xe
 3097 0189 3A       		.uleb128 0x3a
 3098 018a 0B       		.uleb128 0xb
 3099 018b 3B       		.uleb128 0x3b
 3100 018c 0B       		.uleb128 0xb
 3101 018d 49       		.uleb128 0x49
 3102 018e 13       		.uleb128 0x13
 3103 018f 02       		.uleb128 0x2
 3104 0190 18       		.uleb128 0x18
 3105 0191 00       		.byte	0
 3106 0192 00       		.byte	0
 3107 0193 21       		.uleb128 0x21
 3108 0194 34       		.uleb128 0x34
 3109 0195 00       		.byte	0
 3110 0196 03       		.uleb128 0x3
 3111 0197 08       		.uleb128 0x8
 3112 0198 3A       		.uleb128 0x3a
 3113 0199 0B       		.uleb128 0xb
 3114 019a 3B       		.uleb128 0x3b
 3115 019b 0B       		.uleb128 0xb
 3116 019c 49       		.uleb128 0x49
 3117 019d 13       		.uleb128 0x13
 3118 019e 02       		.uleb128 0x2
 3119 019f 18       		.uleb128 0x18
 3120 01a0 00       		.byte	0
 3121 01a1 00       		.byte	0
 3122 01a2 22       		.uleb128 0x22
 3123 01a3 34       		.uleb128 0x34
 3124 01a4 00       		.byte	0
 3125 01a5 03       		.uleb128 0x3
 3126 01a6 0E       		.uleb128 0xe
 3127 01a7 3A       		.uleb128 0x3a
 3128 01a8 0B       		.uleb128 0xb
 3129 01a9 3B       		.uleb128 0x3b
 3130 01aa 05       		.uleb128 0x5
 3131 01ab 49       		.uleb128 0x49
 3132 01ac 13       		.uleb128 0x13
 3133 01ad 3F       		.uleb128 0x3f
ARM GAS  /tmp/cckRYAkY.s 			page 56


 3134 01ae 19       		.uleb128 0x19
 3135 01af 3C       		.uleb128 0x3c
 3136 01b0 19       		.uleb128 0x19
 3137 01b1 00       		.byte	0
 3138 01b2 00       		.byte	0
 3139 01b3 23       		.uleb128 0x23
 3140 01b4 34       		.uleb128 0x34
 3141 01b5 00       		.byte	0
 3142 01b6 03       		.uleb128 0x3
 3143 01b7 08       		.uleb128 0x8
 3144 01b8 3A       		.uleb128 0x3a
 3145 01b9 0B       		.uleb128 0xb
 3146 01ba 3B       		.uleb128 0x3b
 3147 01bb 05       		.uleb128 0x5
 3148 01bc 49       		.uleb128 0x49
 3149 01bd 13       		.uleb128 0x13
 3150 01be 3F       		.uleb128 0x3f
 3151 01bf 19       		.uleb128 0x19
 3152 01c0 3C       		.uleb128 0x3c
 3153 01c1 19       		.uleb128 0x19
 3154 01c2 00       		.byte	0
 3155 01c3 00       		.byte	0
 3156 01c4 00       		.byte	0
 3157              		.section	.debug_aranges,"",%progbits
 3158 0000 1C000000 		.4byte	0x1c
 3159 0004 0200     		.2byte	0x2
 3160 0006 00000000 		.4byte	.Ldebug_info0
 3161 000a 04       		.byte	0x4
 3162 000b 00       		.byte	0
 3163 000c 0000     		.2byte	0
 3164 000e 0000     		.2byte	0
 3165 0010 00000000 		.4byte	.Ltext0
 3166 0014 90020000 		.4byte	.Letext0-.Ltext0
 3167 0018 00000000 		.4byte	0
 3168 001c 00000000 		.4byte	0
 3169              		.section	.debug_line,"",%progbits
 3170              	.Ldebug_line0:
 3171 0000 85030000 		.section	.debug_str,"MS",%progbits,1
 3171      02002E03 
 3171      00000201 
 3171      FB0E0D00 
 3171      01010101 
 3172              	.LASF78:
 3173 0000 4D314152 		.ascii	"M1AR\000"
 3173      00
 3174              	.LASF119:
 3175 0005 73746D33 		.ascii	"stm32_dma_stream_t\000"
 3175      325F646D 
 3175      615F7374 
 3175      7265616D 
 3175      5F7400
 3176              	.LASF235:
 3177 0018 4F44525F 		.ascii	"ODR_XL_833\000"
 3177      584C5F38 
 3177      333300
 3178              	.LASF2:
 3179 0023 73697A65 		.ascii	"size_t\000"
ARM GAS  /tmp/cckRYAkY.s 			page 57


 3179      5F7400
 3180              	.LASF75:
 3181 002a 73697A65 		.ascii	"sizetype\000"
 3181      74797065 
 3181      00
 3182              	.LASF98:
 3183 0033 77747365 		.ascii	"wtsemp\000"
 3183      6D7000
 3184              	.LASF31:
 3185 003a 73797374 		.ascii	"systime_t\000"
 3185      696D655F 
 3185      7400
 3186              	.LASF103:
 3187 0044 6F776E65 		.ascii	"owner\000"
 3187      7200
 3188              	.LASF26:
 3189 004a 74707269 		.ascii	"tprio_t\000"
 3189      6F5F7400 
 3190              	.LASF19:
 3191 0052 696E7433 		.ascii	"int32_t\000"
 3191      325F7400 
 3192              	.LASF190:
 3193 005a 77726974 		.ascii	"writet\000"
 3193      657400
 3194              	.LASF238:
 3195 0061 4F44525F 		.ascii	"ODR_XL_6_66k\000"
 3195      584C5F36 
 3195      5F36366B 
 3195      00
 3196              	.LASF59:
 3197 006e 76746675 		.ascii	"vtfunc_t\000"
 3197      6E635F74 
 3197      00
 3198              	.LASF206:
 3199 0077 7A305F64 		.ascii	"z0_data\000"
 3199      61746100 
 3200              	.LASF65:
 3201 007f 63685F76 		.ascii	"ch_virtual_timers_list\000"
 3201      69727475 
 3201      616C5F74 
 3201      696D6572 
 3201      735F6C69 
 3202              	.LASF215:
 3203 0096 785F6461 		.ascii	"x_data\000"
 3203      746100
 3204              	.LASF158:
 3205 009d 46415354 		.ascii	"FAST_DUTY_CYCLE_2\000"
 3205      5F445554 
 3205      595F4359 
 3205      434C455F 
 3205      3200
 3206              	.LASF209:
 3207 00af 65727233 		.ascii	"err3\000"
 3207      00
 3208              	.LASF186:
 3209 00b4 77726974 		.ascii	"write\000"
 3209      6500
ARM GAS  /tmp/cckRYAkY.s 			page 58


 3210              	.LASF213:
 3211 00ba 65727237 		.ascii	"err7\000"
 3211      00
 3212              	.LASF223:
 3213 00bf 42575F58 		.ascii	"BW_XL_50\000"
 3213      4C5F3530 
 3213      00
 3214              	.LASF242:
 3215 00c8 41636365 		.ascii	"Accelerometer.c\000"
 3215      6C65726F 
 3215      6D657465 
 3215      722E6300 
 3216              	.LASF39:
 3217 00d8 73746174 		.ascii	"state\000"
 3217      6500
 3218              	.LASF188:
 3219 00de 70757474 		.ascii	"putt\000"
 3219      00
 3220              	.LASF193:
 3221 00e3 41636365 		.ascii	"AccelerometerConfig\000"
 3221      6C65726F 
 3221      6D657465 
 3221      72436F6E 
 3221      66696700 
 3222              	.LASF34:
 3223 00f7 7072696F 		.ascii	"prio\000"
 3223      00
 3224              	.LASF94:
 3225 00fc 65786974 		.ascii	"exitcode\000"
 3225      636F6465 
 3225      00
 3226              	.LASF3:
 3227 0105 5F5F7569 		.ascii	"__uint8_t\000"
 3227      6E74385F 
 3227      7400
 3228              	.LASF151:
 3229 010f 69326361 		.ascii	"i2caddr_t\000"
 3229      6464725F 
 3229      7400
 3230              	.LASF125:
 3231 0119 715F746F 		.ascii	"q_top\000"
 3231      7000
 3232              	.LASF160:
 3233 011f 69326364 		.ascii	"i2cdutycycle_t\000"
 3233      75747963 
 3233      79636C65 
 3233      5F7400
 3234              	.LASF191:
 3235 012e 72656164 		.ascii	"readt\000"
 3235      7400
 3236              	.LASF124:
 3237 0134 715F6275 		.ascii	"q_buffer\000"
 3237      66666572 
 3237      00
 3238              	.LASF222:
 3239 013d 42575F58 		.ascii	"BW_XL_100\000"
 3239      4C5F3130 
ARM GAS  /tmp/cckRYAkY.s 			page 59


 3239      3000
 3240              	.LASF128:
 3241 0147 715F6E6F 		.ascii	"q_notify\000"
 3241      74696679 
 3241      00
 3242              	.LASF230:
 3243 0150 4F44525F 		.ascii	"ODR_XL_26\000"
 3243      584C5F32 
 3243      3600
 3244              	.LASF10:
 3245 015a 6C6F6E67 		.ascii	"long int\000"
 3245      20696E74 
 3245      00
 3246              	.LASF127:
 3247 0163 715F7264 		.ascii	"q_rdptr\000"
 3247      70747200 
 3248              	.LASF229:
 3249 016b 4F44525F 		.ascii	"ODR_XL_12_5\000"
 3249      584C5F31 
 3249      325F3500 
 3250              	.LASF24:
 3251 0177 74737461 		.ascii	"tstate_t\000"
 3251      74655F74 
 3251      00
 3252              	.LASF44:
 3253 0180 6570656E 		.ascii	"epending\000"
 3253      64696E67 
 3253      00
 3254              	.LASF53:
 3255 0189 74687265 		.ascii	"threads_queue_t\000"
 3255      6164735F 
 3255      71756575 
 3255      655F7400 
 3256              	.LASF182:
 3257 0199 6F717565 		.ascii	"oqueue\000"
 3257      756500
 3258              	.LASF87:
 3259 01a0 72656761 		.ascii	"regarm_t\000"
 3259      726D5F74 
 3259      00
 3260              	.LASF121:
 3261 01a9 696F5F71 		.ascii	"io_queue\000"
 3261      75657565 
 3261      00
 3262              	.LASF183:
 3263 01b2 75736172 		.ascii	"usart\000"
 3263      7400
 3264              	.LASF1:
 3265 01b8 7369676E 		.ascii	"signed char\000"
 3265      65642063 
 3265      68617200 
 3266              	.LASF100:
 3267 01c4 65776D61 		.ascii	"ewmask\000"
 3267      736B00
 3268              	.LASF16:
 3269 01cb 75696E74 		.ascii	"uint8_t\000"
 3269      385F7400 
ARM GAS  /tmp/cckRYAkY.s 			page 60


 3270              	.LASF28:
 3271 01d3 6576656E 		.ascii	"eventmask_t\000"
 3271      746D6173 
 3271      6B5F7400 
 3272              	.LASF96:
 3273 01df 77747472 		.ascii	"wttrp\000"
 3273      7000
 3274              	.LASF4:
 3275 01e5 756E7369 		.ascii	"unsigned char\000"
 3275      676E6564 
 3275      20636861 
 3275      7200
 3276              	.LASF129:
 3277 01f3 715F6C69 		.ascii	"q_link\000"
 3277      6E6B00
 3278              	.LASF66:
 3279 01fa 6C617374 		.ascii	"lasttime\000"
 3279      74696D65 
 3279      00
 3280              	.LASF142:
 3281 0203 73746D33 		.ascii	"stm32_gpio_t\000"
 3281      325F6770 
 3281      696F5F74 
 3281      00
 3282              	.LASF200:
 3283 0210 77726974 		.ascii	"writeByte\000"
 3283      65427974 
 3283      6500
 3284              	.LASF69:
 3285 021a 70616E69 		.ascii	"panic_msg\000"
 3285      635F6D73 
 3285      6700
 3286              	.LASF231:
 3287 0224 4F44525F 		.ascii	"ODR_XL_52\000"
 3287      584C5F35 
 3287      3200
 3288              	.LASF67:
 3289 022e 73797374 		.ascii	"system_debug_t\000"
 3289      656D5F64 
 3289      65627567 
 3289      5F7400
 3290              	.LASF175:
 3291 023d 53445F55 		.ascii	"SD_UNINIT\000"
 3291      4E494E49 
 3291      5400
 3292              	.LASF148:
 3293 0247 4932435F 		.ascii	"I2C_ACTIVE_RX\000"
 3293      41435449 
 3293      56455F52 
 3293      5800
 3294              	.LASF113:
 3295 0255 5F426F6F 		.ascii	"_Bool\000"
 3295      6C00
 3296              	.LASF224:
 3297 025b 46535F58 		.ascii	"FS_XL_2\000"
 3297      4C5F3200 
 3298              	.LASF225:
ARM GAS  /tmp/cckRYAkY.s 			page 61


 3299 0263 46535F58 		.ascii	"FS_XL_4\000"
 3299      4C5F3400 
 3300              	.LASF226:
 3301 026b 46535F58 		.ascii	"FS_XL_8\000"
 3301      4C5F3800 
 3302              	.LASF153:
 3303 0273 4F504D4F 		.ascii	"OPMODE_I2C\000"
 3303      44455F49 
 3303      324300
 3304              	.LASF104:
 3305 027e 63686172 		.ascii	"char\000"
 3305      00
 3306              	.LASF240:
 3307 0283 49324344 		.ascii	"I2CD1\000"
 3307      3100
 3308              	.LASF116:
 3309 0289 69736869 		.ascii	"ishift\000"
 3309      667400
 3310              	.LASF227:
 3311 0290 46535F58 		.ascii	"FS_XL_16\000"
 3311      4C5F3136 
 3311      00
 3312              	.LASF219:
 3313 0299 7A5F6461 		.ascii	"z_data\000"
 3313      746100
 3314              	.LASF7:
 3315 02a0 5F5F7569 		.ascii	"__uint16_t\000"
 3315      6E743136 
 3315      5F7400
 3316              	.LASF95:
 3317 02ab 77746F62 		.ascii	"wtobjp\000"
 3317      6A7000
 3318              	.LASF166:
 3319 02b2 636F6E66 		.ascii	"config\000"
 3319      696700
 3320              	.LASF167:
 3321 02b9 6572726F 		.ascii	"errors\000"
 3321      727300
 3322              	.LASF40:
 3323 02c0 666C6167 		.ascii	"flags\000"
 3323      7300
 3324              	.LASF189:
 3325 02c6 67657474 		.ascii	"gett\000"
 3325      00
 3326              	.LASF88:
 3327 02cb 73746B61 		.ascii	"stkalign_t\000"
 3327      6C69676E 
 3327      5F7400
 3328              	.LASF86:
 3329 02d6 55534152 		.ascii	"USART_TypeDef\000"
 3329      545F5479 
 3329      70654465 
 3329      6600
 3330              	.LASF234:
 3331 02e4 4F44525F 		.ascii	"ODR_XL_416\000"
 3331      584C5F34 
 3331      313600
ARM GAS  /tmp/cckRYAkY.s 			page 62


 3332              	.LASF147:
 3333 02ef 4932435F 		.ascii	"I2C_ACTIVE_TX\000"
 3333      41435449 
 3333      56455F54 
 3333      5800
 3334              	.LASF47:
 3335 02fd 6D706F6F 		.ascii	"mpool\000"
 3335      6C00
 3336              	.LASF114:
 3337 0303 73747265 		.ascii	"stream\000"
 3337      616D00
 3338              	.LASF106:
 3339 030a 6576656E 		.ascii	"event_listener_t\000"
 3339      745F6C69 
 3339      7374656E 
 3339      65725F74 
 3339      00
 3340              	.LASF143:
 3341 031b 696F706F 		.ascii	"ioportmask_t\000"
 3341      72746D61 
 3341      736B5F74 
 3341      00
 3342              	.LASF221:
 3343 0328 42575F58 		.ascii	"BW_XL_200\000"
 3343      4C5F3230 
 3343      3000
 3344              	.LASF30:
 3345 0332 636E745F 		.ascii	"cnt_t\000"
 3345      7400
 3346              	.LASF184:
 3347 0338 72786D61 		.ascii	"rxmask\000"
 3347      736B00
 3348              	.LASF196:
 3349 033f 72656763 		.ascii	"regcontent\000"
 3349      6F6E7465 
 3349      6E7400
 3350              	.LASF99:
 3351 034a 77746D74 		.ascii	"wtmtxp\000"
 3351      787000
 3352              	.LASF214:
 3353 0351 755F785F 		.ascii	"u_x_data\000"
 3353      64617461 
 3353      00
 3354              	.LASF57:
 3355 035a 63685F72 		.ascii	"ch_ready_list\000"
 3355      65616479 
 3355      5F6C6973 
 3355      7400
 3356              	.LASF149:
 3357 0368 4932435F 		.ascii	"I2C_LOCKED\000"
 3357      4C4F434B 
 3357      454400
 3358              	.LASF163:
 3359 0373 64757479 		.ascii	"duty_cycle\000"
 3359      5F637963 
 3359      6C6500
 3360              	.LASF133:
ARM GAS  /tmp/cckRYAkY.s 			page 63


 3361 037e 636C6561 		.ascii	"clear\000"
 3361      7200
 3362              	.LASF165:
 3363 0384 49324344 		.ascii	"I2CDriver\000"
 3363      72697665 
 3363      7200
 3364              	.LASF123:
 3365 038e 715F636F 		.ascii	"q_counter\000"
 3365      756E7465 
 3365      7200
 3366              	.LASF14:
 3367 0398 5F5F7569 		.ascii	"__uint64_t\000"
 3367      6E743634 
 3367      5F7400
 3368              	.LASF12:
 3369 03a3 6C6F6E67 		.ascii	"long unsigned int\000"
 3369      20756E73 
 3369      69676E65 
 3369      6420696E 
 3369      7400
 3370              	.LASF101:
 3371 03b5 63685F73 		.ascii	"ch_semaphore\000"
 3371      656D6170 
 3371      686F7265 
 3371      00
 3372              	.LASF50:
 3373 03c2 63685F74 		.ascii	"ch_thread\000"
 3373      68726561 
 3373      6400
 3374              	.LASF64:
 3375 03cc 76697274 		.ascii	"virtual_timers_list_t\000"
 3375      75616C5F 
 3375      74696D65 
 3375      72735F6C 
 3375      6973745F 
 3376              	.LASF82:
 3377 03e2 54524953 		.ascii	"TRISE\000"
 3377      4500
 3378              	.LASF60:
 3379 03e8 76697274 		.ascii	"virtual_timer_t\000"
 3379      75616C5F 
 3379      74696D65 
 3379      725F7400 
 3380              	.LASF56:
 3381 03f8 72656164 		.ascii	"ready_list_t\000"
 3381      795F6C69 
 3381      73745F74 
 3381      00
 3382              	.LASF36:
 3383 0405 6F6C6465 		.ascii	"older\000"
 3383      7200
 3384              	.LASF139:
 3385 040b 4C434B52 		.ascii	"LCKR\000"
 3385      00
 3386              	.LASF46:
 3387 0410 7265616C 		.ascii	"realprio\000"
 3387      7072696F 
ARM GAS  /tmp/cckRYAkY.s 			page 64


 3387      00
 3388              	.LASF51:
 3389 0419 63685F74 		.ascii	"ch_threads_list\000"
 3389      68726561 
 3389      64735F6C 
 3389      69737400 
 3390              	.LASF136:
 3391 0429 4F535045 		.ascii	"OSPEEDR\000"
 3391      45445200 
 3392              	.LASF173:
 3393 0431 646D6172 		.ascii	"dmarx\000"
 3393      7800
 3394              	.LASF199:
 3395 0437 41636365 		.ascii	"AccelerometerGetValues\000"
 3395      6C65726F 
 3395      6D657465 
 3395      72476574 
 3395      56616C75 
 3396              	.LASF11:
 3397 044e 5F5F7569 		.ascii	"__uint32_t\000"
 3397      6E743332 
 3397      5F7400
 3398              	.LASF45:
 3399 0459 6D74786C 		.ascii	"mtxlist\000"
 3399      69737400 
 3400              	.LASF13:
 3401 0461 6C6F6E67 		.ascii	"long long int\000"
 3401      206C6F6E 
 3401      6720696E 
 3401      7400
 3402              	.LASF144:
 3403 046f 4932435F 		.ascii	"I2C_UNINIT\000"
 3403      554E494E 
 3403      495400
 3404              	.LASF232:
 3405 047a 4F44525F 		.ascii	"ODR_XL_104\000"
 3405      584C5F31 
 3405      303400
 3406              	.LASF137:
 3407 0485 50555044 		.ascii	"PUPDR\000"
 3407      5200
 3408              	.LASF85:
 3409 048b 47545052 		.ascii	"GTPR\000"
 3409      00
 3410              	.LASF112:
 3411 0490 6576656E 		.ascii	"event_source_t\000"
 3411      745F736F 
 3411      75726365 
 3411      5F7400
 3412              	.LASF185:
 3413 049f 53657269 		.ascii	"SerialDriverVMT\000"
 3413      616C4472 
 3413      69766572 
 3413      564D5400 
 3414              	.LASF83:
 3415 04af 464C5452 		.ascii	"FLTR\000"
 3415      00
ARM GAS  /tmp/cckRYAkY.s 			page 65


 3416              	.LASF150:
 3417 04b4 69326373 		.ascii	"i2cstate_t\000"
 3417      74617465 
 3417      5F7400
 3418              	.LASF168:
 3419 04bf 6D757465 		.ascii	"mutex\000"
 3419      7800
 3420              	.LASF239:
 3421 04c5 49544D5F 		.ascii	"ITM_RxBuffer\000"
 3421      52784275 
 3421      66666572 
 3421      00
 3422              	.LASF201:
 3423 04d2 62756666 		.ascii	"buff\000"
 3423      00
 3424              	.LASF171:
 3425 04d7 7278646D 		.ascii	"rxdmamode\000"
 3425      616D6F64 
 3425      6500
 3426              	.LASF130:
 3427 04e1 716E6F74 		.ascii	"qnotify_t\000"
 3427      6966795F 
 3427      7400
 3428              	.LASF180:
 3429 04eb 6576656E 		.ascii	"event\000"
 3429      7400
 3430              	.LASF170:
 3431 04f1 61646472 		.ascii	"addr\000"
 3431      00
 3432              	.LASF174:
 3433 04f6 646D6174 		.ascii	"dmatx\000"
 3433      7800
 3434              	.LASF134:
 3435 04fc 4D4F4445 		.ascii	"MODER\000"
 3435      5200
 3436              	.LASF187:
 3437 0502 72656164 		.ascii	"read\000"
 3437      00
 3438              	.LASF140:
 3439 0507 4146524C 		.ascii	"AFRL\000"
 3439      00
 3440              	.LASF117:
 3441 050c 73656C66 		.ascii	"selfindex\000"
 3441      696E6465 
 3441      7800
 3442              	.LASF0:
 3443 0516 756E7369 		.ascii	"unsigned int\000"
 3443      676E6564 
 3443      20696E74 
 3443      00
 3444              	.LASF22:
 3445 0523 7274636E 		.ascii	"rtcnt_t\000"
 3445      745F7400 
 3446              	.LASF58:
 3447 052b 63757272 		.ascii	"current\000"
 3447      656E7400 
 3448              	.LASF198:
ARM GAS  /tmp/cckRYAkY.s 			page 66


 3449 0533 7472616E 		.ascii	"transmit\000"
 3449      736D6974 
 3449      00
 3450              	.LASF146:
 3451 053c 4932435F 		.ascii	"I2C_READY\000"
 3451      52454144 
 3451      5900
 3452              	.LASF91:
 3453 0546 6F666673 		.ascii	"offset\000"
 3453      657400
 3454              	.LASF194:
 3455 054d 69326363 		.ascii	"i2ccfg\000"
 3455      666700
 3456              	.LASF205:
 3457 0554 79315F64 		.ascii	"y1_data\000"
 3457      61746100 
 3458              	.LASF79:
 3459 055c 444D415F 		.ascii	"DMA_Stream_TypeDef\000"
 3459      53747265 
 3459      616D5F54 
 3459      79706544 
 3459      656600
 3460              	.LASF202:
 3461 056f 78305F64 		.ascii	"x0_data\000"
 3461      61746100 
 3462              	.LASF32:
 3463 0577 74687265 		.ascii	"thread_t\000"
 3463      61645F74 
 3463      00
 3464              	.LASF110:
 3465 0580 77666C61 		.ascii	"wflags\000"
 3465      677300
 3466              	.LASF159:
 3467 0587 46415354 		.ascii	"FAST_DUTY_CYCLE_16_9\000"
 3467      5F445554 
 3467      595F4359 
 3467      434C455F 
 3467      31365F39 
 3468              	.LASF48:
 3469 059c 74687265 		.ascii	"thread_reference_t\000"
 3469      61645F72 
 3469      65666572 
 3469      656E6365 
 3469      5F7400
 3470              	.LASF97:
 3471 05af 73656E74 		.ascii	"sentmsg\000"
 3471      6D736700 
 3472              	.LASF90:
 3473 05b7 706F7274 		.ascii	"port_intctx\000"
 3473      5F696E74 
 3473      63747800 
 3474              	.LASF207:
 3475 05c3 7A315F64 		.ascii	"z1_data\000"
 3475      61746100 
 3476              	.LASF217:
 3477 05cb 795F6461 		.ascii	"y_data\000"
 3477      746100
ARM GAS  /tmp/cckRYAkY.s 			page 67


 3478              	.LASF164:
 3479 05d2 49324343 		.ascii	"I2CConfig\000"
 3479      6F6E6669 
 3479      6700
 3480              	.LASF204:
 3481 05dc 79305F64 		.ascii	"y0_data\000"
 3481      61746100 
 3482              	.LASF61:
 3483 05e4 63685F76 		.ascii	"ch_virtual_timer\000"
 3483      69727475 
 3483      616C5F74 
 3483      696D6572 
 3483      00
 3484              	.LASF237:
 3485 05f5 4F44525F 		.ascii	"ODR_XL_3_33k\000"
 3485      584C5F33 
 3485      5F33336B 
 3485      00
 3486              	.LASF241:
 3487 0602 474E5520 		.ascii	"GNU C 4.9.3 20150529 (prerelease) -mcpu=cortex-m4 -"
 3487      4320342E 
 3487      392E3320 
 3487      32303135 
 3487      30353239 
 3488 0635 6D6E6F2D 		.ascii	"mno-thumb-interwork -mthumb -ggdb -O0 -fomit-frame-"
 3488      7468756D 
 3488      622D696E 
 3488      74657277 
 3488      6F726B20 
 3489 0668 706F696E 		.ascii	"pointer -falign-functions=16\000"
 3489      74657220 
 3489      2D66616C 
 3489      69676E2D 
 3489      66756E63 
 3490              	.LASF15:
 3491 0685 6C6F6E67 		.ascii	"long long unsigned int\000"
 3491      206C6F6E 
 3491      6720756E 
 3491      7369676E 
 3491      65642069 
 3492              	.LASF156:
 3493 069c 6932636F 		.ascii	"i2copmode_t\000"
 3493      706D6F64 
 3493      655F7400 
 3494              	.LASF18:
 3495 06a8 75696E74 		.ascii	"uint16_t\000"
 3495      31365F74 
 3495      00
 3496              	.LASF233:
 3497 06b1 4F44525F 		.ascii	"ODR_XL_208\000"
 3497      584C5F32 
 3497      303800
 3498              	.LASF27:
 3499 06bc 6D73675F 		.ascii	"msg_t\000"
 3499      7400
 3500              	.LASF54:
 3501 06c2 63685F74 		.ascii	"ch_threads_queue\000"
ARM GAS  /tmp/cckRYAkY.s 			page 68


 3501      68726561 
 3501      64735F71 
 3501      75657565 
 3501      00
 3502              	.LASF29:
 3503 06d3 6576656E 		.ascii	"eventflags_t\000"
 3503      74666C61 
 3503      67735F74 
 3503      00
 3504              	.LASF154:
 3505 06e0 4F504D4F 		.ascii	"OPMODE_SMBUS_DEVICE\000"
 3505      44455F53 
 3505      4D425553 
 3505      5F444556 
 3505      49434500 
 3506              	.LASF62:
 3507 06f4 64656C74 		.ascii	"delta\000"
 3507      6100
 3508              	.LASF141:
 3509 06fa 41465248 		.ascii	"AFRH\000"
 3509      00
 3510              	.LASF41:
 3511 06ff 72656673 		.ascii	"refs\000"
 3511      00
 3512              	.LASF33:
 3513 0704 71756575 		.ascii	"queue\000"
 3513      6500
 3514              	.LASF118:
 3515 070a 76656374 		.ascii	"vector\000"
 3515      6F7200
 3516              	.LASF84:
 3517 0711 4932435F 		.ascii	"I2C_TypeDef\000"
 3517      54797065 
 3517      44656600 
 3518              	.LASF157:
 3519 071d 5354445F 		.ascii	"STD_DUTY_CYCLE\000"
 3519      44555459 
 3519      5F435943 
 3519      4C4500
 3520              	.LASF74:
 3521 072c 6D61696E 		.ascii	"mainthread\000"
 3521      74687265 
 3521      616400
 3522              	.LASF220:
 3523 0737 42575F58 		.ascii	"BW_XL_400\000"
 3523      4C5F3430 
 3523      3000
 3524              	.LASF5:
 3525 0741 5F5F696E 		.ascii	"__int16_t\000"
 3525      7431365F 
 3525      7400
 3526              	.LASF38:
 3527 074b 77616261 		.ascii	"wabase\000"
 3527      736500
 3528              	.LASF179:
 3529 0752 53657269 		.ascii	"SerialDriver\000"
 3529      616C4472 
ARM GAS  /tmp/cckRYAkY.s 			page 69


 3529      69766572 
 3529      00
 3530              	.LASF135:
 3531 075f 4F545950 		.ascii	"OTYPER\000"
 3531      455200
 3532              	.LASF122:
 3533 0766 715F7761 		.ascii	"q_waiting\000"
 3533      6974696E 
 3533      6700
 3534              	.LASF72:
 3535 0770 726C6973 		.ascii	"rlist\000"
 3535      7400
 3536              	.LASF23:
 3537 0776 746D6F64 		.ascii	"tmode_t\000"
 3537      655F7400 
 3538              	.LASF80:
 3539 077e 4F415231 		.ascii	"OAR1\000"
 3539      00
 3540              	.LASF81:
 3541 0783 4F415232 		.ascii	"OAR2\000"
 3541      00
 3542              	.LASF178:
 3543 0788 73647374 		.ascii	"sdstate_t\000"
 3543      6174655F 
 3543      7400
 3544              	.LASF177:
 3545 0792 53445F52 		.ascii	"SD_READY\000"
 3545      45414459 
 3545      00
 3546              	.LASF92:
 3547 079b 746D5F63 		.ascii	"tm_calibration_t\000"
 3547      616C6962 
 3547      72617469 
 3547      6F6E5F74 
 3547      00
 3548              	.LASF169:
 3549 07ac 74687265 		.ascii	"thread\000"
 3549      616400
 3550              	.LASF77:
 3551 07b3 4D304152 		.ascii	"M0AR\000"
 3551      00
 3552              	.LASF37:
 3553 07b8 6E616D65 		.ascii	"name\000"
 3553      00
 3554              	.LASF108:
 3555 07bd 6C697374 		.ascii	"listener\000"
 3555      656E6572 
 3555      00
 3556              	.LASF236:
 3557 07c6 4F44525F 		.ascii	"ODR_XL_1_66k\000"
 3557      584C5F31 
 3557      5F36366B 
 3557      00
 3558              	.LASF6:
 3559 07d3 73686F72 		.ascii	"short int\000"
 3559      7420696E 
 3559      7400
ARM GAS  /tmp/cckRYAkY.s 			page 70


 3560              	.LASF111:
 3561 07dd 6576656E 		.ascii	"event_source\000"
 3561      745F736F 
 3561      75726365 
 3561      00
 3562              	.LASF228:
 3563 07ea 4F44525F 		.ascii	"ODR_XL_POWERDOWN\000"
 3563      584C5F50 
 3563      4F574552 
 3563      444F574E 
 3563      00
 3564              	.LASF208:
 3565 07fb 65727232 		.ascii	"err2\000"
 3565      00
 3566              	.LASF21:
 3567 0800 75696E74 		.ascii	"uint64_t\000"
 3567      36345F74 
 3567      00
 3568              	.LASF210:
 3569 0809 65727234 		.ascii	"err4\000"
 3569      00
 3570              	.LASF211:
 3571 080e 65727235 		.ascii	"err5\000"
 3571      00
 3572              	.LASF212:
 3573 0813 65727236 		.ascii	"err6\000"
 3573      00
 3574              	.LASF63:
 3575 0818 66756E63 		.ascii	"func\000"
 3575      00
 3576              	.LASF102:
 3577 081d 63685F6D 		.ascii	"ch_mutex\000"
 3577      75746578 
 3577      00
 3578              	.LASF17:
 3579 0826 696E7431 		.ascii	"int16_t\000"
 3579      365F7400 
 3580              	.LASF43:
 3581 082e 6D736771 		.ascii	"msgqueue\000"
 3581      75657565 
 3581      00
 3582              	.LASF181:
 3583 0837 69717565 		.ascii	"iqueue\000"
 3583      756500
 3584              	.LASF155:
 3585 083e 4F504D4F 		.ascii	"OPMODE_SMBUS_HOST\000"
 3585      44455F53 
 3585      4D425553 
 3585      5F484F53 
 3585      5400
 3586              	.LASF68:
 3587 0850 63685F73 		.ascii	"ch_system_debug\000"
 3587      79737465 
 3587      6D5F6465 
 3587      62756700 
 3588              	.LASF203:
 3589 0860 78315F64 		.ascii	"x1_data\000"
ARM GAS  /tmp/cckRYAkY.s 			page 71


 3589      61746100 
 3590              	.LASF195:
 3591 0868 636F6E74 		.ascii	"control_1_write_byte\000"
 3591      726F6C5F 
 3591      315F7772 
 3591      6974655F 
 3591      62797465 
 3592              	.LASF120:
 3593 087d 696F5F71 		.ascii	"io_queue_t\000"
 3593      75657565 
 3593      5F7400
 3594              	.LASF138:
 3595 0888 42535252 		.ascii	"BSRR\000"
 3595      00
 3596              	.LASF73:
 3597 088d 76746C69 		.ascii	"vtlist\000"
 3597      737400
 3598              	.LASF42:
 3599 0894 77616974 		.ascii	"waiting\000"
 3599      696E6700 
 3600              	.LASF105:
 3601 089c 6D757465 		.ascii	"mutex_t\000"
 3601      785F7400 
 3602              	.LASF25:
 3603 08a4 74726566 		.ascii	"trefs_t\000"
 3603      735F7400 
 3604              	.LASF89:
 3605 08ac 706F7274 		.ascii	"port_context\000"
 3605      5F636F6E 
 3605      74657874 
 3605      00
 3606              	.LASF49:
 3607 08b9 74687265 		.ascii	"threads_list_t\000"
 3607      6164735F 
 3607      6C697374 
 3607      5F7400
 3608              	.LASF71:
 3609 08c8 63685F73 		.ascii	"ch_system\000"
 3609      79737465 
 3609      6D00
 3610              	.LASF161:
 3611 08d2 6F705F6D 		.ascii	"op_mode\000"
 3611      6F646500 
 3612              	.LASF35:
 3613 08da 6E657765 		.ascii	"newer\000"
 3613      7200
 3614              	.LASF20:
 3615 08e0 75696E74 		.ascii	"uint32_t\000"
 3615      33325F74 
 3615      00
 3616              	.LASF131:
 3617 08e9 696E7075 		.ascii	"input_queue_t\000"
 3617      745F7175 
 3617      6575655F 
 3617      7400
 3618              	.LASF152:
 3619 08f7 69326366 		.ascii	"i2cflags_t\000"
ARM GAS  /tmp/cckRYAkY.s 			page 72


 3619      6C616773 
 3619      5F7400
 3620              	.LASF107:
 3621 0902 6576656E 		.ascii	"event_listener\000"
 3621      745F6C69 
 3621      7374656E 
 3621      657200
 3622              	.LASF218:
 3623 0911 755F7A5F 		.ascii	"u_z_data\000"
 3623      64617461 
 3623      00
 3624              	.LASF93:
 3625 091a 7264796D 		.ascii	"rdymsg\000"
 3625      736700
 3626              	.LASF126:
 3627 0921 715F7772 		.ascii	"q_wrptr\000"
 3627      70747200 
 3628              	.LASF8:
 3629 0929 73686F72 		.ascii	"short unsigned int\000"
 3629      7420756E 
 3629      7369676E 
 3629      65642069 
 3629      6E7400
 3630              	.LASF192:
 3631 093c 41636365 		.ascii	"AccelerometerInit\000"
 3631      6C65726F 
 3631      6D657465 
 3631      72496E69 
 3631      7400
 3632              	.LASF162:
 3633 094e 636C6F63 		.ascii	"clock_speed\000"
 3633      6B5F7370 
 3633      65656400 
 3634              	.LASF70:
 3635 095a 63685F73 		.ascii	"ch_system_t\000"
 3635      79737465 
 3635      6D5F7400 
 3636              	.LASF132:
 3637 0966 6F757470 		.ascii	"output_queue_t\000"
 3637      75745F71 
 3637      75657565 
 3637      5F7400
 3638              	.LASF243:
 3639 0975 2F686F6D 		.ascii	"/home/declan/ChibiOS2/ChibiOS/demos/STM32/RT-STM32F"
 3639      652F6465 
 3639      636C616E 
 3639      2F436869 
 3639      62694F53 
 3640 09a8 3430372D 		.ascii	"407-DISCOVERY\000"
 3640      44495343 
 3640      4F564552 
 3640      5900
 3641              	.LASF9:
 3642 09b6 5F5F696E 		.ascii	"__int32_t\000"
 3642      7433325F 
 3642      7400
 3643              	.LASF176:
ARM GAS  /tmp/cckRYAkY.s 			page 73


 3644 09c0 53445F53 		.ascii	"SD_STOP\000"
 3644      544F5000 
 3645              	.LASF76:
 3646 09c8 4E445452 		.ascii	"NDTR\000"
 3646      00
 3647              	.LASF115:
 3648 09cd 69666372 		.ascii	"ifcr\000"
 3648      00
 3649              	.LASF145:
 3650 09d2 4932435F 		.ascii	"I2C_STOP\000"
 3650      53544F50 
 3650      00
 3651              	.LASF109:
 3652 09db 6576656E 		.ascii	"events\000"
 3652      747300
 3653              	.LASF52:
 3654 09e2 6E657874 		.ascii	"next\000"
 3654      00
 3655              	.LASF197:
 3656 09e7 64617461 		.ascii	"data\000"
 3656      00
 3657              	.LASF55:
 3658 09ec 70726576 		.ascii	"prev\000"
 3658      00
 3659              	.LASF172:
 3660 09f1 7478646D 		.ascii	"txdmamode\000"
 3660      616D6F64 
 3660      6500
 3661              	.LASF216:
 3662 09fb 755F795F 		.ascii	"u_y_data\000"
 3662      64617461 
 3662      00
 3663              		.ident	"GCC: (15:4.9.3+svn231177-1) 4.9.3 20150529 (prerelease)"
ARM GAS  /tmp/cckRYAkY.s 			page 74


DEFINED SYMBOLS
                            *ABS*:0000000000000000 Accelerometer.c
     /tmp/cckRYAkY.s:21     .rodata:0000000000000000 BW_XL_400
     /tmp/cckRYAkY.s:22     .rodata:0000000000000000 $d
     /tmp/cckRYAkY.s:25     .rodata:0000000000000001 BW_XL_200
     /tmp/cckRYAkY.s:29     .rodata:0000000000000002 BW_XL_100
     /tmp/cckRYAkY.s:33     .rodata:0000000000000003 BW_XL_50
     /tmp/cckRYAkY.s:37     .rodata:0000000000000004 FS_XL_2
     /tmp/cckRYAkY.s:41     .rodata:0000000000000005 FS_XL_4
     /tmp/cckRYAkY.s:45     .rodata:0000000000000006 FS_XL_8
     /tmp/cckRYAkY.s:49     .rodata:0000000000000007 FS_XL_16
     /tmp/cckRYAkY.s:53     .rodata:0000000000000008 ODR_XL_POWERDOWN
     /tmp/cckRYAkY.s:57     .rodata:0000000000000009 ODR_XL_12_5
     /tmp/cckRYAkY.s:61     .rodata:000000000000000a ODR_XL_26
     /tmp/cckRYAkY.s:65     .rodata:000000000000000b ODR_XL_52
     /tmp/cckRYAkY.s:69     .rodata:000000000000000c ODR_XL_104
     /tmp/cckRYAkY.s:73     .rodata:000000000000000d ODR_XL_208
     /tmp/cckRYAkY.s:77     .rodata:000000000000000e ODR_XL_416
     /tmp/cckRYAkY.s:81     .rodata:000000000000000f ODR_XL_833
     /tmp/cckRYAkY.s:85     .rodata:0000000000000010 ODR_XL_1_66k
     /tmp/cckRYAkY.s:89     .rodata:0000000000000011 ODR_XL_3_33k
     /tmp/cckRYAkY.s:93     .rodata:0000000000000012 ODR_XL_6_66k
     /tmp/cckRYAkY.s:96     .text:0000000000000000 $t
     /tmp/cckRYAkY.s:102    .text:0000000000000000 AccelerometerInit
     /tmp/cckRYAkY.s:149    .text:0000000000000050 $d
     /tmp/cckRYAkY.s:457    .rodata:0000000000000014 i2ccfg.7673
     /tmp/cckRYAkY.s:156    .text:0000000000000060 $t
     /tmp/cckRYAkY.s:162    .text:0000000000000060 AccelerometerConfig
     /tmp/cckRYAkY.s:213    .text:00000000000000b0 $d
     /tmp/cckRYAkY.s:217    .text:00000000000000b4 $t
     /tmp/cckRYAkY.s:223    .text:00000000000000c0 AccelerometerGetValues
     /tmp/cckRYAkY.s:449    .text:000000000000028c $d
                     .debug_frame:0000000000000010 $d

UNDEFINED SYMBOLS
_pal_lld_setgroupmode
i2cStart
sdStart
I2CD1
SD3
i2cMasterTransmitTimeout
