ARM GAS  /tmp/cckRYAkY.s 			page 1


   1              		.syntax unified
   2              		.cpu cortex-m4
   3              		.fpu softvfp
   4              		.eabi_attribute 20, 1
   5              		.eabi_attribute 21, 1
   6              		.eabi_attribute 23, 3
   7              		.eabi_attribute 24, 1
   8              		.eabi_attribute 25, 1
   9              		.eabi_attribute 26, 1
  10              		.eabi_attribute 30, 6
  11              		.eabi_attribute 34, 1
  12              		.eabi_attribute 18, 4
  13              		.thumb
  14              		.file	"Accelerometer.c"
  15              		.text
  16              	.Ltext0:
  17              		.cfi_sections	.debug_frame
  18              		.section	.rodata
  19              		.type	BW_XL_400, %object
  20              		.size	BW_XL_400, 1
  21              	BW_XL_400:
  22 0000 00       		.space	1
  23              		.type	BW_XL_200, %object
  24              		.size	BW_XL_200, 1
  25              	BW_XL_200:
  26 0001 01       		.byte	1
  27              		.type	BW_XL_100, %object
  28              		.size	BW_XL_100, 1
  29              	BW_XL_100:
  30 0002 02       		.byte	2
  31              		.type	BW_XL_50, %object
  32              		.size	BW_XL_50, 1
  33              	BW_XL_50:
  34 0003 03       		.byte	3
  35              		.type	FS_XL_2, %object
  36              		.size	FS_XL_2, 1
  37              	FS_XL_2:
  38 0004 00       		.space	1
  39              		.type	FS_XL_4, %object
  40              		.size	FS_XL_4, 1
  41              	FS_XL_4:
  42 0005 08       		.byte	8
  43              		.type	FS_XL_8, %object
  44              		.size	FS_XL_8, 1
  45              	FS_XL_8:
  46 0006 0C       		.byte	12
  47              		.type	FS_XL_16, %object
  48              		.size	FS_XL_16, 1
  49              	FS_XL_16:
  50 0007 04       		.byte	4
  51              		.type	ODR_XL_POWERDOWN, %object
  52              		.size	ODR_XL_POWERDOWN, 1
  53              	ODR_XL_POWERDOWN:
  54 0008 00       		.space	1
  55              		.type	ODR_XL_12_5, %object
  56              		.size	ODR_XL_12_5, 1
  57              	ODR_XL_12_5:
ARM GAS  /tmp/cckRYAkY.s 			page 2


  58 0009 10       		.byte	16
  59              		.type	ODR_XL_26, %object
  60              		.size	ODR_XL_26, 1
  61              	ODR_XL_26:
  62 000a 20       		.byte	32
  63              		.type	ODR_XL_52, %object
  64              		.size	ODR_XL_52, 1
  65              	ODR_XL_52:
  66 000b 30       		.byte	48
  67              		.type	ODR_XL_104, %object
  68              		.size	ODR_XL_104, 1
  69              	ODR_XL_104:
  70 000c 40       		.byte	64
  71              		.type	ODR_XL_208, %object
  72              		.size	ODR_XL_208, 1
  73              	ODR_XL_208:
  74 000d 50       		.byte	80
  75              		.type	ODR_XL_416, %object
  76              		.size	ODR_XL_416, 1
  77              	ODR_XL_416:
  78 000e 60       		.byte	96
  79              		.type	ODR_XL_833, %object
  80              		.size	ODR_XL_833, 1
  81              	ODR_XL_833:
  82 000f 70       		.byte	112
  83              		.type	ODR_XL_1_66k, %object
  84              		.size	ODR_XL_1_66k, 1
  85              	ODR_XL_1_66k:
  86 0010 80       		.byte	-128
  87              		.type	ODR_XL_3_33k, %object
  88              		.size	ODR_XL_3_33k, 1
  89              	ODR_XL_3_33k:
  90 0011 90       		.byte	-112
  91              		.type	ODR_XL_6_66k, %object
  92              		.size	ODR_XL_6_66k, 1
  93              	ODR_XL_6_66k:
  94 0012 A0       		.byte	-96
  95              		.text
  96              		.align	2
  97              		.p2align 4,,15
  98              		.global	AccelerometerInit
  99              		.thumb
 100              		.thumb_func
 101              		.type	AccelerometerInit, %function
 102              	AccelerometerInit:
 103              	.LFB279:
 104              		.file 1 "Accelerometer.c"
 105              		.loc 1 13 0
 106              		.cfi_startproc
 107              		@ args = 0, pretend = 0, frame = 0
 108              		@ frame_needed = 0, uses_anonymous_args = 0
 109 0000 08B5     		push	{r3, lr}
 110              		.cfi_def_cfa_offset 8
 111              		.cfi_offset 3, -8
 112              		.cfi_offset 14, -4
 113              		.loc 1 23 0
 114 0002 1348     		ldr	r0, .L3
ARM GAS  /tmp/cckRYAkY.s 			page 3


 115 0004 4FF48071 		mov	r1, #256
 116 0008 40F20622 		movw	r2, #518
 117 000c FFF7FEFF 		bl	_pal_lld_setgroupmode
 118              		.loc 1 24 0
 119 0010 0F48     		ldr	r0, .L3
 120 0012 4FF40071 		mov	r1, #512
 121 0016 40F20622 		movw	r2, #518
 122 001a FFF7FEFF 		bl	_pal_lld_setgroupmode
 123              		.loc 1 26 0
 124 001e 0C48     		ldr	r0, .L3
 125 0020 4FF48061 		mov	r1, #1024
 126 0024 40F28232 		movw	r2, #898
 127 0028 FFF7FEFF 		bl	_pal_lld_setgroupmode
 128              		.loc 1 27 0
 129 002c 0848     		ldr	r0, .L3
 130 002e 4FF40061 		mov	r1, #2048
 131 0032 40F28232 		movw	r2, #898
 132 0036 FFF7FEFF 		bl	_pal_lld_setgroupmode
 133              		.loc 1 29 0
 134 003a 0648     		ldr	r0, .L3+4
 135 003c 0649     		ldr	r1, .L3+8
 136 003e FFF7FEFF 		bl	i2cStart
 137              		.loc 1 30 0
 138 0042 0648     		ldr	r0, .L3+12
 139 0044 0021     		movs	r1, #0
 140 0046 FFF7FEFF 		bl	sdStart
 141              		.loc 1 32 0
 142 004a 0123     		movs	r3, #1
 143              		.loc 1 34 0
 144 004c 1846     		mov	r0, r3
 145 004e 08BD     		pop	{r3, pc}
 146              	.L4:
 147              		.align	2
 148              	.L3:
 149 0050 00040240 		.word	1073873920
 150 0054 00000000 		.word	I2CD1
 151 0058 14000000 		.word	i2ccfg.7673
 152 005c 00000000 		.word	SD3
 153              		.cfi_endproc
 154              	.LFE279:
 155              		.size	AccelerometerInit, .-AccelerometerInit
 156              		.align	2
 157              		.p2align 4,,15
 158              		.global	AccelerometerConfig
 159              		.thumb
 160              		.thumb_func
 161              		.type	AccelerometerConfig, %function
 162              	AccelerometerConfig:
 163              	.LFB280:
 164              		.loc 1 44 0
 165              		.cfi_startproc
 166              		@ args = 0, pretend = 0, frame = 24
 167              		@ frame_needed = 0, uses_anonymous_args = 0
 168 0060 00B5     		push	{lr}
 169              		.cfi_def_cfa_offset 4
 170              		.cfi_offset 14, -4
 171 0062 8BB0     		sub	sp, sp, #44
ARM GAS  /tmp/cckRYAkY.s 			page 4


 172              		.cfi_def_cfa_offset 48
 173 0064 0346     		mov	r3, r0
 174 0066 8DF81730 		strb	r3, [sp, #23]
 175              		.loc 1 48 0
 176 006a 9DF81730 		ldrb	r3, [sp, #23]
 177 006e 8DF82730 		strb	r3, [sp, #39]
 178              		.loc 1 52 0
 179 0072 1023     		movs	r3, #16
 180 0074 8DF81C30 		strb	r3, [sp, #28]
 181 0078 9DF82730 		ldrb	r3, [sp, #39]
 182 007c 8DF81D30 		strb	r3, [sp, #29]
 183              		.loc 1 54 0
 184 0080 07AB     		add	r3, sp, #28
 185 0082 0893     		str	r3, [sp, #32]
 186              		.loc 1 55 0
 187 0084 0DF11F03 		add	r3, sp, #31
 188 0088 0093     		str	r3, [sp]
 189 008a 0023     		movs	r3, #0
 190 008c 0193     		str	r3, [sp, #4]
 191 008e 42F21073 		movw	r3, #10000
 192 0092 0293     		str	r3, [sp, #8]
 193 0094 0648     		ldr	r0, .L7
 194 0096 6A21     		movs	r1, #106
 195 0098 089A     		ldr	r2, [sp, #32]
 196 009a 0223     		movs	r3, #2
 197 009c FFF7FEFF 		bl	i2cMasterTransmitTimeout
 198 00a0 0346     		mov	r3, r0
 199 00a2 0693     		str	r3, [sp, #24]
 200              		.loc 1 57 0
 201 00a4 069B     		ldr	r3, [sp, #24]
 202              		.loc 1 59 0
 203 00a6 0123     		movs	r3, #1
 204              		.loc 1 61 0
 205 00a8 1846     		mov	r0, r3
 206 00aa 0BB0     		add	sp, sp, #44
 207              		.cfi_def_cfa_offset 4
 208              		@ sp needed
 209 00ac 5DF804FB 		ldr	pc, [sp], #4
 210              	.L8:
 211              		.align	2
 212              	.L7:
 213 00b0 00000000 		.word	I2CD1
 214              		.cfi_endproc
 215              	.LFE280:
 216              		.size	AccelerometerConfig, .-AccelerometerConfig
 217              		.align	2
 218 00b4 AFF30080 		.p2align 4,,15
 218      AFF30080 
 218      AFF30080 
 219              		.global	AccelerometerGetValues
 220              		.thumb
 221              		.thumb_func
 222              		.type	AccelerometerGetValues, %function
 223              	AccelerometerGetValues:
 224              	.LFB281:
 225              		.loc 1 73 0
 226              		.cfi_startproc
ARM GAS  /tmp/cckRYAkY.s 			page 5


 227              		@ args = 0, pretend = 0, frame = 64
 228              		@ frame_needed = 0, uses_anonymous_args = 0
 229 00c0 00B5     		push	{lr}
 230              		.cfi_def_cfa_offset 4
 231              		.cfi_offset 14, -4
 232 00c2 95B0     		sub	sp, sp, #84
 233              		.cfi_def_cfa_offset 88
 234 00c4 0590     		str	r0, [sp, #20]
 235              		.loc 1 85 0
 236 00c6 2823     		movs	r3, #40
 237 00c8 8DF84530 		strb	r3, [sp, #69]
 238              		.loc 1 87 0
 239 00cc 2923     		movs	r3, #41
 240 00ce 8DF84430 		strb	r3, [sp, #68]
 241              		.loc 1 90 0
 242 00d2 2A23     		movs	r3, #42
 243 00d4 8DF84330 		strb	r3, [sp, #67]
 244              		.loc 1 92 0
 245 00d8 2B23     		movs	r3, #43
 246 00da 8DF84230 		strb	r3, [sp, #66]
 247              		.loc 1 95 0
 248 00de 2C23     		movs	r3, #44
 249 00e0 8DF84130 		strb	r3, [sp, #65]
 250              		.loc 1 97 0
 251 00e4 2D23     		movs	r3, #45
 252 00e6 8DF84030 		strb	r3, [sp, #64]
 253              		.loc 1 102 0
 254 00ea 0DF14503 		add	r3, sp, #69
 255 00ee 1393     		str	r3, [sp, #76]
 256              		.loc 1 104 0
 257 00f0 0DF13F03 		add	r3, sp, #63
 258 00f4 0093     		str	r3, [sp]
 259 00f6 0123     		movs	r3, #1
 260 00f8 0193     		str	r3, [sp, #4]
 261 00fa 42F21073 		movw	r3, #10000
 262 00fe 0293     		str	r3, [sp, #8]
 263 0100 6248     		ldr	r0, .L11
 264 0102 6A21     		movs	r1, #106
 265 0104 139A     		ldr	r2, [sp, #76]
 266 0106 0123     		movs	r3, #1
 267 0108 FFF7FEFF 		bl	i2cMasterTransmitTimeout
 268 010c 0346     		mov	r3, r0
 269 010e 0E93     		str	r3, [sp, #56]
 270              		.loc 1 105 0
 271 0110 9DF83F30 		ldrb	r3, [sp, #63]
 272 0114 8DF84B30 		strb	r3, [sp, #75]
 273              		.loc 1 107 0
 274 0118 11AB     		add	r3, sp, #68
 275 011a 1393     		str	r3, [sp, #76]
 276              		.loc 1 108 0
 277 011c 0DF13F03 		add	r3, sp, #63
 278 0120 0093     		str	r3, [sp]
 279 0122 0123     		movs	r3, #1
 280 0124 0193     		str	r3, [sp, #4]
 281 0126 42F21073 		movw	r3, #10000
 282 012a 0293     		str	r3, [sp, #8]
 283 012c 5748     		ldr	r0, .L11
ARM GAS  /tmp/cckRYAkY.s 			page 6


 284 012e 6A21     		movs	r1, #106
 285 0130 139A     		ldr	r2, [sp, #76]
 286 0132 0123     		movs	r3, #1
 287 0134 FFF7FEFF 		bl	i2cMasterTransmitTimeout
 288 0138 0346     		mov	r3, r0
 289 013a 0D93     		str	r3, [sp, #52]
 290              		.loc 1 109 0
 291 013c 9DF83F30 		ldrb	r3, [sp, #63]
 292 0140 8DF84A30 		strb	r3, [sp, #74]
 293              		.loc 1 111 0
 294 0144 0DF14303 		add	r3, sp, #67
 295 0148 1393     		str	r3, [sp, #76]
 296              		.loc 1 112 0
 297 014a 0DF13F03 		add	r3, sp, #63
 298 014e 0093     		str	r3, [sp]
 299 0150 0123     		movs	r3, #1
 300 0152 0193     		str	r3, [sp, #4]
 301 0154 42F21073 		movw	r3, #10000
 302 0158 0293     		str	r3, [sp, #8]
 303 015a 4C48     		ldr	r0, .L11
 304 015c 6A21     		movs	r1, #106
 305 015e 139A     		ldr	r2, [sp, #76]
 306 0160 0123     		movs	r3, #1
 307 0162 FFF7FEFF 		bl	i2cMasterTransmitTimeout
 308 0166 0346     		mov	r3, r0
 309 0168 0C93     		str	r3, [sp, #48]
 310              		.loc 1 113 0
 311 016a 9DF83F30 		ldrb	r3, [sp, #63]
 312 016e 8DF84930 		strb	r3, [sp, #73]
 313              		.loc 1 115 0
 314 0172 0DF14203 		add	r3, sp, #66
 315 0176 1393     		str	r3, [sp, #76]
 316              		.loc 1 116 0
 317 0178 0DF13F03 		add	r3, sp, #63
 318 017c 0093     		str	r3, [sp]
 319 017e 0123     		movs	r3, #1
 320 0180 0193     		str	r3, [sp, #4]
 321 0182 42F21073 		movw	r3, #10000
 322 0186 0293     		str	r3, [sp, #8]
 323 0188 4048     		ldr	r0, .L11
 324 018a 6A21     		movs	r1, #106
 325 018c 139A     		ldr	r2, [sp, #76]
 326 018e 0123     		movs	r3, #1
 327 0190 FFF7FEFF 		bl	i2cMasterTransmitTimeout
 328 0194 0346     		mov	r3, r0
 329 0196 0B93     		str	r3, [sp, #44]
 330              		.loc 1 117 0
 331 0198 9DF83F30 		ldrb	r3, [sp, #63]
 332 019c 8DF84830 		strb	r3, [sp, #72]
 333              		.loc 1 119 0
 334 01a0 0DF14103 		add	r3, sp, #65
 335 01a4 1393     		str	r3, [sp, #76]
 336              		.loc 1 120 0
 337 01a6 0DF13F03 		add	r3, sp, #63
 338 01aa 0093     		str	r3, [sp]
 339 01ac 0123     		movs	r3, #1
 340 01ae 0193     		str	r3, [sp, #4]
ARM GAS  /tmp/cckRYAkY.s 			page 7


 341 01b0 42F21073 		movw	r3, #10000
 342 01b4 0293     		str	r3, [sp, #8]
 343 01b6 3548     		ldr	r0, .L11
 344 01b8 6A21     		movs	r1, #106
 345 01ba 139A     		ldr	r2, [sp, #76]
 346 01bc 0123     		movs	r3, #1
 347 01be FFF7FEFF 		bl	i2cMasterTransmitTimeout
 348 01c2 0346     		mov	r3, r0
 349 01c4 0A93     		str	r3, [sp, #40]
 350              		.loc 1 121 0
 351 01c6 9DF83F30 		ldrb	r3, [sp, #63]
 352 01ca 8DF84730 		strb	r3, [sp, #71]
 353              		.loc 1 123 0
 354 01ce 10AB     		add	r3, sp, #64
 355 01d0 1393     		str	r3, [sp, #76]
 356              		.loc 1 124 0
 357 01d2 0DF13F03 		add	r3, sp, #63
 358 01d6 0093     		str	r3, [sp]
 359 01d8 0123     		movs	r3, #1
 360 01da 0193     		str	r3, [sp, #4]
 361 01dc 42F21073 		movw	r3, #10000
 362 01e0 0293     		str	r3, [sp, #8]
 363 01e2 2A48     		ldr	r0, .L11
 364 01e4 6A21     		movs	r1, #106
 365 01e6 139A     		ldr	r2, [sp, #76]
 366 01e8 0123     		movs	r3, #1
 367 01ea FFF7FEFF 		bl	i2cMasterTransmitTimeout
 368 01ee 0346     		mov	r3, r0
 369 01f0 0993     		str	r3, [sp, #36]
 370              		.loc 1 125 0
 371 01f2 9DF83F30 		ldrb	r3, [sp, #63]
 372 01f6 8DF84630 		strb	r3, [sp, #70]
 373              		.loc 1 127 0
 374 01fa 9DF84A30 		ldrb	r3, [sp, #74]	@ zero_extendqisi2
 375 01fe 1B02     		lsls	r3, r3, #8
 376 0200 9AB2     		uxth	r2, r3
 377 0202 9DF84B30 		ldrb	r3, [sp, #75]	@ zero_extendqisi2
 378 0206 9BB2     		uxth	r3, r3
 379 0208 1343     		orrs	r3, r3, r2
 380 020a 9BB2     		uxth	r3, r3
 381 020c 9BB2     		uxth	r3, r3
 382 020e ADF82230 		strh	r3, [sp, #34]	@ movhi
 383              		.loc 1 129 0
 384 0212 BDF82230 		ldrh	r3, [sp, #34]
 385 0216 ADF82030 		strh	r3, [sp, #32]	@ movhi
 386              		.loc 1 131 0
 387 021a 9DF84830 		ldrb	r3, [sp, #72]	@ zero_extendqisi2
 388 021e 1B02     		lsls	r3, r3, #8
 389 0220 9AB2     		uxth	r2, r3
 390 0222 9DF84930 		ldrb	r3, [sp, #73]	@ zero_extendqisi2
 391 0226 9BB2     		uxth	r3, r3
 392 0228 1343     		orrs	r3, r3, r2
 393 022a 9BB2     		uxth	r3, r3
 394 022c 9BB2     		uxth	r3, r3
 395 022e ADF81E30 		strh	r3, [sp, #30]	@ movhi
 396              		.loc 1 133 0
 397 0232 BDF81E30 		ldrh	r3, [sp, #30]
ARM GAS  /tmp/cckRYAkY.s 			page 8


 398 0236 ADF81C30 		strh	r3, [sp, #28]	@ movhi
 399              		.loc 1 135 0
 400 023a 9DF84630 		ldrb	r3, [sp, #70]	@ zero_extendqisi2
 401 023e 1B02     		lsls	r3, r3, #8
 402 0240 9AB2     		uxth	r2, r3
 403 0242 9DF84730 		ldrb	r3, [sp, #71]	@ zero_extendqisi2
 404 0246 9BB2     		uxth	r3, r3
 405 0248 1343     		orrs	r3, r3, r2
 406 024a 9BB2     		uxth	r3, r3
 407 024c 9BB2     		uxth	r3, r3
 408 024e ADF81A30 		strh	r3, [sp, #26]	@ movhi
 409              		.loc 1 137 0
 410 0252 BDF81A30 		ldrh	r3, [sp, #26]
 411 0256 ADF81830 		strh	r3, [sp, #24]	@ movhi
 412              		.loc 1 139 0
 413 025a BDF82020 		ldrh	r2, [sp, #32]
 414 025e 059B     		ldr	r3, [sp, #20]
 415 0260 1A80     		strh	r2, [r3]	@ movhi
 416              		.loc 1 140 0
 417 0262 059B     		ldr	r3, [sp, #20]
 418 0264 0233     		adds	r3, r3, #2
 419 0266 BDF81C20 		ldrh	r2, [sp, #28]
 420 026a 1A80     		strh	r2, [r3]	@ movhi
 421              		.loc 1 141 0
 422 026c 059B     		ldr	r3, [sp, #20]
 423 026e 0433     		adds	r3, r3, #4
 424 0270 BDF81820 		ldrh	r2, [sp, #24]
 425 0274 1A80     		strh	r2, [r3]	@ movhi
 426              		.loc 1 143 0
 427 0276 0E9B     		ldr	r3, [sp, #56]
 428              		.loc 1 144 0
 429 0278 0D9B     		ldr	r3, [sp, #52]
 430              		.loc 1 145 0
 431 027a 0C9B     		ldr	r3, [sp, #48]
 432              		.loc 1 146 0
 433 027c 0B9B     		ldr	r3, [sp, #44]
 434              		.loc 1 147 0
 435 027e 0A9B     		ldr	r3, [sp, #40]
 436              		.loc 1 148 0
 437 0280 099B     		ldr	r3, [sp, #36]
 438              		.loc 1 150 0
 439 0282 0123     		movs	r3, #1
 440              		.loc 1 153 0
 441 0284 1846     		mov	r0, r3
 442 0286 15B0     		add	sp, sp, #84
 443              		.cfi_def_cfa_offset 4
 444              		@ sp needed
 445 0288 5DF804FB 		ldr	pc, [sp], #4
 446              	.L12:
 447              		.align	2
 448              	.L11:
 449 028c 00000000 		.word	I2CD1
 450              		.cfi_endproc
 451              	.LFE281:
 452              		.size	AccelerometerGetValues, .-AccelerometerGetValues
 453              		.section	.rodata
 454 0013 00       		.align	2
ARM GAS  /tmp/cckRYAkY.s 			page 9


 455              		.type	i2ccfg.7673, %object
 456              		.size	i2ccfg.7673, 12
 457              	i2ccfg.7673:
 458 0014 01       		.byte	1
 459 0015 000000   		.space	3
 460 0018 A0860100 		.word	100000
 461 001c 01       		.byte	1
 462 001d 000000   		.space	3
 463              		.text
 464              	.Letext0:
 465              		.file 2 "/usr/lib/gcc/arm-none-eabi/4.9.3/include/stddef.h"
 466              		.file 3 "/usr/include/newlib/machine/_default_types.h"
 467              		.file 4 "/usr/include/newlib/sys/_stdint.h"
 468              		.file 5 "../../../os/common/ports/ARMCMx/compilers/GCC/chtypes.h"
 469              		.file 6 "../../../os/rt/include/chsystypes.h"
 470              		.file 7 "../../../os/rt/include/chschd.h"
 471              		.file 8 "../../../os/common/ext/CMSIS/ST/STM32F4xx/stm32f407xx.h"
 472              		.file 9 "../../../os/common/ports/ARMCMx/chcore.h"
 473              		.file 10 "../../../os/common/ports/ARMCMx/chcore_v7m.h"
 474              		.file 11 "../../../os/rt/include/chtm.h"
 475              		.file 12 "../../../os/rt/include/chsem.h"
 476              		.file 13 "../../../os/rt/include/chmtx.h"
 477              		.file 14 "../../../os/rt/include/chevents.h"
 478              		.file 15 "../../../os/hal/ports/STM32/LLD/DMAv2/stm32_dma.h"
 479              		.file 16 "../../../os/hal/include/hal_queues.h"
 480              		.file 17 "../../../os/hal/ports/STM32/LLD/GPIOv2/hal_pal_lld.h"
 481              		.file 18 "../../../os/hal/include/hal_i2c.h"
 482              		.file 19 "../../../os/hal/ports/STM32/LLD/I2Cv1/hal_i2c_lld.h"
 483              		.file 20 "../../../os/hal/include/hal_serial.h"
 484              		.file 21 "Accelerometer.h"
 485              		.file 22 "../../../os/common/ext/CMSIS/include/core_cm4.h"
 486              		.file 23 "../../../os/hal/ports/STM32/LLD/USARTv1/hal_serial_lld.h"