ARM GAS  /tmp/ccElHEaw.s 			page 1


   1              		.syntax unified
   2              		.cpu cortex-m4
   3              		.fpu softvfp
   4              		.eabi_attribute 20, 1
   5              		.eabi_attribute 21, 1
   6              		.eabi_attribute 23, 3
   7              		.eabi_attribute 24, 1
   8              		.eabi_attribute 25, 1
   9              		.eabi_attribute 26, 1
  10              		.eabi_attribute 30, 6
  11              		.eabi_attribute 34, 1
  12              		.eabi_attribute 18, 4
  13              		.thumb
  14              		.file	"ch_test.c"
  15              		.text
  16              	.Ltext0:
  17              		.cfi_sections	.debug_frame
  18              		.align	2
  19              		.p2align 4,,15
  20              		.thumb
  21              		.thumb_func
  22              		.type	port_lock, %function
  23              	port_lock:
  24              	.LFB127:
  25              		.file 1 "../../../os/common/ports/ARMCMx/chcore_v7m.h"
  26              		.loc 1 594 0
  27              		.cfi_startproc
  28              		@ args = 0, pretend = 0, frame = 8
  29              		@ frame_needed = 0, uses_anonymous_args = 0
  30              		@ link register save eliminated.
  31 0000 82B0     		sub	sp, sp, #8
  32              		.cfi_def_cfa_offset 8
  33 0002 2023     		movs	r3, #32
  34 0004 0193     		str	r3, [sp, #4]
  35              	.LBB6:
  36              	.LBB7:
  37              		.file 2 "../../../os/common/ext/CMSIS/include/cmsis_gcc.h"
  38              		.loc 2 264 0
  39 0006 019B     		ldr	r3, [sp, #4]
  40              	@ 264 "../../../os/common/ext/CMSIS/include/cmsis_gcc.h" 1
  41 0008 83F31188 		MSR basepri, r3
  42              	@ 0 "" 2
  43              		.thumb
  44              	.LBE7:
  45              	.LBE6:
  46              		.loc 1 611 0
  47 000c 02B0     		add	sp, sp, #8
  48              		.cfi_def_cfa_offset 0
  49              		@ sp needed
  50 000e 7047     		bx	lr
  51              		.cfi_endproc
  52              	.LFE127:
  53              		.size	port_lock, .-port_lock
  54              		.align	2
  55              		.p2align 4,,15
  56              		.thumb
  57              		.thumb_func
ARM GAS  /tmp/ccElHEaw.s 			page 2


  58              		.type	port_unlock, %function
  59              	port_unlock:
  60              	.LFB128:
  61              		.loc 1 618 0
  62              		.cfi_startproc
  63              		@ args = 0, pretend = 0, frame = 8
  64              		@ frame_needed = 0, uses_anonymous_args = 0
  65              		@ link register save eliminated.
  66 0010 82B0     		sub	sp, sp, #8
  67              		.cfi_def_cfa_offset 8
  68 0012 0023     		movs	r3, #0
  69 0014 0193     		str	r3, [sp, #4]
  70              	.LBB8:
  71              	.LBB9:
  72              		.loc 2 264 0
  73 0016 019B     		ldr	r3, [sp, #4]
  74              	@ 264 "../../../os/common/ext/CMSIS/include/cmsis_gcc.h" 1
  75 0018 83F31188 		MSR basepri, r3
  76              	@ 0 "" 2
  77              		.thumb
  78              	.LBE9:
  79              	.LBE8:
  80              		.loc 1 625 0
  81 001c 02B0     		add	sp, sp, #8
  82              		.cfi_def_cfa_offset 0
  83              		@ sp needed
  84 001e 7047     		bx	lr
  85              		.cfi_endproc
  86              	.LFE128:
  87              		.size	port_unlock, .-port_unlock
  88              		.align	2
  89              		.p2align 4,,15
  90              		.thumb
  91              		.thumb_func
  92              		.type	st_lld_get_counter, %function
  93              	st_lld_get_counter:
  94              	.LFB136:
  95              		.file 3 "../../../os/hal/ports/STM32/LLD/TIMv1/hal_st_lld.h"
  96              		.loc 3 139 0
  97              		.cfi_startproc
  98              		@ args = 0, pretend = 0, frame = 0
  99              		@ frame_needed = 0, uses_anonymous_args = 0
 100              		@ link register save eliminated.
 101              		.loc 3 141 0
 102 0020 4FF08043 		mov	r3, #1073741824
 103 0024 5B6A     		ldr	r3, [r3, #36]
 104              		.loc 3 142 0
 105 0026 1846     		mov	r0, r3
 106 0028 7047     		bx	lr
 107              		.cfi_endproc
 108              	.LFE136:
 109              		.size	st_lld_get_counter, .-st_lld_get_counter
 110 002a 00BF     		.align	2
 111 002c AFF30080 		.p2align 4,,15
 112              		.thumb
 113              		.thumb_func
 114              		.type	port_timer_get_time, %function
ARM GAS  /tmp/ccElHEaw.s 			page 3


 115              	port_timer_get_time:
 116              	.LFB145:
 117              		.file 4 "../../../os/common/ports/ARMCMx/chcore_timer.h"
 118              		.loc 4 105 0
 119              		.cfi_startproc
 120              		@ args = 0, pretend = 0, frame = 0
 121              		@ frame_needed = 0, uses_anonymous_args = 0
 122 0030 08B5     		push	{r3, lr}
 123              		.cfi_def_cfa_offset 8
 124              		.cfi_offset 3, -8
 125              		.cfi_offset 14, -4
 126              		.loc 4 107 0
 127 0032 FFF7F5FF 		bl	st_lld_get_counter
 128 0036 0346     		mov	r3, r0
 129              		.loc 4 108 0
 130 0038 1846     		mov	r0, r3
 131 003a 08BD     		pop	{r3, pc}
 132              		.cfi_endproc
 133              	.LFE145:
 134              		.size	port_timer_get_time, .-port_timer_get_time
 135              		.align	2
 136 003c AFF30080 		.p2align 4,,15
 137              		.thumb
 138              		.thumb_func
 139              		.type	chSysLock, %function
 140              	chSysLock:
 141              	.LFB167:
 142              		.file 5 "../../../os/rt/include/chsys.h"
 143              		.loc 5 374 0
 144              		.cfi_startproc
 145              		@ args = 0, pretend = 0, frame = 0
 146              		@ frame_needed = 0, uses_anonymous_args = 0
 147 0040 08B5     		push	{r3, lr}
 148              		.cfi_def_cfa_offset 8
 149              		.cfi_offset 3, -8
 150              		.cfi_offset 14, -4
 151              		.loc 5 376 0
 152 0042 FFF7DDFF 		bl	port_lock
 153              		.loc 5 379 0
 154 0046 08BD     		pop	{r3, pc}
 155              		.cfi_endproc
 156              	.LFE167:
 157              		.size	chSysLock, .-chSysLock
 158              		.align	2
 159 0048 AFF30080 		.p2align 4,,15
 159      AFF30080 
 160              		.thumb
 161              		.thumb_func
 162              		.type	chSysUnlock, %function
 163              	chSysUnlock:
 164              	.LFB168:
 165              		.loc 5 386 0
 166              		.cfi_startproc
 167              		@ args = 0, pretend = 0, frame = 0
 168              		@ frame_needed = 0, uses_anonymous_args = 0
 169 0050 08B5     		push	{r3, lr}
 170              		.cfi_def_cfa_offset 8
ARM GAS  /tmp/ccElHEaw.s 			page 4


 171              		.cfi_offset 3, -8
 172              		.cfi_offset 14, -4
 173              		.loc 5 399 0
 174 0052 FFF7DDFF 		bl	port_unlock
 175              		.loc 5 400 0
 176 0056 08BD     		pop	{r3, pc}
 177              		.cfi_endproc
 178              	.LFE168:
 179              		.size	chSysUnlock, .-chSysUnlock
 180              		.align	2
 181 0058 AFF30080 		.p2align 4,,15
 181      AFF30080 
 182              		.thumb
 183              		.thumb_func
 184              		.type	chVTGetSystemTimeX, %function
 185              	chVTGetSystemTimeX:
 186              	.LFB181:
 187              		.file 6 "../../../os/rt/include/chvt.h"
 188              		.loc 6 392 0
 189              		.cfi_startproc
 190              		@ args = 0, pretend = 0, frame = 0
 191              		@ frame_needed = 0, uses_anonymous_args = 0
 192 0060 08B5     		push	{r3, lr}
 193              		.cfi_def_cfa_offset 8
 194              		.cfi_offset 3, -8
 195              		.cfi_offset 14, -4
 196              		.loc 6 397 0
 197 0062 FFF7E5FF 		bl	port_timer_get_time
 198 0066 0346     		mov	r3, r0
 199              		.loc 6 399 0
 200 0068 1846     		mov	r0, r3
 201 006a 08BD     		pop	{r3, pc}
 202              		.cfi_endproc
 203              	.LFE181:
 204              		.size	chVTGetSystemTimeX, .-chVTGetSystemTimeX
 205              		.align	2
 206 006c AFF30080 		.p2align 4,,15
 207              		.thumb
 208              		.thumb_func
 209              		.type	chVTIsTimeWithinX, %function
 210              	chVTIsTimeWithinX:
 211              	.LFB184:
 212              		.loc 6 450 0
 213              		.cfi_startproc
 214              		@ args = 0, pretend = 0, frame = 16
 215              		@ frame_needed = 0, uses_anonymous_args = 0
 216              		@ link register save eliminated.
 217 0070 84B0     		sub	sp, sp, #16
 218              		.cfi_def_cfa_offset 16
 219 0072 0390     		str	r0, [sp, #12]
 220 0074 0291     		str	r1, [sp, #8]
 221 0076 0192     		str	r2, [sp, #4]
 222              		.loc 6 452 0
 223 0078 039A     		ldr	r2, [sp, #12]
 224 007a 029B     		ldr	r3, [sp, #8]
 225 007c D21A     		subs	r2, r2, r3
 226 007e 0199     		ldr	r1, [sp, #4]
ARM GAS  /tmp/ccElHEaw.s 			page 5


 227 0080 029B     		ldr	r3, [sp, #8]
 228 0082 CB1A     		subs	r3, r1, r3
 229 0084 9A42     		cmp	r2, r3
 230 0086 34BF     		ite	cc
 231 0088 0123     		movcc	r3, #1
 232 008a 0023     		movcs	r3, #0
 233 008c DBB2     		uxtb	r3, r3
 234              		.loc 6 453 0
 235 008e 1846     		mov	r0, r3
 236 0090 04B0     		add	sp, sp, #16
 237              		.cfi_def_cfa_offset 0
 238              		@ sp needed
 239 0092 7047     		bx	lr
 240              		.cfi_endproc
 241              	.LFE184:
 242              		.size	chVTIsTimeWithinX, .-chVTIsTimeWithinX
 243              		.align	2
 244 0094 AFF30080 		.p2align 4,,15
 244      AFF30080 
 244      AFF30080 
 245              		.thumb
 246              		.thumb_func
 247              		.type	osalSysLock, %function
 248              	osalSysLock:
 249              	.LFB252:
 250              		.file 7 "../../../os/hal/osal/rt/osal.h"
 251              		.loc 7 491 0
 252              		.cfi_startproc
 253              		@ args = 0, pretend = 0, frame = 0
 254              		@ frame_needed = 0, uses_anonymous_args = 0
 255 00a0 08B5     		push	{r3, lr}
 256              		.cfi_def_cfa_offset 8
 257              		.cfi_offset 3, -8
 258              		.cfi_offset 14, -4
 259              		.loc 7 493 0
 260 00a2 FFF7CDFF 		bl	chSysLock
 261              		.loc 7 494 0
 262 00a6 08BD     		pop	{r3, pc}
 263              		.cfi_endproc
 264              	.LFE252:
 265              		.size	osalSysLock, .-osalSysLock
 266              		.align	2
 267 00a8 AFF30080 		.p2align 4,,15
 267      AFF30080 
 268              		.thumb
 269              		.thumb_func
 270              		.type	osalSysUnlock, %function
 271              	osalSysUnlock:
 272              	.LFB253:
 273              		.loc 7 502 0
 274              		.cfi_startproc
 275              		@ args = 0, pretend = 0, frame = 0
 276              		@ frame_needed = 0, uses_anonymous_args = 0
 277 00b0 08B5     		push	{r3, lr}
 278              		.cfi_def_cfa_offset 8
 279              		.cfi_offset 3, -8
 280              		.cfi_offset 14, -4
ARM GAS  /tmp/ccElHEaw.s 			page 6


 281              		.loc 7 504 0
 282 00b2 FFF7CDFF 		bl	chSysUnlock
 283              		.loc 7 505 0
 284 00b6 08BD     		pop	{r3, pc}
 285              		.cfi_endproc
 286              	.LFE253:
 287              		.size	osalSysUnlock, .-osalSysUnlock
 288              		.align	2
 289 00b8 AFF30080 		.p2align 4,,15
 289      AFF30080 
 290              		.thumb
 291              		.thumb_func
 292              		.type	osalOsGetSystemTimeX, %function
 293              	osalOsGetSystemTimeX:
 294              	.LFB261:
 295              		.loc 7 616 0
 296              		.cfi_startproc
 297              		@ args = 0, pretend = 0, frame = 0
 298              		@ frame_needed = 0, uses_anonymous_args = 0
 299 00c0 08B5     		push	{r3, lr}
 300              		.cfi_def_cfa_offset 8
 301              		.cfi_offset 3, -8
 302              		.cfi_offset 14, -4
 303              		.loc 7 618 0
 304 00c2 FFF7CDFF 		bl	chVTGetSystemTimeX
 305 00c6 0346     		mov	r3, r0
 306              		.loc 7 619 0
 307 00c8 1846     		mov	r0, r3
 308 00ca 08BD     		pop	{r3, pc}
 309              		.cfi_endproc
 310              	.LFE261:
 311              		.size	osalOsGetSystemTimeX, .-osalOsGetSystemTimeX
 312              		.align	2
 313 00cc AFF30080 		.p2align 4,,15
 314              		.thumb
 315              		.thumb_func
 316              		.type	osalOsIsTimeWithinX, %function
 317              	osalOsIsTimeWithinX:
 318              	.LFB262:
 319              		.loc 7 637 0
 320              		.cfi_startproc
 321              		@ args = 0, pretend = 0, frame = 16
 322              		@ frame_needed = 0, uses_anonymous_args = 0
 323 00d0 00B5     		push	{lr}
 324              		.cfi_def_cfa_offset 4
 325              		.cfi_offset 14, -4
 326 00d2 85B0     		sub	sp, sp, #20
 327              		.cfi_def_cfa_offset 24
 328 00d4 0390     		str	r0, [sp, #12]
 329 00d6 0291     		str	r1, [sp, #8]
 330 00d8 0192     		str	r2, [sp, #4]
 331              		.loc 7 639 0
 332 00da 0398     		ldr	r0, [sp, #12]
 333 00dc 0299     		ldr	r1, [sp, #8]
 334 00de 019A     		ldr	r2, [sp, #4]
 335 00e0 FFF7C6FF 		bl	chVTIsTimeWithinX
 336 00e4 0346     		mov	r3, r0
ARM GAS  /tmp/ccElHEaw.s 			page 7


 337              		.loc 7 640 0
 338 00e6 1846     		mov	r0, r3
 339 00e8 05B0     		add	sp, sp, #20
 340              		.cfi_def_cfa_offset 4
 341              		@ sp needed
 342 00ea 5DF804FB 		ldr	pc, [sp], #4
 343              		.cfi_endproc
 344              	.LFE262:
 345              		.size	osalOsIsTimeWithinX, .-osalOsIsTimeWithinX
 346 00ee 00BF     		.align	2
 347              		.p2align 4,,15
 348              		.thumb
 349              		.thumb_func
 350              		.type	osalThreadSleep, %function
 351              	osalThreadSleep:
 352              	.LFB264:
 353              		.loc 7 671 0
 354              		.cfi_startproc
 355              		@ args = 0, pretend = 0, frame = 8
 356              		@ frame_needed = 0, uses_anonymous_args = 0
 357 00f0 00B5     		push	{lr}
 358              		.cfi_def_cfa_offset 4
 359              		.cfi_offset 14, -4
 360 00f2 83B0     		sub	sp, sp, #12
 361              		.cfi_def_cfa_offset 16
 362 00f4 0190     		str	r0, [sp, #4]
 363              		.loc 7 673 0
 364 00f6 0198     		ldr	r0, [sp, #4]
 365 00f8 FFF7FEFF 		bl	chThdSleep
 366              		.loc 7 674 0
 367 00fc 03B0     		add	sp, sp, #12
 368              		.cfi_def_cfa_offset 4
 369              		@ sp needed
 370 00fe 5DF804FB 		ldr	pc, [sp], #4
 371              		.cfi_endproc
 372              	.LFE264:
 373              		.size	osalThreadSleep, .-osalThreadSleep
 374              		.comm	test_step,4,4
 375              		.comm	test_global_fail,1,1
 376              		.bss
 377              	test_local_fail:
 378 0000 00       		.space	1
 379 0001 000000   		.align	2
 380              	test_failure_message:
 381 0004 00000000 		.space	4
 382              		.align	2
 383              	test_tokens_buffer:
 384 0008 00000000 		.space	16
 384      00000000 
 384      00000000 
 384      00000000 
 385              		.align	2
 386              	test_tokp:
 387 0018 00000000 		.space	4
 388              		.align	2
 389              	test_chp:
 390 001c 00000000 		.space	4
ARM GAS  /tmp/ccElHEaw.s 			page 8


 391              		.text
 392 0102 00BF     		.align	2
 393 0104 AFF30080 		.p2align 4,,15
 393      AFF30080 
 393      AFF30080 
 394              		.thumb
 395              		.thumb_func
 396              		.type	clear_tokens, %function
 397              	clear_tokens:
 398              	.LFB279:
 399              		.file 8 "../../../test/lib/ch_test.c"
 400              		.loc 8 65 0
 401              		.cfi_startproc
 402              		@ args = 0, pretend = 0, frame = 0
 403              		@ frame_needed = 0, uses_anonymous_args = 0
 404              		@ link register save eliminated.
 405              		.loc 8 67 0
 406 0110 014B     		ldr	r3, .L21
 407 0112 024A     		ldr	r2, .L21+4
 408 0114 1A60     		str	r2, [r3]
 409              		.loc 8 68 0
 410 0116 7047     		bx	lr
 411              	.L22:
 412              		.align	2
 413              	.L21:
 414 0118 18000000 		.word	test_tokp
 415 011c 08000000 		.word	test_tokens_buffer
 416              		.cfi_endproc
 417              	.LFE279:
 418              		.size	clear_tokens, .-clear_tokens
 419              		.align	2
 420              		.p2align 4,,15
 421              		.thumb
 422              		.thumb_func
 423              		.type	print_tokens, %function
 424              	print_tokens:
 425              	.LFB280:
 426              		.loc 8 70 0
 427              		.cfi_startproc
 428              		@ args = 0, pretend = 0, frame = 8
 429              		@ frame_needed = 0, uses_anonymous_args = 0
 430 0120 00B5     		push	{lr}
 431              		.cfi_def_cfa_offset 4
 432              		.cfi_offset 14, -4
 433 0122 83B0     		sub	sp, sp, #12
 434              		.cfi_def_cfa_offset 16
 435              		.loc 8 71 0
 436 0124 0B4B     		ldr	r3, .L26
 437 0126 0193     		str	r3, [sp, #4]
 438              		.loc 8 73 0
 439 0128 0BE0     		b	.L24
 440              	.L25:
 441              		.loc 8 74 0
 442 012a 0B4B     		ldr	r3, .L26+4
 443 012c 1B68     		ldr	r3, [r3]
 444 012e 1B68     		ldr	r3, [r3]
 445 0130 9A68     		ldr	r2, [r3, #8]
ARM GAS  /tmp/ccElHEaw.s 			page 9


 446 0132 094B     		ldr	r3, .L26+4
 447 0134 1868     		ldr	r0, [r3]
 448 0136 019B     		ldr	r3, [sp, #4]
 449 0138 591C     		adds	r1, r3, #1
 450 013a 0191     		str	r1, [sp, #4]
 451 013c 1B78     		ldrb	r3, [r3]	@ zero_extendqisi2
 452 013e 1946     		mov	r1, r3
 453 0140 9047     		blx	r2
 454              	.L24:
 455              		.loc 8 73 0
 456 0142 064B     		ldr	r3, .L26+8
 457 0144 1B68     		ldr	r3, [r3]
 458 0146 019A     		ldr	r2, [sp, #4]
 459 0148 9A42     		cmp	r2, r3
 460 014a EED3     		bcc	.L25
 461              		.loc 8 75 0
 462 014c 03B0     		add	sp, sp, #12
 463              		.cfi_def_cfa_offset 4
 464              		@ sp needed
 465 014e 5DF804FB 		ldr	pc, [sp], #4
 466              	.L27:
 467 0152 00BF     		.align	2
 468              	.L26:
 469 0154 08000000 		.word	test_tokens_buffer
 470 0158 1C000000 		.word	test_chp
 471 015c 18000000 		.word	test_tokp
 472              		.cfi_endproc
 473              	.LFE280:
 474              		.size	print_tokens, .-print_tokens
 475              		.align	2
 476              		.p2align 4,,15
 477              		.thumb
 478              		.thumb_func
 479              		.type	execute_test, %function
 480              	execute_test:
 481              	.LFB281:
 482              		.loc 8 77 0
 483              		.cfi_startproc
 484              		@ args = 0, pretend = 0, frame = 8
 485              		@ frame_needed = 0, uses_anonymous_args = 0
 486 0160 00B5     		push	{lr}
 487              		.cfi_def_cfa_offset 4
 488              		.cfi_offset 14, -4
 489 0162 83B0     		sub	sp, sp, #12
 490              		.cfi_def_cfa_offset 16
 491 0164 0190     		str	r0, [sp, #4]
 492              		.loc 8 80 0
 493 0166 FFF7D3FF 		bl	clear_tokens
 494              		.loc 8 81 0
 495 016a 0B4B     		ldr	r3, .L31
 496 016c 0022     		movs	r2, #0
 497 016e 1A70     		strb	r2, [r3]
 498              		.loc 8 83 0
 499 0170 019B     		ldr	r3, [sp, #4]
 500 0172 5B68     		ldr	r3, [r3, #4]
 501 0174 002B     		cmp	r3, #0
 502 0176 02D0     		beq	.L29
ARM GAS  /tmp/ccElHEaw.s 			page 10


 503              		.loc 8 84 0
 504 0178 019B     		ldr	r3, [sp, #4]
 505 017a 5B68     		ldr	r3, [r3, #4]
 506 017c 9847     		blx	r3
 507              	.L29:
 508              		.loc 8 85 0
 509 017e 019B     		ldr	r3, [sp, #4]
 510 0180 DB68     		ldr	r3, [r3, #12]
 511 0182 9847     		blx	r3
 512              		.loc 8 86 0
 513 0184 019B     		ldr	r3, [sp, #4]
 514 0186 9B68     		ldr	r3, [r3, #8]
 515 0188 002B     		cmp	r3, #0
 516 018a 02D0     		beq	.L28
 517              		.loc 8 87 0
 518 018c 019B     		ldr	r3, [sp, #4]
 519 018e 9B68     		ldr	r3, [r3, #8]
 520 0190 9847     		blx	r3
 521              	.L28:
 522              		.loc 8 88 0
 523 0192 03B0     		add	sp, sp, #12
 524              		.cfi_def_cfa_offset 4
 525              		@ sp needed
 526 0194 5DF804FB 		ldr	pc, [sp], #4
 527              	.L32:
 528              		.align	2
 529              	.L31:
 530 0198 00000000 		.word	test_local_fail
 531              		.cfi_endproc
 532              	.LFE281:
 533              		.size	execute_test, .-execute_test
 534              		.section	.rodata
 535              		.align	2
 536              	.LC0:
 537 0000 0D0A00   		.ascii	"\015\012\000"
 538              		.text
 539              		.align	2
 540 019c AFF30080 		.p2align 4,,15
 541              		.thumb
 542              		.thumb_func
 543              		.type	print_line, %function
 544              	print_line:
 545              	.LFB282:
 546              		.loc 8 90 0
 547              		.cfi_startproc
 548              		@ args = 0, pretend = 0, frame = 8
 549              		@ frame_needed = 0, uses_anonymous_args = 0
 550 01a0 00B5     		push	{lr}
 551              		.cfi_def_cfa_offset 4
 552              		.cfi_offset 14, -4
 553 01a2 83B0     		sub	sp, sp, #12
 554              		.cfi_def_cfa_offset 16
 555              		.loc 8 93 0
 556 01a4 0023     		movs	r3, #0
 557 01a6 0193     		str	r3, [sp, #4]
 558 01a8 0BE0     		b	.L34
 559              	.L35:
ARM GAS  /tmp/ccElHEaw.s 			page 11


 560              		.loc 8 94 0 discriminator 3
 561 01aa 0E4B     		ldr	r3, .L36
 562 01ac 1B68     		ldr	r3, [r3]
 563 01ae 1B68     		ldr	r3, [r3]
 564 01b0 9B68     		ldr	r3, [r3, #8]
 565 01b2 0C4A     		ldr	r2, .L36
 566 01b4 1268     		ldr	r2, [r2]
 567 01b6 1046     		mov	r0, r2
 568 01b8 2D21     		movs	r1, #45
 569 01ba 9847     		blx	r3
 570              		.loc 8 93 0 discriminator 3
 571 01bc 019B     		ldr	r3, [sp, #4]
 572 01be 0133     		adds	r3, r3, #1
 573 01c0 0193     		str	r3, [sp, #4]
 574              	.L34:
 575              		.loc 8 93 0 is_stmt 0 discriminator 1
 576 01c2 019B     		ldr	r3, [sp, #4]
 577 01c4 4B2B     		cmp	r3, #75
 578 01c6 F0D9     		bls	.L35
 579              		.loc 8 95 0 is_stmt 1
 580 01c8 064B     		ldr	r3, .L36
 581 01ca 1B68     		ldr	r3, [r3]
 582 01cc 1B68     		ldr	r3, [r3]
 583 01ce 1B68     		ldr	r3, [r3]
 584 01d0 044A     		ldr	r2, .L36
 585 01d2 1268     		ldr	r2, [r2]
 586 01d4 1046     		mov	r0, r2
 587 01d6 0449     		ldr	r1, .L36+4
 588 01d8 0222     		movs	r2, #2
 589 01da 9847     		blx	r3
 590              		.loc 8 96 0
 591 01dc 03B0     		add	sp, sp, #12
 592              		.cfi_def_cfa_offset 4
 593              		@ sp needed
 594 01de 5DF804FB 		ldr	pc, [sp], #4
 595              	.L37:
 596 01e2 00BF     		.align	2
 597              	.L36:
 598 01e4 1C000000 		.word	test_chp
 599 01e8 00000000 		.word	.LC0
 600              		.cfi_endproc
 601              	.LFE282:
 602              		.size	print_line, .-print_line
 603              		.align	2
 604 01ec AFF30080 		.p2align 4,,15
 605              		.global	_test_fail
 606              		.thumb
 607              		.thumb_func
 608              		.type	_test_fail, %function
 609              	_test_fail:
 610              	.LFB283:
 611              		.loc 8 102 0
 612              		.cfi_startproc
 613              		@ args = 0, pretend = 0, frame = 8
 614              		@ frame_needed = 0, uses_anonymous_args = 0
 615              		@ link register save eliminated.
 616 01f0 82B0     		sub	sp, sp, #8
ARM GAS  /tmp/ccElHEaw.s 			page 12


 617              		.cfi_def_cfa_offset 8
 618 01f2 0190     		str	r0, [sp, #4]
 619              		.loc 8 104 0
 620 01f4 064B     		ldr	r3, .L40
 621 01f6 0122     		movs	r2, #1
 622 01f8 1A70     		strb	r2, [r3]
 623              		.loc 8 105 0
 624 01fa 064B     		ldr	r3, .L40+4
 625 01fc 0122     		movs	r2, #1
 626 01fe 1A70     		strb	r2, [r3]
 627              		.loc 8 106 0
 628 0200 054A     		ldr	r2, .L40+8
 629 0202 019B     		ldr	r3, [sp, #4]
 630 0204 1360     		str	r3, [r2]
 631              		.loc 8 107 0
 632 0206 0123     		movs	r3, #1
 633              		.loc 8 108 0
 634 0208 1846     		mov	r0, r3
 635 020a 02B0     		add	sp, sp, #8
 636              		.cfi_def_cfa_offset 0
 637              		@ sp needed
 638 020c 7047     		bx	lr
 639              	.L41:
 640 020e 00BF     		.align	2
 641              	.L40:
 642 0210 00000000 		.word	test_local_fail
 643 0214 00000000 		.word	test_global_fail
 644 0218 04000000 		.word	test_failure_message
 645              		.cfi_endproc
 646              	.LFE283:
 647              		.size	_test_fail, .-_test_fail
 648              		.align	2
 649 021c AFF30080 		.p2align 4,,15
 650              		.global	_test_assert
 651              		.thumb
 652              		.thumb_func
 653              		.type	_test_assert, %function
 654              	_test_assert:
 655              	.LFB284:
 656              		.loc 8 110 0
 657              		.cfi_startproc
 658              		@ args = 0, pretend = 0, frame = 8
 659              		@ frame_needed = 0, uses_anonymous_args = 0
 660 0220 00B5     		push	{lr}
 661              		.cfi_def_cfa_offset 4
 662              		.cfi_offset 14, -4
 663 0222 83B0     		sub	sp, sp, #12
 664              		.cfi_def_cfa_offset 16
 665 0224 0346     		mov	r3, r0
 666 0226 0091     		str	r1, [sp]
 667 0228 8DF80730 		strb	r3, [sp, #7]
 668              		.loc 8 112 0
 669 022c 9DF80730 		ldrb	r3, [sp, #7]
 670 0230 83F00103 		eor	r3, r3, #1
 671 0234 DBB2     		uxtb	r3, r3
 672 0236 002B     		cmp	r3, #0
 673 0238 04D0     		beq	.L43
ARM GAS  /tmp/ccElHEaw.s 			page 13


 674              		.loc 8 113 0
 675 023a 0098     		ldr	r0, [sp]
 676 023c FFF7FEFF 		bl	_test_fail
 677 0240 0346     		mov	r3, r0
 678 0242 00E0     		b	.L44
 679              	.L43:
 680              		.loc 8 114 0
 681 0244 0023     		movs	r3, #0
 682              	.L44:
 683              		.loc 8 115 0
 684 0246 1846     		mov	r0, r3
 685 0248 03B0     		add	sp, sp, #12
 686              		.cfi_def_cfa_offset 4
 687              		@ sp needed
 688 024a 5DF804FB 		ldr	pc, [sp], #4
 689              		.cfi_endproc
 690              	.LFE284:
 691              		.size	_test_assert, .-_test_assert
 692 024e 00BF     		.align	2
 693              		.p2align 4,,15
 694              		.global	_test_assert_sequence
 695              		.thumb
 696              		.thumb_func
 697              		.type	_test_assert_sequence, %function
 698              	_test_assert_sequence:
 699              	.LFB285:
 700              		.loc 8 117 0
 701              		.cfi_startproc
 702              		@ args = 0, pretend = 0, frame = 16
 703              		@ frame_needed = 0, uses_anonymous_args = 0
 704 0250 00B5     		push	{lr}
 705              		.cfi_def_cfa_offset 4
 706              		.cfi_offset 14, -4
 707 0252 85B0     		sub	sp, sp, #20
 708              		.cfi_def_cfa_offset 24
 709 0254 0190     		str	r0, [sp, #4]
 710 0256 0091     		str	r1, [sp]
 711              		.loc 8 118 0
 712 0258 134B     		ldr	r3, .L50
 713 025a 0393     		str	r3, [sp, #12]
 714              		.loc 8 120 0
 715 025c 0EE0     		b	.L46
 716              	.L48:
 717              		.loc 8 121 0
 718 025e 039B     		ldr	r3, [sp, #12]
 719 0260 5A1C     		adds	r2, r3, #1
 720 0262 0392     		str	r2, [sp, #12]
 721 0264 1A78     		ldrb	r2, [r3]	@ zero_extendqisi2
 722 0266 019B     		ldr	r3, [sp, #4]
 723 0268 591C     		adds	r1, r3, #1
 724 026a 0191     		str	r1, [sp, #4]
 725 026c 1B78     		ldrb	r3, [r3]	@ zero_extendqisi2
 726 026e 9A42     		cmp	r2, r3
 727 0270 04D0     		beq	.L46
 728              		.loc 8 122 0
 729 0272 0098     		ldr	r0, [sp]
 730 0274 FFF7FEFF 		bl	_test_fail
ARM GAS  /tmp/ccElHEaw.s 			page 14


 731 0278 0346     		mov	r3, r0
 732 027a 10E0     		b	.L47
 733              	.L46:
 734              		.loc 8 120 0
 735 027c 0B4B     		ldr	r3, .L50+4
 736 027e 1B68     		ldr	r3, [r3]
 737 0280 039A     		ldr	r2, [sp, #12]
 738 0282 9A42     		cmp	r2, r3
 739 0284 EBD3     		bcc	.L48
 740              		.loc 8 125 0
 741 0286 019B     		ldr	r3, [sp, #4]
 742 0288 1B78     		ldrb	r3, [r3]	@ zero_extendqisi2
 743 028a 002B     		cmp	r3, #0
 744 028c 04D0     		beq	.L49
 745              		.loc 8 126 0
 746 028e 0098     		ldr	r0, [sp]
 747 0290 FFF7FEFF 		bl	_test_fail
 748 0294 0346     		mov	r3, r0
 749 0296 02E0     		b	.L47
 750              	.L49:
 751              		.loc 8 128 0
 752 0298 FFF73AFF 		bl	clear_tokens
 753              		.loc 8 130 0
 754 029c 0023     		movs	r3, #0
 755              	.L47:
 756              		.loc 8 131 0
 757 029e 1846     		mov	r0, r3
 758 02a0 05B0     		add	sp, sp, #20
 759              		.cfi_def_cfa_offset 4
 760              		@ sp needed
 761 02a2 5DF804FB 		ldr	pc, [sp], #4
 762              	.L51:
 763 02a6 00BF     		.align	2
 764              	.L50:
 765 02a8 08000000 		.word	test_tokens_buffer
 766 02ac 18000000 		.word	test_tokp
 767              		.cfi_endproc
 768              	.LFE285:
 769              		.size	_test_assert_sequence, .-_test_assert_sequence
 770              		.align	2
 771              		.p2align 4,,15
 772              		.global	_test_assert_time_window
 773              		.thumb
 774              		.thumb_func
 775              		.type	_test_assert_time_window, %function
 776              	_test_assert_time_window:
 777              	.LFB286:
 778              		.loc 8 135 0
 779              		.cfi_startproc
 780              		@ args = 0, pretend = 0, frame = 16
 781              		@ frame_needed = 0, uses_anonymous_args = 0
 782 02b0 00B5     		push	{lr}
 783              		.cfi_def_cfa_offset 4
 784              		.cfi_offset 14, -4
 785 02b2 85B0     		sub	sp, sp, #20
 786              		.cfi_def_cfa_offset 24
 787 02b4 0390     		str	r0, [sp, #12]
ARM GAS  /tmp/ccElHEaw.s 			page 15


 788 02b6 0291     		str	r1, [sp, #8]
 789 02b8 0192     		str	r2, [sp, #4]
 790              		.loc 8 137 0
 791 02ba FFF701FF 		bl	osalOsGetSystemTimeX
 792 02be 0346     		mov	r3, r0
 793 02c0 1846     		mov	r0, r3
 794 02c2 0399     		ldr	r1, [sp, #12]
 795 02c4 029A     		ldr	r2, [sp, #8]
 796 02c6 FFF703FF 		bl	osalOsIsTimeWithinX
 797 02ca 0346     		mov	r3, r0
 798 02cc 1846     		mov	r0, r3
 799 02ce 0199     		ldr	r1, [sp, #4]
 800 02d0 FFF7FEFF 		bl	_test_assert
 801 02d4 0346     		mov	r3, r0
 802              		.loc 8 139 0
 803 02d6 1846     		mov	r0, r3
 804 02d8 05B0     		add	sp, sp, #20
 805              		.cfi_def_cfa_offset 4
 806              		@ sp needed
 807 02da 5DF804FB 		ldr	pc, [sp], #4
 808              		.cfi_endproc
 809              	.LFE286:
 810              		.size	_test_assert_time_window, .-_test_assert_time_window
 811 02de 00BF     		.align	2
 812              		.p2align 4,,15
 813              		.global	test_printn
 814              		.thumb
 815              		.thumb_func
 816              		.type	test_printn, %function
 817              	test_printn:
 818              	.LFB287:
 819              		.loc 8 148 0
 820              		.cfi_startproc
 821              		@ args = 0, pretend = 0, frame = 32
 822              		@ frame_needed = 0, uses_anonymous_args = 0
 823 02e0 00B5     		push	{lr}
 824              		.cfi_def_cfa_offset 4
 825              		.cfi_offset 14, -4
 826 02e2 89B0     		sub	sp, sp, #36
 827              		.cfi_def_cfa_offset 40
 828 02e4 0190     		str	r0, [sp, #4]
 829              		.loc 8 151 0
 830 02e6 019B     		ldr	r3, [sp, #4]
 831 02e8 002B     		cmp	r3, #0
 832 02ea 09D1     		bne	.L55
 833              		.loc 8 152 0
 834 02ec 1E4B     		ldr	r3, .L61
 835 02ee 1B68     		ldr	r3, [r3]
 836 02f0 1B68     		ldr	r3, [r3]
 837 02f2 9B68     		ldr	r3, [r3, #8]
 838 02f4 1C4A     		ldr	r2, .L61
 839 02f6 1268     		ldr	r2, [r2]
 840 02f8 1046     		mov	r0, r2
 841 02fa 3021     		movs	r1, #48
 842 02fc 9847     		blx	r3
 843 02fe 2FE0     		b	.L54
 844              	.L55:
ARM GAS  /tmp/ccElHEaw.s 			page 16


 845              		.loc 8 154 0
 846 0300 03AB     		add	r3, sp, #12
 847 0302 0793     		str	r3, [sp, #28]
 848              		.loc 8 155 0
 849 0304 16E0     		b	.L57
 850              	.L58:
 851              		.loc 8 156 0
 852 0306 0799     		ldr	r1, [sp, #28]
 853 0308 4B1C     		adds	r3, r1, #1
 854 030a 0793     		str	r3, [sp, #28]
 855 030c 0198     		ldr	r0, [sp, #4]
 856 030e 174B     		ldr	r3, .L61+4
 857 0310 A3FB0023 		umull	r2, r3, r3, r0
 858 0314 DA08     		lsrs	r2, r3, #3
 859 0316 1346     		mov	r3, r2
 860 0318 9B00     		lsls	r3, r3, #2
 861 031a 1344     		add	r3, r3, r2
 862 031c 5B00     		lsls	r3, r3, #1
 863 031e C21A     		subs	r2, r0, r3
 864 0320 D3B2     		uxtb	r3, r2
 865 0322 3033     		adds	r3, r3, #48
 866 0324 DBB2     		uxtb	r3, r3
 867 0326 0B70     		strb	r3, [r1]
 868 0328 019B     		ldr	r3, [sp, #4]
 869 032a 104A     		ldr	r2, .L61+4
 870 032c A2FB0323 		umull	r2, r3, r2, r3
 871 0330 DB08     		lsrs	r3, r3, #3
 872 0332 0193     		str	r3, [sp, #4]
 873              	.L57:
 874              		.loc 8 155 0
 875 0334 019B     		ldr	r3, [sp, #4]
 876 0336 002B     		cmp	r3, #0
 877 0338 E5D1     		bne	.L58
 878              		.loc 8 157 0
 879 033a 0DE0     		b	.L59
 880              	.L60:
 881              		.loc 8 158 0
 882 033c 0A4B     		ldr	r3, .L61
 883 033e 1B68     		ldr	r3, [r3]
 884 0340 1B68     		ldr	r3, [r3]
 885 0342 9B68     		ldr	r3, [r3, #8]
 886 0344 084A     		ldr	r2, .L61
 887 0346 1168     		ldr	r1, [r2]
 888 0348 079A     		ldr	r2, [sp, #28]
 889 034a 013A     		subs	r2, r2, #1
 890 034c 0792     		str	r2, [sp, #28]
 891 034e 079A     		ldr	r2, [sp, #28]
 892 0350 1278     		ldrb	r2, [r2]	@ zero_extendqisi2
 893 0352 0846     		mov	r0, r1
 894 0354 1146     		mov	r1, r2
 895 0356 9847     		blx	r3
 896              	.L59:
 897              		.loc 8 157 0
 898 0358 03AB     		add	r3, sp, #12
 899 035a 079A     		ldr	r2, [sp, #28]
 900 035c 9A42     		cmp	r2, r3
 901 035e EDD8     		bhi	.L60
ARM GAS  /tmp/ccElHEaw.s 			page 17


 902              	.L54:
 903              		.loc 8 160 0
 904 0360 09B0     		add	sp, sp, #36
 905              		.cfi_def_cfa_offset 4
 906              		@ sp needed
 907 0362 5DF804FB 		ldr	pc, [sp], #4
 908              	.L62:
 909 0366 00BF     		.align	2
 910              	.L61:
 911 0368 1C000000 		.word	test_chp
 912 036c CDCCCCCC 		.word	-858993459
 913              		.cfi_endproc
 914              	.LFE287:
 915              		.size	test_printn, .-test_printn
 916              		.align	2
 917              		.p2align 4,,15
 918              		.global	test_print
 919              		.thumb
 920              		.thumb_func
 921              		.type	test_print, %function
 922              	test_print:
 923              	.LFB288:
 924              		.loc 8 169 0
 925              		.cfi_startproc
 926              		@ args = 0, pretend = 0, frame = 8
 927              		@ frame_needed = 0, uses_anonymous_args = 0
 928 0370 00B5     		push	{lr}
 929              		.cfi_def_cfa_offset 4
 930              		.cfi_offset 14, -4
 931 0372 83B0     		sub	sp, sp, #12
 932              		.cfi_def_cfa_offset 16
 933 0374 0190     		str	r0, [sp, #4]
 934              		.loc 8 171 0
 935 0376 0BE0     		b	.L64
 936              	.L65:
 937              		.loc 8 172 0
 938 0378 094B     		ldr	r3, .L66
 939 037a 1B68     		ldr	r3, [r3]
 940 037c 1B68     		ldr	r3, [r3]
 941 037e 9A68     		ldr	r2, [r3, #8]
 942 0380 074B     		ldr	r3, .L66
 943 0382 1868     		ldr	r0, [r3]
 944 0384 019B     		ldr	r3, [sp, #4]
 945 0386 591C     		adds	r1, r3, #1
 946 0388 0191     		str	r1, [sp, #4]
 947 038a 1B78     		ldrb	r3, [r3]	@ zero_extendqisi2
 948 038c 1946     		mov	r1, r3
 949 038e 9047     		blx	r2
 950              	.L64:
 951              		.loc 8 171 0
 952 0390 019B     		ldr	r3, [sp, #4]
 953 0392 1B78     		ldrb	r3, [r3]	@ zero_extendqisi2
 954 0394 002B     		cmp	r3, #0
 955 0396 EFD1     		bne	.L65
 956              		.loc 8 173 0
 957 0398 03B0     		add	sp, sp, #12
 958              		.cfi_def_cfa_offset 4
ARM GAS  /tmp/ccElHEaw.s 			page 18


 959              		@ sp needed
 960 039a 5DF804FB 		ldr	pc, [sp], #4
 961              	.L67:
 962 039e 00BF     		.align	2
 963              	.L66:
 964 03a0 1C000000 		.word	test_chp
 965              		.cfi_endproc
 966              	.LFE288:
 967              		.size	test_print, .-test_print
 968              		.align	2
 969 03a4 AFF30080 		.p2align 4,,15
 969      AFF30080 
 969      AFF30080 
 970              		.global	test_println
 971              		.thumb
 972              		.thumb_func
 973              		.type	test_println, %function
 974              	test_println:
 975              	.LFB289:
 976              		.loc 8 182 0
 977              		.cfi_startproc
 978              		@ args = 0, pretend = 0, frame = 8
 979              		@ frame_needed = 0, uses_anonymous_args = 0
 980 03b0 00B5     		push	{lr}
 981              		.cfi_def_cfa_offset 4
 982              		.cfi_offset 14, -4
 983 03b2 83B0     		sub	sp, sp, #12
 984              		.cfi_def_cfa_offset 16
 985 03b4 0190     		str	r0, [sp, #4]
 986              		.loc 8 184 0
 987 03b6 0198     		ldr	r0, [sp, #4]
 988 03b8 FFF7FEFF 		bl	test_print
 989              		.loc 8 185 0
 990 03bc 064B     		ldr	r3, .L69
 991 03be 1B68     		ldr	r3, [r3]
 992 03c0 1B68     		ldr	r3, [r3]
 993 03c2 1B68     		ldr	r3, [r3]
 994 03c4 044A     		ldr	r2, .L69
 995 03c6 1268     		ldr	r2, [r2]
 996 03c8 1046     		mov	r0, r2
 997 03ca 0449     		ldr	r1, .L69+4
 998 03cc 0222     		movs	r2, #2
 999 03ce 9847     		blx	r3
 1000              		.loc 8 186 0
 1001 03d0 03B0     		add	sp, sp, #12
 1002              		.cfi_def_cfa_offset 4
 1003              		@ sp needed
 1004 03d2 5DF804FB 		ldr	pc, [sp], #4
 1005              	.L70:
 1006 03d6 00BF     		.align	2
 1007              	.L69:
 1008 03d8 1C000000 		.word	test_chp
 1009 03dc 00000000 		.word	.LC0
 1010              		.cfi_endproc
 1011              	.LFE289:
 1012              		.size	test_println, .-test_println
 1013              		.align	2
ARM GAS  /tmp/ccElHEaw.s 			page 19


 1014              		.p2align 4,,15
 1015              		.global	test_emit_token
 1016              		.thumb
 1017              		.thumb_func
 1018              		.type	test_emit_token, %function
 1019              	test_emit_token:
 1020              	.LFB290:
 1021              		.loc 8 195 0
 1022              		.cfi_startproc
 1023              		@ args = 0, pretend = 0, frame = 8
 1024              		@ frame_needed = 0, uses_anonymous_args = 0
 1025 03e0 00B5     		push	{lr}
 1026              		.cfi_def_cfa_offset 4
 1027              		.cfi_offset 14, -4
 1028 03e2 83B0     		sub	sp, sp, #12
 1029              		.cfi_def_cfa_offset 16
 1030 03e4 0346     		mov	r3, r0
 1031 03e6 8DF80730 		strb	r3, [sp, #7]
 1032              		.loc 8 197 0
 1033 03ea FFF759FE 		bl	osalSysLock
 1034              		.loc 8 198 0
 1035 03ee 094B     		ldr	r3, .L73
 1036 03f0 1B68     		ldr	r3, [r3]
 1037 03f2 094A     		ldr	r2, .L73+4
 1038 03f4 9342     		cmp	r3, r2
 1039 03f6 07D2     		bcs	.L72
 1040              		.loc 8 199 0
 1041 03f8 064B     		ldr	r3, .L73
 1042 03fa 1B68     		ldr	r3, [r3]
 1043 03fc 5A1C     		adds	r2, r3, #1
 1044 03fe 0549     		ldr	r1, .L73
 1045 0400 0A60     		str	r2, [r1]
 1046 0402 9DF80720 		ldrb	r2, [sp, #7]
 1047 0406 1A70     		strb	r2, [r3]
 1048              	.L72:
 1049              		.loc 8 200 0
 1050 0408 FFF752FE 		bl	osalSysUnlock
 1051              		.loc 8 201 0
 1052 040c 03B0     		add	sp, sp, #12
 1053              		.cfi_def_cfa_offset 4
 1054              		@ sp needed
 1055 040e 5DF804FB 		ldr	pc, [sp], #4
 1056              	.L74:
 1057 0412 00BF     		.align	2
 1058              	.L73:
 1059 0414 18000000 		.word	test_tokp
 1060 0418 18000000 		.word	test_tokens_buffer+16
 1061              		.cfi_endproc
 1062              	.LFE290:
 1063              		.size	test_emit_token, .-test_emit_token
 1064              		.align	2
 1065 041c AFF30080 		.p2align 4,,15
 1066              		.global	test_emit_token_i
 1067              		.thumb
 1068              		.thumb_func
 1069              		.type	test_emit_token_i, %function
 1070              	test_emit_token_i:
ARM GAS  /tmp/ccElHEaw.s 			page 20


 1071              	.LFB291:
 1072              		.loc 8 210 0
 1073              		.cfi_startproc
 1074              		@ args = 0, pretend = 0, frame = 8
 1075              		@ frame_needed = 0, uses_anonymous_args = 0
 1076              		@ link register save eliminated.
 1077 0420 82B0     		sub	sp, sp, #8
 1078              		.cfi_def_cfa_offset 8
 1079 0422 0346     		mov	r3, r0
 1080 0424 8DF80730 		strb	r3, [sp, #7]
 1081              		.loc 8 212 0
 1082 0428 074B     		ldr	r3, .L77
 1083 042a 1B68     		ldr	r3, [r3]
 1084 042c 074A     		ldr	r2, .L77+4
 1085 042e 9342     		cmp	r3, r2
 1086 0430 07D2     		bcs	.L75
 1087              		.loc 8 213 0
 1088 0432 054B     		ldr	r3, .L77
 1089 0434 1B68     		ldr	r3, [r3]
 1090 0436 5A1C     		adds	r2, r3, #1
 1091 0438 0349     		ldr	r1, .L77
 1092 043a 0A60     		str	r2, [r1]
 1093 043c 9DF80720 		ldrb	r2, [sp, #7]
 1094 0440 1A70     		strb	r2, [r3]
 1095              	.L75:
 1096              		.loc 8 214 0
 1097 0442 02B0     		add	sp, sp, #8
 1098              		.cfi_def_cfa_offset 0
 1099              		@ sp needed
 1100 0444 7047     		bx	lr
 1101              	.L78:
 1102 0446 00BF     		.align	2
 1103              	.L77:
 1104 0448 18000000 		.word	test_tokp
 1105 044c 18000000 		.word	test_tokens_buffer+16
 1106              		.cfi_endproc
 1107              	.LFE291:
 1108              		.size	test_emit_token_i, .-test_emit_token_i
 1109              		.section	.rodata
 1110 0003 00       		.align	2
 1111              	.LC1:
 1112 0004 00       		.ascii	"\000"
 1113 0005 000000   		.align	2
 1114              	.LC2:
 1115 0008 2A2A2A20 		.ascii	"*** ChibiOS/RT Test Suite\000"
 1115      43686962 
 1115      694F532F 
 1115      52542054 
 1115      65737420 
 1116 0022 0000     		.align	2
 1117              	.LC3:
 1118 0024 2A2A2A00 		.ascii	"***\000"
 1119              		.align	2
 1120              	.LC4:
 1121 0028 2A2A2A20 		.ascii	"*** Compiled:     \000"
 1121      436F6D70 
 1121      696C6564 
ARM GAS  /tmp/ccElHEaw.s 			page 21


 1121      3A202020 
 1121      202000
 1122 003b 00       		.align	2
 1123              	.LC5:
 1124 003c 46656220 		.ascii	"Feb  3 2018 - 14:31:30\000"
 1124      20332032 
 1124      30313820 
 1124      2D203134 
 1124      3A33313A 
 1125 0053 00       		.align	2
 1126              	.LC6:
 1127 0054 2A2A2A20 		.ascii	"*** Platform:     \000"
 1127      506C6174 
 1127      666F726D 
 1127      3A202020 
 1127      202000
 1128 0067 00       		.align	2
 1129              	.LC7:
 1130 0068 53544D33 		.ascii	"STM32F407 High Performance with DSP and FPU\000"
 1130      32463430 
 1130      37204869 
 1130      67682050 
 1130      6572666F 
 1131              		.align	2
 1132              	.LC8:
 1133 0094 2A2A2A20 		.ascii	"*** Test Board:   \000"
 1133      54657374 
 1133      20426F61 
 1133      72643A20 
 1133      202000
 1134 00a7 00       		.align	2
 1135              	.LC9:
 1136 00a8 53544D69 		.ascii	"STMicroelectronics STM32F4-Discovery\000"
 1136      63726F65 
 1136      6C656374 
 1136      726F6E69 
 1136      63732053 
 1137 00cd 000000   		.align	2
 1138              	.LC10:
 1139 00d0 2D2D2D20 		.ascii	"--- Test Case \000"
 1139      54657374 
 1139      20436173 
 1139      652000
 1140 00df 00       		.align	2
 1141              	.LC11:
 1142 00e0 2E00     		.ascii	".\000"
 1143 00e2 0000     		.align	2
 1144              	.LC12:
 1145 00e4 202800   		.ascii	" (\000"
 1146 00e7 00       		.align	2
 1147              	.LC13:
 1148 00e8 2900     		.ascii	")\000"
 1149 00ea 0000     		.align	2
 1150              	.LC14:
 1151 00ec 2D2D2D20 		.ascii	"--- Result: FAILURE (#\000"
 1151      52657375 
 1151      6C743A20 
ARM GAS  /tmp/ccElHEaw.s 			page 22


 1151      4641494C 
 1151      55524520 
 1152 0103 00       		.align	2
 1153              	.LC15:
 1154 0104 205B00   		.ascii	" [\000"
 1155 0107 00       		.align	2
 1156              	.LC16:
 1157 0108 5D202200 		.ascii	"] \"\000"
 1158              		.align	2
 1159              	.LC17:
 1160 010c 222900   		.ascii	"\")\000"
 1161 010f 00       		.align	2
 1162              	.LC18:
 1163 0110 2D2D2D20 		.ascii	"--- Result: SUCCESS\000"
 1163      52657375 
 1163      6C743A20 
 1163      53554343 
 1163      45535300 
 1164              		.align	2
 1165              	.LC19:
 1166 0124 46696E61 		.ascii	"Final result: \000"
 1166      6C207265 
 1166      73756C74 
 1166      3A2000
 1167 0133 00       		.align	2
 1168              	.LC20:
 1169 0134 4641494C 		.ascii	"FAILURE\000"
 1169      55524500 
 1170              		.align	2
 1171              	.LC21:
 1172 013c 53554343 		.ascii	"SUCCESS\000"
 1172      45535300 
 1173              		.text
 1174              		.align	2
 1175              		.p2align 4,,15
 1176              		.global	test_execute
 1177              		.thumb
 1178              		.thumb_func
 1179              		.type	test_execute, %function
 1180              	test_execute:
 1181              	.LFB292:
 1182              		.loc 8 227 0
 1183              		.cfi_startproc
 1184              		@ args = 0, pretend = 0, frame = 16
 1185              		@ frame_needed = 0, uses_anonymous_args = 0
 1186 0450 00B5     		push	{lr}
 1187              		.cfi_def_cfa_offset 4
 1188              		.cfi_offset 14, -4
 1189 0452 85B0     		sub	sp, sp, #20
 1190              		.cfi_def_cfa_offset 24
 1191 0454 0190     		str	r0, [sp, #4]
 1192              		.loc 8 230 0
 1193 0456 574A     		ldr	r2, .L89
 1194 0458 019B     		ldr	r3, [sp, #4]
 1195 045a 1360     		str	r3, [r2]
 1196              		.loc 8 231 0
 1197 045c 5648     		ldr	r0, .L89+4
ARM GAS  /tmp/ccElHEaw.s 			page 23


 1198 045e FFF7FEFF 		bl	test_println
 1199              		.loc 8 233 0
 1200 0462 5648     		ldr	r0, .L89+8
 1201 0464 FFF7FEFF 		bl	test_println
 1202              		.loc 8 237 0
 1203 0468 5548     		ldr	r0, .L89+12
 1204 046a FFF7FEFF 		bl	test_println
 1205              		.loc 8 238 0
 1206 046e 5548     		ldr	r0, .L89+16
 1207 0470 FFF7FEFF 		bl	test_print
 1208              		.loc 8 239 0
 1209 0474 5448     		ldr	r0, .L89+20
 1210 0476 FFF7FEFF 		bl	test_println
 1211              		.loc 8 241 0
 1212 047a 5448     		ldr	r0, .L89+24
 1213 047c FFF7FEFF 		bl	test_print
 1214              		.loc 8 242 0
 1215 0480 5348     		ldr	r0, .L89+28
 1216 0482 FFF7FEFF 		bl	test_println
 1217              		.loc 8 245 0
 1218 0486 5348     		ldr	r0, .L89+32
 1219 0488 FFF7FEFF 		bl	test_print
 1220              		.loc 8 246 0
 1221 048c 5248     		ldr	r0, .L89+36
 1222 048e FFF7FEFF 		bl	test_println
 1223              		.loc 8 249 0
 1224 0492 FFF7FEFF 		bl	test_print_port_info
 1225              		.loc 8 251 0
 1226 0496 4848     		ldr	r0, .L89+4
 1227 0498 FFF7FEFF 		bl	test_println
 1228              		.loc 8 253 0
 1229 049c 4F4B     		ldr	r3, .L89+40
 1230 049e 0022     		movs	r2, #0
 1231 04a0 1A70     		strb	r2, [r3]
 1232              		.loc 8 254 0
 1233 04a2 0023     		movs	r3, #0
 1234 04a4 0393     		str	r3, [sp, #12]
 1235              		.loc 8 255 0
 1236 04a6 65E0     		b	.L80
 1237              	.L85:
 1238              		.loc 8 256 0
 1239 04a8 0023     		movs	r3, #0
 1240 04aa 0293     		str	r3, [sp, #8]
 1241              		.loc 8 257 0
 1242 04ac 55E0     		b	.L81
 1243              	.L84:
 1244              		.loc 8 258 0
 1245 04ae FFF777FE 		bl	print_line
 1246              		.loc 8 259 0
 1247 04b2 4B48     		ldr	r0, .L89+44
 1248 04b4 FFF7FEFF 		bl	test_print
 1249              		.loc 8 260 0
 1250 04b8 039B     		ldr	r3, [sp, #12]
 1251 04ba 0133     		adds	r3, r3, #1
 1252 04bc 1846     		mov	r0, r3
 1253 04be FFF7FEFF 		bl	test_printn
 1254              		.loc 8 261 0
ARM GAS  /tmp/ccElHEaw.s 			page 24


 1255 04c2 4848     		ldr	r0, .L89+48
 1256 04c4 FFF7FEFF 		bl	test_print
 1257              		.loc 8 262 0
 1258 04c8 029B     		ldr	r3, [sp, #8]
 1259 04ca 0133     		adds	r3, r3, #1
 1260 04cc 1846     		mov	r0, r3
 1261 04ce FFF7FEFF 		bl	test_printn
 1262              		.loc 8 263 0
 1263 04d2 4548     		ldr	r0, .L89+52
 1264 04d4 FFF7FEFF 		bl	test_print
 1265              		.loc 8 264 0
 1266 04d8 444A     		ldr	r2, .L89+56
 1267 04da 039B     		ldr	r3, [sp, #12]
 1268 04dc 52F82320 		ldr	r2, [r2, r3, lsl #2]
 1269 04e0 029B     		ldr	r3, [sp, #8]
 1270 04e2 9B00     		lsls	r3, r3, #2
 1271 04e4 1344     		add	r3, r3, r2
 1272 04e6 1B68     		ldr	r3, [r3]
 1273 04e8 1B68     		ldr	r3, [r3]
 1274 04ea 1846     		mov	r0, r3
 1275 04ec FFF7FEFF 		bl	test_print
 1276              		.loc 8 265 0
 1277 04f0 3F48     		ldr	r0, .L89+60
 1278 04f2 FFF7FEFF 		bl	test_println
 1279              		.loc 8 267 0
 1280 04f6 4FF4FA60 		mov	r0, #2000
 1281 04fa FFF7F9FD 		bl	osalThreadSleep
 1282              		.loc 8 269 0
 1283 04fe 3B4A     		ldr	r2, .L89+56
 1284 0500 039B     		ldr	r3, [sp, #12]
 1285 0502 52F82320 		ldr	r2, [r2, r3, lsl #2]
 1286 0506 029B     		ldr	r3, [sp, #8]
 1287 0508 9B00     		lsls	r3, r3, #2
 1288 050a 1344     		add	r3, r3, r2
 1289 050c 1B68     		ldr	r3, [r3]
 1290 050e 1846     		mov	r0, r3
 1291 0510 FFF726FE 		bl	execute_test
 1292              		.loc 8 270 0
 1293 0514 374B     		ldr	r3, .L89+64
 1294 0516 1B78     		ldrb	r3, [r3]	@ zero_extendqisi2
 1295 0518 002B     		cmp	r3, #0
 1296 051a 18D0     		beq	.L82
 1297              		.loc 8 271 0
 1298 051c 3648     		ldr	r0, .L89+68
 1299 051e FFF7FEFF 		bl	test_print
 1300              		.loc 8 272 0
 1301 0522 364B     		ldr	r3, .L89+72
 1302 0524 1B68     		ldr	r3, [r3]
 1303 0526 1846     		mov	r0, r3
 1304 0528 FFF7FEFF 		bl	test_printn
 1305              		.loc 8 273 0
 1306 052c 3448     		ldr	r0, .L89+76
 1307 052e FFF7FEFF 		bl	test_print
 1308              		.loc 8 274 0
 1309 0532 FFF7F5FD 		bl	print_tokens
 1310              		.loc 8 275 0
 1311 0536 3348     		ldr	r0, .L89+80
ARM GAS  /tmp/ccElHEaw.s 			page 25


 1312 0538 FFF7FEFF 		bl	test_print
 1313              		.loc 8 276 0
 1314 053c 324B     		ldr	r3, .L89+84
 1315 053e 1B68     		ldr	r3, [r3]
 1316 0540 1846     		mov	r0, r3
 1317 0542 FFF7FEFF 		bl	test_print
 1318              		.loc 8 277 0
 1319 0546 3148     		ldr	r0, .L89+88
 1320 0548 FFF7FEFF 		bl	test_println
 1321 054c 02E0     		b	.L83
 1322              	.L82:
 1323              		.loc 8 280 0
 1324 054e 3048     		ldr	r0, .L89+92
 1325 0550 FFF7FEFF 		bl	test_println
 1326              	.L83:
 1327              		.loc 8 281 0
 1328 0554 029B     		ldr	r3, [sp, #8]
 1329 0556 0133     		adds	r3, r3, #1
 1330 0558 0293     		str	r3, [sp, #8]
 1331              	.L81:
 1332              		.loc 8 257 0
 1333 055a 244A     		ldr	r2, .L89+56
 1334 055c 039B     		ldr	r3, [sp, #12]
 1335 055e 52F82320 		ldr	r2, [r2, r3, lsl #2]
 1336 0562 029B     		ldr	r3, [sp, #8]
 1337 0564 9B00     		lsls	r3, r3, #2
 1338 0566 1344     		add	r3, r3, r2
 1339 0568 1B68     		ldr	r3, [r3]
 1340 056a 002B     		cmp	r3, #0
 1341 056c 9FD1     		bne	.L84
 1342              		.loc 8 283 0
 1343 056e 039B     		ldr	r3, [sp, #12]
 1344 0570 0133     		adds	r3, r3, #1
 1345 0572 0393     		str	r3, [sp, #12]
 1346              	.L80:
 1347              		.loc 8 255 0
 1348 0574 1D4A     		ldr	r2, .L89+56
 1349 0576 039B     		ldr	r3, [sp, #12]
 1350 0578 52F82330 		ldr	r3, [r2, r3, lsl #2]
 1351 057c 002B     		cmp	r3, #0
 1352 057e 93D1     		bne	.L85
 1353              		.loc 8 285 0
 1354 0580 FFF70EFE 		bl	print_line
 1355              		.loc 8 286 0
 1356 0584 0C48     		ldr	r0, .L89+4
 1357 0586 FFF7FEFF 		bl	test_println
 1358              		.loc 8 287 0
 1359 058a 2248     		ldr	r0, .L89+96
 1360 058c FFF7FEFF 		bl	test_print
 1361              		.loc 8 288 0
 1362 0590 124B     		ldr	r3, .L89+40
 1363 0592 1B78     		ldrb	r3, [r3]	@ zero_extendqisi2
 1364 0594 002B     		cmp	r3, #0
 1365 0596 03D0     		beq	.L86
 1366              		.loc 8 289 0
 1367 0598 1F48     		ldr	r0, .L89+100
 1368 059a FFF7FEFF 		bl	test_println
ARM GAS  /tmp/ccElHEaw.s 			page 26


 1369 059e 02E0     		b	.L87
 1370              	.L86:
 1371              		.loc 8 291 0
 1372 05a0 1E48     		ldr	r0, .L89+104
 1373 05a2 FFF7FEFF 		bl	test_println
 1374              	.L87:
 1375              		.loc 8 297 0
 1376 05a6 0D4B     		ldr	r3, .L89+40
 1377 05a8 1B78     		ldrb	r3, [r3]	@ zero_extendqisi2
 1378              		.loc 8 298 0
 1379 05aa 1846     		mov	r0, r3
 1380 05ac 05B0     		add	sp, sp, #20
 1381              		.cfi_def_cfa_offset 4
 1382              		@ sp needed
 1383 05ae 5DF804FB 		ldr	pc, [sp], #4
 1384              	.L90:
 1385 05b2 00BF     		.align	2
 1386              	.L89:
 1387 05b4 1C000000 		.word	test_chp
 1388 05b8 04000000 		.word	.LC1
 1389 05bc 08000000 		.word	.LC2
 1390 05c0 24000000 		.word	.LC3
 1391 05c4 28000000 		.word	.LC4
 1392 05c8 3C000000 		.word	.LC5
 1393 05cc 54000000 		.word	.LC6
 1394 05d0 68000000 		.word	.LC7
 1395 05d4 94000000 		.word	.LC8
 1396 05d8 A8000000 		.word	.LC9
 1397 05dc 00000000 		.word	test_global_fail
 1398 05e0 D0000000 		.word	.LC10
 1399 05e4 E0000000 		.word	.LC11
 1400 05e8 E4000000 		.word	.LC12
 1401 05ec 00000000 		.word	test_suite
 1402 05f0 E8000000 		.word	.LC13
 1403 05f4 00000000 		.word	test_local_fail
 1404 05f8 EC000000 		.word	.LC14
 1405 05fc 00000000 		.word	test_step
 1406 0600 04010000 		.word	.LC15
 1407 0604 08010000 		.word	.LC16
 1408 0608 04000000 		.word	test_failure_message
 1409 060c 0C010000 		.word	.LC17
 1410 0610 10010000 		.word	.LC18
 1411 0614 24010000 		.word	.LC19
 1412 0618 34010000 		.word	.LC20
 1413 061c 3C010000 		.word	.LC21
 1414              		.cfi_endproc
 1415              	.LFE292:
 1416              		.size	test_execute, .-test_execute
 1417              	.Letext0:
 1418              		.file 9 "/usr/lib/gcc/arm-none-eabi/4.9.3/include/stddef.h"
 1419              		.file 10 "/usr/include/newlib/machine/_default_types.h"
 1420              		.file 11 "/usr/include/newlib/sys/_stdint.h"
 1421              		.file 12 "../../../os/common/ports/ARMCMx/compilers/GCC/chtypes.h"
 1422              		.file 13 "../../../os/rt/include/chsystypes.h"
 1423              		.file 14 "../../../os/rt/include/chschd.h"
 1424              		.file 15 "../../../os/common/ports/ARMCMx/chcore.h"
 1425              		.file 16 "../../../os/hal/ports/STM32/LLD/TIMv1/stm32_tim.h"
ARM GAS  /tmp/ccElHEaw.s 			page 27


 1426              		.file 17 "../../../os/rt/include/chtm.h"
 1427              		.file 18 "../../../os/rt/include/chsem.h"
 1428              		.file 19 "../../../os/rt/include/chmtx.h"
 1429              		.file 20 "../../../os/hal/include/hal_streams.h"
 1430              		.file 21 "../../../test/lib/ch_test.h"
 1431              		.file 22 "../../../os/common/ext/CMSIS/include/core_cm4.h"
 1432              		.file 23 "../../../test/rt/source/test/test_root.h"