ARM GAS  /tmp/cccsghHx.s 			page 1


   1              		.syntax unified
   2              		.cpu cortex-m4
   3              		.fpu softvfp
   4              		.eabi_attribute 20, 1
   5              		.eabi_attribute 21, 1
   6              		.eabi_attribute 23, 3
   7              		.eabi_attribute 24, 1
   8              		.eabi_attribute 25, 1
   9              		.eabi_attribute 26, 1
  10              		.eabi_attribute 30, 6
  11              		.eabi_attribute 34, 1
  12              		.eabi_attribute 18, 4
  13              		.thumb
  14              		.file	"chcore_v7m.c"
  15              		.text
  16              	.Ltext0:
  17              		.cfi_sections	.debug_frame
  18              		.align	2
  19              		.p2align 4,,15
  20              		.thumb
  21              		.thumb_func
  22              		.type	port_lock, %function
  23              	port_lock:
  24              	.LFB127:
  25              		.file 1 "../../../os/common/ports/ARMCMx/chcore_v7m.h"
  26              		.loc 1 594 0
  27              		.cfi_startproc
  28              		@ args = 0, pretend = 0, frame = 8
  29              		@ frame_needed = 0, uses_anonymous_args = 0
  30              		@ link register save eliminated.
  31 0000 82B0     		sub	sp, sp, #8
  32              		.cfi_def_cfa_offset 8
  33 0002 2023     		movs	r3, #32
  34 0004 0193     		str	r3, [sp, #4]
  35              	.LBB15:
  36              	.LBB16:
  37              		.file 2 "../../../os/common/ext/CMSIS/include/cmsis_gcc.h"
  38              		.loc 2 264 0
  39 0006 019B     		ldr	r3, [sp, #4]
  40              	@ 264 "../../../os/common/ext/CMSIS/include/cmsis_gcc.h" 1
  41 0008 83F31188 		MSR basepri, r3
  42              	@ 0 "" 2
  43              		.thumb
  44              	.LBE16:
  45              	.LBE15:
  46              		.loc 1 611 0
  47 000c 02B0     		add	sp, sp, #8
  48              		.cfi_def_cfa_offset 0
  49              		@ sp needed
  50 000e 7047     		bx	lr
  51              		.cfi_endproc
  52              	.LFE127:
  53              		.size	port_lock, .-port_lock
  54              		.align	2
  55              		.p2align 4,,15
  56              		.thumb
  57              		.thumb_func
ARM GAS  /tmp/cccsghHx.s 			page 2


  58              		.type	port_unlock, %function
  59              	port_unlock:
  60              	.LFB128:
  61              		.loc 1 618 0
  62              		.cfi_startproc
  63              		@ args = 0, pretend = 0, frame = 8
  64              		@ frame_needed = 0, uses_anonymous_args = 0
  65              		@ link register save eliminated.
  66 0010 82B0     		sub	sp, sp, #8
  67              		.cfi_def_cfa_offset 8
  68 0012 0023     		movs	r3, #0
  69 0014 0193     		str	r3, [sp, #4]
  70              	.LBB17:
  71              	.LBB18:
  72              		.loc 2 264 0
  73 0016 019B     		ldr	r3, [sp, #4]
  74              	@ 264 "../../../os/common/ext/CMSIS/include/cmsis_gcc.h" 1
  75 0018 83F31188 		MSR basepri, r3
  76              	@ 0 "" 2
  77              		.thumb
  78              	.LBE18:
  79              	.LBE17:
  80              		.loc 1 625 0
  81 001c 02B0     		add	sp, sp, #8
  82              		.cfi_def_cfa_offset 0
  83              		@ sp needed
  84 001e 7047     		bx	lr
  85              		.cfi_endproc
  86              	.LFE128:
  87              		.size	port_unlock, .-port_unlock
  88              		.align	2
  89              		.p2align 4,,15
  90              		.thumb
  91              		.thumb_func
  92              		.type	port_lock_from_isr, %function
  93              	port_lock_from_isr:
  94              	.LFB129:
  95              		.loc 1 633 0
  96              		.cfi_startproc
  97              		@ args = 0, pretend = 0, frame = 0
  98              		@ frame_needed = 0, uses_anonymous_args = 0
  99 0020 08B5     		push	{r3, lr}
 100              		.cfi_def_cfa_offset 8
 101              		.cfi_offset 3, -8
 102              		.cfi_offset 14, -4
 103              		.loc 1 635 0
 104 0022 FFF7EDFF 		bl	port_lock
 105              		.loc 1 636 0
 106 0026 08BD     		pop	{r3, pc}
 107              		.cfi_endproc
 108              	.LFE129:
 109              		.size	port_lock_from_isr, .-port_lock_from_isr
 110              		.align	2
 111 0028 AFF30080 		.p2align 4,,15
 111      AFF30080 
 112              		.thumb
 113              		.thumb_func
ARM GAS  /tmp/cccsghHx.s 			page 3


 114              		.type	port_unlock_from_isr, %function
 115              	port_unlock_from_isr:
 116              	.LFB130:
 117              		.loc 1 644 0
 118              		.cfi_startproc
 119              		@ args = 0, pretend = 0, frame = 0
 120              		@ frame_needed = 0, uses_anonymous_args = 0
 121 0030 08B5     		push	{r3, lr}
 122              		.cfi_def_cfa_offset 8
 123              		.cfi_offset 3, -8
 124              		.cfi_offset 14, -4
 125              		.loc 1 646 0
 126 0032 FFF7EDFF 		bl	port_unlock
 127              		.loc 1 647 0
 128 0036 08BD     		pop	{r3, pc}
 129              		.cfi_endproc
 130              	.LFE130:
 131              		.size	port_unlock_from_isr, .-port_unlock_from_isr
 132              		.align	2
 133 0038 AFF30080 		.p2align 4,,15
 133      AFF30080 
 134              		.global	SVC_Handler
 135              		.thumb
 136              		.thumb_func
 137              		.type	SVC_Handler, %function
 138              	SVC_Handler:
 139              	.LFB248:
 140              		.file 3 "../../../os/common/ports/ARMCMx/chcore_v7m.c"
 141              		.loc 3 62 0
 142              		.cfi_startproc
 143              		@ args = 0, pretend = 0, frame = 8
 144              		@ frame_needed = 0, uses_anonymous_args = 0
 145 0040 10B5     		push	{r4, lr}
 146              		.cfi_def_cfa_offset 8
 147              		.cfi_offset 4, -8
 148              		.cfi_offset 14, -4
 149 0042 82B0     		sub	sp, sp, #8
 150              		.cfi_def_cfa_offset 16
 151              	.LBB19:
 152              	.LBB20:
 153              		.loc 2 152 0
 154              	@ 152 "../../../os/common/ext/CMSIS/include/cmsis_gcc.h" 1
 155 0044 EFF30983 		MRS r3, psp
 156              	
 157              	@ 0 "" 2
 158              		.thumb
 159 0048 1C46     		mov	r4, r3
 160              		.loc 2 153 0
 161 004a 2346     		mov	r3, r4
 162              	.LBE20:
 163              	.LBE19:
 164              		.loc 3 72 0
 165 004c 0193     		str	r3, [sp, #4]
 166              		.loc 3 76 0
 167 004e 019B     		ldr	r3, [sp, #4]
 168 0050 2033     		adds	r3, r3, #32
 169 0052 0193     		str	r3, [sp, #4]
ARM GAS  /tmp/cccsghHx.s 			page 4


 170              		.loc 3 79 0
 171 0054 019B     		ldr	r3, [sp, #4]
 172 0056 0093     		str	r3, [sp]
 173              	.LBB21:
 174              	.LBB22:
 175              		.loc 2 164 0
 176 0058 009B     		ldr	r3, [sp]
 177              	@ 164 "../../../os/common/ext/CMSIS/include/cmsis_gcc.h" 1
 178 005a 83F30988 		MSR psp, r3
 179              	
 180              	@ 0 "" 2
 181              		.thumb
 182              	.LBE22:
 183              	.LBE21:
 184              		.loc 3 82 0
 185 005e FFF7E7FF 		bl	port_unlock_from_isr
 186              		.loc 3 83 0
 187 0062 02B0     		add	sp, sp, #8
 188              		.cfi_def_cfa_offset 8
 189              		@ sp needed
 190 0064 10BD     		pop	{r4, pc}
 191              		.cfi_endproc
 192              	.LFE248:
 193              		.size	SVC_Handler, .-SVC_Handler
 194 0066 00BF     		.align	2
 195 0068 AFF30080 		.p2align 4,,15
 195      AFF30080 
 196              		.global	_port_irq_epilogue
 197              		.thumb
 198              		.thumb_func
 199              		.type	_port_irq_epilogue, %function
 200              	_port_irq_epilogue:
 201              	.LFB249:
 202              		.loc 3 122 0
 203              		.cfi_startproc
 204              		@ args = 0, pretend = 0, frame = 8
 205              		@ frame_needed = 0, uses_anonymous_args = 0
 206 0070 10B5     		push	{r4, lr}
 207              		.cfi_def_cfa_offset 8
 208              		.cfi_offset 4, -8
 209              		.cfi_offset 14, -4
 210 0072 82B0     		sub	sp, sp, #8
 211              		.cfi_def_cfa_offset 16
 212              		.loc 3 124 0
 213 0074 FFF7D4FF 		bl	port_lock_from_isr
 214              		.loc 3 125 0
 215 0078 134B     		ldr	r3, .L13
 216 007a 5B68     		ldr	r3, [r3, #4]
 217 007c 03F40063 		and	r3, r3, #2048
 218 0080 002B     		cmp	r3, #0
 219 0082 1DD0     		beq	.L8
 220              	.LBB23:
 221              	.LBB24:
 222              	.LBB25:
 223              		.loc 2 152 0
 224              	@ 152 "../../../os/common/ext/CMSIS/include/cmsis_gcc.h" 1
 225 0084 EFF30983 		MRS r3, psp
ARM GAS  /tmp/cccsghHx.s 			page 5


 226              	
 227              	@ 0 "" 2
 228              		.thumb
 229 0088 1C46     		mov	r4, r3
 230              		.loc 2 153 0
 231 008a 2346     		mov	r3, r4
 232              	.LBE25:
 233              	.LBE24:
 234              		.loc 3 134 0
 235 008c 0193     		str	r3, [sp, #4]
 236              		.loc 3 138 0
 237 008e 019B     		ldr	r3, [sp, #4]
 238 0090 203B     		subs	r3, r3, #32
 239 0092 0193     		str	r3, [sp, #4]
 240              		.loc 3 141 0
 241 0094 019B     		ldr	r3, [sp, #4]
 242 0096 4FF08072 		mov	r2, #16777216
 243 009a DA61     		str	r2, [r3, #28]
 244              		.loc 3 147 0
 245 009c 019B     		ldr	r3, [sp, #4]
 246 009e 0093     		str	r3, [sp]
 247              	.LBB26:
 248              	.LBB27:
 249              		.loc 2 164 0
 250 00a0 009B     		ldr	r3, [sp]
 251              	@ 164 "../../../os/common/ext/CMSIS/include/cmsis_gcc.h" 1
 252 00a2 83F30988 		MSR psp, r3
 253              	
 254              	@ 0 "" 2
 255              		.thumb
 256              	.LBE27:
 257              	.LBE26:
 258              		.loc 3 151 0
 259 00a6 FFF7FEFF 		bl	chSchIsPreemptionRequired
 260 00aa 0346     		mov	r3, r0
 261 00ac 002B     		cmp	r3, #0
 262 00ae 03D0     		beq	.L10
 263              		.loc 3 153 0
 264 00b0 019B     		ldr	r3, [sp, #4]
 265 00b2 064A     		ldr	r2, .L13+4
 266 00b4 9A61     		str	r2, [r3, #24]
 267              		.loc 3 163 0
 268 00b6 05E0     		b	.L7
 269              	.L10:
 270              		.loc 3 158 0
 271 00b8 019B     		ldr	r3, [sp, #4]
 272 00ba 054A     		ldr	r2, .L13+8
 273 00bc 9A61     		str	r2, [r3, #24]
 274              		.loc 3 163 0
 275 00be 01E0     		b	.L7
 276              	.L8:
 277              	.LBE23:
 278              		.loc 3 165 0
 279 00c0 FFF7B6FF 		bl	port_unlock_from_isr
 280              	.L7:
 281              		.loc 3 166 0
 282 00c4 02B0     		add	sp, sp, #8
ARM GAS  /tmp/cccsghHx.s 			page 6


 283              		.cfi_def_cfa_offset 8
 284              		@ sp needed
 285 00c6 10BD     		pop	{r4, pc}
 286              	.L14:
 287              		.align	2
 288              	.L13:
 289 00c8 00ED00E0 		.word	-536810240
 290 00cc 00000000 		.word	_port_switch_from_isr
 291 00d0 00000000 		.word	_port_exit_from_isr
 292              		.cfi_endproc
 293              	.LFE249:
 294              		.size	_port_irq_epilogue, .-_port_irq_epilogue
 295              	.Letext0:
 296              		.file 4 "/usr/include/newlib/machine/_default_types.h"
 297              		.file 5 "/usr/include/newlib/sys/_stdint.h"
 298              		.file 6 "../../../os/common/ports/ARMCMx/compilers/GCC/chtypes.h"
 299              		.file 7 "../../../os/rt/include/chsystypes.h"
 300              		.file 8 "../../../os/rt/include/chschd.h"
 301              		.file 9 "../../../os/common/ext/CMSIS/include/core_cm4.h"
 302              		.file 10 "../../../os/common/ports/ARMCMx/chcore.h"
 303              		.file 11 "../../../os/rt/include/chtm.h"
 304              		.file 12 "../../../os/rt/include/chsem.h"
 305              		.file 13 "../../../os/rt/include/chmtx.h"
 306              		.section	.debug_info,"",%progbits
 307              	.Ldebug_info0:
 308 0000 BE090000 		.4byte	0x9be
 309 0004 0400     		.2byte	0x4
 310 0006 00000000 		.4byte	.Ldebug_abbrev0
 311 000a 04       		.byte	0x4
 312 000b 01       		.uleb128 0x1
 313 000c FE030000 		.4byte	.LASF121
 314 0010 01       		.byte	0x1
 315 0011 20050000 		.4byte	.LASF122
 316 0015 95010000 		.4byte	.LASF123
 317 0019 00000000 		.4byte	.Ltext0
 318 001d D4000000 		.4byte	.Letext0-.Ltext0
 319 0021 00000000 		.4byte	.Ldebug_line0
 320 0025 02       		.uleb128 0x2
 321 0026 04       		.byte	0x4
 322 0027 05       		.byte	0x5
 323 0028 696E7400 		.ascii	"int\000"
 324 002c 03       		.uleb128 0x3
 325 002d 04       		.byte	0x4
 326 002e 07       		.byte	0x7
 327 002f 65010000 		.4byte	.LASF0
 328 0033 03       		.uleb128 0x3
 329 0034 01       		.byte	0x1
 330 0035 06       		.byte	0x6
 331 0036 DA000000 		.4byte	.LASF1
 332 003a 04       		.uleb128 0x4
 333 003b 29000000 		.4byte	.LASF5
 334 003f 04       		.byte	0x4
 335 0040 1D       		.byte	0x1d
 336 0041 45000000 		.4byte	0x45
 337 0045 03       		.uleb128 0x3
 338 0046 01       		.byte	0x1
 339 0047 08       		.byte	0x8
ARM GAS  /tmp/cccsghHx.s 			page 7


 340 0048 58030000 		.4byte	.LASF2
 341 004c 03       		.uleb128 0x3
 342 004d 02       		.byte	0x2
 343 004e 05       		.byte	0x5
 344 004f 79030000 		.4byte	.LASF3
 345 0053 03       		.uleb128 0x3
 346 0054 02       		.byte	0x2
 347 0055 07       		.byte	0x7
 348 0056 DC040000 		.4byte	.LASF4
 349 005a 04       		.uleb128 0x4
 350 005b 5E020000 		.4byte	.LASF6
 351 005f 04       		.byte	0x4
 352 0060 3F       		.byte	0x3f
 353 0061 65000000 		.4byte	0x65
 354 0065 03       		.uleb128 0x3
 355 0066 04       		.byte	0x4
 356 0067 05       		.byte	0x5
 357 0068 08010000 		.4byte	.LASF7
 358 006c 04       		.uleb128 0x4
 359 006d 2C010000 		.4byte	.LASF8
 360 0071 04       		.byte	0x4
 361 0072 41       		.byte	0x41
 362 0073 77000000 		.4byte	0x77
 363 0077 03       		.uleb128 0x3
 364 0078 04       		.byte	0x4
 365 0079 07       		.byte	0x7
 366 007a 83010000 		.4byte	.LASF9
 367 007e 03       		.uleb128 0x3
 368 007f 08       		.byte	0x8
 369 0080 05       		.byte	0x5
 370 0081 CC000000 		.4byte	.LASF10
 371 0085 04       		.uleb128 0x4
 372 0086 00030000 		.4byte	.LASF11
 373 008a 04       		.byte	0x4
 374 008b 5B       		.byte	0x5b
 375 008c 90000000 		.4byte	0x90
 376 0090 03       		.uleb128 0x3
 377 0091 08       		.byte	0x8
 378 0092 07       		.byte	0x7
 379 0093 5D000000 		.4byte	.LASF12
 380 0097 04       		.uleb128 0x4
 381 0098 71050000 		.4byte	.LASF13
 382 009c 05       		.byte	0x5
 383 009d 14       		.byte	0x14
 384 009e 3A000000 		.4byte	0x3a
 385 00a2 04       		.uleb128 0x4
 386 00a3 50030000 		.4byte	.LASF14
 387 00a7 05       		.byte	0x5
 388 00a8 1F       		.byte	0x1f
 389 00a9 5A000000 		.4byte	0x5a
 390 00ad 04       		.uleb128 0x4
 391 00ae D3030000 		.4byte	.LASF15
 392 00b2 05       		.byte	0x5
 393 00b3 20       		.byte	0x20
 394 00b4 6C000000 		.4byte	0x6c
 395 00b8 04       		.uleb128 0x4
 396 00b9 20000000 		.4byte	.LASF16
ARM GAS  /tmp/cccsghHx.s 			page 8


 397 00bd 05       		.byte	0x5
 398 00be 26       		.byte	0x26
 399 00bf 85000000 		.4byte	0x85
 400 00c3 04       		.uleb128 0x4
 401 00c4 FB040000 		.4byte	.LASF17
 402 00c8 06       		.byte	0x6
 403 00c9 39       		.byte	0x39
 404 00ca AD000000 		.4byte	0xad
 405 00ce 04       		.uleb128 0x4
 406 00cf 2D020000 		.4byte	.LASF18
 407 00d3 06       		.byte	0x6
 408 00d4 3C       		.byte	0x3c
 409 00d5 97000000 		.4byte	0x97
 410 00d9 04       		.uleb128 0x4
 411 00da 11010000 		.4byte	.LASF19
 412 00de 06       		.byte	0x6
 413 00df 3D       		.byte	0x3d
 414 00e0 97000000 		.4byte	0x97
 415 00e4 04       		.uleb128 0x4
 416 00e5 0B030000 		.4byte	.LASF20
 417 00e9 06       		.byte	0x6
 418 00ea 3E       		.byte	0x3e
 419 00eb 97000000 		.4byte	0x97
 420 00ef 04       		.uleb128 0x4
 421 00f0 32030000 		.4byte	.LASF21
 422 00f4 06       		.byte	0x6
 423 00f5 40       		.byte	0x40
 424 00f6 AD000000 		.4byte	0xad
 425 00fa 04       		.uleb128 0x4
 426 00fb FA010000 		.4byte	.LASF22
 427 00ff 06       		.byte	0x6
 428 0100 41       		.byte	0x41
 429 0101 A2000000 		.4byte	0xa2
 430 0105 04       		.uleb128 0x4
 431 0106 43020000 		.4byte	.LASF23
 432 010a 06       		.byte	0x6
 433 010b 43       		.byte	0x43
 434 010c AD000000 		.4byte	0xad
 435 0110 04       		.uleb128 0x4
 436 0111 5F010000 		.4byte	.LASF24
 437 0115 06       		.byte	0x6
 438 0116 45       		.byte	0x45
 439 0117 A2000000 		.4byte	0xa2
 440 011b 04       		.uleb128 0x4
 441 011c AA040000 		.4byte	.LASF25
 442 0120 07       		.byte	0x7
 443 0121 33       		.byte	0x33
 444 0122 AD000000 		.4byte	0xad
 445 0126 04       		.uleb128 0x4
 446 0127 A1040000 		.4byte	.LASF26
 447 012b 07       		.byte	0x7
 448 012c 3F       		.byte	0x3f
 449 012d 31010000 		.4byte	0x131
 450 0131 05       		.uleb128 0x5
 451 0132 E6010000 		.4byte	.LASF44
 452 0136 44       		.byte	0x44
 453 0137 08       		.byte	0x8
ARM GAS  /tmp/cccsghHx.s 			page 9


 454 0138 9A       		.byte	0x9a
 455 0139 0F020000 		.4byte	0x20f
 456 013d 06       		.uleb128 0x6
 457 013e 1F010000 		.4byte	.LASF27
 458 0142 08       		.byte	0x8
 459 0143 9B       		.byte	0x9b
 460 0144 44020000 		.4byte	0x244
 461 0148 00       		.byte	0
 462 0149 06       		.uleb128 0x6
 463 014a F3020000 		.4byte	.LASF28
 464 014e 08       		.byte	0x8
 465 014f 9C       		.byte	0x9c
 466 0150 EF000000 		.4byte	0xef
 467 0154 08       		.byte	0x8
 468 0155 07       		.uleb128 0x7
 469 0156 63747800 		.ascii	"ctx\000"
 470 015a 08       		.byte	0x8
 471 015b 9D       		.byte	0x9d
 472 015c D0050000 		.4byte	0x5d0
 473 0160 0C       		.byte	0xc
 474 0161 06       		.uleb128 0x6
 475 0162 73020000 		.4byte	.LASF29
 476 0166 08       		.byte	0x8
 477 0167 9F       		.byte	0x9f
 478 0168 1A020000 		.4byte	0x21a
 479 016c 10       		.byte	0x10
 480 016d 06       		.uleb128 0x6
 481 016e 86040000 		.4byte	.LASF30
 482 0172 08       		.byte	0x8
 483 0173 A0       		.byte	0xa0
 484 0174 1A020000 		.4byte	0x21a
 485 0178 14       		.byte	0x14
 486 0179 06       		.uleb128 0x6
 487 017a D6010000 		.4byte	.LASF31
 488 017e 08       		.byte	0x8
 489 017f A7       		.byte	0xa7
 490 0180 C6070000 		.4byte	0x7c6
 491 0184 18       		.byte	0x18
 492 0185 06       		.uleb128 0x6
 493 0186 25010000 		.4byte	.LASF32
 494 018a 08       		.byte	0x8
 495 018b B0       		.byte	0xb0
 496 018c D8070000 		.4byte	0x7d8
 497 0190 1C       		.byte	0x1c
 498 0191 06       		.uleb128 0x6
 499 0192 02010000 		.4byte	.LASF33
 500 0196 08       		.byte	0x8
 501 0197 B5       		.byte	0xb5
 502 0198 D9000000 		.4byte	0xd9
 503 019c 20       		.byte	0x20
 504 019d 06       		.uleb128 0x6
 505 019e 79050000 		.4byte	.LASF34
 506 01a2 08       		.byte	0x8
 507 01a3 B9       		.byte	0xb9
 508 01a4 CE000000 		.4byte	0xce
 509 01a8 21       		.byte	0x21
 510 01a9 06       		.uleb128 0x6
ARM GAS  /tmp/cccsghHx.s 			page 10


 511 01aa C2000000 		.4byte	.LASF35
 512 01ae 08       		.byte	0x8
 513 01af BE       		.byte	0xbe
 514 01b0 E4000000 		.4byte	0xe4
 515 01b4 22       		.byte	0x22
 516 01b5 08       		.uleb128 0x8
 517 01b6 7500     		.ascii	"u\000"
 518 01b8 08       		.byte	0x8
 519 01b9 0F01     		.2byte	0x10f
 520 01bb FB060000 		.4byte	0x6fb
 521 01bf 24       		.byte	0x24
 522 01c0 09       		.uleb128 0x9
 523 01c1 49010000 		.4byte	.LASF36
 524 01c5 08       		.byte	0x8
 525 01c6 1401     		.2byte	0x114
 526 01c8 20020000 		.4byte	0x220
 527 01cc 28       		.byte	0x28
 528 01cd 09       		.uleb128 0x9
 529 01ce F9000000 		.4byte	.LASF37
 530 01d2 08       		.byte	0x8
 531 01d3 1A01     		.2byte	0x11a
 532 01d5 44020000 		.4byte	0x244
 533 01d9 2C       		.byte	0x2c
 534 01da 09       		.uleb128 0x9
 535 01db 0B020000 		.4byte	.LASF38
 536 01df 08       		.byte	0x8
 537 01e0 2001     		.2byte	0x120
 538 01e2 05010000 		.4byte	0x105
 539 01e6 34       		.byte	0x34
 540 01e7 09       		.uleb128 0x9
 541 01e8 91050000 		.4byte	.LASF39
 542 01ec 08       		.byte	0x8
 543 01ed 2701     		.2byte	0x127
 544 01ef C0070000 		.4byte	0x7c0
 545 01f3 38       		.byte	0x38
 546 01f4 09       		.uleb128 0x9
 547 01f5 88020000 		.4byte	.LASF40
 548 01f9 08       		.byte	0x8
 549 01fa 2B01     		.2byte	0x12b
 550 01fc EF000000 		.4byte	0xef
 551 0200 3C       		.byte	0x3c
 552 0201 09       		.uleb128 0x9
 553 0202 E0010000 		.4byte	.LASF41
 554 0206 08       		.byte	0x8
 555 0207 3201     		.2byte	0x132
 556 0209 F7020000 		.4byte	0x2f7
 557 020d 40       		.byte	0x40
 558 020e 00       		.byte	0
 559 020f 04       		.uleb128 0x4
 560 0210 9A020000 		.4byte	.LASF42
 561 0214 07       		.byte	0x7
 562 0215 44       		.byte	0x44
 563 0216 1A020000 		.4byte	0x21a
 564 021a 0A       		.uleb128 0xa
 565 021b 04       		.byte	0x4
 566 021c 26010000 		.4byte	0x126
 567 0220 04       		.uleb128 0x4
ARM GAS  /tmp/cccsghHx.s 			page 11


 568 0221 79020000 		.4byte	.LASF43
 569 0225 07       		.byte	0x7
 570 0226 49       		.byte	0x49
 571 0227 2B020000 		.4byte	0x22b
 572 022b 05       		.uleb128 0x5
 573 022c E8030000 		.4byte	.LASF45
 574 0230 04       		.byte	0x4
 575 0231 08       		.byte	0x8
 576 0232 88       		.byte	0x88
 577 0233 44020000 		.4byte	0x244
 578 0237 06       		.uleb128 0x6
 579 0238 AC000000 		.4byte	.LASF46
 580 023c 08       		.byte	0x8
 581 023d 89       		.byte	0x89
 582 023e 1A020000 		.4byte	0x21a
 583 0242 00       		.byte	0
 584 0243 00       		.byte	0
 585 0244 04       		.uleb128 0x4
 586 0245 4D050000 		.4byte	.LASF47
 587 0249 07       		.byte	0x7
 588 024a 50       		.byte	0x50
 589 024b 4F020000 		.4byte	0x24f
 590 024f 05       		.uleb128 0x5
 591 0250 B1000000 		.4byte	.LASF48
 592 0254 08       		.byte	0x8
 593 0255 08       		.byte	0x8
 594 0256 8F       		.byte	0x8f
 595 0257 74020000 		.4byte	0x274
 596 025b 06       		.uleb128 0x6
 597 025c AC000000 		.4byte	.LASF46
 598 0260 08       		.byte	0x8
 599 0261 90       		.byte	0x90
 600 0262 1A020000 		.4byte	0x21a
 601 0266 00       		.byte	0
 602 0267 06       		.uleb128 0x6
 603 0268 33000000 		.4byte	.LASF49
 604 026c 08       		.byte	0x8
 605 026d 91       		.byte	0x91
 606 026e 1A020000 		.4byte	0x21a
 607 0272 04       		.byte	0x4
 608 0273 00       		.byte	0
 609 0274 04       		.uleb128 0x4
 610 0275 00000000 		.4byte	.LASF50
 611 0279 07       		.byte	0x7
 612 027a 57       		.byte	0x57
 613 027b 7F020000 		.4byte	0x27f
 614 027f 0B       		.uleb128 0xb
 615 0280 35020000 		.4byte	.LASF51
 616 0284 1C       		.byte	0x1c
 617 0285 08       		.byte	0x8
 618 0286 6A01     		.2byte	0x16a
 619 0288 DB020000 		.4byte	0x2db
 620 028c 09       		.uleb128 0x9
 621 028d 1F010000 		.4byte	.LASF27
 622 0291 08       		.byte	0x8
 623 0292 6B01     		.2byte	0x16b
 624 0294 44020000 		.4byte	0x244
ARM GAS  /tmp/cccsghHx.s 			page 12


 625 0298 00       		.byte	0
 626 0299 09       		.uleb128 0x9
 627 029a F3020000 		.4byte	.LASF28
 628 029e 08       		.byte	0x8
 629 029f 6C01     		.2byte	0x16c
 630 02a1 EF000000 		.4byte	0xef
 631 02a5 08       		.byte	0x8
 632 02a6 08       		.uleb128 0x8
 633 02a7 63747800 		.ascii	"ctx\000"
 634 02ab 08       		.byte	0x8
 635 02ac 6E01     		.2byte	0x16e
 636 02ae D0050000 		.4byte	0x5d0
 637 02b2 0C       		.byte	0xc
 638 02b3 09       		.uleb128 0x9
 639 02b4 73020000 		.4byte	.LASF29
 640 02b8 08       		.byte	0x8
 641 02b9 7101     		.2byte	0x171
 642 02bb 1A020000 		.4byte	0x21a
 643 02bf 10       		.byte	0x10
 644 02c0 09       		.uleb128 0x9
 645 02c1 86040000 		.4byte	.LASF30
 646 02c5 08       		.byte	0x8
 647 02c6 7201     		.2byte	0x172
 648 02c8 1A020000 		.4byte	0x21a
 649 02cc 14       		.byte	0x14
 650 02cd 09       		.uleb128 0x9
 651 02ce F8020000 		.4byte	.LASF52
 652 02d2 08       		.byte	0x8
 653 02d3 7501     		.2byte	0x175
 654 02d5 1A020000 		.4byte	0x21a
 655 02d9 18       		.byte	0x18
 656 02da 00       		.byte	0
 657 02db 04       		.uleb128 0x4
 658 02dc B4040000 		.4byte	.LASF53
 659 02e0 07       		.byte	0x7
 660 02e1 5C       		.byte	0x5c
 661 02e2 E6020000 		.4byte	0x2e6
 662 02e6 0A       		.uleb128 0xa
 663 02e7 04       		.byte	0x4
 664 02e8 EC020000 		.4byte	0x2ec
 665 02ec 0C       		.uleb128 0xc
 666 02ed F7020000 		.4byte	0x2f7
 667 02f1 0D       		.uleb128 0xd
 668 02f2 F7020000 		.4byte	0x2f7
 669 02f6 00       		.byte	0
 670 02f7 0E       		.uleb128 0xe
 671 02f8 04       		.byte	0x4
 672 02f9 04       		.uleb128 0x4
 673 02fa 22030000 		.4byte	.LASF54
 674 02fe 07       		.byte	0x7
 675 02ff 61       		.byte	0x61
 676 0300 04030000 		.4byte	0x304
 677 0304 0B       		.uleb128 0xb
 678 0305 B5030000 		.4byte	.LASF55
 679 0309 14       		.byte	0x14
 680 030a 08       		.byte	0x8
 681 030b 4501     		.2byte	0x145
ARM GAS  /tmp/cccsghHx.s 			page 13


 682 030d 53030000 		.4byte	0x353
 683 0311 09       		.uleb128 0x9
 684 0312 AC000000 		.4byte	.LASF46
 685 0316 08       		.byte	0x8
 686 0317 4601     		.2byte	0x146
 687 0319 DE070000 		.4byte	0x7de
 688 031d 00       		.byte	0
 689 031e 09       		.uleb128 0x9
 690 031f 33000000 		.4byte	.LASF49
 691 0323 08       		.byte	0x8
 692 0324 4701     		.2byte	0x147
 693 0326 DE070000 		.4byte	0x7de
 694 032a 04       		.byte	0x4
 695 032b 09       		.uleb128 0x9
 696 032c 13000000 		.4byte	.LASF56
 697 0330 08       		.byte	0x8
 698 0331 4801     		.2byte	0x148
 699 0333 1B010000 		.4byte	0x11b
 700 0337 08       		.byte	0x8
 701 0338 09       		.uleb128 0x9
 702 0339 1A010000 		.4byte	.LASF57
 703 033d 08       		.byte	0x8
 704 033e 4901     		.2byte	0x149
 705 0340 DB020000 		.4byte	0x2db
 706 0344 0C       		.byte	0xc
 707 0345 08       		.uleb128 0x8
 708 0346 70617200 		.ascii	"par\000"
 709 034a 08       		.byte	0x8
 710 034b 4B01     		.2byte	0x14b
 711 034d F7020000 		.4byte	0x2f7
 712 0351 10       		.byte	0x10
 713 0352 00       		.byte	0
 714 0353 04       		.uleb128 0x4
 715 0354 90000000 		.4byte	.LASF58
 716 0358 07       		.byte	0x7
 717 0359 66       		.byte	0x66
 718 035a 5E030000 		.4byte	0x35e
 719 035e 0B       		.uleb128 0xb
 720 035f AD020000 		.4byte	.LASF59
 721 0363 10       		.byte	0x10
 722 0364 08       		.byte	0x8
 723 0365 5501     		.2byte	0x155
 724 0367 A0030000 		.4byte	0x3a0
 725 036b 09       		.uleb128 0x9
 726 036c AC000000 		.4byte	.LASF46
 727 0370 08       		.byte	0x8
 728 0371 5601     		.2byte	0x156
 729 0373 DE070000 		.4byte	0x7de
 730 0377 00       		.byte	0
 731 0378 09       		.uleb128 0x9
 732 0379 33000000 		.4byte	.LASF49
 733 037d 08       		.byte	0x8
 734 037e 5801     		.2byte	0x158
 735 0380 DE070000 		.4byte	0x7de
 736 0384 04       		.byte	0x4
 737 0385 09       		.uleb128 0x9
 738 0386 13000000 		.4byte	.LASF56
ARM GAS  /tmp/cccsghHx.s 			page 14


 739 038a 08       		.byte	0x8
 740 038b 5A01     		.2byte	0x15a
 741 038d 1B010000 		.4byte	0x11b
 742 0391 08       		.byte	0x8
 743 0392 09       		.uleb128 0x9
 744 0393 83030000 		.4byte	.LASF60
 745 0397 08       		.byte	0x8
 746 0398 6201     		.2byte	0x162
 747 039a 1B010000 		.4byte	0x11b
 748 039e 0C       		.byte	0xc
 749 039f 00       		.byte	0
 750 03a0 04       		.uleb128 0x4
 751 03a1 44000000 		.4byte	.LASF61
 752 03a5 07       		.byte	0x7
 753 03a6 6B       		.byte	0x6b
 754 03a7 AB030000 		.4byte	0x3ab
 755 03ab 0B       		.uleb128 0xb
 756 03ac 3A030000 		.4byte	.LASF62
 757 03b0 04       		.byte	0x4
 758 03b1 08       		.byte	0x8
 759 03b2 7C01     		.2byte	0x17c
 760 03b4 C6030000 		.4byte	0x3c6
 761 03b8 09       		.uleb128 0x9
 762 03b9 CB040000 		.4byte	.LASF63
 763 03bd 08       		.byte	0x8
 764 03be 8401     		.2byte	0x184
 765 03c0 E4070000 		.4byte	0x7e4
 766 03c4 00       		.byte	0
 767 03c5 00       		.byte	0
 768 03c6 04       		.uleb128 0x4
 769 03c7 EF040000 		.4byte	.LASF64
 770 03cb 07       		.byte	0x7
 771 03cc 70       		.byte	0x70
 772 03cd D1030000 		.4byte	0x3d1
 773 03d1 0B       		.uleb128 0xb
 774 03d2 98030000 		.4byte	.LASF65
 775 03d6 78       		.byte	0x78
 776 03d7 08       		.byte	0x8
 777 03d8 9C01     		.2byte	0x19c
 778 03da 1F040000 		.4byte	0x41f
 779 03de 09       		.uleb128 0x9
 780 03df 6B050000 		.4byte	.LASF66
 781 03e3 08       		.byte	0x8
 782 03e4 A001     		.2byte	0x1a0
 783 03e6 74020000 		.4byte	0x274
 784 03ea 00       		.byte	0
 785 03eb 09       		.uleb128 0x9
 786 03ec E6000000 		.4byte	.LASF67
 787 03f0 08       		.byte	0x8
 788 03f1 A401     		.2byte	0x1a4
 789 03f3 53030000 		.4byte	0x353
 790 03f7 1C       		.byte	0x1c
 791 03f8 08       		.uleb128 0x8
 792 03f9 64626700 		.ascii	"dbg\000"
 793 03fd 08       		.byte	0x8
 794 03fe A801     		.2byte	0x1a8
 795 0400 A0030000 		.4byte	0x3a0
ARM GAS  /tmp/cccsghHx.s 			page 15


 796 0404 2C       		.byte	0x2c
 797 0405 09       		.uleb128 0x9
 798 0406 7D000000 		.4byte	.LASF68
 799 040a 08       		.byte	0x8
 800 040b AC01     		.2byte	0x1ac
 801 040d 26010000 		.4byte	0x126
 802 0411 30       		.byte	0x30
 803 0412 08       		.uleb128 0x8
 804 0413 746D00   		.ascii	"tm\000"
 805 0416 08       		.byte	0x8
 806 0417 B101     		.2byte	0x1b1
 807 0419 F0060000 		.4byte	0x6f0
 808 041d 74       		.byte	0x74
 809 041e 00       		.byte	0
 810 041f 03       		.uleb128 0x3
 811 0420 04       		.byte	0x4
 812 0421 07       		.byte	0x7
 813 0422 91020000 		.4byte	.LASF69
 814 0426 0F       		.uleb128 0xf
 815 0427 AD000000 		.4byte	0xad
 816 042b 10       		.uleb128 0x10
 817 042c 8C       		.byte	0x8c
 818 042d 09       		.byte	0x9
 819 042e E501     		.2byte	0x1e5
 820 0430 46050000 		.4byte	0x546
 821 0434 09       		.uleb128 0x9
 822 0435 A6000000 		.4byte	.LASF70
 823 0439 09       		.byte	0x9
 824 043a E701     		.2byte	0x1e7
 825 043c 46050000 		.4byte	0x546
 826 0440 00       		.byte	0
 827 0441 09       		.uleb128 0x9
 828 0442 F5010000 		.4byte	.LASF71
 829 0446 09       		.byte	0x9
 830 0447 E801     		.2byte	0x1e8
 831 0449 26040000 		.4byte	0x426
 832 044d 04       		.byte	0x4
 833 044e 09       		.uleb128 0x9
 834 044f DB010000 		.4byte	.LASF72
 835 0453 09       		.byte	0x9
 836 0454 E901     		.2byte	0x1e9
 837 0456 26040000 		.4byte	0x426
 838 045a 08       		.byte	0x8
 839 045b 09       		.uleb128 0x9
 840 045c 00020000 		.4byte	.LASF73
 841 0460 09       		.byte	0x9
 842 0461 EA01     		.2byte	0x1ea
 843 0463 26040000 		.4byte	0x426
 844 0467 0C       		.byte	0xc
 845 0468 08       		.uleb128 0x8
 846 0469 53435200 		.ascii	"SCR\000"
 847 046d 09       		.byte	0x9
 848 046e EB01     		.2byte	0x1eb
 849 0470 26040000 		.4byte	0x426
 850 0474 10       		.byte	0x10
 851 0475 08       		.uleb128 0x8
 852 0476 43435200 		.ascii	"CCR\000"
ARM GAS  /tmp/cccsghHx.s 			page 16


 853 047a 09       		.byte	0x9
 854 047b EC01     		.2byte	0x1ec
 855 047d 26040000 		.4byte	0x426
 856 0481 14       		.byte	0x14
 857 0482 08       		.uleb128 0x8
 858 0483 53485000 		.ascii	"SHP\000"
 859 0487 09       		.byte	0x9
 860 0488 ED01     		.2byte	0x1ed
 861 048a 5B050000 		.4byte	0x55b
 862 048e 18       		.byte	0x18
 863 048f 09       		.uleb128 0x9
 864 0490 66030000 		.4byte	.LASF74
 865 0494 09       		.byte	0x9
 866 0495 EE01     		.2byte	0x1ee
 867 0497 26040000 		.4byte	0x426
 868 049b 24       		.byte	0x24
 869 049c 09       		.uleb128 0x9
 870 049d C4020000 		.4byte	.LASF75
 871 04a1 09       		.byte	0x9
 872 04a2 EF01     		.2byte	0x1ef
 873 04a4 26040000 		.4byte	0x426
 874 04a8 28       		.byte	0x28
 875 04a9 09       		.uleb128 0x9
 876 04aa 8C050000 		.4byte	.LASF76
 877 04ae 09       		.byte	0x9
 878 04af F001     		.2byte	0x1f0
 879 04b1 26040000 		.4byte	0x426
 880 04b5 2C       		.byte	0x2c
 881 04b6 09       		.uleb128 0x9
 882 04b7 06020000 		.4byte	.LASF77
 883 04bb 09       		.byte	0x9
 884 04bc F101     		.2byte	0x1f1
 885 04be 26040000 		.4byte	0x426
 886 04c2 30       		.byte	0x30
 887 04c3 09       		.uleb128 0x9
 888 04c4 14020000 		.4byte	.LASF78
 889 04c8 09       		.byte	0x9
 890 04c9 F201     		.2byte	0x1f2
 891 04cb 26040000 		.4byte	0x426
 892 04cf 34       		.byte	0x34
 893 04d0 09       		.uleb128 0x9
 894 04d1 F0010000 		.4byte	.LASF79
 895 04d5 09       		.byte	0x9
 896 04d6 F301     		.2byte	0x1f3
 897 04d8 26040000 		.4byte	0x426
 898 04dc 38       		.byte	0x38
 899 04dd 09       		.uleb128 0x9
 900 04de E3030000 		.4byte	.LASF80
 901 04e2 09       		.byte	0x9
 902 04e3 F401     		.2byte	0x1f4
 903 04e5 26040000 		.4byte	0x426
 904 04e9 3C       		.byte	0x3c
 905 04ea 08       		.uleb128 0x8
 906 04eb 50465200 		.ascii	"PFR\000"
 907 04ef 09       		.byte	0x9
 908 04f0 F501     		.2byte	0x1f5
 909 04f2 70050000 		.4byte	0x570
ARM GAS  /tmp/cccsghHx.s 			page 17


 910 04f6 40       		.byte	0x40
 911 04f7 08       		.uleb128 0x8
 912 04f8 44465200 		.ascii	"DFR\000"
 913 04fc 09       		.byte	0x9
 914 04fd F601     		.2byte	0x1f6
 915 04ff 46050000 		.4byte	0x546
 916 0503 48       		.byte	0x48
 917 0504 08       		.uleb128 0x8
 918 0505 41445200 		.ascii	"ADR\000"
 919 0509 09       		.byte	0x9
 920 050a F701     		.2byte	0x1f7
 921 050c 46050000 		.4byte	0x546
 922 0510 4C       		.byte	0x4c
 923 0511 09       		.uleb128 0x9
 924 0512 66050000 		.4byte	.LASF81
 925 0516 09       		.byte	0x9
 926 0517 F801     		.2byte	0x1f8
 927 0519 8A050000 		.4byte	0x58a
 928 051d 50       		.byte	0x50
 929 051e 09       		.uleb128 0x9
 930 051f C7000000 		.4byte	.LASF82
 931 0523 09       		.byte	0x9
 932 0524 F901     		.2byte	0x1f9
 933 0526 A4050000 		.4byte	0x5a4
 934 052a 60       		.byte	0x60
 935 052b 09       		.uleb128 0x9
 936 052c 13030000 		.4byte	.LASF83
 937 0530 09       		.byte	0x9
 938 0531 FA01     		.2byte	0x1fa
 939 0533 94050000 		.4byte	0x594
 940 0537 74       		.byte	0x74
 941 0538 09       		.uleb128 0x9
 942 0539 86050000 		.4byte	.LASF84
 943 053d 09       		.byte	0x9
 944 053e FB01     		.2byte	0x1fb
 945 0540 26040000 		.4byte	0x426
 946 0544 88       		.byte	0x88
 947 0545 00       		.byte	0
 948 0546 11       		.uleb128 0x11
 949 0547 26040000 		.4byte	0x426
 950 054b 12       		.uleb128 0x12
 951 054c 97000000 		.4byte	0x97
 952 0550 5B050000 		.4byte	0x55b
 953 0554 13       		.uleb128 0x13
 954 0555 1F040000 		.4byte	0x41f
 955 0559 0B       		.byte	0xb
 956 055a 00       		.byte	0
 957 055b 0F       		.uleb128 0xf
 958 055c 4B050000 		.4byte	0x54b
 959 0560 12       		.uleb128 0x12
 960 0561 AD000000 		.4byte	0xad
 961 0565 70050000 		.4byte	0x570
 962 0569 13       		.uleb128 0x13
 963 056a 1F040000 		.4byte	0x41f
 964 056e 01       		.byte	0x1
 965 056f 00       		.byte	0
 966 0570 11       		.uleb128 0x11
ARM GAS  /tmp/cccsghHx.s 			page 18


 967 0571 75050000 		.4byte	0x575
 968 0575 0F       		.uleb128 0xf
 969 0576 60050000 		.4byte	0x560
 970 057a 12       		.uleb128 0x12
 971 057b AD000000 		.4byte	0xad
 972 057f 8A050000 		.4byte	0x58a
 973 0583 13       		.uleb128 0x13
 974 0584 1F040000 		.4byte	0x41f
 975 0588 03       		.byte	0x3
 976 0589 00       		.byte	0
 977 058a 11       		.uleb128 0x11
 978 058b 8F050000 		.4byte	0x58f
 979 058f 0F       		.uleb128 0xf
 980 0590 7A050000 		.4byte	0x57a
 981 0594 12       		.uleb128 0x12
 982 0595 AD000000 		.4byte	0xad
 983 0599 A4050000 		.4byte	0x5a4
 984 059d 13       		.uleb128 0x13
 985 059e 1F040000 		.4byte	0x41f
 986 05a2 04       		.byte	0x4
 987 05a3 00       		.byte	0
 988 05a4 11       		.uleb128 0x11
 989 05a5 A9050000 		.4byte	0x5a9
 990 05a9 0F       		.uleb128 0xf
 991 05aa 94050000 		.4byte	0x594
 992 05ae 14       		.uleb128 0x14
 993 05af 40010000 		.4byte	.LASF85
 994 05b3 09       		.byte	0x9
 995 05b4 FC01     		.2byte	0x1fc
 996 05b6 2B040000 		.4byte	0x42b
 997 05ba 04       		.uleb128 0x4
 998 05bb 37010000 		.4byte	.LASF86
 999 05bf 0A       		.byte	0xa
 1000 05c0 65       		.byte	0x65
 1001 05c1 F7020000 		.4byte	0x2f7
 1002 05c5 04       		.uleb128 0x4
 1003 05c6 68020000 		.4byte	.LASF87
 1004 05ca 0A       		.byte	0xa
 1005 05cb 6D       		.byte	0x6d
 1006 05cc B8000000 		.4byte	0xb8
 1007 05d0 05       		.uleb128 0x5
 1008 05d1 C9020000 		.4byte	.LASF88
 1009 05d5 04       		.byte	0x4
 1010 05d6 0A       		.byte	0xa
 1011 05d7 89       		.byte	0x89
 1012 05d8 E8050000 		.4byte	0x5e8
 1013 05dc 07       		.uleb128 0x7
 1014 05dd 737000   		.ascii	"sp\000"
 1015 05e0 0A       		.byte	0xa
 1016 05e1 8A       		.byte	0x8a
 1017 05e2 64060000 		.4byte	0x664
 1018 05e6 00       		.byte	0
 1019 05e7 00       		.byte	0
 1020 05e8 0B       		.uleb128 0xb
 1021 05e9 38000000 		.4byte	.LASF89
 1022 05ed 24       		.byte	0x24
 1023 05ee 01       		.byte	0x1
ARM GAS  /tmp/cccsghHx.s 			page 19


 1024 05ef 5901     		.2byte	0x159
 1025 05f1 64060000 		.4byte	0x664
 1026 05f5 08       		.uleb128 0x8
 1027 05f6 723400   		.ascii	"r4\000"
 1028 05f9 01       		.byte	0x1
 1029 05fa 6C01     		.2byte	0x16c
 1030 05fc BA050000 		.4byte	0x5ba
 1031 0600 00       		.byte	0
 1032 0601 08       		.uleb128 0x8
 1033 0602 723500   		.ascii	"r5\000"
 1034 0605 01       		.byte	0x1
 1035 0606 6D01     		.2byte	0x16d
 1036 0608 BA050000 		.4byte	0x5ba
 1037 060c 04       		.byte	0x4
 1038 060d 08       		.uleb128 0x8
 1039 060e 723600   		.ascii	"r6\000"
 1040 0611 01       		.byte	0x1
 1041 0612 6E01     		.2byte	0x16e
 1042 0614 BA050000 		.4byte	0x5ba
 1043 0618 08       		.byte	0x8
 1044 0619 08       		.uleb128 0x8
 1045 061a 723700   		.ascii	"r7\000"
 1046 061d 01       		.byte	0x1
 1047 061e 6F01     		.2byte	0x16f
 1048 0620 BA050000 		.4byte	0x5ba
 1049 0624 0C       		.byte	0xc
 1050 0625 08       		.uleb128 0x8
 1051 0626 723800   		.ascii	"r8\000"
 1052 0629 01       		.byte	0x1
 1053 062a 7001     		.2byte	0x170
 1054 062c BA050000 		.4byte	0x5ba
 1055 0630 10       		.byte	0x10
 1056 0631 08       		.uleb128 0x8
 1057 0632 723900   		.ascii	"r9\000"
 1058 0635 01       		.byte	0x1
 1059 0636 7101     		.2byte	0x171
 1060 0638 BA050000 		.4byte	0x5ba
 1061 063c 14       		.byte	0x14
 1062 063d 08       		.uleb128 0x8
 1063 063e 72313000 		.ascii	"r10\000"
 1064 0642 01       		.byte	0x1
 1065 0643 7201     		.2byte	0x172
 1066 0645 BA050000 		.4byte	0x5ba
 1067 0649 18       		.byte	0x18
 1068 064a 08       		.uleb128 0x8
 1069 064b 72313100 		.ascii	"r11\000"
 1070 064f 01       		.byte	0x1
 1071 0650 7301     		.2byte	0x173
 1072 0652 BA050000 		.4byte	0x5ba
 1073 0656 1C       		.byte	0x1c
 1074 0657 08       		.uleb128 0x8
 1075 0658 6C7200   		.ascii	"lr\000"
 1076 065b 01       		.byte	0x1
 1077 065c 7401     		.2byte	0x174
 1078 065e BA050000 		.4byte	0x5ba
 1079 0662 20       		.byte	0x20
 1080 0663 00       		.byte	0
ARM GAS  /tmp/cccsghHx.s 			page 20


 1081 0664 0A       		.uleb128 0xa
 1082 0665 04       		.byte	0x4
 1083 0666 E8050000 		.4byte	0x5e8
 1084 066a 0B       		.uleb128 0xb
 1085 066b D6020000 		.4byte	.LASF90
 1086 066f 20       		.byte	0x20
 1087 0670 01       		.byte	0x1
 1088 0671 3A01     		.2byte	0x13a
 1089 0673 DB060000 		.4byte	0x6db
 1090 0677 08       		.uleb128 0x8
 1091 0678 723000   		.ascii	"r0\000"
 1092 067b 01       		.byte	0x1
 1093 067c 3B01     		.2byte	0x13b
 1094 067e BA050000 		.4byte	0x5ba
 1095 0682 00       		.byte	0
 1096 0683 08       		.uleb128 0x8
 1097 0684 723100   		.ascii	"r1\000"
 1098 0687 01       		.byte	0x1
 1099 0688 3C01     		.2byte	0x13c
 1100 068a BA050000 		.4byte	0x5ba
 1101 068e 04       		.byte	0x4
 1102 068f 08       		.uleb128 0x8
 1103 0690 723200   		.ascii	"r2\000"
 1104 0693 01       		.byte	0x1
 1105 0694 3D01     		.2byte	0x13d
 1106 0696 BA050000 		.4byte	0x5ba
 1107 069a 08       		.byte	0x8
 1108 069b 08       		.uleb128 0x8
 1109 069c 723300   		.ascii	"r3\000"
 1110 069f 01       		.byte	0x1
 1111 06a0 3E01     		.2byte	0x13e
 1112 06a2 BA050000 		.4byte	0x5ba
 1113 06a6 0C       		.byte	0xc
 1114 06a7 08       		.uleb128 0x8
 1115 06a8 72313200 		.ascii	"r12\000"
 1116 06ac 01       		.byte	0x1
 1117 06ad 3F01     		.2byte	0x13f
 1118 06af BA050000 		.4byte	0x5ba
 1119 06b3 10       		.byte	0x10
 1120 06b4 09       		.uleb128 0x9
 1121 06b5 A2030000 		.4byte	.LASF91
 1122 06b9 01       		.byte	0x1
 1123 06ba 4001     		.2byte	0x140
 1124 06bc BA050000 		.4byte	0x5ba
 1125 06c0 14       		.byte	0x14
 1126 06c1 08       		.uleb128 0x8
 1127 06c2 706300   		.ascii	"pc\000"
 1128 06c5 01       		.byte	0x1
 1129 06c6 4101     		.2byte	0x141
 1130 06c8 BA050000 		.4byte	0x5ba
 1131 06cc 18       		.byte	0x18
 1132 06cd 09       		.uleb128 0x9
 1133 06ce 8C030000 		.4byte	.LASF92
 1134 06d2 01       		.byte	0x1
 1135 06d3 4201     		.2byte	0x142
 1136 06d5 BA050000 		.4byte	0x5ba
 1137 06d9 1C       		.byte	0x1c
ARM GAS  /tmp/cccsghHx.s 			page 21


 1138 06da 00       		.byte	0
 1139 06db 15       		.uleb128 0x15
 1140 06dc 04       		.byte	0x4
 1141 06dd 0B       		.byte	0xb
 1142 06de 38       		.byte	0x38
 1143 06df F0060000 		.4byte	0x6f0
 1144 06e3 06       		.uleb128 0x6
 1145 06e4 D5040000 		.4byte	.LASF93
 1146 06e8 0B       		.byte	0xb
 1147 06e9 3C       		.byte	0x3c
 1148 06ea C3000000 		.4byte	0xc3
 1149 06ee 00       		.byte	0
 1150 06ef 00       		.byte	0
 1151 06f0 04       		.uleb128 0x4
 1152 06f1 E2020000 		.4byte	.LASF94
 1153 06f5 0B       		.byte	0xb
 1154 06f6 3D       		.byte	0x3d
 1155 06f7 DB060000 		.4byte	0x6db
 1156 06fb 16       		.uleb128 0x16
 1157 06fc 04       		.byte	0x4
 1158 06fd 08       		.byte	0x8
 1159 06fe D2       		.byte	0xd2
 1160 06ff 5E070000 		.4byte	0x75e
 1161 0703 17       		.uleb128 0x17
 1162 0704 19000000 		.4byte	.LASF95
 1163 0708 08       		.byte	0x8
 1164 0709 D9       		.byte	0xd9
 1165 070a FA000000 		.4byte	0xfa
 1166 070e 17       		.uleb128 0x17
 1167 070f 74000000 		.4byte	.LASF96
 1168 0713 08       		.byte	0x8
 1169 0714 E0       		.byte	0xe0
 1170 0715 FA000000 		.4byte	0xfa
 1171 0719 17       		.uleb128 0x17
 1172 071a 7F050000 		.4byte	.LASF97
 1173 071e 08       		.byte	0x8
 1174 071f E7       		.byte	0xe7
 1175 0720 F7020000 		.4byte	0x2f7
 1176 0724 17       		.uleb128 0x17
 1177 0725 0D000000 		.4byte	.LASF98
 1178 0729 08       		.byte	0x8
 1179 072a EE       		.byte	0xee
 1180 072b 5E070000 		.4byte	0x75e
 1181 072f 17       		.uleb128 0x17
 1182 0730 88000000 		.4byte	.LASF99
 1183 0734 08       		.byte	0x8
 1184 0735 F3       		.byte	0xf3
 1185 0736 FA000000 		.4byte	0xfa
 1186 073a 17       		.uleb128 0x17
 1187 073b 7C010000 		.4byte	.LASF100
 1188 073f 08       		.byte	0x8
 1189 0740 FC       		.byte	0xfc
 1190 0741 89070000 		.4byte	0x789
 1191 0745 18       		.uleb128 0x18
 1192 0746 DC030000 		.4byte	.LASF101
 1193 074a 08       		.byte	0x8
 1194 074b 0501     		.2byte	0x105
ARM GAS  /tmp/cccsghHx.s 			page 22


 1195 074d C0070000 		.4byte	0x7c0
 1196 0751 18       		.uleb128 0x18
 1197 0752 91030000 		.4byte	.LASF102
 1198 0756 08       		.byte	0x8
 1199 0757 0D01     		.2byte	0x10d
 1200 0759 05010000 		.4byte	0x105
 1201 075d 00       		.byte	0
 1202 075e 0A       		.uleb128 0xa
 1203 075f 04       		.byte	0x4
 1204 0760 0F020000 		.4byte	0x20f
 1205 0764 05       		.uleb128 0x5
 1206 0765 C6030000 		.4byte	.LASF103
 1207 0769 0C       		.byte	0xc
 1208 076a 0C       		.byte	0xc
 1209 076b 34       		.byte	0x34
 1210 076c 89070000 		.4byte	0x789
 1211 0770 06       		.uleb128 0x6
 1212 0771 1F010000 		.4byte	.LASF27
 1213 0775 0C       		.byte	0xc
 1214 0776 35       		.byte	0x35
 1215 0777 44020000 		.4byte	0x244
 1216 077b 00       		.byte	0
 1217 077c 07       		.uleb128 0x7
 1218 077d 636E7400 		.ascii	"cnt\000"
 1219 0781 0C       		.byte	0xc
 1220 0782 37       		.byte	0x37
 1221 0783 10010000 		.4byte	0x110
 1222 0787 08       		.byte	0x8
 1223 0788 00       		.byte	0
 1224 0789 0A       		.uleb128 0xa
 1225 078a 04       		.byte	0x4
 1226 078b 64070000 		.4byte	0x764
 1227 078f 05       		.uleb128 0x5
 1228 0790 5D050000 		.4byte	.LASF104
 1229 0794 10       		.byte	0x10
 1230 0795 0D       		.byte	0xd
 1231 0796 39       		.byte	0x39
 1232 0797 C0070000 		.4byte	0x7c0
 1233 079b 06       		.uleb128 0x6
 1234 079c 1F010000 		.4byte	.LASF27
 1235 07a0 0D       		.byte	0xd
 1236 07a1 3A       		.byte	0x3a
 1237 07a2 44020000 		.4byte	0x244
 1238 07a6 00       		.byte	0
 1239 07a7 06       		.uleb128 0x6
 1240 07a8 F8030000 		.4byte	.LASF105
 1241 07ac 0D       		.byte	0xd
 1242 07ad 3C       		.byte	0x3c
 1243 07ae 1A020000 		.4byte	0x21a
 1244 07b2 08       		.byte	0x8
 1245 07b3 06       		.uleb128 0x6
 1246 07b4 AC000000 		.4byte	.LASF46
 1247 07b8 0D       		.byte	0xd
 1248 07b9 3E       		.byte	0x3e
 1249 07ba F4070000 		.4byte	0x7f4
 1250 07be 0C       		.byte	0xc
 1251 07bf 00       		.byte	0
ARM GAS  /tmp/cccsghHx.s 			page 23


 1252 07c0 0A       		.uleb128 0xa
 1253 07c1 04       		.byte	0x4
 1254 07c2 8F070000 		.4byte	0x78f
 1255 07c6 0A       		.uleb128 0xa
 1256 07c7 04       		.byte	0x4
 1257 07c8 CC070000 		.4byte	0x7cc
 1258 07cc 11       		.uleb128 0x11
 1259 07cd D1070000 		.4byte	0x7d1
 1260 07d1 03       		.uleb128 0x3
 1261 07d2 01       		.byte	0x1
 1262 07d3 08       		.byte	0x8
 1263 07d4 81040000 		.4byte	.LASF106
 1264 07d8 0A       		.uleb128 0xa
 1265 07d9 04       		.byte	0x4
 1266 07da C5050000 		.4byte	0x5c5
 1267 07de 0A       		.uleb128 0xa
 1268 07df 04       		.byte	0x4
 1269 07e0 F9020000 		.4byte	0x2f9
 1270 07e4 0F       		.uleb128 0xf
 1271 07e5 C6070000 		.4byte	0x7c6
 1272 07e9 04       		.uleb128 0x4
 1273 07ea 51010000 		.4byte	.LASF107
 1274 07ee 0D       		.byte	0xd
 1275 07ef 34       		.byte	0x34
 1276 07f0 8F070000 		.4byte	0x78f
 1277 07f4 0A       		.uleb128 0xa
 1278 07f5 04       		.byte	0x4
 1279 07f6 E9070000 		.4byte	0x7e9
 1280 07fa 03       		.uleb128 0x3
 1281 07fb 01       		.byte	0x1
 1282 07fc 02       		.byte	0x2
 1283 07fd 4A030000 		.4byte	.LASF108
 1284 0801 19       		.uleb128 0x19
 1285 0802 BD040000 		.4byte	.LASF109
 1286 0806 02       		.byte	0x2
 1287 0807 0601     		.2byte	0x106
 1288 0809 03       		.byte	0x3
 1289 080a 1B080000 		.4byte	0x81b
 1290 080e 1A       		.uleb128 0x1a
 1291 080f 59010000 		.4byte	.LASF111
 1292 0813 02       		.byte	0x2
 1293 0814 0601     		.2byte	0x106
 1294 0816 AD000000 		.4byte	0xad
 1295 081a 00       		.byte	0
 1296 081b 1B       		.uleb128 0x1b
 1297 081c 16050000 		.4byte	.LASF124
 1298 0820 02       		.byte	0x2
 1299 0821 94       		.byte	0x94
 1300 0822 AD000000 		.4byte	0xad
 1301 0826 03       		.byte	0x3
 1302 0827 37080000 		.4byte	0x837
 1303 082b 1C       		.uleb128 0x1c
 1304 082c 99050000 		.4byte	.LASF125
 1305 0830 02       		.byte	0x2
 1306 0831 96       		.byte	0x96
 1307 0832 AD000000 		.4byte	0xad
 1308 0836 00       		.byte	0
ARM GAS  /tmp/cccsghHx.s 			page 24


 1309 0837 1D       		.uleb128 0x1d
 1310 0838 72010000 		.4byte	.LASF110
 1311 083c 02       		.byte	0x2
 1312 083d A2       		.byte	0xa2
 1313 083e 03       		.byte	0x3
 1314 083f 4F080000 		.4byte	0x84f
 1315 0843 1E       		.uleb128 0x1e
 1316 0844 4F020000 		.4byte	.LASF112
 1317 0848 02       		.byte	0x2
 1318 0849 A2       		.byte	0xa2
 1319 084a AD000000 		.4byte	0xad
 1320 084e 00       		.byte	0
 1321 084f 1F       		.uleb128 0x1f
 1322 0850 53000000 		.4byte	.LASF113
 1323 0854 01       		.byte	0x1
 1324 0855 5202     		.2byte	0x252
 1325 0857 00000000 		.4byte	.LFB127
 1326 085b 10000000 		.4byte	.LFE127-.LFB127
 1327 085f 01       		.uleb128 0x1
 1328 0860 9C       		.byte	0x9c
 1329 0861 7F080000 		.4byte	0x87f
 1330 0865 20       		.uleb128 0x20
 1331 0866 01080000 		.4byte	0x801
 1332 086a 06000000 		.4byte	.LBB15
 1333 086e 06000000 		.4byte	.LBE15-.LBB15
 1334 0872 01       		.byte	0x1
 1335 0873 5A02     		.2byte	0x25a
 1336 0875 21       		.uleb128 0x21
 1337 0876 0E080000 		.4byte	0x80e
 1338 087a 02       		.uleb128 0x2
 1339 087b 91       		.byte	0x91
 1340 087c 7C       		.sleb128 -4
 1341 087d 00       		.byte	0
 1342 087e 00       		.byte	0
 1343 087f 1F       		.uleb128 0x1f
 1344 0880 ED000000 		.4byte	.LASF114
 1345 0884 01       		.byte	0x1
 1346 0885 6A02     		.2byte	0x26a
 1347 0887 10000000 		.4byte	.LFB128
 1348 088b 10000000 		.4byte	.LFE128-.LFB128
 1349 088f 01       		.uleb128 0x1
 1350 0890 9C       		.byte	0x9c
 1351 0891 AF080000 		.4byte	0x8af
 1352 0895 20       		.uleb128 0x20
 1353 0896 01080000 		.4byte	0x801
 1354 089a 16000000 		.4byte	.LBB17
 1355 089e 06000000 		.4byte	.LBE17-.LBB17
 1356 08a2 01       		.byte	0x1
 1357 08a3 6D02     		.2byte	0x26d
 1358 08a5 21       		.uleb128 0x21
 1359 08a6 0E080000 		.4byte	0x80e
 1360 08aa 02       		.uleb128 0x2
 1361 08ab 91       		.byte	0x91
 1362 08ac 7C       		.sleb128 -4
 1363 08ad 00       		.byte	0
 1364 08ae 00       		.byte	0
 1365 08af 22       		.uleb128 0x22
ARM GAS  /tmp/cccsghHx.s 			page 25


 1366 08b0 03050000 		.4byte	.LASF115
 1367 08b4 01       		.byte	0x1
 1368 08b5 7902     		.2byte	0x279
 1369 08b7 20000000 		.4byte	.LFB129
 1370 08bb 08000000 		.4byte	.LFE129-.LFB129
 1371 08bf 01       		.uleb128 0x1
 1372 08c0 9C       		.byte	0x9c
 1373 08c1 22       		.uleb128 0x22
 1374 08c2 8C040000 		.4byte	.LASF116
 1375 08c6 01       		.byte	0x1
 1376 08c7 8402     		.2byte	0x284
 1377 08c9 30000000 		.4byte	.LFB130
 1378 08cd 08000000 		.4byte	.LFE130-.LFB130
 1379 08d1 01       		.uleb128 0x1
 1380 08d2 9C       		.byte	0x9c
 1381 08d3 23       		.uleb128 0x23
 1382 08d4 A9030000 		.4byte	.LASF117
 1383 08d8 03       		.byte	0x3
 1384 08d9 3E       		.byte	0x3e
 1385 08da 40000000 		.4byte	.LFB248
 1386 08de 26000000 		.4byte	.LFE248-.LFB248
 1387 08e2 01       		.uleb128 0x1
 1388 08e3 9C       		.byte	0x9c
 1389 08e4 34090000 		.4byte	0x934
 1390 08e8 24       		.uleb128 0x24
 1391 08e9 1D030000 		.4byte	.LASF119
 1392 08ed 03       		.byte	0x3
 1393 08ee 40       		.byte	0x40
 1394 08ef 34090000 		.4byte	0x934
 1395 08f3 02       		.uleb128 0x2
 1396 08f4 91       		.byte	0x91
 1397 08f5 74       		.sleb128 -12
 1398 08f6 25       		.uleb128 0x25
 1399 08f7 1B080000 		.4byte	0x81b
 1400 08fb 44000000 		.4byte	.LBB19
 1401 08ff 08000000 		.4byte	.LBE19-.LBB19
 1402 0903 03       		.byte	0x3
 1403 0904 48       		.byte	0x48
 1404 0905 1B090000 		.4byte	0x91b
 1405 0909 26       		.uleb128 0x26
 1406 090a 44000000 		.4byte	.LBB20
 1407 090e 08000000 		.4byte	.LBE20-.LBB20
 1408 0912 27       		.uleb128 0x27
 1409 0913 2B080000 		.4byte	0x82b
 1410 0917 01       		.uleb128 0x1
 1411 0918 54       		.byte	0x54
 1412 0919 00       		.byte	0
 1413 091a 00       		.byte	0
 1414 091b 28       		.uleb128 0x28
 1415 091c 37080000 		.4byte	0x837
 1416 0920 58000000 		.4byte	.LBB21
 1417 0924 06000000 		.4byte	.LBE21-.LBB21
 1418 0928 03       		.byte	0x3
 1419 0929 4F       		.byte	0x4f
 1420 092a 21       		.uleb128 0x21
 1421 092b 43080000 		.4byte	0x843
 1422 092f 02       		.uleb128 0x2
ARM GAS  /tmp/cccsghHx.s 			page 26


 1423 0930 91       		.byte	0x91
 1424 0931 70       		.sleb128 -16
 1425 0932 00       		.byte	0
 1426 0933 00       		.byte	0
 1427 0934 0A       		.uleb128 0xa
 1428 0935 04       		.byte	0x4
 1429 0936 6A060000 		.4byte	0x66a
 1430 093a 23       		.uleb128 0x23
 1431 093b 1A020000 		.4byte	.LASF118
 1432 093f 03       		.byte	0x3
 1433 0940 7A       		.byte	0x7a
 1434 0941 70000000 		.4byte	.LFB249
 1435 0945 64000000 		.4byte	.LFE249-.LFB249
 1436 0949 01       		.uleb128 0x1
 1437 094a 9C       		.byte	0x9c
 1438 094b A5090000 		.4byte	0x9a5
 1439 094f 26       		.uleb128 0x26
 1440 0950 84000000 		.4byte	.LBB23
 1441 0954 3C000000 		.4byte	.LBE23-.LBB23
 1442 0958 24       		.uleb128 0x24
 1443 0959 1D030000 		.4byte	.LASF119
 1444 095d 03       		.byte	0x3
 1445 095e 7E       		.byte	0x7e
 1446 095f 34090000 		.4byte	0x934
 1447 0963 02       		.uleb128 0x2
 1448 0964 91       		.byte	0x91
 1449 0965 74       		.sleb128 -12
 1450 0966 25       		.uleb128 0x25
 1451 0967 1B080000 		.4byte	0x81b
 1452 096b 84000000 		.4byte	.LBB24
 1453 096f 08000000 		.4byte	.LBE24-.LBB24
 1454 0973 03       		.byte	0x3
 1455 0974 86       		.byte	0x86
 1456 0975 8B090000 		.4byte	0x98b
 1457 0979 26       		.uleb128 0x26
 1458 097a 84000000 		.4byte	.LBB25
 1459 097e 08000000 		.4byte	.LBE25-.LBB25
 1460 0982 27       		.uleb128 0x27
 1461 0983 2B080000 		.4byte	0x82b
 1462 0987 01       		.uleb128 0x1
 1463 0988 54       		.byte	0x54
 1464 0989 00       		.byte	0
 1465 098a 00       		.byte	0
 1466 098b 28       		.uleb128 0x28
 1467 098c 37080000 		.4byte	0x837
 1468 0990 A0000000 		.4byte	.LBB26
 1469 0994 06000000 		.4byte	.LBE26-.LBB26
 1470 0998 03       		.byte	0x3
 1471 0999 93       		.byte	0x93
 1472 099a 21       		.uleb128 0x21
 1473 099b 43080000 		.4byte	0x843
 1474 099f 02       		.uleb128 0x2
 1475 09a0 91       		.byte	0x91
 1476 09a1 70       		.sleb128 -16
 1477 09a2 00       		.byte	0
 1478 09a3 00       		.byte	0
 1479 09a4 00       		.byte	0
ARM GAS  /tmp/cccsghHx.s 			page 27


 1480 09a5 29       		.uleb128 0x29
 1481 09a6 6C030000 		.4byte	.LASF120
 1482 09aa 09       		.byte	0x9
 1483 09ab 4407     		.2byte	0x744
 1484 09ad B1090000 		.4byte	0x9b1
 1485 09b1 0F       		.uleb128 0xf
 1486 09b2 A2000000 		.4byte	0xa2
 1487 09b6 2A       		.uleb128 0x2a
 1488 09b7 636800   		.ascii	"ch\000"
 1489 09ba 08       		.byte	0x8
 1490 09bb D201     		.2byte	0x1d2
 1491 09bd C6030000 		.4byte	0x3c6
 1492 09c1 00       		.byte	0
 1493              		.section	.debug_abbrev,"",%progbits
 1494              	.Ldebug_abbrev0:
 1495 0000 01       		.uleb128 0x1
 1496 0001 11       		.uleb128 0x11
 1497 0002 01       		.byte	0x1
 1498 0003 25       		.uleb128 0x25
 1499 0004 0E       		.uleb128 0xe
 1500 0005 13       		.uleb128 0x13
 1501 0006 0B       		.uleb128 0xb
 1502 0007 03       		.uleb128 0x3
 1503 0008 0E       		.uleb128 0xe
 1504 0009 1B       		.uleb128 0x1b
 1505 000a 0E       		.uleb128 0xe
 1506 000b 11       		.uleb128 0x11
 1507 000c 01       		.uleb128 0x1
 1508 000d 12       		.uleb128 0x12
 1509 000e 06       		.uleb128 0x6
 1510 000f 10       		.uleb128 0x10
 1511 0010 17       		.uleb128 0x17
 1512 0011 00       		.byte	0
 1513 0012 00       		.byte	0
 1514 0013 02       		.uleb128 0x2
 1515 0014 24       		.uleb128 0x24
 1516 0015 00       		.byte	0
 1517 0016 0B       		.uleb128 0xb
 1518 0017 0B       		.uleb128 0xb
 1519 0018 3E       		.uleb128 0x3e
 1520 0019 0B       		.uleb128 0xb
 1521 001a 03       		.uleb128 0x3
 1522 001b 08       		.uleb128 0x8
 1523 001c 00       		.byte	0
 1524 001d 00       		.byte	0
 1525 001e 03       		.uleb128 0x3
 1526 001f 24       		.uleb128 0x24
 1527 0020 00       		.byte	0
 1528 0021 0B       		.uleb128 0xb
 1529 0022 0B       		.uleb128 0xb
 1530 0023 3E       		.uleb128 0x3e
 1531 0024 0B       		.uleb128 0xb
 1532 0025 03       		.uleb128 0x3
 1533 0026 0E       		.uleb128 0xe
 1534 0027 00       		.byte	0
 1535 0028 00       		.byte	0
 1536 0029 04       		.uleb128 0x4
ARM GAS  /tmp/cccsghHx.s 			page 28


 1537 002a 16       		.uleb128 0x16
 1538 002b 00       		.byte	0
 1539 002c 03       		.uleb128 0x3
 1540 002d 0E       		.uleb128 0xe
 1541 002e 3A       		.uleb128 0x3a
 1542 002f 0B       		.uleb128 0xb
 1543 0030 3B       		.uleb128 0x3b
 1544 0031 0B       		.uleb128 0xb
 1545 0032 49       		.uleb128 0x49
 1546 0033 13       		.uleb128 0x13
 1547 0034 00       		.byte	0
 1548 0035 00       		.byte	0
 1549 0036 05       		.uleb128 0x5
 1550 0037 13       		.uleb128 0x13
 1551 0038 01       		.byte	0x1
 1552 0039 03       		.uleb128 0x3
 1553 003a 0E       		.uleb128 0xe
 1554 003b 0B       		.uleb128 0xb
 1555 003c 0B       		.uleb128 0xb
 1556 003d 3A       		.uleb128 0x3a
 1557 003e 0B       		.uleb128 0xb
 1558 003f 3B       		.uleb128 0x3b
 1559 0040 0B       		.uleb128 0xb
 1560 0041 01       		.uleb128 0x1
 1561 0042 13       		.uleb128 0x13
 1562 0043 00       		.byte	0
 1563 0044 00       		.byte	0
 1564 0045 06       		.uleb128 0x6
 1565 0046 0D       		.uleb128 0xd
 1566 0047 00       		.byte	0
 1567 0048 03       		.uleb128 0x3
 1568 0049 0E       		.uleb128 0xe
 1569 004a 3A       		.uleb128 0x3a
 1570 004b 0B       		.uleb128 0xb
 1571 004c 3B       		.uleb128 0x3b
 1572 004d 0B       		.uleb128 0xb
 1573 004e 49       		.uleb128 0x49
 1574 004f 13       		.uleb128 0x13
 1575 0050 38       		.uleb128 0x38
 1576 0051 0B       		.uleb128 0xb
 1577 0052 00       		.byte	0
 1578 0053 00       		.byte	0
 1579 0054 07       		.uleb128 0x7
 1580 0055 0D       		.uleb128 0xd
 1581 0056 00       		.byte	0
 1582 0057 03       		.uleb128 0x3
 1583 0058 08       		.uleb128 0x8
 1584 0059 3A       		.uleb128 0x3a
 1585 005a 0B       		.uleb128 0xb
 1586 005b 3B       		.uleb128 0x3b
 1587 005c 0B       		.uleb128 0xb
 1588 005d 49       		.uleb128 0x49
 1589 005e 13       		.uleb128 0x13
 1590 005f 38       		.uleb128 0x38
 1591 0060 0B       		.uleb128 0xb
 1592 0061 00       		.byte	0
 1593 0062 00       		.byte	0
ARM GAS  /tmp/cccsghHx.s 			page 29


 1594 0063 08       		.uleb128 0x8
 1595 0064 0D       		.uleb128 0xd
 1596 0065 00       		.byte	0
 1597 0066 03       		.uleb128 0x3
 1598 0067 08       		.uleb128 0x8
 1599 0068 3A       		.uleb128 0x3a
 1600 0069 0B       		.uleb128 0xb
 1601 006a 3B       		.uleb128 0x3b
 1602 006b 05       		.uleb128 0x5
 1603 006c 49       		.uleb128 0x49
 1604 006d 13       		.uleb128 0x13
 1605 006e 38       		.uleb128 0x38
 1606 006f 0B       		.uleb128 0xb
 1607 0070 00       		.byte	0
 1608 0071 00       		.byte	0
 1609 0072 09       		.uleb128 0x9
 1610 0073 0D       		.uleb128 0xd
 1611 0074 00       		.byte	0
 1612 0075 03       		.uleb128 0x3
 1613 0076 0E       		.uleb128 0xe
 1614 0077 3A       		.uleb128 0x3a
 1615 0078 0B       		.uleb128 0xb
 1616 0079 3B       		.uleb128 0x3b
 1617 007a 05       		.uleb128 0x5
 1618 007b 49       		.uleb128 0x49
 1619 007c 13       		.uleb128 0x13
 1620 007d 38       		.uleb128 0x38
 1621 007e 0B       		.uleb128 0xb
 1622 007f 00       		.byte	0
 1623 0080 00       		.byte	0
 1624 0081 0A       		.uleb128 0xa
 1625 0082 0F       		.uleb128 0xf
 1626 0083 00       		.byte	0
 1627 0084 0B       		.uleb128 0xb
 1628 0085 0B       		.uleb128 0xb
 1629 0086 49       		.uleb128 0x49
 1630 0087 13       		.uleb128 0x13
 1631 0088 00       		.byte	0
 1632 0089 00       		.byte	0
 1633 008a 0B       		.uleb128 0xb
 1634 008b 13       		.uleb128 0x13
 1635 008c 01       		.byte	0x1
 1636 008d 03       		.uleb128 0x3
 1637 008e 0E       		.uleb128 0xe
 1638 008f 0B       		.uleb128 0xb
 1639 0090 0B       		.uleb128 0xb
 1640 0091 3A       		.uleb128 0x3a
 1641 0092 0B       		.uleb128 0xb
 1642 0093 3B       		.uleb128 0x3b
 1643 0094 05       		.uleb128 0x5
 1644 0095 01       		.uleb128 0x1
 1645 0096 13       		.uleb128 0x13
 1646 0097 00       		.byte	0
 1647 0098 00       		.byte	0
 1648 0099 0C       		.uleb128 0xc
 1649 009a 15       		.uleb128 0x15
 1650 009b 01       		.byte	0x1
ARM GAS  /tmp/cccsghHx.s 			page 30


 1651 009c 27       		.uleb128 0x27
 1652 009d 19       		.uleb128 0x19
 1653 009e 01       		.uleb128 0x1
 1654 009f 13       		.uleb128 0x13
 1655 00a0 00       		.byte	0
 1656 00a1 00       		.byte	0
 1657 00a2 0D       		.uleb128 0xd
 1658 00a3 05       		.uleb128 0x5
 1659 00a4 00       		.byte	0
 1660 00a5 49       		.uleb128 0x49
 1661 00a6 13       		.uleb128 0x13
 1662 00a7 00       		.byte	0
 1663 00a8 00       		.byte	0
 1664 00a9 0E       		.uleb128 0xe
 1665 00aa 0F       		.uleb128 0xf
 1666 00ab 00       		.byte	0
 1667 00ac 0B       		.uleb128 0xb
 1668 00ad 0B       		.uleb128 0xb
 1669 00ae 00       		.byte	0
 1670 00af 00       		.byte	0
 1671 00b0 0F       		.uleb128 0xf
 1672 00b1 35       		.uleb128 0x35
 1673 00b2 00       		.byte	0
 1674 00b3 49       		.uleb128 0x49
 1675 00b4 13       		.uleb128 0x13
 1676 00b5 00       		.byte	0
 1677 00b6 00       		.byte	0
 1678 00b7 10       		.uleb128 0x10
 1679 00b8 13       		.uleb128 0x13
 1680 00b9 01       		.byte	0x1
 1681 00ba 0B       		.uleb128 0xb
 1682 00bb 0B       		.uleb128 0xb
 1683 00bc 3A       		.uleb128 0x3a
 1684 00bd 0B       		.uleb128 0xb
 1685 00be 3B       		.uleb128 0x3b
 1686 00bf 05       		.uleb128 0x5
 1687 00c0 01       		.uleb128 0x1
 1688 00c1 13       		.uleb128 0x13
 1689 00c2 00       		.byte	0
 1690 00c3 00       		.byte	0
 1691 00c4 11       		.uleb128 0x11
 1692 00c5 26       		.uleb128 0x26
 1693 00c6 00       		.byte	0
 1694 00c7 49       		.uleb128 0x49
 1695 00c8 13       		.uleb128 0x13
 1696 00c9 00       		.byte	0
 1697 00ca 00       		.byte	0
 1698 00cb 12       		.uleb128 0x12
 1699 00cc 01       		.uleb128 0x1
 1700 00cd 01       		.byte	0x1
 1701 00ce 49       		.uleb128 0x49
 1702 00cf 13       		.uleb128 0x13
 1703 00d0 01       		.uleb128 0x1
 1704 00d1 13       		.uleb128 0x13
 1705 00d2 00       		.byte	0
 1706 00d3 00       		.byte	0
 1707 00d4 13       		.uleb128 0x13
ARM GAS  /tmp/cccsghHx.s 			page 31


 1708 00d5 21       		.uleb128 0x21
 1709 00d6 00       		.byte	0
 1710 00d7 49       		.uleb128 0x49
 1711 00d8 13       		.uleb128 0x13
 1712 00d9 2F       		.uleb128 0x2f
 1713 00da 0B       		.uleb128 0xb
 1714 00db 00       		.byte	0
 1715 00dc 00       		.byte	0
 1716 00dd 14       		.uleb128 0x14
 1717 00de 16       		.uleb128 0x16
 1718 00df 00       		.byte	0
 1719 00e0 03       		.uleb128 0x3
 1720 00e1 0E       		.uleb128 0xe
 1721 00e2 3A       		.uleb128 0x3a
 1722 00e3 0B       		.uleb128 0xb
 1723 00e4 3B       		.uleb128 0x3b
 1724 00e5 05       		.uleb128 0x5
 1725 00e6 49       		.uleb128 0x49
 1726 00e7 13       		.uleb128 0x13
 1727 00e8 00       		.byte	0
 1728 00e9 00       		.byte	0
 1729 00ea 15       		.uleb128 0x15
 1730 00eb 13       		.uleb128 0x13
 1731 00ec 01       		.byte	0x1
 1732 00ed 0B       		.uleb128 0xb
 1733 00ee 0B       		.uleb128 0xb
 1734 00ef 3A       		.uleb128 0x3a
 1735 00f0 0B       		.uleb128 0xb
 1736 00f1 3B       		.uleb128 0x3b
 1737 00f2 0B       		.uleb128 0xb
 1738 00f3 01       		.uleb128 0x1
 1739 00f4 13       		.uleb128 0x13
 1740 00f5 00       		.byte	0
 1741 00f6 00       		.byte	0
 1742 00f7 16       		.uleb128 0x16
 1743 00f8 17       		.uleb128 0x17
 1744 00f9 01       		.byte	0x1
 1745 00fa 0B       		.uleb128 0xb
 1746 00fb 0B       		.uleb128 0xb
 1747 00fc 3A       		.uleb128 0x3a
 1748 00fd 0B       		.uleb128 0xb
 1749 00fe 3B       		.uleb128 0x3b
 1750 00ff 0B       		.uleb128 0xb
 1751 0100 01       		.uleb128 0x1
 1752 0101 13       		.uleb128 0x13
 1753 0102 00       		.byte	0
 1754 0103 00       		.byte	0
 1755 0104 17       		.uleb128 0x17
 1756 0105 0D       		.uleb128 0xd
 1757 0106 00       		.byte	0
 1758 0107 03       		.uleb128 0x3
 1759 0108 0E       		.uleb128 0xe
 1760 0109 3A       		.uleb128 0x3a
 1761 010a 0B       		.uleb128 0xb
 1762 010b 3B       		.uleb128 0x3b
 1763 010c 0B       		.uleb128 0xb
 1764 010d 49       		.uleb128 0x49
ARM GAS  /tmp/cccsghHx.s 			page 32


 1765 010e 13       		.uleb128 0x13
 1766 010f 00       		.byte	0
 1767 0110 00       		.byte	0
 1768 0111 18       		.uleb128 0x18
 1769 0112 0D       		.uleb128 0xd
 1770 0113 00       		.byte	0
 1771 0114 03       		.uleb128 0x3
 1772 0115 0E       		.uleb128 0xe
 1773 0116 3A       		.uleb128 0x3a
 1774 0117 0B       		.uleb128 0xb
 1775 0118 3B       		.uleb128 0x3b
 1776 0119 05       		.uleb128 0x5
 1777 011a 49       		.uleb128 0x49
 1778 011b 13       		.uleb128 0x13
 1779 011c 00       		.byte	0
 1780 011d 00       		.byte	0
 1781 011e 19       		.uleb128 0x19
 1782 011f 2E       		.uleb128 0x2e
 1783 0120 01       		.byte	0x1
 1784 0121 03       		.uleb128 0x3
 1785 0122 0E       		.uleb128 0xe
 1786 0123 3A       		.uleb128 0x3a
 1787 0124 0B       		.uleb128 0xb
 1788 0125 3B       		.uleb128 0x3b
 1789 0126 05       		.uleb128 0x5
 1790 0127 27       		.uleb128 0x27
 1791 0128 19       		.uleb128 0x19
 1792 0129 20       		.uleb128 0x20
 1793 012a 0B       		.uleb128 0xb
 1794 012b 01       		.uleb128 0x1
 1795 012c 13       		.uleb128 0x13
 1796 012d 00       		.byte	0
 1797 012e 00       		.byte	0
 1798 012f 1A       		.uleb128 0x1a
 1799 0130 05       		.uleb128 0x5
 1800 0131 00       		.byte	0
 1801 0132 03       		.uleb128 0x3
 1802 0133 0E       		.uleb128 0xe
 1803 0134 3A       		.uleb128 0x3a
 1804 0135 0B       		.uleb128 0xb
 1805 0136 3B       		.uleb128 0x3b
 1806 0137 05       		.uleb128 0x5
 1807 0138 49       		.uleb128 0x49
 1808 0139 13       		.uleb128 0x13
 1809 013a 00       		.byte	0
 1810 013b 00       		.byte	0
 1811 013c 1B       		.uleb128 0x1b
 1812 013d 2E       		.uleb128 0x2e
 1813 013e 01       		.byte	0x1
 1814 013f 03       		.uleb128 0x3
 1815 0140 0E       		.uleb128 0xe
 1816 0141 3A       		.uleb128 0x3a
 1817 0142 0B       		.uleb128 0xb
 1818 0143 3B       		.uleb128 0x3b
 1819 0144 0B       		.uleb128 0xb
 1820 0145 27       		.uleb128 0x27
 1821 0146 19       		.uleb128 0x19
ARM GAS  /tmp/cccsghHx.s 			page 33


 1822 0147 49       		.uleb128 0x49
 1823 0148 13       		.uleb128 0x13
 1824 0149 20       		.uleb128 0x20
 1825 014a 0B       		.uleb128 0xb
 1826 014b 01       		.uleb128 0x1
 1827 014c 13       		.uleb128 0x13
 1828 014d 00       		.byte	0
 1829 014e 00       		.byte	0
 1830 014f 1C       		.uleb128 0x1c
 1831 0150 34       		.uleb128 0x34
 1832 0151 00       		.byte	0
 1833 0152 03       		.uleb128 0x3
 1834 0153 0E       		.uleb128 0xe
 1835 0154 3A       		.uleb128 0x3a
 1836 0155 0B       		.uleb128 0xb
 1837 0156 3B       		.uleb128 0x3b
 1838 0157 0B       		.uleb128 0xb
 1839 0158 49       		.uleb128 0x49
 1840 0159 13       		.uleb128 0x13
 1841 015a 00       		.byte	0
 1842 015b 00       		.byte	0
 1843 015c 1D       		.uleb128 0x1d
 1844 015d 2E       		.uleb128 0x2e
 1845 015e 01       		.byte	0x1
 1846 015f 03       		.uleb128 0x3
 1847 0160 0E       		.uleb128 0xe
 1848 0161 3A       		.uleb128 0x3a
 1849 0162 0B       		.uleb128 0xb
 1850 0163 3B       		.uleb128 0x3b
 1851 0164 0B       		.uleb128 0xb
 1852 0165 27       		.uleb128 0x27
 1853 0166 19       		.uleb128 0x19
 1854 0167 20       		.uleb128 0x20
 1855 0168 0B       		.uleb128 0xb
 1856 0169 01       		.uleb128 0x1
 1857 016a 13       		.uleb128 0x13
 1858 016b 00       		.byte	0
 1859 016c 00       		.byte	0
 1860 016d 1E       		.uleb128 0x1e
 1861 016e 05       		.uleb128 0x5
 1862 016f 00       		.byte	0
 1863 0170 03       		.uleb128 0x3
 1864 0171 0E       		.uleb128 0xe
 1865 0172 3A       		.uleb128 0x3a
 1866 0173 0B       		.uleb128 0xb
 1867 0174 3B       		.uleb128 0x3b
 1868 0175 0B       		.uleb128 0xb
 1869 0176 49       		.uleb128 0x49
 1870 0177 13       		.uleb128 0x13
 1871 0178 00       		.byte	0
 1872 0179 00       		.byte	0
 1873 017a 1F       		.uleb128 0x1f
 1874 017b 2E       		.uleb128 0x2e
 1875 017c 01       		.byte	0x1
 1876 017d 03       		.uleb128 0x3
 1877 017e 0E       		.uleb128 0xe
 1878 017f 3A       		.uleb128 0x3a
ARM GAS  /tmp/cccsghHx.s 			page 34


 1879 0180 0B       		.uleb128 0xb
 1880 0181 3B       		.uleb128 0x3b
 1881 0182 05       		.uleb128 0x5
 1882 0183 27       		.uleb128 0x27
 1883 0184 19       		.uleb128 0x19
 1884 0185 11       		.uleb128 0x11
 1885 0186 01       		.uleb128 0x1
 1886 0187 12       		.uleb128 0x12
 1887 0188 06       		.uleb128 0x6
 1888 0189 40       		.uleb128 0x40
 1889 018a 18       		.uleb128 0x18
 1890 018b 9742     		.uleb128 0x2117
 1891 018d 19       		.uleb128 0x19
 1892 018e 01       		.uleb128 0x1
 1893 018f 13       		.uleb128 0x13
 1894 0190 00       		.byte	0
 1895 0191 00       		.byte	0
 1896 0192 20       		.uleb128 0x20
 1897 0193 1D       		.uleb128 0x1d
 1898 0194 01       		.byte	0x1
 1899 0195 31       		.uleb128 0x31
 1900 0196 13       		.uleb128 0x13
 1901 0197 11       		.uleb128 0x11
 1902 0198 01       		.uleb128 0x1
 1903 0199 12       		.uleb128 0x12
 1904 019a 06       		.uleb128 0x6
 1905 019b 58       		.uleb128 0x58
 1906 019c 0B       		.uleb128 0xb
 1907 019d 59       		.uleb128 0x59
 1908 019e 05       		.uleb128 0x5
 1909 019f 00       		.byte	0
 1910 01a0 00       		.byte	0
 1911 01a1 21       		.uleb128 0x21
 1912 01a2 05       		.uleb128 0x5
 1913 01a3 00       		.byte	0
 1914 01a4 31       		.uleb128 0x31
 1915 01a5 13       		.uleb128 0x13
 1916 01a6 02       		.uleb128 0x2
 1917 01a7 18       		.uleb128 0x18
 1918 01a8 00       		.byte	0
 1919 01a9 00       		.byte	0
 1920 01aa 22       		.uleb128 0x22
 1921 01ab 2E       		.uleb128 0x2e
 1922 01ac 00       		.byte	0
 1923 01ad 03       		.uleb128 0x3
 1924 01ae 0E       		.uleb128 0xe
 1925 01af 3A       		.uleb128 0x3a
 1926 01b0 0B       		.uleb128 0xb
 1927 01b1 3B       		.uleb128 0x3b
 1928 01b2 05       		.uleb128 0x5
 1929 01b3 27       		.uleb128 0x27
 1930 01b4 19       		.uleb128 0x19
 1931 01b5 11       		.uleb128 0x11
 1932 01b6 01       		.uleb128 0x1
 1933 01b7 12       		.uleb128 0x12
 1934 01b8 06       		.uleb128 0x6
 1935 01b9 40       		.uleb128 0x40
ARM GAS  /tmp/cccsghHx.s 			page 35


 1936 01ba 18       		.uleb128 0x18
 1937 01bb 9642     		.uleb128 0x2116
 1938 01bd 19       		.uleb128 0x19
 1939 01be 00       		.byte	0
 1940 01bf 00       		.byte	0
 1941 01c0 23       		.uleb128 0x23
 1942 01c1 2E       		.uleb128 0x2e
 1943 01c2 01       		.byte	0x1
 1944 01c3 3F       		.uleb128 0x3f
 1945 01c4 19       		.uleb128 0x19
 1946 01c5 03       		.uleb128 0x3
 1947 01c6 0E       		.uleb128 0xe
 1948 01c7 3A       		.uleb128 0x3a
 1949 01c8 0B       		.uleb128 0xb
 1950 01c9 3B       		.uleb128 0x3b
 1951 01ca 0B       		.uleb128 0xb
 1952 01cb 27       		.uleb128 0x27
 1953 01cc 19       		.uleb128 0x19
 1954 01cd 11       		.uleb128 0x11
 1955 01ce 01       		.uleb128 0x1
 1956 01cf 12       		.uleb128 0x12
 1957 01d0 06       		.uleb128 0x6
 1958 01d1 40       		.uleb128 0x40
 1959 01d2 18       		.uleb128 0x18
 1960 01d3 9642     		.uleb128 0x2116
 1961 01d5 19       		.uleb128 0x19
 1962 01d6 01       		.uleb128 0x1
 1963 01d7 13       		.uleb128 0x13
 1964 01d8 00       		.byte	0
 1965 01d9 00       		.byte	0
 1966 01da 24       		.uleb128 0x24
 1967 01db 34       		.uleb128 0x34
 1968 01dc 00       		.byte	0
 1969 01dd 03       		.uleb128 0x3
 1970 01de 0E       		.uleb128 0xe
 1971 01df 3A       		.uleb128 0x3a
 1972 01e0 0B       		.uleb128 0xb
 1973 01e1 3B       		.uleb128 0x3b
 1974 01e2 0B       		.uleb128 0xb
 1975 01e3 49       		.uleb128 0x49
 1976 01e4 13       		.uleb128 0x13
 1977 01e5 02       		.uleb128 0x2
 1978 01e6 18       		.uleb128 0x18
 1979 01e7 00       		.byte	0
 1980 01e8 00       		.byte	0
 1981 01e9 25       		.uleb128 0x25
 1982 01ea 1D       		.uleb128 0x1d
 1983 01eb 01       		.byte	0x1
 1984 01ec 31       		.uleb128 0x31
 1985 01ed 13       		.uleb128 0x13
 1986 01ee 11       		.uleb128 0x11
 1987 01ef 01       		.uleb128 0x1
 1988 01f0 12       		.uleb128 0x12
 1989 01f1 06       		.uleb128 0x6
 1990 01f2 58       		.uleb128 0x58
 1991 01f3 0B       		.uleb128 0xb
 1992 01f4 59       		.uleb128 0x59
ARM GAS  /tmp/cccsghHx.s 			page 36


 1993 01f5 0B       		.uleb128 0xb
 1994 01f6 01       		.uleb128 0x1
 1995 01f7 13       		.uleb128 0x13
 1996 01f8 00       		.byte	0
 1997 01f9 00       		.byte	0
 1998 01fa 26       		.uleb128 0x26
 1999 01fb 0B       		.uleb128 0xb
 2000 01fc 01       		.byte	0x1
 2001 01fd 11       		.uleb128 0x11
 2002 01fe 01       		.uleb128 0x1
 2003 01ff 12       		.uleb128 0x12
 2004 0200 06       		.uleb128 0x6
 2005 0201 00       		.byte	0
 2006 0202 00       		.byte	0
 2007 0203 27       		.uleb128 0x27
 2008 0204 34       		.uleb128 0x34
 2009 0205 00       		.byte	0
 2010 0206 31       		.uleb128 0x31
 2011 0207 13       		.uleb128 0x13
 2012 0208 02       		.uleb128 0x2
 2013 0209 18       		.uleb128 0x18
 2014 020a 00       		.byte	0
 2015 020b 00       		.byte	0
 2016 020c 28       		.uleb128 0x28
 2017 020d 1D       		.uleb128 0x1d
 2018 020e 01       		.byte	0x1
 2019 020f 31       		.uleb128 0x31
 2020 0210 13       		.uleb128 0x13
 2021 0211 11       		.uleb128 0x11
 2022 0212 01       		.uleb128 0x1
 2023 0213 12       		.uleb128 0x12
 2024 0214 06       		.uleb128 0x6
 2025 0215 58       		.uleb128 0x58
 2026 0216 0B       		.uleb128 0xb
 2027 0217 59       		.uleb128 0x59
 2028 0218 0B       		.uleb128 0xb
 2029 0219 00       		.byte	0
 2030 021a 00       		.byte	0
 2031 021b 29       		.uleb128 0x29
 2032 021c 34       		.uleb128 0x34
 2033 021d 00       		.byte	0
 2034 021e 03       		.uleb128 0x3
 2035 021f 0E       		.uleb128 0xe
 2036 0220 3A       		.uleb128 0x3a
 2037 0221 0B       		.uleb128 0xb
 2038 0222 3B       		.uleb128 0x3b
 2039 0223 05       		.uleb128 0x5
 2040 0224 49       		.uleb128 0x49
 2041 0225 13       		.uleb128 0x13
 2042 0226 3F       		.uleb128 0x3f
 2043 0227 19       		.uleb128 0x19
 2044 0228 3C       		.uleb128 0x3c
 2045 0229 19       		.uleb128 0x19
 2046 022a 00       		.byte	0
 2047 022b 00       		.byte	0
 2048 022c 2A       		.uleb128 0x2a
 2049 022d 34       		.uleb128 0x34
ARM GAS  /tmp/cccsghHx.s 			page 37


 2050 022e 00       		.byte	0
 2051 022f 03       		.uleb128 0x3
 2052 0230 08       		.uleb128 0x8
 2053 0231 3A       		.uleb128 0x3a
 2054 0232 0B       		.uleb128 0xb
 2055 0233 3B       		.uleb128 0x3b
 2056 0234 05       		.uleb128 0x5
 2057 0235 49       		.uleb128 0x49
 2058 0236 13       		.uleb128 0x13
 2059 0237 3F       		.uleb128 0x3f
 2060 0238 19       		.uleb128 0x19
 2061 0239 3C       		.uleb128 0x3c
 2062 023a 19       		.uleb128 0x19
 2063 023b 00       		.byte	0
 2064 023c 00       		.byte	0
 2065 023d 00       		.byte	0
 2066              		.section	.debug_aranges,"",%progbits
 2067 0000 1C000000 		.4byte	0x1c
 2068 0004 0200     		.2byte	0x2
 2069 0006 00000000 		.4byte	.Ldebug_info0
 2070 000a 04       		.byte	0x4
 2071 000b 00       		.byte	0
 2072 000c 0000     		.2byte	0
 2073 000e 0000     		.2byte	0
 2074 0010 00000000 		.4byte	.Ltext0
 2075 0014 D4000000 		.4byte	.Letext0-.Ltext0
 2076 0018 00000000 		.4byte	0
 2077 001c 00000000 		.4byte	0
 2078              		.section	.debug_line,"",%progbits
 2079              	.Ldebug_line0:
 2080 0000 00020000 		.section	.debug_str,"MS",%progbits,1
 2080      02008401 
 2080      00000201 
 2080      FB0E0D00 
 2080      01010101 
 2081              	.LASF50:
 2082 0000 72656164 		.ascii	"ready_list_t\000"
 2082      795F6C69 
 2082      73745F74 
 2082      00
 2083              	.LASF98:
 2084 000d 77747472 		.ascii	"wttrp\000"
 2084      7000
 2085              	.LASF56:
 2086 0013 64656C74 		.ascii	"delta\000"
 2086      6100
 2087              	.LASF95:
 2088 0019 7264796D 		.ascii	"rdymsg\000"
 2088      736700
 2089              	.LASF16:
 2090 0020 75696E74 		.ascii	"uint64_t\000"
 2090      36345F74 
 2090      00
 2091              	.LASF5:
 2092 0029 5F5F7569 		.ascii	"__uint8_t\000"
 2092      6E74385F 
 2092      7400
ARM GAS  /tmp/cccsghHx.s 			page 38


 2093              	.LASF49:
 2094 0033 70726576 		.ascii	"prev\000"
 2094      00
 2095              	.LASF89:
 2096 0038 706F7274 		.ascii	"port_intctx\000"
 2096      5F696E74 
 2096      63747800 
 2097              	.LASF61:
 2098 0044 73797374 		.ascii	"system_debug_t\000"
 2098      656D5F64 
 2098      65627567 
 2098      5F7400
 2099              	.LASF113:
 2100 0053 706F7274 		.ascii	"port_lock\000"
 2100      5F6C6F63 
 2100      6B00
 2101              	.LASF12:
 2102 005d 6C6F6E67 		.ascii	"long long unsigned int\000"
 2102      206C6F6E 
 2102      6720756E 
 2102      7369676E 
 2102      65642069 
 2103              	.LASF96:
 2104 0074 65786974 		.ascii	"exitcode\000"
 2104      636F6465 
 2104      00
 2105              	.LASF68:
 2106 007d 6D61696E 		.ascii	"mainthread\000"
 2106      74687265 
 2106      616400
 2107              	.LASF99:
 2108 0088 73656E74 		.ascii	"sentmsg\000"
 2108      6D736700 
 2109              	.LASF58:
 2110 0090 76697274 		.ascii	"virtual_timers_list_t\000"
 2110      75616C5F 
 2110      74696D65 
 2110      72735F6C 
 2110      6973745F 
 2111              	.LASF70:
 2112 00a6 43505549 		.ascii	"CPUID\000"
 2112      4400
 2113              	.LASF46:
 2114 00ac 6E657874 		.ascii	"next\000"
 2114      00
 2115              	.LASF48:
 2116 00b1 63685F74 		.ascii	"ch_threads_queue\000"
 2116      68726561 
 2116      64735F71 
 2116      75657565 
 2116      00
 2117              	.LASF35:
 2118 00c2 72656673 		.ascii	"refs\000"
 2118      00
 2119              	.LASF82:
 2120 00c7 49534152 		.ascii	"ISAR\000"
 2120      00
ARM GAS  /tmp/cccsghHx.s 			page 39


 2121              	.LASF10:
 2122 00cc 6C6F6E67 		.ascii	"long long int\000"
 2122      206C6F6E 
 2122      6720696E 
 2122      7400
 2123              	.LASF1:
 2124 00da 7369676E 		.ascii	"signed char\000"
 2124      65642063 
 2124      68617200 
 2125              	.LASF67:
 2126 00e6 76746C69 		.ascii	"vtlist\000"
 2126      737400
 2127              	.LASF114:
 2128 00ed 706F7274 		.ascii	"port_unlock\000"
 2128      5F756E6C 
 2128      6F636B00 
 2129              	.LASF37:
 2130 00f9 6D736771 		.ascii	"msgqueue\000"
 2130      75657565 
 2130      00
 2131              	.LASF33:
 2132 0102 73746174 		.ascii	"state\000"
 2132      6500
 2133              	.LASF7:
 2134 0108 6C6F6E67 		.ascii	"long int\000"
 2134      20696E74 
 2134      00
 2135              	.LASF19:
 2136 0111 74737461 		.ascii	"tstate_t\000"
 2136      74655F74 
 2136      00
 2137              	.LASF57:
 2138 011a 66756E63 		.ascii	"func\000"
 2138      00
 2139              	.LASF27:
 2140 011f 71756575 		.ascii	"queue\000"
 2140      6500
 2141              	.LASF32:
 2142 0125 77616261 		.ascii	"wabase\000"
 2142      736500
 2143              	.LASF8:
 2144 012c 5F5F7569 		.ascii	"__uint32_t\000"
 2144      6E743332 
 2144      5F7400
 2145              	.LASF86:
 2146 0137 72656761 		.ascii	"regarm_t\000"
 2146      726D5F74 
 2146      00
 2147              	.LASF85:
 2148 0140 5343425F 		.ascii	"SCB_Type\000"
 2148      54797065 
 2148      00
 2149              	.LASF36:
 2150 0149 77616974 		.ascii	"waiting\000"
 2150      696E6700 
 2151              	.LASF107:
 2152 0151 6D757465 		.ascii	"mutex_t\000"
ARM GAS  /tmp/cccsghHx.s 			page 40


 2152      785F7400 
 2153              	.LASF111:
 2154 0159 76616C75 		.ascii	"value\000"
 2154      6500
 2155              	.LASF24:
 2156 015f 636E745F 		.ascii	"cnt_t\000"
 2156      7400
 2157              	.LASF0:
 2158 0165 756E7369 		.ascii	"unsigned int\000"
 2158      676E6564 
 2158      20696E74 
 2158      00
 2159              	.LASF110:
 2160 0172 5F5F7365 		.ascii	"__set_PSP\000"
 2160      745F5053 
 2160      5000
 2161              	.LASF100:
 2162 017c 77747365 		.ascii	"wtsemp\000"
 2162      6D7000
 2163              	.LASF9:
 2164 0183 6C6F6E67 		.ascii	"long unsigned int\000"
 2164      20756E73 
 2164      69676E65 
 2164      6420696E 
 2164      7400
 2165              	.LASF123:
 2166 0195 2F686F6D 		.ascii	"/home/declan/ChibiOS2/ChibiOS/demos/STM32/RT-STM32F"
 2166      652F6465 
 2166      636C616E 
 2166      2F436869 
 2166      62694F53 
 2167 01c8 3430372D 		.ascii	"407-DISCOVERY\000"
 2167      44495343 
 2167      4F564552 
 2167      5900
 2168              	.LASF31:
 2169 01d6 6E616D65 		.ascii	"name\000"
 2169      00
 2170              	.LASF72:
 2171 01db 56544F52 		.ascii	"VTOR\000"
 2171      00
 2172              	.LASF41:
 2173 01e0 6D706F6F 		.ascii	"mpool\000"
 2173      6C00
 2174              	.LASF44:
 2175 01e6 63685F74 		.ascii	"ch_thread\000"
 2175      68726561 
 2175      6400
 2176              	.LASF79:
 2177 01f0 42464152 		.ascii	"BFAR\000"
 2177      00
 2178              	.LASF71:
 2179 01f5 49435352 		.ascii	"ICSR\000"
 2179      00
 2180              	.LASF22:
 2181 01fa 6D73675F 		.ascii	"msg_t\000"
 2181      7400
ARM GAS  /tmp/cccsghHx.s 			page 41


 2182              	.LASF73:
 2183 0200 41495243 		.ascii	"AIRCR\000"
 2183      5200
 2184              	.LASF77:
 2185 0206 44465352 		.ascii	"DFSR\000"
 2185      00
 2186              	.LASF38:
 2187 020b 6570656E 		.ascii	"epending\000"
 2187      64696E67 
 2187      00
 2188              	.LASF78:
 2189 0214 4D4D4641 		.ascii	"MMFAR\000"
 2189      5200
 2190              	.LASF118:
 2191 021a 5F706F72 		.ascii	"_port_irq_epilogue\000"
 2191      745F6972 
 2191      715F6570 
 2191      696C6F67 
 2191      756500
 2192              	.LASF18:
 2193 022d 746D6F64 		.ascii	"tmode_t\000"
 2193      655F7400 
 2194              	.LASF51:
 2195 0235 63685F72 		.ascii	"ch_ready_list\000"
 2195      65616479 
 2195      5F6C6973 
 2195      7400
 2196              	.LASF23:
 2197 0243 6576656E 		.ascii	"eventmask_t\000"
 2197      746D6173 
 2197      6B5F7400 
 2198              	.LASF112:
 2199 024f 746F704F 		.ascii	"topOfProcStack\000"
 2199      6650726F 
 2199      63537461 
 2199      636B00
 2200              	.LASF6:
 2201 025e 5F5F696E 		.ascii	"__int32_t\000"
 2201      7433325F 
 2201      7400
 2202              	.LASF87:
 2203 0268 73746B61 		.ascii	"stkalign_t\000"
 2203      6C69676E 
 2203      5F7400
 2204              	.LASF29:
 2205 0273 6E657765 		.ascii	"newer\000"
 2205      7200
 2206              	.LASF43:
 2207 0279 74687265 		.ascii	"threads_list_t\000"
 2207      6164735F 
 2207      6C697374 
 2207      5F7400
 2208              	.LASF40:
 2209 0288 7265616C 		.ascii	"realprio\000"
 2209      7072696F 
 2209      00
 2210              	.LASF69:
ARM GAS  /tmp/cccsghHx.s 			page 42


 2211 0291 73697A65 		.ascii	"sizetype\000"
 2211      74797065 
 2211      00
 2212              	.LASF42:
 2213 029a 74687265 		.ascii	"thread_reference_t\000"
 2213      61645F72 
 2213      65666572 
 2213      656E6365 
 2213      5F7400
 2214              	.LASF59:
 2215 02ad 63685F76 		.ascii	"ch_virtual_timers_list\000"
 2215      69727475 
 2215      616C5F74 
 2215      696D6572 
 2215      735F6C69 
 2216              	.LASF75:
 2217 02c4 43465352 		.ascii	"CFSR\000"
 2217      00
 2218              	.LASF88:
 2219 02c9 706F7274 		.ascii	"port_context\000"
 2219      5F636F6E 
 2219      74657874 
 2219      00
 2220              	.LASF90:
 2221 02d6 706F7274 		.ascii	"port_extctx\000"
 2221      5F657874 
 2221      63747800 
 2222              	.LASF94:
 2223 02e2 746D5F63 		.ascii	"tm_calibration_t\000"
 2223      616C6962 
 2223      72617469 
 2223      6F6E5F74 
 2223      00
 2224              	.LASF28:
 2225 02f3 7072696F 		.ascii	"prio\000"
 2225      00
 2226              	.LASF52:
 2227 02f8 63757272 		.ascii	"current\000"
 2227      656E7400 
 2228              	.LASF11:
 2229 0300 5F5F7569 		.ascii	"__uint64_t\000"
 2229      6E743634 
 2229      5F7400
 2230              	.LASF20:
 2231 030b 74726566 		.ascii	"trefs_t\000"
 2231      735F7400 
 2232              	.LASF83:
 2233 0313 52455345 		.ascii	"RESERVED0\000"
 2233      52564544 
 2233      3000
 2234              	.LASF119:
 2235 031d 63747870 		.ascii	"ctxp\000"
 2235      00
 2236              	.LASF54:
 2237 0322 76697274 		.ascii	"virtual_timer_t\000"
 2237      75616C5F 
 2237      74696D65 
ARM GAS  /tmp/cccsghHx.s 			page 43


 2237      725F7400 
 2238              	.LASF21:
 2239 0332 74707269 		.ascii	"tprio_t\000"
 2239      6F5F7400 
 2240              	.LASF62:
 2241 033a 63685F73 		.ascii	"ch_system_debug\000"
 2241      79737465 
 2241      6D5F6465 
 2241      62756700 
 2242              	.LASF108:
 2243 034a 5F426F6F 		.ascii	"_Bool\000"
 2243      6C00
 2244              	.LASF14:
 2245 0350 696E7433 		.ascii	"int32_t\000"
 2245      325F7400 
 2246              	.LASF2:
 2247 0358 756E7369 		.ascii	"unsigned char\000"
 2247      676E6564 
 2247      20636861 
 2247      7200
 2248              	.LASF74:
 2249 0366 53484353 		.ascii	"SHCSR\000"
 2249      5200
 2250              	.LASF120:
 2251 036c 49544D5F 		.ascii	"ITM_RxBuffer\000"
 2251      52784275 
 2251      66666572 
 2251      00
 2252              	.LASF3:
 2253 0379 73686F72 		.ascii	"short int\000"
 2253      7420696E 
 2253      7400
 2254              	.LASF60:
 2255 0383 6C617374 		.ascii	"lasttime\000"
 2255      74696D65 
 2255      00
 2256              	.LASF92:
 2257 038c 78707372 		.ascii	"xpsr\000"
 2257      00
 2258              	.LASF102:
 2259 0391 65776D61 		.ascii	"ewmask\000"
 2259      736B00
 2260              	.LASF65:
 2261 0398 63685F73 		.ascii	"ch_system\000"
 2261      79737465 
 2261      6D00
 2262              	.LASF91:
 2263 03a2 6C725F74 		.ascii	"lr_thd\000"
 2263      686400
 2264              	.LASF117:
 2265 03a9 5356435F 		.ascii	"SVC_Handler\000"
 2265      48616E64 
 2265      6C657200 
 2266              	.LASF55:
 2267 03b5 63685F76 		.ascii	"ch_virtual_timer\000"
 2267      69727475 
 2267      616C5F74 
ARM GAS  /tmp/cccsghHx.s 			page 44


 2267      696D6572 
 2267      00
 2268              	.LASF103:
 2269 03c6 63685F73 		.ascii	"ch_semaphore\000"
 2269      656D6170 
 2269      686F7265 
 2269      00
 2270              	.LASF15:
 2271 03d3 75696E74 		.ascii	"uint32_t\000"
 2271      33325F74 
 2271      00
 2272              	.LASF101:
 2273 03dc 77746D74 		.ascii	"wtmtxp\000"
 2273      787000
 2274              	.LASF80:
 2275 03e3 41465352 		.ascii	"AFSR\000"
 2275      00
 2276              	.LASF45:
 2277 03e8 63685F74 		.ascii	"ch_threads_list\000"
 2277      68726561 
 2277      64735F6C 
 2277      69737400 
 2278              	.LASF105:
 2279 03f8 6F776E65 		.ascii	"owner\000"
 2279      7200
 2280              	.LASF121:
 2281 03fe 474E5520 		.ascii	"GNU C 4.9.3 20150529 (prerelease) -mcpu=cortex-m4 -"
 2281      4320342E 
 2281      392E3320 
 2281      32303135 
 2281      30353239 
 2282 0431 6D6E6F2D 		.ascii	"mno-thumb-interwork -mthumb -ggdb -O0 -fomit-frame-"
 2282      7468756D 
 2282      622D696E 
 2282      74657277 
 2282      6F726B20 
 2283 0464 706F696E 		.ascii	"pointer -falign-functions=16\000"
 2283      74657220 
 2283      2D66616C 
 2283      69676E2D 
 2283      66756E63 
 2284              	.LASF106:
 2285 0481 63686172 		.ascii	"char\000"
 2285      00
 2286              	.LASF30:
 2287 0486 6F6C6465 		.ascii	"older\000"
 2287      7200
 2288              	.LASF116:
 2289 048c 706F7274 		.ascii	"port_unlock_from_isr\000"
 2289      5F756E6C 
 2289      6F636B5F 
 2289      66726F6D 
 2289      5F697372 
 2290              	.LASF26:
 2291 04a1 74687265 		.ascii	"thread_t\000"
 2291      61645F74 
 2291      00
ARM GAS  /tmp/cccsghHx.s 			page 45


 2292              	.LASF25:
 2293 04aa 73797374 		.ascii	"systime_t\000"
 2293      696D655F 
 2293      7400
 2294              	.LASF53:
 2295 04b4 76746675 		.ascii	"vtfunc_t\000"
 2295      6E635F74 
 2295      00
 2296              	.LASF109:
 2297 04bd 5F5F7365 		.ascii	"__set_BASEPRI\000"
 2297      745F4241 
 2297      53455052 
 2297      4900
 2298              	.LASF63:
 2299 04cb 70616E69 		.ascii	"panic_msg\000"
 2299      635F6D73 
 2299      6700
 2300              	.LASF93:
 2301 04d5 6F666673 		.ascii	"offset\000"
 2301      657400
 2302              	.LASF4:
 2303 04dc 73686F72 		.ascii	"short unsigned int\000"
 2303      7420756E 
 2303      7369676E 
 2303      65642069 
 2303      6E7400
 2304              	.LASF64:
 2305 04ef 63685F73 		.ascii	"ch_system_t\000"
 2305      79737465 
 2305      6D5F7400 
 2306              	.LASF17:
 2307 04fb 7274636E 		.ascii	"rtcnt_t\000"
 2307      745F7400 
 2308              	.LASF115:
 2309 0503 706F7274 		.ascii	"port_lock_from_isr\000"
 2309      5F6C6F63 
 2309      6B5F6672 
 2309      6F6D5F69 
 2309      737200
 2310              	.LASF124:
 2311 0516 5F5F6765 		.ascii	"__get_PSP\000"
 2311      745F5053 
 2311      5000
 2312              	.LASF122:
 2313 0520 2E2E2F2E 		.ascii	"../../../os/common/ports/ARMCMx/chcore_v7m.c\000"
 2313      2E2F2E2E 
 2313      2F6F732F 
 2313      636F6D6D 
 2313      6F6E2F70 
 2314              	.LASF47:
 2315 054d 74687265 		.ascii	"threads_queue_t\000"
 2315      6164735F 
 2315      71756575 
 2315      655F7400 
 2316              	.LASF104:
 2317 055d 63685F6D 		.ascii	"ch_mutex\000"
 2317      75746578 
ARM GAS  /tmp/cccsghHx.s 			page 46


 2317      00
 2318              	.LASF81:
 2319 0566 4D4D4652 		.ascii	"MMFR\000"
 2319      00
 2320              	.LASF66:
 2321 056b 726C6973 		.ascii	"rlist\000"
 2321      7400
 2322              	.LASF13:
 2323 0571 75696E74 		.ascii	"uint8_t\000"
 2323      385F7400 
 2324              	.LASF34:
 2325 0579 666C6167 		.ascii	"flags\000"
 2325      7300
 2326              	.LASF97:
 2327 057f 77746F62 		.ascii	"wtobjp\000"
 2327      6A7000
 2328              	.LASF84:
 2329 0586 43504143 		.ascii	"CPACR\000"
 2329      5200
 2330              	.LASF76:
 2331 058c 48465352 		.ascii	"HFSR\000"
 2331      00
 2332              	.LASF39:
 2333 0591 6D74786C 		.ascii	"mtxlist\000"
 2333      69737400 
 2334              	.LASF125:
 2335 0599 72657375 		.ascii	"result\000"
 2335      6C7400
 2336              		.ident	"GCC: (15:4.9.3+svn231177-1) 4.9.3 20150529 (prerelease)"
ARM GAS  /tmp/cccsghHx.s 			page 47


DEFINED SYMBOLS
                            *ABS*:0000000000000000 chcore_v7m.c
     /tmp/cccsghHx.s:18     .text:0000000000000000 $t
     /tmp/cccsghHx.s:23     .text:0000000000000000 port_lock
     /tmp/cccsghHx.s:59     .text:0000000000000010 port_unlock
     /tmp/cccsghHx.s:93     .text:0000000000000020 port_lock_from_isr
     /tmp/cccsghHx.s:115    .text:0000000000000030 port_unlock_from_isr
     /tmp/cccsghHx.s:138    .text:0000000000000040 SVC_Handler
     /tmp/cccsghHx.s:200    .text:0000000000000070 _port_irq_epilogue
     /tmp/cccsghHx.s:289    .text:00000000000000c8 $d
                     .debug_frame:0000000000000010 $d

UNDEFINED SYMBOLS
chSchIsPreemptionRequired
_port_switch_from_isr
_port_exit_from_isr
