ARM GAS  /tmp/cccsghHx.s 			page 1


   1              		.syntax unified
   2              		.cpu cortex-m4
   3              		.fpu softvfp
   4              		.eabi_attribute 20, 1
   5              		.eabi_attribute 21, 1
   6              		.eabi_attribute 23, 3
   7              		.eabi_attribute 24, 1
   8              		.eabi_attribute 25, 1
   9              		.eabi_attribute 26, 1
  10              		.eabi_attribute 30, 6
  11              		.eabi_attribute 34, 1
  12              		.eabi_attribute 18, 4
  13              		.thumb
  14              		.file	"chcore_v7m.c"
  15              		.text
  16              	.Ltext0:
  17              		.cfi_sections	.debug_frame
  18              		.align	2
  19              		.p2align 4,,15
  20              		.thumb
  21              		.thumb_func
  22              		.type	port_lock, %function
  23              	port_lock:
  24              	.LFB127:
  25              		.file 1 "../../../os/common/ports/ARMCMx/chcore_v7m.h"
  26              		.loc 1 594 0
  27              		.cfi_startproc
  28              		@ args = 0, pretend = 0, frame = 8
  29              		@ frame_needed = 0, uses_anonymous_args = 0
  30              		@ link register save eliminated.
  31 0000 82B0     		sub	sp, sp, #8
  32              		.cfi_def_cfa_offset 8
  33 0002 2023     		movs	r3, #32
  34 0004 0193     		str	r3, [sp, #4]
  35              	.LBB15:
  36              	.LBB16:
  37              		.file 2 "../../../os/common/ext/CMSIS/include/cmsis_gcc.h"
  38              		.loc 2 264 0
  39 0006 019B     		ldr	r3, [sp, #4]
  40              	@ 264 "../../../os/common/ext/CMSIS/include/cmsis_gcc.h" 1
  41 0008 83F31188 		MSR basepri, r3
  42              	@ 0 "" 2
  43              		.thumb
  44              	.LBE16:
  45              	.LBE15:
  46              		.loc 1 611 0
  47 000c 02B0     		add	sp, sp, #8
  48              		.cfi_def_cfa_offset 0
  49              		@ sp needed
  50 000e 7047     		bx	lr
  51              		.cfi_endproc
  52              	.LFE127:
  53              		.size	port_lock, .-port_lock
  54              		.align	2
  55              		.p2align 4,,15
  56              		.thumb
  57              		.thumb_func
ARM GAS  /tmp/cccsghHx.s 			page 2


  58              		.type	port_unlock, %function
  59              	port_unlock:
  60              	.LFB128:
  61              		.loc 1 618 0
  62              		.cfi_startproc
  63              		@ args = 0, pretend = 0, frame = 8
  64              		@ frame_needed = 0, uses_anonymous_args = 0
  65              		@ link register save eliminated.
  66 0010 82B0     		sub	sp, sp, #8
  67              		.cfi_def_cfa_offset 8
  68 0012 0023     		movs	r3, #0
  69 0014 0193     		str	r3, [sp, #4]
  70              	.LBB17:
  71              	.LBB18:
  72              		.loc 2 264 0
  73 0016 019B     		ldr	r3, [sp, #4]
  74              	@ 264 "../../../os/common/ext/CMSIS/include/cmsis_gcc.h" 1
  75 0018 83F31188 		MSR basepri, r3
  76              	@ 0 "" 2
  77              		.thumb
  78              	.LBE18:
  79              	.LBE17:
  80              		.loc 1 625 0
  81 001c 02B0     		add	sp, sp, #8
  82              		.cfi_def_cfa_offset 0
  83              		@ sp needed
  84 001e 7047     		bx	lr
  85              		.cfi_endproc
  86              	.LFE128:
  87              		.size	port_unlock, .-port_unlock
  88              		.align	2
  89              		.p2align 4,,15
  90              		.thumb
  91              		.thumb_func
  92              		.type	port_lock_from_isr, %function
  93              	port_lock_from_isr:
  94              	.LFB129:
  95              		.loc 1 633 0
  96              		.cfi_startproc
  97              		@ args = 0, pretend = 0, frame = 0
  98              		@ frame_needed = 0, uses_anonymous_args = 0
  99 0020 08B5     		push	{r3, lr}
 100              		.cfi_def_cfa_offset 8
 101              		.cfi_offset 3, -8
 102              		.cfi_offset 14, -4
 103              		.loc 1 635 0
 104 0022 FFF7EDFF 		bl	port_lock
 105              		.loc 1 636 0
 106 0026 08BD     		pop	{r3, pc}
 107              		.cfi_endproc
 108              	.LFE129:
 109              		.size	port_lock_from_isr, .-port_lock_from_isr
 110              		.align	2
 111 0028 AFF30080 		.p2align 4,,15
 111      AFF30080 
 112              		.thumb
 113              		.thumb_func
ARM GAS  /tmp/cccsghHx.s 			page 3


 114              		.type	port_unlock_from_isr, %function
 115              	port_unlock_from_isr:
 116              	.LFB130:
 117              		.loc 1 644 0
 118              		.cfi_startproc
 119              		@ args = 0, pretend = 0, frame = 0
 120              		@ frame_needed = 0, uses_anonymous_args = 0
 121 0030 08B5     		push	{r3, lr}
 122              		.cfi_def_cfa_offset 8
 123              		.cfi_offset 3, -8
 124              		.cfi_offset 14, -4
 125              		.loc 1 646 0
 126 0032 FFF7EDFF 		bl	port_unlock
 127              		.loc 1 647 0
 128 0036 08BD     		pop	{r3, pc}
 129              		.cfi_endproc
 130              	.LFE130:
 131              		.size	port_unlock_from_isr, .-port_unlock_from_isr
 132              		.align	2
 133 0038 AFF30080 		.p2align 4,,15
 133      AFF30080 
 134              		.global	SVC_Handler
 135              		.thumb
 136              		.thumb_func
 137              		.type	SVC_Handler, %function
 138              	SVC_Handler:
 139              	.LFB248:
 140              		.file 3 "../../../os/common/ports/ARMCMx/chcore_v7m.c"
 141              		.loc 3 62 0
 142              		.cfi_startproc
 143              		@ args = 0, pretend = 0, frame = 8
 144              		@ frame_needed = 0, uses_anonymous_args = 0
 145 0040 10B5     		push	{r4, lr}
 146              		.cfi_def_cfa_offset 8
 147              		.cfi_offset 4, -8
 148              		.cfi_offset 14, -4
 149 0042 82B0     		sub	sp, sp, #8
 150              		.cfi_def_cfa_offset 16
 151              	.LBB19:
 152              	.LBB20:
 153              		.loc 2 152 0
 154              	@ 152 "../../../os/common/ext/CMSIS/include/cmsis_gcc.h" 1
 155 0044 EFF30983 		MRS r3, psp
 156              	
 157              	@ 0 "" 2
 158              		.thumb
 159 0048 1C46     		mov	r4, r3
 160              		.loc 2 153 0
 161 004a 2346     		mov	r3, r4
 162              	.LBE20:
 163              	.LBE19:
 164              		.loc 3 72 0
 165 004c 0193     		str	r3, [sp, #4]
 166              		.loc 3 76 0
 167 004e 019B     		ldr	r3, [sp, #4]
 168 0050 2033     		adds	r3, r3, #32
 169 0052 0193     		str	r3, [sp, #4]
ARM GAS  /tmp/cccsghHx.s 			page 4


 170              		.loc 3 79 0
 171 0054 019B     		ldr	r3, [sp, #4]
 172 0056 0093     		str	r3, [sp]
 173              	.LBB21:
 174              	.LBB22:
 175              		.loc 2 164 0
 176 0058 009B     		ldr	r3, [sp]
 177              	@ 164 "../../../os/common/ext/CMSIS/include/cmsis_gcc.h" 1
 178 005a 83F30988 		MSR psp, r3
 179              	
 180              	@ 0 "" 2
 181              		.thumb
 182              	.LBE22:
 183              	.LBE21:
 184              		.loc 3 82 0
 185 005e FFF7E7FF 		bl	port_unlock_from_isr
 186              		.loc 3 83 0
 187 0062 02B0     		add	sp, sp, #8
 188              		.cfi_def_cfa_offset 8
 189              		@ sp needed
 190 0064 10BD     		pop	{r4, pc}
 191              		.cfi_endproc
 192              	.LFE248:
 193              		.size	SVC_Handler, .-SVC_Handler
 194 0066 00BF     		.align	2
 195 0068 AFF30080 		.p2align 4,,15
 195      AFF30080 
 196              		.global	_port_irq_epilogue
 197              		.thumb
 198              		.thumb_func
 199              		.type	_port_irq_epilogue, %function
 200              	_port_irq_epilogue:
 201              	.LFB249:
 202              		.loc 3 122 0
 203              		.cfi_startproc
 204              		@ args = 0, pretend = 0, frame = 8
 205              		@ frame_needed = 0, uses_anonymous_args = 0
 206 0070 10B5     		push	{r4, lr}
 207              		.cfi_def_cfa_offset 8
 208              		.cfi_offset 4, -8
 209              		.cfi_offset 14, -4
 210 0072 82B0     		sub	sp, sp, #8
 211              		.cfi_def_cfa_offset 16
 212              		.loc 3 124 0
 213 0074 FFF7D4FF 		bl	port_lock_from_isr
 214              		.loc 3 125 0
 215 0078 134B     		ldr	r3, .L13
 216 007a 5B68     		ldr	r3, [r3, #4]
 217 007c 03F40063 		and	r3, r3, #2048
 218 0080 002B     		cmp	r3, #0
 219 0082 1DD0     		beq	.L8
 220              	.LBB23:
 221              	.LBB24:
 222              	.LBB25:
 223              		.loc 2 152 0
 224              	@ 152 "../../../os/common/ext/CMSIS/include/cmsis_gcc.h" 1
 225 0084 EFF30983 		MRS r3, psp
ARM GAS  /tmp/cccsghHx.s 			page 5


 226              	
 227              	@ 0 "" 2
 228              		.thumb
 229 0088 1C46     		mov	r4, r3
 230              		.loc 2 153 0
 231 008a 2346     		mov	r3, r4
 232              	.LBE25:
 233              	.LBE24:
 234              		.loc 3 134 0
 235 008c 0193     		str	r3, [sp, #4]
 236              		.loc 3 138 0
 237 008e 019B     		ldr	r3, [sp, #4]
 238 0090 203B     		subs	r3, r3, #32
 239 0092 0193     		str	r3, [sp, #4]
 240              		.loc 3 141 0
 241 0094 019B     		ldr	r3, [sp, #4]
 242 0096 4FF08072 		mov	r2, #16777216
 243 009a DA61     		str	r2, [r3, #28]
 244              		.loc 3 147 0
 245 009c 019B     		ldr	r3, [sp, #4]
 246 009e 0093     		str	r3, [sp]
 247              	.LBB26:
 248              	.LBB27:
 249              		.loc 2 164 0
 250 00a0 009B     		ldr	r3, [sp]
 251              	@ 164 "../../../os/common/ext/CMSIS/include/cmsis_gcc.h" 1
 252 00a2 83F30988 		MSR psp, r3
 253              	
 254              	@ 0 "" 2
 255              		.thumb
 256              	.LBE27:
 257              	.LBE26:
 258              		.loc 3 151 0
 259 00a6 FFF7FEFF 		bl	chSchIsPreemptionRequired
 260 00aa 0346     		mov	r3, r0
 261 00ac 002B     		cmp	r3, #0
 262 00ae 03D0     		beq	.L10
 263              		.loc 3 153 0
 264 00b0 019B     		ldr	r3, [sp, #4]
 265 00b2 064A     		ldr	r2, .L13+4
 266 00b4 9A61     		str	r2, [r3, #24]
 267              		.loc 3 163 0
 268 00b6 05E0     		b	.L7
 269              	.L10:
 270              		.loc 3 158 0
 271 00b8 019B     		ldr	r3, [sp, #4]
 272 00ba 054A     		ldr	r2, .L13+8
 273 00bc 9A61     		str	r2, [r3, #24]
 274              		.loc 3 163 0
 275 00be 01E0     		b	.L7
 276              	.L8:
 277              	.LBE23:
 278              		.loc 3 165 0
 279 00c0 FFF7B6FF 		bl	port_unlock_from_isr
 280              	.L7:
 281              		.loc 3 166 0
 282 00c4 02B0     		add	sp, sp, #8
ARM GAS  /tmp/cccsghHx.s 			page 6


 283              		.cfi_def_cfa_offset 8
 284              		@ sp needed
 285 00c6 10BD     		pop	{r4, pc}
 286              	.L14:
 287              		.align	2
 288              	.L13:
 289 00c8 00ED00E0 		.word	-536810240
 290 00cc 00000000 		.word	_port_switch_from_isr
 291 00d0 00000000 		.word	_port_exit_from_isr
 292              		.cfi_endproc
 293              	.LFE249:
 294              		.size	_port_irq_epilogue, .-_port_irq_epilogue
 295              	.Letext0:
 296              		.file 4 "/usr/include/newlib/machine/_default_types.h"
 297              		.file 5 "/usr/include/newlib/sys/_stdint.h"
 298              		.file 6 "../../../os/common/ports/ARMCMx/compilers/GCC/chtypes.h"
 299              		.file 7 "../../../os/rt/include/chsystypes.h"
 300              		.file 8 "../../../os/rt/include/chschd.h"
 301              		.file 9 "../../../os/common/ext/CMSIS/include/core_cm4.h"
 302              		.file 10 "../../../os/common/ports/ARMCMx/chcore.h"
 303              		.file 11 "../../../os/rt/include/chtm.h"
 304              		.file 12 "../../../os/rt/include/chsem.h"
 305              		.file 13 "../../../os/rt/include/chmtx.h"