ARM GAS  /tmp/cc6u7Fux.s 			page 1


   1              		.syntax unified
   2              		.cpu cortex-m4
   3              		.fpu softvfp
   4              		.eabi_attribute 20, 1
   5              		.eabi_attribute 21, 1
   6              		.eabi_attribute 23, 3
   7              		.eabi_attribute 24, 1
   8              		.eabi_attribute 25, 1
   9              		.eabi_attribute 26, 1
  10              		.eabi_attribute 30, 6
  11              		.eabi_attribute 34, 1
  12              		.eabi_attribute 18, 4
  13              		.thumb
  14              		.file	"chdynamic.c"
  15              		.text
  16              	.Ltext0:
  17              		.cfi_sections	.debug_frame
  18              		.align	2
  19              		.p2align 4,,15
  20              		.thumb
  21              		.thumb_func
  22              		.type	port_lock, %function
  23              	port_lock:
  24              	.LFB127:
  25              		.file 1 "../../../os/common/ports/ARMCMx/chcore_v7m.h"
  26              		.loc 1 594 0
  27              		.cfi_startproc
  28              		@ args = 0, pretend = 0, frame = 8
  29              		@ frame_needed = 0, uses_anonymous_args = 0
  30              		@ link register save eliminated.
  31 0000 82B0     		sub	sp, sp, #8
  32              		.cfi_def_cfa_offset 8
  33 0002 2023     		movs	r3, #32
  34 0004 0193     		str	r3, [sp, #4]
  35              	.LBB6:
  36              	.LBB7:
  37              		.file 2 "../../../os/common/ext/CMSIS/include/cmsis_gcc.h"
  38              		.loc 2 264 0
  39 0006 019B     		ldr	r3, [sp, #4]
  40              	@ 264 "../../../os/common/ext/CMSIS/include/cmsis_gcc.h" 1
  41 0008 83F31188 		MSR basepri, r3
  42              	@ 0 "" 2
  43              		.thumb
  44              	.LBE7:
  45              	.LBE6:
  46              		.loc 1 611 0
  47 000c 02B0     		add	sp, sp, #8
  48              		.cfi_def_cfa_offset 0
  49              		@ sp needed
  50 000e 7047     		bx	lr
  51              		.cfi_endproc
  52              	.LFE127:
  53              		.size	port_lock, .-port_lock
  54              		.align	2
  55              		.p2align 4,,15
  56              		.thumb
  57              		.thumb_func
ARM GAS  /tmp/cc6u7Fux.s 			page 2


  58              		.type	port_unlock, %function
  59              	port_unlock:
  60              	.LFB128:
  61              		.loc 1 618 0
  62              		.cfi_startproc
  63              		@ args = 0, pretend = 0, frame = 8
  64              		@ frame_needed = 0, uses_anonymous_args = 0
  65              		@ link register save eliminated.
  66 0010 82B0     		sub	sp, sp, #8
  67              		.cfi_def_cfa_offset 8
  68 0012 0023     		movs	r3, #0
  69 0014 0193     		str	r3, [sp, #4]
  70              	.LBB8:
  71              	.LBB9:
  72              		.loc 2 264 0
  73 0016 019B     		ldr	r3, [sp, #4]
  74              	@ 264 "../../../os/common/ext/CMSIS/include/cmsis_gcc.h" 1
  75 0018 83F31188 		MSR basepri, r3
  76              	@ 0 "" 2
  77              		.thumb
  78              	.LBE9:
  79              	.LBE8:
  80              		.loc 1 625 0
  81 001c 02B0     		add	sp, sp, #8
  82              		.cfi_def_cfa_offset 0
  83              		@ sp needed
  84 001e 7047     		bx	lr
  85              		.cfi_endproc
  86              	.LFE128:
  87              		.size	port_unlock, .-port_unlock
  88              		.align	2
  89              		.p2align 4,,15
  90              		.thumb
  91              		.thumb_func
  92              		.type	chSysLock, %function
  93              	chSysLock:
  94              	.LFB167:
  95              		.file 3 "../../../os/rt/include/chsys.h"
  96              		.loc 3 374 0
  97              		.cfi_startproc
  98              		@ args = 0, pretend = 0, frame = 0
  99              		@ frame_needed = 0, uses_anonymous_args = 0
 100 0020 08B5     		push	{r3, lr}
 101              		.cfi_def_cfa_offset 8
 102              		.cfi_offset 3, -8
 103              		.cfi_offset 14, -4
 104              		.loc 3 376 0
 105 0022 FFF7EDFF 		bl	port_lock
 106              		.loc 3 379 0
 107 0026 08BD     		pop	{r3, pc}
 108              		.cfi_endproc
 109              	.LFE167:
 110              		.size	chSysLock, .-chSysLock
 111              		.align	2
 112 0028 AFF30080 		.p2align 4,,15
 112      AFF30080 
 113              		.thumb
ARM GAS  /tmp/cc6u7Fux.s 			page 3


 114              		.thumb_func
 115              		.type	chSysUnlock, %function
 116              	chSysUnlock:
 117              	.LFB168:
 118              		.loc 3 386 0
 119              		.cfi_startproc
 120              		@ args = 0, pretend = 0, frame = 0
 121              		@ frame_needed = 0, uses_anonymous_args = 0
 122 0030 08B5     		push	{r3, lr}
 123              		.cfi_def_cfa_offset 8
 124              		.cfi_offset 3, -8
 125              		.cfi_offset 14, -4
 126              		.loc 3 399 0
 127 0032 FFF7EDFF 		bl	port_unlock
 128              		.loc 3 400 0
 129 0036 08BD     		pop	{r3, pc}
 130              		.cfi_endproc
 131              	.LFE168:
 132              		.size	chSysUnlock, .-chSysUnlock
 133              		.align	2
 134 0038 AFF30080 		.p2align 4,,15
 134      AFF30080 
 135              		.global	chThdCreateFromHeap
 136              		.thumb
 137              		.thumb_func
 138              		.type	chThdCreateFromHeap, %function
 139              	chThdCreateFromHeap:
 140              	.LFB248:
 141              		.file 4 "../../../os/rt/src/chdynamic.c"
 142              		.loc 4 84 0
 143              		.cfi_startproc
 144              		@ args = 8, pretend = 0, frame = 48
 145              		@ frame_needed = 0, uses_anonymous_args = 0
 146 0040 00B5     		push	{lr}
 147              		.cfi_def_cfa_offset 4
 148              		.cfi_offset 14, -4
 149 0042 8DB0     		sub	sp, sp, #52
 150              		.cfi_def_cfa_offset 56
 151 0044 0390     		str	r0, [sp, #12]
 152 0046 0291     		str	r1, [sp, #8]
 153 0048 0192     		str	r2, [sp, #4]
 154 004a 0093     		str	r3, [sp]
 155              		.loc 4 88 0
 156 004c 0398     		ldr	r0, [sp, #12]
 157 004e 0299     		ldr	r1, [sp, #8]
 158 0050 0822     		movs	r2, #8
 159 0052 FFF7FEFF 		bl	chHeapAllocAligned
 160 0056 0B90     		str	r0, [sp, #44]
 161              		.loc 4 89 0
 162 0058 0B9B     		ldr	r3, [sp, #44]
 163 005a 002B     		cmp	r3, #0
 164 005c 01D1     		bne	.L6
 165              		.loc 4 90 0
 166 005e 0023     		movs	r3, #0
 167 0060 1FE0     		b	.L8
 168              	.L6:
 169              		.loc 4 93 0
ARM GAS  /tmp/cc6u7Fux.s 			page 4


 170 0062 019B     		ldr	r3, [sp, #4]
 171 0064 0493     		str	r3, [sp, #16]
 172 0066 0B9B     		ldr	r3, [sp, #44]
 173 0068 0593     		str	r3, [sp, #20]
 174              		.loc 4 96 0
 175 006a 0B9A     		ldr	r2, [sp, #44]
 176 006c 029B     		ldr	r3, [sp, #8]
 177 006e 1344     		add	r3, r3, r2
 178              		.loc 4 93 0
 179 0070 0693     		str	r3, [sp, #24]
 180 0072 009B     		ldr	r3, [sp]
 181 0074 0793     		str	r3, [sp, #28]
 182 0076 0E9B     		ldr	r3, [sp, #56]
 183 0078 0893     		str	r3, [sp, #32]
 184 007a 0F9B     		ldr	r3, [sp, #60]
 185 007c 0993     		str	r3, [sp, #36]
 186              		.loc 4 108 0
 187 007e FFF7CFFF 		bl	chSysLock
 188              		.loc 4 109 0
 189 0082 04AB     		add	r3, sp, #16
 190 0084 1846     		mov	r0, r3
 191 0086 FFF7FEFF 		bl	chThdCreateSuspendedI
 192 008a 0A90     		str	r0, [sp, #40]
 193              		.loc 4 110 0
 194 008c 0A9B     		ldr	r3, [sp, #40]
 195 008e 0122     		movs	r2, #1
 196 0090 83F82120 		strb	r2, [r3, #33]
 197              		.loc 4 111 0
 198 0094 0A98     		ldr	r0, [sp, #40]
 199 0096 0021     		movs	r1, #0
 200 0098 FFF7FEFF 		bl	chSchWakeupS
 201              		.loc 4 112 0
 202 009c FFF7C8FF 		bl	chSysUnlock
 203              		.loc 4 114 0
 204 00a0 0A9B     		ldr	r3, [sp, #40]
 205              	.L8:
 206              		.loc 4 115 0 discriminator 1
 207 00a2 1846     		mov	r0, r3
 208 00a4 0DB0     		add	sp, sp, #52
 209              		.cfi_def_cfa_offset 4
 210              		@ sp needed
 211 00a6 5DF804FB 		ldr	pc, [sp], #4
 212              		.cfi_endproc
 213              	.LFE248:
 214              		.size	chThdCreateFromHeap, .-chThdCreateFromHeap
 215 00aa 00BF     		.align	2
 216 00ac AFF30080 		.p2align 4,,15
 217              		.global	chThdCreateFromMemoryPool
 218              		.thumb
 219              		.thumb_func
 220              		.type	chThdCreateFromMemoryPool, %function
 221              	chThdCreateFromMemoryPool:
 222              	.LFB249:
 223              		.loc 4 146 0
 224              		.cfi_startproc
 225              		@ args = 4, pretend = 0, frame = 48
 226              		@ frame_needed = 0, uses_anonymous_args = 0
ARM GAS  /tmp/cc6u7Fux.s 			page 5


 227 00b0 00B5     		push	{lr}
 228              		.cfi_def_cfa_offset 4
 229              		.cfi_offset 14, -4
 230 00b2 8DB0     		sub	sp, sp, #52
 231              		.cfi_def_cfa_offset 56
 232 00b4 0390     		str	r0, [sp, #12]
 233 00b6 0291     		str	r1, [sp, #8]
 234 00b8 0192     		str	r2, [sp, #4]
 235 00ba 0093     		str	r3, [sp]
 236              		.loc 4 152 0
 237 00bc 0398     		ldr	r0, [sp, #12]
 238 00be FFF7FEFF 		bl	chPoolAlloc
 239 00c2 0B90     		str	r0, [sp, #44]
 240              		.loc 4 153 0
 241 00c4 0B9B     		ldr	r3, [sp, #44]
 242 00c6 002B     		cmp	r3, #0
 243 00c8 01D1     		bne	.L10
 244              		.loc 4 154 0
 245 00ca 0023     		movs	r3, #0
 246 00cc 23E0     		b	.L12
 247              	.L10:
 248              		.loc 4 157 0
 249 00ce 029B     		ldr	r3, [sp, #8]
 250 00d0 0493     		str	r3, [sp, #16]
 251 00d2 0B9B     		ldr	r3, [sp, #44]
 252 00d4 0593     		str	r3, [sp, #20]
 253              		.loc 4 160 0
 254 00d6 039B     		ldr	r3, [sp, #12]
 255 00d8 5B68     		ldr	r3, [r3, #4]
 256 00da 0B9A     		ldr	r2, [sp, #44]
 257 00dc 1344     		add	r3, r3, r2
 258              		.loc 4 157 0
 259 00de 0693     		str	r3, [sp, #24]
 260 00e0 019B     		ldr	r3, [sp, #4]
 261 00e2 0793     		str	r3, [sp, #28]
 262 00e4 009B     		ldr	r3, [sp]
 263 00e6 0893     		str	r3, [sp, #32]
 264 00e8 0E9B     		ldr	r3, [sp, #56]
 265 00ea 0993     		str	r3, [sp, #36]
 266              		.loc 4 172 0
 267 00ec FFF798FF 		bl	chSysLock
 268              		.loc 4 173 0
 269 00f0 04AB     		add	r3, sp, #16
 270 00f2 1846     		mov	r0, r3
 271 00f4 FFF7FEFF 		bl	chThdCreateSuspendedI
 272 00f8 0A90     		str	r0, [sp, #40]
 273              		.loc 4 174 0
 274 00fa 0A9B     		ldr	r3, [sp, #40]
 275 00fc 0222     		movs	r2, #2
 276 00fe 83F82120 		strb	r2, [r3, #33]
 277              		.loc 4 175 0
 278 0102 0A9B     		ldr	r3, [sp, #40]
 279 0104 039A     		ldr	r2, [sp, #12]
 280 0106 1A64     		str	r2, [r3, #64]
 281              		.loc 4 176 0
 282 0108 0A98     		ldr	r0, [sp, #40]
 283 010a 0021     		movs	r1, #0
ARM GAS  /tmp/cc6u7Fux.s 			page 6


 284 010c FFF7FEFF 		bl	chSchWakeupS
 285              		.loc 4 177 0
 286 0110 FFF78EFF 		bl	chSysUnlock
 287              		.loc 4 179 0
 288 0114 0A9B     		ldr	r3, [sp, #40]
 289              	.L12:
 290              		.loc 4 180 0 discriminator 1
 291 0116 1846     		mov	r0, r3
 292 0118 0DB0     		add	sp, sp, #52
 293              		.cfi_def_cfa_offset 4
 294              		@ sp needed
 295 011a 5DF804FB 		ldr	pc, [sp], #4
 296              		.cfi_endproc
 297              	.LFE249:
 298              		.size	chThdCreateFromMemoryPool, .-chThdCreateFromMemoryPool
 299              	.Letext0:
 300              		.file 5 "/usr/lib/gcc/arm-none-eabi/4.9.3/include/stddef.h"
 301              		.file 6 "/usr/include/newlib/machine/_default_types.h"
 302              		.file 7 "/usr/include/newlib/sys/_stdint.h"
 303              		.file 8 "../../../os/common/ports/ARMCMx/compilers/GCC/chtypes.h"
 304              		.file 9 "../../../os/rt/include/chsystypes.h"
 305              		.file 10 "../../../os/rt/include/chschd.h"
 306              		.file 11 "../../../os/common/ports/ARMCMx/chcore.h"
 307              		.file 12 "../../../os/rt/include/chtm.h"
 308              		.file 13 "../../../os/rt/include/chsem.h"
 309              		.file 14 "../../../os/rt/include/chmtx.h"
 310              		.file 15 "../../../os/rt/include/chthreads.h"
 311              		.file 16 "../../../os/common/oslib/include/chmemcore.h"
 312              		.file 17 "../../../os/common/oslib/include/chheap.h"
 313              		.file 18 "../../../os/common/oslib/include/chmempools.h"
 314              		.file 19 "../../../os/common/ext/CMSIS/include/core_cm4.h"
 315 011e 00BF     		.section	.debug_info,"",%progbits
 316              	.Ldebug_info0:
 317 0000 F0090000 		.4byte	0x9f0
 318 0004 0400     		.2byte	0x4
 319 0006 00000000 		.4byte	.Ldebug_abbrev0
 320 000a 04       		.byte	0x4
 321 000b 01       		.uleb128 0x1
 322 000c 60040000 		.4byte	.LASF120
 323 0010 01       		.byte	0x1
 324 0011 7D050000 		.4byte	.LASF121
 325 0015 12020000 		.4byte	.LASF122
 326 0019 00000000 		.4byte	.Ltext0
 327 001d 1E010000 		.4byte	.Letext0-.Ltext0
 328 0021 00000000 		.4byte	.Ldebug_line0
 329 0025 02       		.uleb128 0x2
 330 0026 04       		.byte	0x4
 331 0027 05       		.byte	0x5
 332 0028 696E7400 		.ascii	"int\000"
 333 002c 03       		.uleb128 0x3
 334 002d 15000000 		.4byte	.LASF2
 335 0031 05       		.byte	0x5
 336 0032 D4       		.byte	0xd4
 337 0033 37000000 		.4byte	0x37
 338 0037 04       		.uleb128 0x4
 339 0038 04       		.byte	0x4
 340 0039 07       		.byte	0x7
ARM GAS  /tmp/cc6u7Fux.s 			page 7


 341 003a F8010000 		.4byte	.LASF0
 342 003e 04       		.uleb128 0x4
 343 003f 01       		.byte	0x1
 344 0040 06       		.byte	0x6
 345 0041 26010000 		.4byte	.LASF1
 346 0045 03       		.uleb128 0x3
 347 0046 3D000000 		.4byte	.LASF3
 348 004a 06       		.byte	0x6
 349 004b 1D       		.byte	0x1d
 350 004c 50000000 		.4byte	0x50
 351 0050 04       		.uleb128 0x4
 352 0051 01       		.byte	0x1
 353 0052 08       		.byte	0x8
 354 0053 B4030000 		.4byte	.LASF4
 355 0057 04       		.uleb128 0x4
 356 0058 02       		.byte	0x2
 357 0059 05       		.byte	0x5
 358 005a CE030000 		.4byte	.LASF5
 359 005e 04       		.uleb128 0x4
 360 005f 02       		.byte	0x2
 361 0060 07       		.byte	0x7
 362 0061 6D020000 		.4byte	.LASF6
 363 0065 03       		.uleb128 0x3
 364 0066 CC020000 		.4byte	.LASF7
 365 006a 06       		.byte	0x6
 366 006b 3F       		.byte	0x3f
 367 006c 70000000 		.4byte	0x70
 368 0070 04       		.uleb128 0x4
 369 0071 04       		.byte	0x4
 370 0072 05       		.byte	0x5
 371 0073 59010000 		.4byte	.LASF8
 372 0077 03       		.uleb128 0x3
 373 0078 B5010000 		.4byte	.LASF9
 374 007c 06       		.byte	0x6
 375 007d 41       		.byte	0x41
 376 007e 82000000 		.4byte	0x82
 377 0082 04       		.uleb128 0x4
 378 0083 04       		.byte	0x4
 379 0084 07       		.byte	0x7
 380 0085 4E040000 		.4byte	.LASF10
 381 0089 04       		.uleb128 0x4
 382 008a 08       		.byte	0x8
 383 008b 05       		.byte	0x5
 384 008c 18010000 		.4byte	.LASF11
 385 0090 03       		.uleb128 0x3
 386 0091 61030000 		.4byte	.LASF12
 387 0095 06       		.byte	0x6
 388 0096 5B       		.byte	0x5b
 389 0097 9B000000 		.4byte	0x9b
 390 009b 04       		.uleb128 0x4
 391 009c 08       		.byte	0x8
 392 009d 07       		.byte	0x7
 393 009e A6000000 		.4byte	.LASF13
 394 00a2 03       		.uleb128 0x3
 395 00a3 68050000 		.4byte	.LASF14
 396 00a7 07       		.byte	0x7
 397 00a8 14       		.byte	0x14
ARM GAS  /tmp/cc6u7Fux.s 			page 8


 398 00a9 45000000 		.4byte	0x45
 399 00ad 03       		.uleb128 0x3
 400 00ae AC030000 		.4byte	.LASF15
 401 00b2 07       		.byte	0x7
 402 00b3 1F       		.byte	0x1f
 403 00b4 65000000 		.4byte	0x65
 404 00b8 03       		.uleb128 0x3
 405 00b9 23040000 		.4byte	.LASF16
 406 00bd 07       		.byte	0x7
 407 00be 20       		.byte	0x20
 408 00bf 77000000 		.4byte	0x77
 409 00c3 03       		.uleb128 0x3
 410 00c4 34000000 		.4byte	.LASF17
 411 00c8 07       		.byte	0x7
 412 00c9 26       		.byte	0x26
 413 00ca 90000000 		.4byte	0x90
 414 00ce 03       		.uleb128 0x3
 415 00cf 32050000 		.4byte	.LASF18
 416 00d3 08       		.byte	0x8
 417 00d4 39       		.byte	0x39
 418 00d5 B8000000 		.4byte	0xb8
 419 00d9 03       		.uleb128 0x3
 420 00da AA020000 		.4byte	.LASF19
 421 00de 08       		.byte	0x8
 422 00df 3C       		.byte	0x3c
 423 00e0 A2000000 		.4byte	0xa2
 424 00e4 03       		.uleb128 0x3
 425 00e5 76010000 		.4byte	.LASF20
 426 00e9 08       		.byte	0x8
 427 00ea 3D       		.byte	0x3d
 428 00eb A2000000 		.4byte	0xa2
 429 00ef 03       		.uleb128 0x3
 430 00f0 71030000 		.4byte	.LASF21
 431 00f4 08       		.byte	0x8
 432 00f5 3E       		.byte	0x3e
 433 00f6 A2000000 		.4byte	0xa2
 434 00fa 03       		.uleb128 0x3
 435 00fb 8E030000 		.4byte	.LASF22
 436 00ff 08       		.byte	0x8
 437 0100 40       		.byte	0x40
 438 0101 B8000000 		.4byte	0xb8
 439 0105 03       		.uleb128 0x3
 440 0106 8F020000 		.4byte	.LASF23
 441 010a 08       		.byte	0x8
 442 010b 41       		.byte	0x41
 443 010c AD000000 		.4byte	0xad
 444 0110 03       		.uleb128 0x3
 445 0111 C0020000 		.4byte	.LASF24
 446 0115 08       		.byte	0x8
 447 0116 43       		.byte	0x43
 448 0117 B8000000 		.4byte	0xb8
 449 011b 03       		.uleb128 0x3
 450 011c F2010000 		.4byte	.LASF25
 451 0120 08       		.byte	0x8
 452 0121 45       		.byte	0x45
 453 0122 AD000000 		.4byte	0xad
 454 0126 03       		.uleb128 0x3
ARM GAS  /tmp/cc6u7Fux.s 			page 9


 455 0127 F7040000 		.4byte	.LASF26
 456 012b 09       		.byte	0x9
 457 012c 33       		.byte	0x33
 458 012d B8000000 		.4byte	0xb8
 459 0131 03       		.uleb128 0x3
 460 0132 EE040000 		.4byte	.LASF27
 461 0136 09       		.byte	0x9
 462 0137 3F       		.byte	0x3f
 463 0138 3C010000 		.4byte	0x13c
 464 013c 05       		.uleb128 0x5
 465 013d 80020000 		.4byte	.LASF45
 466 0141 44       		.byte	0x44
 467 0142 0A       		.byte	0xa
 468 0143 9A       		.byte	0x9a
 469 0144 1A020000 		.4byte	0x21a
 470 0148 06       		.uleb128 0x6
 471 0149 61020000 		.4byte	.LASF28
 472 014d 0A       		.byte	0xa
 473 014e 9B       		.byte	0x9b
 474 014f 4F020000 		.4byte	0x24f
 475 0153 00       		.byte	0
 476 0154 06       		.uleb128 0x6
 477 0155 54030000 		.4byte	.LASF29
 478 0159 0A       		.byte	0xa
 479 015a 9C       		.byte	0x9c
 480 015b FA000000 		.4byte	0xfa
 481 015f 08       		.byte	0x8
 482 0160 07       		.uleb128 0x7
 483 0161 63747800 		.ascii	"ctx\000"
 484 0165 0A       		.byte	0xa
 485 0166 9D       		.byte	0x9d
 486 0167 47040000 		.4byte	0x447
 487 016b 0C       		.byte	0xc
 488 016c 06       		.uleb128 0x6
 489 016d E1020000 		.4byte	.LASF30
 490 0171 0A       		.byte	0xa
 491 0172 9F       		.byte	0x9f
 492 0173 25020000 		.4byte	0x225
 493 0177 10       		.byte	0x10
 494 0178 06       		.uleb128 0x6
 495 0179 E8040000 		.4byte	.LASF31
 496 017d 0A       		.byte	0xa
 497 017e A0       		.byte	0xa0
 498 017f 25020000 		.4byte	0x225
 499 0183 14       		.byte	0x14
 500 0184 06       		.uleb128 0x6
 501 0185 8A020000 		.4byte	.LASF32
 502 0189 0A       		.byte	0xa
 503 018a A7       		.byte	0xa7
 504 018b CC050000 		.4byte	0x5cc
 505 018f 18       		.byte	0x18
 506 0190 06       		.uleb128 0x6
 507 0191 A0010000 		.4byte	.LASF33
 508 0195 0A       		.byte	0xa
 509 0196 B0       		.byte	0xb0
 510 0197 DE050000 		.4byte	0x5de
 511 019b 1C       		.byte	0x1c
ARM GAS  /tmp/cc6u7Fux.s 			page 10


 512 019c 06       		.uleb128 0x6
 513 019d 53010000 		.4byte	.LASF34
 514 01a1 0A       		.byte	0xa
 515 01a2 B5       		.byte	0xb5
 516 01a3 E4000000 		.4byte	0xe4
 517 01a7 20       		.byte	0x20
 518 01a8 06       		.uleb128 0x6
 519 01a9 70050000 		.4byte	.LASF35
 520 01ad 0A       		.byte	0xa
 521 01ae B9       		.byte	0xb9
 522 01af D9000000 		.4byte	0xd9
 523 01b3 21       		.byte	0x21
 524 01b4 06       		.uleb128 0x6
 525 01b5 79030000 		.4byte	.LASF36
 526 01b9 0A       		.byte	0xa
 527 01ba BE       		.byte	0xbe
 528 01bb EF000000 		.4byte	0xef
 529 01bf 22       		.byte	0x22
 530 01c0 08       		.uleb128 0x8
 531 01c1 7500     		.ascii	"u\000"
 532 01c3 0A       		.byte	0xa
 533 01c4 0F01     		.2byte	0x10f
 534 01c6 01050000 		.4byte	0x501
 535 01ca 24       		.byte	0x24
 536 01cb 09       		.uleb128 0x9
 537 01cc C9010000 		.4byte	.LASF37
 538 01d0 0A       		.byte	0xa
 539 01d1 1401     		.2byte	0x114
 540 01d3 2B020000 		.4byte	0x22b
 541 01d7 28       		.byte	0x28
 542 01d8 09       		.uleb128 0x9
 543 01d9 4A010000 		.4byte	.LASF38
 544 01dd 0A       		.byte	0xa
 545 01de 1A01     		.2byte	0x11a
 546 01e0 4F020000 		.4byte	0x24f
 547 01e4 2C       		.byte	0x2c
 548 01e5 09       		.uleb128 0x9
 549 01e6 95020000 		.4byte	.LASF39
 550 01ea 0A       		.byte	0xa
 551 01eb 2001     		.2byte	0x120
 552 01ed 10010000 		.4byte	0x110
 553 01f1 34       		.byte	0x34
 554 01f2 09       		.uleb128 0x9
 555 01f3 B7050000 		.4byte	.LASF40
 556 01f7 0A       		.byte	0xa
 557 01f8 2701     		.2byte	0x127
 558 01fa C6050000 		.4byte	0x5c6
 559 01fe 38       		.byte	0x38
 560 01ff 09       		.uleb128 0x9
 561 0200 E7020000 		.4byte	.LASF41
 562 0204 0A       		.byte	0xa
 563 0205 2B01     		.2byte	0x12b
 564 0207 FA000000 		.4byte	0xfa
 565 020b 3C       		.byte	0x3c
 566 020c 09       		.uleb128 0x9
 567 020d 67020000 		.4byte	.LASF42
 568 0211 0A       		.byte	0xa
ARM GAS  /tmp/cc6u7Fux.s 			page 11


 569 0212 3201     		.2byte	0x132
 570 0214 02030000 		.4byte	0x302
 571 0218 40       		.byte	0x40
 572 0219 00       		.byte	0
 573 021a 03       		.uleb128 0x3
 574 021b F9020000 		.4byte	.LASF43
 575 021f 09       		.byte	0x9
 576 0220 44       		.byte	0x44
 577 0221 25020000 		.4byte	0x225
 578 0225 0A       		.uleb128 0xa
 579 0226 04       		.byte	0x4
 580 0227 31010000 		.4byte	0x131
 581 022b 03       		.uleb128 0x3
 582 022c 9C050000 		.4byte	.LASF44
 583 0230 09       		.byte	0x9
 584 0231 49       		.byte	0x49
 585 0232 36020000 		.4byte	0x236
 586 0236 05       		.uleb128 0x5
 587 0237 33040000 		.4byte	.LASF46
 588 023b 04       		.byte	0x4
 589 023c 0A       		.byte	0xa
 590 023d 88       		.byte	0x88
 591 023e 4F020000 		.4byte	0x24f
 592 0242 06       		.uleb128 0x6
 593 0243 1C000000 		.4byte	.LASF47
 594 0247 0A       		.byte	0xa
 595 0248 89       		.byte	0x89
 596 0249 25020000 		.4byte	0x225
 597 024d 00       		.byte	0
 598 024e 00       		.byte	0
 599 024f 03       		.uleb128 0x3
 600 0250 46050000 		.4byte	.LASF48
 601 0254 09       		.byte	0x9
 602 0255 50       		.byte	0x50
 603 0256 5A020000 		.4byte	0x25a
 604 025a 05       		.uleb128 0x5
 605 025b 07010000 		.4byte	.LASF49
 606 025f 08       		.byte	0x8
 607 0260 0A       		.byte	0xa
 608 0261 8F       		.byte	0x8f
 609 0262 7F020000 		.4byte	0x27f
 610 0266 06       		.uleb128 0x6
 611 0267 1C000000 		.4byte	.LASF47
 612 026b 0A       		.byte	0xa
 613 026c 90       		.byte	0x90
 614 026d 25020000 		.4byte	0x225
 615 0271 00       		.byte	0
 616 0272 06       		.uleb128 0x6
 617 0273 47000000 		.4byte	.LASF50
 618 0277 0A       		.byte	0xa
 619 0278 91       		.byte	0x91
 620 0279 25020000 		.4byte	0x225
 621 027d 04       		.byte	0x4
 622 027e 00       		.byte	0
 623 027f 03       		.uleb128 0x3
 624 0280 08000000 		.4byte	.LASF51
 625 0284 09       		.byte	0x9
ARM GAS  /tmp/cc6u7Fux.s 			page 12


 626 0285 57       		.byte	0x57
 627 0286 8A020000 		.4byte	0x28a
 628 028a 0B       		.uleb128 0xb
 629 028b B2020000 		.4byte	.LASF52
 630 028f 1C       		.byte	0x1c
 631 0290 0A       		.byte	0xa
 632 0291 6A01     		.2byte	0x16a
 633 0293 E6020000 		.4byte	0x2e6
 634 0297 09       		.uleb128 0x9
 635 0298 61020000 		.4byte	.LASF28
 636 029c 0A       		.byte	0xa
 637 029d 6B01     		.2byte	0x16b
 638 029f 4F020000 		.4byte	0x24f
 639 02a3 00       		.byte	0
 640 02a4 09       		.uleb128 0x9
 641 02a5 54030000 		.4byte	.LASF29
 642 02a9 0A       		.byte	0xa
 643 02aa 6C01     		.2byte	0x16c
 644 02ac FA000000 		.4byte	0xfa
 645 02b0 08       		.byte	0x8
 646 02b1 08       		.uleb128 0x8
 647 02b2 63747800 		.ascii	"ctx\000"
 648 02b6 0A       		.byte	0xa
 649 02b7 6E01     		.2byte	0x16e
 650 02b9 47040000 		.4byte	0x447
 651 02bd 0C       		.byte	0xc
 652 02be 09       		.uleb128 0x9
 653 02bf E1020000 		.4byte	.LASF30
 654 02c3 0A       		.byte	0xa
 655 02c4 7101     		.2byte	0x171
 656 02c6 25020000 		.4byte	0x225
 657 02ca 10       		.byte	0x10
 658 02cb 09       		.uleb128 0x9
 659 02cc E8040000 		.4byte	.LASF31
 660 02d0 0A       		.byte	0xa
 661 02d1 7201     		.2byte	0x172
 662 02d3 25020000 		.4byte	0x225
 663 02d7 14       		.byte	0x14
 664 02d8 09       		.uleb128 0x9
 665 02d9 59030000 		.4byte	.LASF53
 666 02dd 0A       		.byte	0xa
 667 02de 7501     		.2byte	0x175
 668 02e0 25020000 		.4byte	0x225
 669 02e4 18       		.byte	0x18
 670 02e5 00       		.byte	0
 671 02e6 03       		.uleb128 0x3
 672 02e7 01050000 		.4byte	.LASF54
 673 02eb 09       		.byte	0x9
 674 02ec 5C       		.byte	0x5c
 675 02ed F1020000 		.4byte	0x2f1
 676 02f1 0A       		.uleb128 0xa
 677 02f2 04       		.byte	0x4
 678 02f3 F7020000 		.4byte	0x2f7
 679 02f7 0C       		.uleb128 0xc
 680 02f8 02030000 		.4byte	0x302
 681 02fc 0D       		.uleb128 0xd
 682 02fd 02030000 		.4byte	0x302
ARM GAS  /tmp/cc6u7Fux.s 			page 13


 683 0301 00       		.byte	0
 684 0302 0E       		.uleb128 0xe
 685 0303 04       		.byte	0x4
 686 0304 03       		.uleb128 0x3
 687 0305 7E030000 		.4byte	.LASF55
 688 0309 09       		.byte	0x9
 689 030a 61       		.byte	0x61
 690 030b 0F030000 		.4byte	0x30f
 691 030f 0B       		.uleb128 0xb
 692 0310 05040000 		.4byte	.LASF56
 693 0314 14       		.byte	0x14
 694 0315 0A       		.byte	0xa
 695 0316 4501     		.2byte	0x145
 696 0318 5E030000 		.4byte	0x35e
 697 031c 09       		.uleb128 0x9
 698 031d 1C000000 		.4byte	.LASF47
 699 0321 0A       		.byte	0xa
 700 0322 4601     		.2byte	0x146
 701 0324 E4050000 		.4byte	0x5e4
 702 0328 00       		.byte	0
 703 0329 09       		.uleb128 0x9
 704 032a 47000000 		.4byte	.LASF50
 705 032e 0A       		.byte	0xa
 706 032f 4701     		.2byte	0x147
 707 0331 E4050000 		.4byte	0x5e4
 708 0335 04       		.byte	0x4
 709 0336 09       		.uleb128 0x9
 710 0337 21000000 		.4byte	.LASF57
 711 033b 0A       		.byte	0xa
 712 033c 4801     		.2byte	0x148
 713 033e 26010000 		.4byte	0x126
 714 0342 08       		.byte	0x8
 715 0343 09       		.uleb128 0x9
 716 0344 7F010000 		.4byte	.LASF58
 717 0348 0A       		.byte	0xa
 718 0349 4901     		.2byte	0x149
 719 034b E6020000 		.4byte	0x2e6
 720 034f 0C       		.byte	0xc
 721 0350 08       		.uleb128 0x8
 722 0351 70617200 		.ascii	"par\000"
 723 0355 0A       		.byte	0xa
 724 0356 4B01     		.2byte	0x14b
 725 0358 02030000 		.4byte	0x302
 726 035c 10       		.byte	0x10
 727 035d 00       		.byte	0
 728 035e 03       		.uleb128 0x3
 729 035f D9000000 		.4byte	.LASF59
 730 0363 09       		.byte	0x9
 731 0364 66       		.byte	0x66
 732 0365 69030000 		.4byte	0x369
 733 0369 0B       		.uleb128 0xb
 734 036a 0C030000 		.4byte	.LASF60
 735 036e 10       		.byte	0x10
 736 036f 0A       		.byte	0xa
 737 0370 5501     		.2byte	0x155
 738 0372 AB030000 		.4byte	0x3ab
 739 0376 09       		.uleb128 0x9
ARM GAS  /tmp/cc6u7Fux.s 			page 14


 740 0377 1C000000 		.4byte	.LASF47
 741 037b 0A       		.byte	0xa
 742 037c 5601     		.2byte	0x156
 743 037e E4050000 		.4byte	0x5e4
 744 0382 00       		.byte	0
 745 0383 09       		.uleb128 0x9
 746 0384 47000000 		.4byte	.LASF50
 747 0388 0A       		.byte	0xa
 748 0389 5801     		.2byte	0x158
 749 038b E4050000 		.4byte	0x5e4
 750 038f 04       		.byte	0x4
 751 0390 09       		.uleb128 0x9
 752 0391 21000000 		.4byte	.LASF57
 753 0395 0A       		.byte	0xa
 754 0396 5A01     		.2byte	0x15a
 755 0398 26010000 		.4byte	0x126
 756 039c 08       		.byte	0x8
 757 039d 09       		.uleb128 0x9
 758 039e D8030000 		.4byte	.LASF61
 759 03a2 0A       		.byte	0xa
 760 03a3 6201     		.2byte	0x162
 761 03a5 26010000 		.4byte	0x126
 762 03a9 0C       		.byte	0xc
 763 03aa 00       		.byte	0
 764 03ab 03       		.uleb128 0x3
 765 03ac 5E000000 		.4byte	.LASF62
 766 03b0 09       		.byte	0x9
 767 03b1 6B       		.byte	0x6b
 768 03b2 B6030000 		.4byte	0x3b6
 769 03b6 0B       		.uleb128 0xb
 770 03b7 96030000 		.4byte	.LASF63
 771 03bb 04       		.byte	0x4
 772 03bc 0A       		.byte	0xa
 773 03bd 7C01     		.2byte	0x17c
 774 03bf D1030000 		.4byte	0x3d1
 775 03c3 09       		.uleb128 0x9
 776 03c4 18050000 		.4byte	.LASF64
 777 03c8 0A       		.byte	0xa
 778 03c9 8401     		.2byte	0x184
 779 03cb EA050000 		.4byte	0x5ea
 780 03cf 00       		.byte	0
 781 03d0 00       		.byte	0
 782 03d1 03       		.uleb128 0x3
 783 03d2 9E020000 		.4byte	.LASF65
 784 03d6 09       		.byte	0x9
 785 03d7 70       		.byte	0x70
 786 03d8 DC030000 		.4byte	0x3dc
 787 03dc 0B       		.uleb128 0xb
 788 03dd E8030000 		.4byte	.LASF66
 789 03e1 78       		.byte	0x78
 790 03e2 0A       		.byte	0xa
 791 03e3 9C01     		.2byte	0x19c
 792 03e5 2A040000 		.4byte	0x42a
 793 03e9 09       		.uleb128 0x9
 794 03ea 62050000 		.4byte	.LASF67
 795 03ee 0A       		.byte	0xa
 796 03ef A001     		.2byte	0x1a0
ARM GAS  /tmp/cc6u7Fux.s 			page 15


 797 03f1 7F020000 		.4byte	0x27f
 798 03f5 00       		.byte	0
 799 03f6 09       		.uleb128 0x9
 800 03f7 37010000 		.4byte	.LASF68
 801 03fb 0A       		.byte	0xa
 802 03fc A401     		.2byte	0x1a4
 803 03fe 5E030000 		.4byte	0x35e
 804 0402 1C       		.byte	0x1c
 805 0403 08       		.uleb128 0x8
 806 0404 64626700 		.ascii	"dbg\000"
 807 0408 0A       		.byte	0xa
 808 0409 A801     		.2byte	0x1a8
 809 040b AB030000 		.4byte	0x3ab
 810 040f 2C       		.byte	0x2c
 811 0410 09       		.uleb128 0x9
 812 0411 C6000000 		.4byte	.LASF69
 813 0415 0A       		.byte	0xa
 814 0416 AC01     		.2byte	0x1ac
 815 0418 31010000 		.4byte	0x131
 816 041c 30       		.byte	0x30
 817 041d 08       		.uleb128 0x8
 818 041e 746D00   		.ascii	"tm\000"
 819 0421 0A       		.byte	0xa
 820 0422 B101     		.2byte	0x1b1
 821 0424 F6040000 		.4byte	0x4f6
 822 0428 74       		.byte	0x74
 823 0429 00       		.byte	0
 824 042a 04       		.uleb128 0x4
 825 042b 04       		.byte	0x4
 826 042c 07       		.byte	0x7
 827 042d F0020000 		.4byte	.LASF70
 828 0431 03       		.uleb128 0x3
 829 0432 C0010000 		.4byte	.LASF71
 830 0436 0B       		.byte	0xb
 831 0437 65       		.byte	0x65
 832 0438 02030000 		.4byte	0x302
 833 043c 03       		.uleb128 0x3
 834 043d D6020000 		.4byte	.LASF72
 835 0441 0B       		.byte	0xb
 836 0442 6D       		.byte	0x6d
 837 0443 C3000000 		.4byte	0xc3
 838 0447 05       		.uleb128 0x5
 839 0448 E5010000 		.4byte	.LASF73
 840 044c 04       		.byte	0x4
 841 044d 0B       		.byte	0xb
 842 044e 89       		.byte	0x89
 843 044f 5F040000 		.4byte	0x45f
 844 0453 07       		.uleb128 0x7
 845 0454 737000   		.ascii	"sp\000"
 846 0457 0B       		.byte	0xb
 847 0458 8A       		.byte	0x8a
 848 0459 DB040000 		.4byte	0x4db
 849 045d 00       		.byte	0
 850 045e 00       		.byte	0
 851 045f 0B       		.uleb128 0xb
 852 0460 4C000000 		.4byte	.LASF74
 853 0464 24       		.byte	0x24
ARM GAS  /tmp/cc6u7Fux.s 			page 16


 854 0465 01       		.byte	0x1
 855 0466 5901     		.2byte	0x159
 856 0468 DB040000 		.4byte	0x4db
 857 046c 08       		.uleb128 0x8
 858 046d 723400   		.ascii	"r4\000"
 859 0470 01       		.byte	0x1
 860 0471 6C01     		.2byte	0x16c
 861 0473 31040000 		.4byte	0x431
 862 0477 00       		.byte	0
 863 0478 08       		.uleb128 0x8
 864 0479 723500   		.ascii	"r5\000"
 865 047c 01       		.byte	0x1
 866 047d 6D01     		.2byte	0x16d
 867 047f 31040000 		.4byte	0x431
 868 0483 04       		.byte	0x4
 869 0484 08       		.uleb128 0x8
 870 0485 723600   		.ascii	"r6\000"
 871 0488 01       		.byte	0x1
 872 0489 6E01     		.2byte	0x16e
 873 048b 31040000 		.4byte	0x431
 874 048f 08       		.byte	0x8
 875 0490 08       		.uleb128 0x8
 876 0491 723700   		.ascii	"r7\000"
 877 0494 01       		.byte	0x1
 878 0495 6F01     		.2byte	0x16f
 879 0497 31040000 		.4byte	0x431
 880 049b 0C       		.byte	0xc
 881 049c 08       		.uleb128 0x8
 882 049d 723800   		.ascii	"r8\000"
 883 04a0 01       		.byte	0x1
 884 04a1 7001     		.2byte	0x170
 885 04a3 31040000 		.4byte	0x431
 886 04a7 10       		.byte	0x10
 887 04a8 08       		.uleb128 0x8
 888 04a9 723900   		.ascii	"r9\000"
 889 04ac 01       		.byte	0x1
 890 04ad 7101     		.2byte	0x171
 891 04af 31040000 		.4byte	0x431
 892 04b3 14       		.byte	0x14
 893 04b4 08       		.uleb128 0x8
 894 04b5 72313000 		.ascii	"r10\000"
 895 04b9 01       		.byte	0x1
 896 04ba 7201     		.2byte	0x172
 897 04bc 31040000 		.4byte	0x431
 898 04c0 18       		.byte	0x18
 899 04c1 08       		.uleb128 0x8
 900 04c2 72313100 		.ascii	"r11\000"
 901 04c6 01       		.byte	0x1
 902 04c7 7301     		.2byte	0x173
 903 04c9 31040000 		.4byte	0x431
 904 04cd 1C       		.byte	0x1c
 905 04ce 08       		.uleb128 0x8
 906 04cf 6C7200   		.ascii	"lr\000"
 907 04d2 01       		.byte	0x1
 908 04d3 7401     		.2byte	0x174
 909 04d5 31040000 		.4byte	0x431
 910 04d9 20       		.byte	0x20
ARM GAS  /tmp/cc6u7Fux.s 			page 17


 911 04da 00       		.byte	0
 912 04db 0A       		.uleb128 0xa
 913 04dc 04       		.byte	0x4
 914 04dd 5F040000 		.4byte	0x45f
 915 04e1 0F       		.uleb128 0xf
 916 04e2 04       		.byte	0x4
 917 04e3 0C       		.byte	0xc
 918 04e4 38       		.byte	0x38
 919 04e5 F6040000 		.4byte	0x4f6
 920 04e9 06       		.uleb128 0x6
 921 04ea 22050000 		.4byte	.LASF75
 922 04ee 0C       		.byte	0xc
 923 04ef 3C       		.byte	0x3c
 924 04f0 CE000000 		.4byte	0xce
 925 04f4 00       		.byte	0
 926 04f5 00       		.byte	0
 927 04f6 03       		.uleb128 0x3
 928 04f7 43030000 		.4byte	.LASF76
 929 04fb 0C       		.byte	0xc
 930 04fc 3D       		.byte	0x3d
 931 04fd E1040000 		.4byte	0x4e1
 932 0501 10       		.uleb128 0x10
 933 0502 04       		.byte	0x4
 934 0503 0A       		.byte	0xa
 935 0504 D2       		.byte	0xd2
 936 0505 64050000 		.4byte	0x564
 937 0509 11       		.uleb128 0x11
 938 050a 27000000 		.4byte	.LASF77
 939 050e 0A       		.byte	0xa
 940 050f D9       		.byte	0xd9
 941 0510 05010000 		.4byte	0x105
 942 0514 11       		.uleb128 0x11
 943 0515 BD000000 		.4byte	.LASF78
 944 0519 0A       		.byte	0xa
 945 051a E0       		.byte	0xe0
 946 051b 05010000 		.4byte	0x105
 947 051f 11       		.uleb128 0x11
 948 0520 76050000 		.4byte	.LASF79
 949 0524 0A       		.byte	0xa
 950 0525 E7       		.byte	0xe7
 951 0526 02030000 		.4byte	0x302
 952 052a 11       		.uleb128 0x11
 953 052b 0C020000 		.4byte	.LASF80
 954 052f 0A       		.byte	0xa
 955 0530 EE       		.byte	0xee
 956 0531 64050000 		.4byte	0x564
 957 0535 11       		.uleb128 0x11
 958 0536 D1000000 		.4byte	.LASF81
 959 053a 0A       		.byte	0xa
 960 053b F3       		.byte	0xf3
 961 053c 05010000 		.4byte	0x105
 962 0540 11       		.uleb128 0x11
 963 0541 05020000 		.4byte	.LASF82
 964 0545 0A       		.byte	0xa
 965 0546 FC       		.byte	0xfc
 966 0547 8F050000 		.4byte	0x58f
 967 054b 12       		.uleb128 0x12
ARM GAS  /tmp/cc6u7Fux.s 			page 18


 968 054c 2C040000 		.4byte	.LASF83
 969 0550 0A       		.byte	0xa
 970 0551 0501     		.2byte	0x105
 971 0553 C6050000 		.4byte	0x5c6
 972 0557 12       		.uleb128 0x12
 973 0558 E1030000 		.4byte	.LASF84
 974 055c 0A       		.byte	0xa
 975 055d 0D01     		.2byte	0x10d
 976 055f 10010000 		.4byte	0x110
 977 0563 00       		.byte	0
 978 0564 0A       		.uleb128 0xa
 979 0565 04       		.byte	0x4
 980 0566 1A020000 		.4byte	0x21a
 981 056a 05       		.uleb128 0x5
 982 056b 16040000 		.4byte	.LASF85
 983 056f 0C       		.byte	0xc
 984 0570 0D       		.byte	0xd
 985 0571 34       		.byte	0x34
 986 0572 8F050000 		.4byte	0x58f
 987 0576 06       		.uleb128 0x6
 988 0577 61020000 		.4byte	.LASF28
 989 057b 0D       		.byte	0xd
 990 057c 35       		.byte	0x35
 991 057d 4F020000 		.4byte	0x24f
 992 0581 00       		.byte	0
 993 0582 07       		.uleb128 0x7
 994 0583 636E7400 		.ascii	"cnt\000"
 995 0587 0D       		.byte	0xd
 996 0588 37       		.byte	0x37
 997 0589 1B010000 		.4byte	0x11b
 998 058d 08       		.byte	0x8
 999 058e 00       		.byte	0
 1000 058f 0A       		.uleb128 0xa
 1001 0590 04       		.byte	0x4
 1002 0591 6A050000 		.4byte	0x56a
 1003 0595 05       		.uleb128 0x5
 1004 0596 29050000 		.4byte	.LASF86
 1005 059a 10       		.byte	0x10
 1006 059b 0E       		.byte	0xe
 1007 059c 39       		.byte	0x39
 1008 059d C6050000 		.4byte	0x5c6
 1009 05a1 06       		.uleb128 0x6
 1010 05a2 61020000 		.4byte	.LASF28
 1011 05a6 0E       		.byte	0xe
 1012 05a7 3A       		.byte	0x3a
 1013 05a8 4F020000 		.4byte	0x24f
 1014 05ac 00       		.byte	0
 1015 05ad 06       		.uleb128 0x6
 1016 05ae 43040000 		.4byte	.LASF87
 1017 05b2 0E       		.byte	0xe
 1018 05b3 3C       		.byte	0x3c
 1019 05b4 25020000 		.4byte	0x225
 1020 05b8 08       		.byte	0x8
 1021 05b9 06       		.uleb128 0x6
 1022 05ba 1C000000 		.4byte	.LASF47
 1023 05be 0E       		.byte	0xe
 1024 05bf 3E       		.byte	0x3e
ARM GAS  /tmp/cc6u7Fux.s 			page 19


 1025 05c0 61060000 		.4byte	0x661
 1026 05c4 0C       		.byte	0xc
 1027 05c5 00       		.byte	0
 1028 05c6 0A       		.uleb128 0xa
 1029 05c7 04       		.byte	0x4
 1030 05c8 95050000 		.4byte	0x595
 1031 05cc 0A       		.uleb128 0xa
 1032 05cd 04       		.byte	0x4
 1033 05ce D2050000 		.4byte	0x5d2
 1034 05d2 13       		.uleb128 0x13
 1035 05d3 D7050000 		.4byte	0x5d7
 1036 05d7 04       		.uleb128 0x4
 1037 05d8 01       		.byte	0x1
 1038 05d9 08       		.byte	0x8
 1039 05da E3040000 		.4byte	.LASF88
 1040 05de 0A       		.uleb128 0xa
 1041 05df 04       		.byte	0x4
 1042 05e0 3C040000 		.4byte	0x43c
 1043 05e4 0A       		.uleb128 0xa
 1044 05e5 04       		.byte	0x4
 1045 05e6 04030000 		.4byte	0x304
 1046 05ea 14       		.uleb128 0x14
 1047 05eb CC050000 		.4byte	0x5cc
 1048 05ef 03       		.uleb128 0x3
 1049 05f0 00000000 		.4byte	.LASF89
 1050 05f4 0F       		.byte	0xf
 1051 05f5 40       		.byte	0x40
 1052 05f6 F1020000 		.4byte	0x2f1
 1053 05fa 0F       		.uleb128 0xf
 1054 05fb 18       		.byte	0x18
 1055 05fc 0F       		.byte	0xf
 1056 05fd 45       		.byte	0x45
 1057 05fe 4B060000 		.4byte	0x64b
 1058 0602 06       		.uleb128 0x6
 1059 0603 8A020000 		.4byte	.LASF32
 1060 0607 0F       		.byte	0xf
 1061 0608 49       		.byte	0x49
 1062 0609 CC050000 		.4byte	0x5cc
 1063 060d 00       		.byte	0
 1064 060e 06       		.uleb128 0x6
 1065 060f 3D030000 		.4byte	.LASF90
 1066 0613 0F       		.byte	0xf
 1067 0614 4D       		.byte	0x4d
 1068 0615 DE050000 		.4byte	0x5de
 1069 0619 04       		.byte	0x4
 1070 061a 06       		.uleb128 0x6
 1071 061b A1000000 		.4byte	.LASF91
 1072 061f 0F       		.byte	0xf
 1073 0620 51       		.byte	0x51
 1074 0621 DE050000 		.4byte	0x5de
 1075 0625 08       		.byte	0x8
 1076 0626 06       		.uleb128 0x6
 1077 0627 54030000 		.4byte	.LASF29
 1078 062b 0F       		.byte	0xf
 1079 062c 55       		.byte	0x55
 1080 062d FA000000 		.4byte	0xfa
 1081 0631 0C       		.byte	0xc
ARM GAS  /tmp/cc6u7Fux.s 			page 20


 1082 0632 06       		.uleb128 0x6
 1083 0633 2E000000 		.4byte	.LASF92
 1084 0637 0F       		.byte	0xf
 1085 0638 59       		.byte	0x59
 1086 0639 EF050000 		.4byte	0x5ef
 1087 063d 10       		.byte	0x10
 1088 063e 07       		.uleb128 0x7
 1089 063f 61726700 		.ascii	"arg\000"
 1090 0643 0F       		.byte	0xf
 1091 0644 5D       		.byte	0x5d
 1092 0645 02030000 		.4byte	0x302
 1093 0649 14       		.byte	0x14
 1094 064a 00       		.byte	0
 1095 064b 03       		.uleb128 0x3
 1096 064c 76000000 		.4byte	.LASF93
 1097 0650 0F       		.byte	0xf
 1098 0651 5E       		.byte	0x5e
 1099 0652 FA050000 		.4byte	0x5fa
 1100 0656 03       		.uleb128 0x3
 1101 0657 D1010000 		.4byte	.LASF94
 1102 065b 0E       		.byte	0xe
 1103 065c 34       		.byte	0x34
 1104 065d 95050000 		.4byte	0x595
 1105 0661 0A       		.uleb128 0xa
 1106 0662 04       		.byte	0x4
 1107 0663 56060000 		.4byte	0x656
 1108 0667 04       		.uleb128 0x4
 1109 0668 01       		.byte	0x1
 1110 0669 02       		.byte	0x2
 1111 066a A6030000 		.4byte	.LASF95
 1112 066e 03       		.uleb128 0x3
 1113 066f 94000000 		.4byte	.LASF96
 1114 0673 10       		.byte	0x10
 1115 0674 47       		.byte	0x47
 1116 0675 79060000 		.4byte	0x679
 1117 0679 0A       		.uleb128 0xa
 1118 067a 04       		.byte	0x4
 1119 067b 7F060000 		.4byte	0x67f
 1120 067f 15       		.uleb128 0x15
 1121 0680 02030000 		.4byte	0x302
 1122 0684 93060000 		.4byte	0x693
 1123 0688 0D       		.uleb128 0xd
 1124 0689 2C000000 		.4byte	0x2c
 1125 068d 0D       		.uleb128 0xd
 1126 068e 37000000 		.4byte	0x37
 1127 0692 00       		.byte	0
 1128 0693 03       		.uleb128 0x3
 1129 0694 92010000 		.4byte	.LASF97
 1130 0698 10       		.byte	0x10
 1131 0699 4C       		.byte	0x4c
 1132 069a 9E060000 		.4byte	0x69e
 1133 069e 0A       		.uleb128 0xa
 1134 069f 04       		.byte	0x4
 1135 06a0 A4060000 		.4byte	0x6a4
 1136 06a4 15       		.uleb128 0x15
 1137 06a5 02030000 		.4byte	0x302
 1138 06a9 BD060000 		.4byte	0x6bd
ARM GAS  /tmp/cc6u7Fux.s 			page 21


 1139 06ad 0D       		.uleb128 0xd
 1140 06ae 2C000000 		.4byte	0x2c
 1141 06b2 0D       		.uleb128 0xd
 1142 06b3 37000000 		.4byte	0x37
 1143 06b7 0D       		.uleb128 0xd
 1144 06b8 2C000000 		.4byte	0x2c
 1145 06bc 00       		.byte	0
 1146 06bd 03       		.uleb128 0x3
 1147 06be 84010000 		.4byte	.LASF98
 1148 06c2 11       		.byte	0x11
 1149 06c3 48       		.byte	0x48
 1150 06c4 C8060000 		.4byte	0x6c8
 1151 06c8 05       		.uleb128 0x5
 1152 06c9 C6050000 		.4byte	.LASF99
 1153 06cd 20       		.byte	0x20
 1154 06ce 11       		.byte	0x11
 1155 06cf 61       		.byte	0x61
 1156 06d0 F9060000 		.4byte	0x6f9
 1157 06d4 06       		.uleb128 0x6
 1158 06d5 6D000000 		.4byte	.LASF100
 1159 06d9 11       		.byte	0x11
 1160 06da 62       		.byte	0x62
 1161 06db 93060000 		.4byte	0x693
 1162 06df 00       		.byte	0
 1163 06e0 06       		.uleb128 0x6
 1164 06e1 BF050000 		.4byte	.LASF101
 1165 06e5 11       		.byte	0x11
 1166 06e6 64       		.byte	0x64
 1167 06e7 F9060000 		.4byte	0x6f9
 1168 06eb 08       		.byte	0x8
 1169 06ec 07       		.uleb128 0x7
 1170 06ed 6D747800 		.ascii	"mtx\000"
 1171 06f1 11       		.byte	0x11
 1172 06f2 66       		.byte	0x66
 1173 06f3 56060000 		.4byte	0x656
 1174 06f7 10       		.byte	0x10
 1175 06f8 00       		.byte	0
 1176 06f9 03       		.uleb128 0x3
 1177 06fa A7010000 		.4byte	.LASF102
 1178 06fe 11       		.byte	0x11
 1179 06ff 4D       		.byte	0x4d
 1180 0700 04070000 		.4byte	0x704
 1181 0704 16       		.uleb128 0x16
 1182 0705 C2030000 		.4byte	.LASF123
 1183 0709 08       		.byte	0x8
 1184 070a 11       		.byte	0x11
 1185 070b 52       		.byte	0x52
 1186 070c 32070000 		.4byte	0x732
 1187 0710 11       		.uleb128 0x11
 1188 0711 DF010000 		.4byte	.LASF103
 1189 0715 11       		.byte	0x11
 1190 0716 53       		.byte	0x53
 1191 0717 3C040000 		.4byte	0x43c
 1192 071b 11       		.uleb128 0x11
 1193 071c 02010000 		.4byte	.LASF104
 1194 0720 11       		.byte	0x11
 1195 0721 57       		.byte	0x57
ARM GAS  /tmp/cc6u7Fux.s 			page 22


 1196 0722 32070000 		.4byte	0x732
 1197 0726 11       		.uleb128 0x11
 1198 0727 6C030000 		.4byte	.LASF105
 1199 072b 11       		.byte	0x11
 1200 072c 5B       		.byte	0x5b
 1201 072d 59070000 		.4byte	0x759
 1202 0731 00       		.byte	0
 1203 0732 0F       		.uleb128 0xf
 1204 0733 08       		.byte	0x8
 1205 0734 11       		.byte	0x11
 1206 0735 54       		.byte	0x54
 1207 0736 53070000 		.4byte	0x753
 1208 073a 06       		.uleb128 0x6
 1209 073b 1C000000 		.4byte	.LASF47
 1210 073f 11       		.byte	0x11
 1211 0740 55       		.byte	0x55
 1212 0741 53070000 		.4byte	0x753
 1213 0745 00       		.byte	0
 1214 0746 06       		.uleb128 0x6
 1215 0747 58000000 		.4byte	.LASF106
 1216 074b 11       		.byte	0x11
 1217 074c 56       		.byte	0x56
 1218 074d 2C000000 		.4byte	0x2c
 1219 0751 04       		.byte	0x4
 1220 0752 00       		.byte	0
 1221 0753 0A       		.uleb128 0xa
 1222 0754 04       		.byte	0x4
 1223 0755 F9060000 		.4byte	0x6f9
 1224 0759 0F       		.uleb128 0xf
 1225 075a 08       		.byte	0x8
 1226 075b 11       		.byte	0x11
 1227 075c 58       		.byte	0x58
 1228 075d 7A070000 		.4byte	0x77a
 1229 0761 06       		.uleb128 0x6
 1230 0762 49040000 		.4byte	.LASF107
 1231 0766 11       		.byte	0x11
 1232 0767 59       		.byte	0x59
 1233 0768 7A070000 		.4byte	0x77a
 1234 076c 00       		.byte	0
 1235 076d 06       		.uleb128 0x6
 1236 076e 32010000 		.4byte	.LASF108
 1237 0772 11       		.byte	0x11
 1238 0773 5A       		.byte	0x5a
 1239 0774 2C000000 		.4byte	0x2c
 1240 0778 04       		.byte	0x4
 1241 0779 00       		.byte	0
 1242 077a 0A       		.uleb128 0xa
 1243 077b 04       		.byte	0x4
 1244 077c BD060000 		.4byte	0x6bd
 1245 0780 05       		.uleb128 0x5
 1246 0781 56050000 		.4byte	.LASF109
 1247 0785 04       		.byte	0x4
 1248 0786 12       		.byte	0x12
 1249 0787 38       		.byte	0x38
 1250 0788 99070000 		.4byte	0x799
 1251 078c 06       		.uleb128 0x6
 1252 078d 1C000000 		.4byte	.LASF47
ARM GAS  /tmp/cc6u7Fux.s 			page 23


 1253 0791 12       		.byte	0x12
 1254 0792 39       		.byte	0x39
 1255 0793 99070000 		.4byte	0x799
 1256 0797 00       		.byte	0
 1257 0798 00       		.byte	0
 1258 0799 0A       		.uleb128 0xa
 1259 079a 04       		.byte	0x4
 1260 079b 80070000 		.4byte	0x780
 1261 079f 0F       		.uleb128 0xf
 1262 07a0 0C       		.byte	0xc
 1263 07a1 12       		.byte	0x12
 1264 07a2 40       		.byte	0x40
 1265 07a3 CC070000 		.4byte	0x7cc
 1266 07a7 06       		.uleb128 0x6
 1267 07a8 1C000000 		.4byte	.LASF47
 1268 07ac 12       		.byte	0x12
 1269 07ad 41       		.byte	0x41
 1270 07ae 99070000 		.4byte	0x799
 1271 07b2 00       		.byte	0
 1272 07b3 06       		.uleb128 0x6
 1273 07b4 3A050000 		.4byte	.LASF110
 1274 07b8 12       		.byte	0x12
 1275 07b9 42       		.byte	0x42
 1276 07ba 2C000000 		.4byte	0x2c
 1277 07be 04       		.byte	0x4
 1278 07bf 06       		.uleb128 0x6
 1279 07c0 6D000000 		.4byte	.LASF100
 1280 07c4 12       		.byte	0x12
 1281 07c5 44       		.byte	0x44
 1282 07c6 6E060000 		.4byte	0x66e
 1283 07ca 08       		.byte	0x8
 1284 07cb 00       		.byte	0
 1285 07cc 03       		.uleb128 0x3
 1286 07cd 53020000 		.4byte	.LASF111
 1287 07d1 12       		.byte	0x12
 1288 07d2 46       		.byte	0x46
 1289 07d3 9F070000 		.4byte	0x79f
 1290 07d7 17       		.uleb128 0x17
 1291 07d8 0A050000 		.4byte	.LASF124
 1292 07dc 02       		.byte	0x2
 1293 07dd 0601     		.2byte	0x106
 1294 07df 03       		.byte	0x3
 1295 07e0 F1070000 		.4byte	0x7f1
 1296 07e4 18       		.uleb128 0x18
 1297 07e5 D9010000 		.4byte	.LASF125
 1298 07e9 02       		.byte	0x2
 1299 07ea 0601     		.2byte	0x106
 1300 07ec B8000000 		.4byte	0xb8
 1301 07f0 00       		.byte	0
 1302 07f1 19       		.uleb128 0x19
 1303 07f2 8A000000 		.4byte	.LASF112
 1304 07f6 01       		.byte	0x1
 1305 07f7 5202     		.2byte	0x252
 1306 07f9 00000000 		.4byte	.LFB127
 1307 07fd 10000000 		.4byte	.LFE127-.LFB127
 1308 0801 01       		.uleb128 0x1
 1309 0802 9C       		.byte	0x9c
ARM GAS  /tmp/cc6u7Fux.s 			page 24


 1310 0803 21080000 		.4byte	0x821
 1311 0807 1A       		.uleb128 0x1a
 1312 0808 D7070000 		.4byte	0x7d7
 1313 080c 06000000 		.4byte	.LBB6
 1314 0810 06000000 		.4byte	.LBE6-.LBB6
 1315 0814 01       		.byte	0x1
 1316 0815 5A02     		.2byte	0x25a
 1317 0817 1B       		.uleb128 0x1b
 1318 0818 E4070000 		.4byte	0x7e4
 1319 081c 02       		.uleb128 0x2
 1320 081d 91       		.byte	0x91
 1321 081e 7C       		.sleb128 -4
 1322 081f 00       		.byte	0
 1323 0820 00       		.byte	0
 1324 0821 19       		.uleb128 0x19
 1325 0822 3E010000 		.4byte	.LASF113
 1326 0826 01       		.byte	0x1
 1327 0827 6A02     		.2byte	0x26a
 1328 0829 10000000 		.4byte	.LFB128
 1329 082d 10000000 		.4byte	.LFE128-.LFB128
 1330 0831 01       		.uleb128 0x1
 1331 0832 9C       		.byte	0x9c
 1332 0833 51080000 		.4byte	0x851
 1333 0837 1A       		.uleb128 0x1a
 1334 0838 D7070000 		.4byte	0x7d7
 1335 083c 16000000 		.4byte	.LBB8
 1336 0840 06000000 		.4byte	.LBE8-.LBB8
 1337 0844 01       		.byte	0x1
 1338 0845 6D02     		.2byte	0x26d
 1339 0847 1B       		.uleb128 0x1b
 1340 0848 E4070000 		.4byte	0x7e4
 1341 084c 02       		.uleb128 0x2
 1342 084d 91       		.byte	0x91
 1343 084e 7C       		.sleb128 -4
 1344 084f 00       		.byte	0
 1345 0850 00       		.byte	0
 1346 0851 1C       		.uleb128 0x1c
 1347 0852 FB030000 		.4byte	.LASF126
 1348 0856 03       		.byte	0x3
 1349 0857 7601     		.2byte	0x176
 1350 0859 20000000 		.4byte	.LFB167
 1351 085d 08000000 		.4byte	.LFE167-.LFB167
 1352 0861 01       		.uleb128 0x1
 1353 0862 9C       		.byte	0x9c
 1354 0863 1D       		.uleb128 0x1d
 1355 0864 AB050000 		.4byte	.LASF114
 1356 0868 03       		.byte	0x3
 1357 0869 8201     		.2byte	0x182
 1358 086b 30000000 		.4byte	.LFB168
 1359 086f 08000000 		.4byte	.LFE168-.LFB168
 1360 0873 01       		.uleb128 0x1
 1361 0874 9C       		.byte	0x9c
 1362 0875 83080000 		.4byte	0x883
 1363 0879 1E       		.uleb128 0x1e
 1364 087a F2030000 		.4byte	.LASF118
 1365 087e 93080000 		.4byte	0x893
 1366 0882 00       		.byte	0
ARM GAS  /tmp/cc6u7Fux.s 			page 25


 1367 0883 1F       		.uleb128 0x1f
 1368 0884 D7050000 		.4byte	0x5d7
 1369 0888 93080000 		.4byte	0x893
 1370 088c 20       		.uleb128 0x20
 1371 088d 2A040000 		.4byte	0x42a
 1372 0891 0B       		.byte	0xb
 1373 0892 00       		.byte	0
 1374 0893 13       		.uleb128 0x13
 1375 0894 83080000 		.4byte	0x883
 1376 0898 21       		.uleb128 0x21
 1377 0899 62010000 		.4byte	.LASF116
 1378 089d 04       		.byte	0x4
 1379 089e 52       		.byte	0x52
 1380 089f 25020000 		.4byte	0x225
 1381 08a3 40000000 		.4byte	.LFB248
 1382 08a7 6A000000 		.4byte	.LFE248-.LFB248
 1383 08ab 01       		.uleb128 0x1
 1384 08ac 9C       		.byte	0x9c
 1385 08ad 2D090000 		.4byte	0x92d
 1386 08b1 22       		.uleb128 0x22
 1387 08b2 FC000000 		.4byte	.LASF115
 1388 08b6 04       		.byte	0x4
 1389 08b7 52       		.byte	0x52
 1390 08b8 7A070000 		.4byte	0x77a
 1391 08bc 02       		.uleb128 0x2
 1392 08bd 91       		.byte	0x91
 1393 08be 54       		.sleb128 -44
 1394 08bf 22       		.uleb128 0x22
 1395 08c0 32010000 		.4byte	.LASF108
 1396 08c4 04       		.byte	0x4
 1397 08c5 52       		.byte	0x52
 1398 08c6 2C000000 		.4byte	0x2c
 1399 08ca 02       		.uleb128 0x2
 1400 08cb 91       		.byte	0x91
 1401 08cc 50       		.sleb128 -48
 1402 08cd 22       		.uleb128 0x22
 1403 08ce 8A020000 		.4byte	.LASF32
 1404 08d2 04       		.byte	0x4
 1405 08d3 53       		.byte	0x53
 1406 08d4 CC050000 		.4byte	0x5cc
 1407 08d8 02       		.uleb128 0x2
 1408 08d9 91       		.byte	0x91
 1409 08da 4C       		.sleb128 -52
 1410 08db 22       		.uleb128 0x22
 1411 08dc 54030000 		.4byte	.LASF29
 1412 08e0 04       		.byte	0x4
 1413 08e1 53       		.byte	0x53
 1414 08e2 FA000000 		.4byte	0xfa
 1415 08e6 02       		.uleb128 0x2
 1416 08e7 91       		.byte	0x91
 1417 08e8 48       		.sleb128 -56
 1418 08e9 23       		.uleb128 0x23
 1419 08ea 706600   		.ascii	"pf\000"
 1420 08ed 04       		.byte	0x4
 1421 08ee 54       		.byte	0x54
 1422 08ef EF050000 		.4byte	0x5ef
 1423 08f3 02       		.uleb128 0x2
ARM GAS  /tmp/cc6u7Fux.s 			page 26


 1424 08f4 91       		.byte	0x91
 1425 08f5 00       		.sleb128 0
 1426 08f6 23       		.uleb128 0x23
 1427 08f7 61726700 		.ascii	"arg\000"
 1428 08fb 04       		.byte	0x4
 1429 08fc 54       		.byte	0x54
 1430 08fd 02030000 		.4byte	0x302
 1431 0901 02       		.uleb128 0x2
 1432 0902 91       		.byte	0x91
 1433 0903 04       		.sleb128 4
 1434 0904 24       		.uleb128 0x24
 1435 0905 747000   		.ascii	"tp\000"
 1436 0908 04       		.byte	0x4
 1437 0909 55       		.byte	0x55
 1438 090a 25020000 		.4byte	0x225
 1439 090e 02       		.uleb128 0x2
 1440 090f 91       		.byte	0x91
 1441 0910 70       		.sleb128 -16
 1442 0911 24       		.uleb128 0x24
 1443 0912 77737000 		.ascii	"wsp\000"
 1444 0916 04       		.byte	0x4
 1445 0917 56       		.byte	0x56
 1446 0918 02030000 		.4byte	0x302
 1447 091c 02       		.uleb128 0x2
 1448 091d 91       		.byte	0x91
 1449 091e 74       		.sleb128 -12
 1450 091f 24       		.uleb128 0x24
 1451 0920 746400   		.ascii	"td\000"
 1452 0923 04       		.byte	0x4
 1453 0924 5D       		.byte	0x5d
 1454 0925 4B060000 		.4byte	0x64b
 1455 0929 02       		.uleb128 0x2
 1456 092a 91       		.byte	0x91
 1457 092b 58       		.sleb128 -40
 1458 092c 00       		.byte	0
 1459 092d 21       		.uleb128 0x21
 1460 092e 23030000 		.4byte	.LASF117
 1461 0932 04       		.byte	0x4
 1462 0933 91       		.byte	0x91
 1463 0934 25020000 		.4byte	0x225
 1464 0938 B0000000 		.4byte	.LFB249
 1465 093c 6E000000 		.4byte	.LFE249-.LFB249
 1466 0940 01       		.uleb128 0x1
 1467 0941 9C       		.byte	0x9c
 1468 0942 BC090000 		.4byte	0x9bc
 1469 0946 23       		.uleb128 0x23
 1470 0947 6D7000   		.ascii	"mp\000"
 1471 094a 04       		.byte	0x4
 1472 094b 91       		.byte	0x91
 1473 094c BC090000 		.4byte	0x9bc
 1474 0950 02       		.uleb128 0x2
 1475 0951 91       		.byte	0x91
 1476 0952 54       		.sleb128 -44
 1477 0953 22       		.uleb128 0x22
 1478 0954 8A020000 		.4byte	.LASF32
 1479 0958 04       		.byte	0x4
 1480 0959 91       		.byte	0x91
ARM GAS  /tmp/cc6u7Fux.s 			page 27


 1481 095a CC050000 		.4byte	0x5cc
 1482 095e 02       		.uleb128 0x2
 1483 095f 91       		.byte	0x91
 1484 0960 50       		.sleb128 -48
 1485 0961 22       		.uleb128 0x22
 1486 0962 54030000 		.4byte	.LASF29
 1487 0966 04       		.byte	0x4
 1488 0967 92       		.byte	0x92
 1489 0968 FA000000 		.4byte	0xfa
 1490 096c 02       		.uleb128 0x2
 1491 096d 91       		.byte	0x91
 1492 096e 4C       		.sleb128 -52
 1493 096f 23       		.uleb128 0x23
 1494 0970 706600   		.ascii	"pf\000"
 1495 0973 04       		.byte	0x4
 1496 0974 92       		.byte	0x92
 1497 0975 EF050000 		.4byte	0x5ef
 1498 0979 02       		.uleb128 0x2
 1499 097a 91       		.byte	0x91
 1500 097b 48       		.sleb128 -56
 1501 097c 23       		.uleb128 0x23
 1502 097d 61726700 		.ascii	"arg\000"
 1503 0981 04       		.byte	0x4
 1504 0982 92       		.byte	0x92
 1505 0983 02030000 		.4byte	0x302
 1506 0987 02       		.uleb128 0x2
 1507 0988 91       		.byte	0x91
 1508 0989 00       		.sleb128 0
 1509 098a 24       		.uleb128 0x24
 1510 098b 747000   		.ascii	"tp\000"
 1511 098e 04       		.byte	0x4
 1512 098f 93       		.byte	0x93
 1513 0990 25020000 		.4byte	0x225
 1514 0994 02       		.uleb128 0x2
 1515 0995 91       		.byte	0x91
 1516 0996 70       		.sleb128 -16
 1517 0997 24       		.uleb128 0x24
 1518 0998 77737000 		.ascii	"wsp\000"
 1519 099c 04       		.byte	0x4
 1520 099d 94       		.byte	0x94
 1521 099e 02030000 		.4byte	0x302
 1522 09a2 02       		.uleb128 0x2
 1523 09a3 91       		.byte	0x91
 1524 09a4 74       		.sleb128 -12
 1525 09a5 1E       		.uleb128 0x1e
 1526 09a6 F2030000 		.4byte	.LASF118
 1527 09aa D2090000 		.4byte	0x9d2
 1528 09ae 24       		.uleb128 0x24
 1529 09af 746400   		.ascii	"td\000"
 1530 09b2 04       		.byte	0x4
 1531 09b3 9D       		.byte	0x9d
 1532 09b4 4B060000 		.4byte	0x64b
 1533 09b8 02       		.uleb128 0x2
 1534 09b9 91       		.byte	0x91
 1535 09ba 58       		.sleb128 -40
 1536 09bb 00       		.byte	0
 1537 09bc 0A       		.uleb128 0xa
ARM GAS  /tmp/cc6u7Fux.s 			page 28


 1538 09bd 04       		.byte	0x4
 1539 09be CC070000 		.4byte	0x7cc
 1540 09c2 1F       		.uleb128 0x1f
 1541 09c3 D7050000 		.4byte	0x5d7
 1542 09c7 D2090000 		.4byte	0x9d2
 1543 09cb 20       		.uleb128 0x20
 1544 09cc 2A040000 		.4byte	0x42a
 1545 09d0 19       		.byte	0x19
 1546 09d1 00       		.byte	0
 1547 09d2 13       		.uleb128 0x13
 1548 09d3 C2090000 		.4byte	0x9c2
 1549 09d7 25       		.uleb128 0x25
 1550 09d8 EF000000 		.4byte	.LASF119
 1551 09dc 13       		.byte	0x13
 1552 09dd 4407     		.2byte	0x744
 1553 09df E3090000 		.4byte	0x9e3
 1554 09e3 14       		.uleb128 0x14
 1555 09e4 AD000000 		.4byte	0xad
 1556 09e8 26       		.uleb128 0x26
 1557 09e9 636800   		.ascii	"ch\000"
 1558 09ec 0A       		.byte	0xa
 1559 09ed D201     		.2byte	0x1d2
 1560 09ef D1030000 		.4byte	0x3d1
 1561 09f3 00       		.byte	0
 1562              		.section	.debug_abbrev,"",%progbits
 1563              	.Ldebug_abbrev0:
 1564 0000 01       		.uleb128 0x1
 1565 0001 11       		.uleb128 0x11
 1566 0002 01       		.byte	0x1
 1567 0003 25       		.uleb128 0x25
 1568 0004 0E       		.uleb128 0xe
 1569 0005 13       		.uleb128 0x13
 1570 0006 0B       		.uleb128 0xb
 1571 0007 03       		.uleb128 0x3
 1572 0008 0E       		.uleb128 0xe
 1573 0009 1B       		.uleb128 0x1b
 1574 000a 0E       		.uleb128 0xe
 1575 000b 11       		.uleb128 0x11
 1576 000c 01       		.uleb128 0x1
 1577 000d 12       		.uleb128 0x12
 1578 000e 06       		.uleb128 0x6
 1579 000f 10       		.uleb128 0x10
 1580 0010 17       		.uleb128 0x17
 1581 0011 00       		.byte	0
 1582 0012 00       		.byte	0
 1583 0013 02       		.uleb128 0x2
 1584 0014 24       		.uleb128 0x24
 1585 0015 00       		.byte	0
 1586 0016 0B       		.uleb128 0xb
 1587 0017 0B       		.uleb128 0xb
 1588 0018 3E       		.uleb128 0x3e
 1589 0019 0B       		.uleb128 0xb
 1590 001a 03       		.uleb128 0x3
 1591 001b 08       		.uleb128 0x8
 1592 001c 00       		.byte	0
 1593 001d 00       		.byte	0
 1594 001e 03       		.uleb128 0x3
ARM GAS  /tmp/cc6u7Fux.s 			page 29


 1595 001f 16       		.uleb128 0x16
 1596 0020 00       		.byte	0
 1597 0021 03       		.uleb128 0x3
 1598 0022 0E       		.uleb128 0xe
 1599 0023 3A       		.uleb128 0x3a
 1600 0024 0B       		.uleb128 0xb
 1601 0025 3B       		.uleb128 0x3b
 1602 0026 0B       		.uleb128 0xb
 1603 0027 49       		.uleb128 0x49
 1604 0028 13       		.uleb128 0x13
 1605 0029 00       		.byte	0
 1606 002a 00       		.byte	0
 1607 002b 04       		.uleb128 0x4
 1608 002c 24       		.uleb128 0x24
 1609 002d 00       		.byte	0
 1610 002e 0B       		.uleb128 0xb
 1611 002f 0B       		.uleb128 0xb
 1612 0030 3E       		.uleb128 0x3e
 1613 0031 0B       		.uleb128 0xb
 1614 0032 03       		.uleb128 0x3
 1615 0033 0E       		.uleb128 0xe
 1616 0034 00       		.byte	0
 1617 0035 00       		.byte	0
 1618 0036 05       		.uleb128 0x5
 1619 0037 13       		.uleb128 0x13
 1620 0038 01       		.byte	0x1
 1621 0039 03       		.uleb128 0x3
 1622 003a 0E       		.uleb128 0xe
 1623 003b 0B       		.uleb128 0xb
 1624 003c 0B       		.uleb128 0xb
 1625 003d 3A       		.uleb128 0x3a
 1626 003e 0B       		.uleb128 0xb
 1627 003f 3B       		.uleb128 0x3b
 1628 0040 0B       		.uleb128 0xb
 1629 0041 01       		.uleb128 0x1
 1630 0042 13       		.uleb128 0x13
 1631 0043 00       		.byte	0
 1632 0044 00       		.byte	0
 1633 0045 06       		.uleb128 0x6
 1634 0046 0D       		.uleb128 0xd
 1635 0047 00       		.byte	0
 1636 0048 03       		.uleb128 0x3
 1637 0049 0E       		.uleb128 0xe
 1638 004a 3A       		.uleb128 0x3a
 1639 004b 0B       		.uleb128 0xb
 1640 004c 3B       		.uleb128 0x3b
 1641 004d 0B       		.uleb128 0xb
 1642 004e 49       		.uleb128 0x49
 1643 004f 13       		.uleb128 0x13
 1644 0050 38       		.uleb128 0x38
 1645 0051 0B       		.uleb128 0xb
 1646 0052 00       		.byte	0
 1647 0053 00       		.byte	0
 1648 0054 07       		.uleb128 0x7
 1649 0055 0D       		.uleb128 0xd
 1650 0056 00       		.byte	0
 1651 0057 03       		.uleb128 0x3
ARM GAS  /tmp/cc6u7Fux.s 			page 30


 1652 0058 08       		.uleb128 0x8
 1653 0059 3A       		.uleb128 0x3a
 1654 005a 0B       		.uleb128 0xb
 1655 005b 3B       		.uleb128 0x3b
 1656 005c 0B       		.uleb128 0xb
 1657 005d 49       		.uleb128 0x49
 1658 005e 13       		.uleb128 0x13
 1659 005f 38       		.uleb128 0x38
 1660 0060 0B       		.uleb128 0xb
 1661 0061 00       		.byte	0
 1662 0062 00       		.byte	0
 1663 0063 08       		.uleb128 0x8
 1664 0064 0D       		.uleb128 0xd
 1665 0065 00       		.byte	0
 1666 0066 03       		.uleb128 0x3
 1667 0067 08       		.uleb128 0x8
 1668 0068 3A       		.uleb128 0x3a
 1669 0069 0B       		.uleb128 0xb
 1670 006a 3B       		.uleb128 0x3b
 1671 006b 05       		.uleb128 0x5
 1672 006c 49       		.uleb128 0x49
 1673 006d 13       		.uleb128 0x13
 1674 006e 38       		.uleb128 0x38
 1675 006f 0B       		.uleb128 0xb
 1676 0070 00       		.byte	0
 1677 0071 00       		.byte	0
 1678 0072 09       		.uleb128 0x9
 1679 0073 0D       		.uleb128 0xd
 1680 0074 00       		.byte	0
 1681 0075 03       		.uleb128 0x3
 1682 0076 0E       		.uleb128 0xe
 1683 0077 3A       		.uleb128 0x3a
 1684 0078 0B       		.uleb128 0xb
 1685 0079 3B       		.uleb128 0x3b
 1686 007a 05       		.uleb128 0x5
 1687 007b 49       		.uleb128 0x49
 1688 007c 13       		.uleb128 0x13
 1689 007d 38       		.uleb128 0x38
 1690 007e 0B       		.uleb128 0xb
 1691 007f 00       		.byte	0
 1692 0080 00       		.byte	0
 1693 0081 0A       		.uleb128 0xa
 1694 0082 0F       		.uleb128 0xf
 1695 0083 00       		.byte	0
 1696 0084 0B       		.uleb128 0xb
 1697 0085 0B       		.uleb128 0xb
 1698 0086 49       		.uleb128 0x49
 1699 0087 13       		.uleb128 0x13
 1700 0088 00       		.byte	0
 1701 0089 00       		.byte	0
 1702 008a 0B       		.uleb128 0xb
 1703 008b 13       		.uleb128 0x13
 1704 008c 01       		.byte	0x1
 1705 008d 03       		.uleb128 0x3
 1706 008e 0E       		.uleb128 0xe
 1707 008f 0B       		.uleb128 0xb
 1708 0090 0B       		.uleb128 0xb
ARM GAS  /tmp/cc6u7Fux.s 			page 31


 1709 0091 3A       		.uleb128 0x3a
 1710 0092 0B       		.uleb128 0xb
 1711 0093 3B       		.uleb128 0x3b
 1712 0094 05       		.uleb128 0x5
 1713 0095 01       		.uleb128 0x1
 1714 0096 13       		.uleb128 0x13
 1715 0097 00       		.byte	0
 1716 0098 00       		.byte	0
 1717 0099 0C       		.uleb128 0xc
 1718 009a 15       		.uleb128 0x15
 1719 009b 01       		.byte	0x1
 1720 009c 27       		.uleb128 0x27
 1721 009d 19       		.uleb128 0x19
 1722 009e 01       		.uleb128 0x1
 1723 009f 13       		.uleb128 0x13
 1724 00a0 00       		.byte	0
 1725 00a1 00       		.byte	0
 1726 00a2 0D       		.uleb128 0xd
 1727 00a3 05       		.uleb128 0x5
 1728 00a4 00       		.byte	0
 1729 00a5 49       		.uleb128 0x49
 1730 00a6 13       		.uleb128 0x13
 1731 00a7 00       		.byte	0
 1732 00a8 00       		.byte	0
 1733 00a9 0E       		.uleb128 0xe
 1734 00aa 0F       		.uleb128 0xf
 1735 00ab 00       		.byte	0
 1736 00ac 0B       		.uleb128 0xb
 1737 00ad 0B       		.uleb128 0xb
 1738 00ae 00       		.byte	0
 1739 00af 00       		.byte	0
 1740 00b0 0F       		.uleb128 0xf
 1741 00b1 13       		.uleb128 0x13
 1742 00b2 01       		.byte	0x1
 1743 00b3 0B       		.uleb128 0xb
 1744 00b4 0B       		.uleb128 0xb
 1745 00b5 3A       		.uleb128 0x3a
 1746 00b6 0B       		.uleb128 0xb
 1747 00b7 3B       		.uleb128 0x3b
 1748 00b8 0B       		.uleb128 0xb
 1749 00b9 01       		.uleb128 0x1
 1750 00ba 13       		.uleb128 0x13
 1751 00bb 00       		.byte	0
 1752 00bc 00       		.byte	0
 1753 00bd 10       		.uleb128 0x10
 1754 00be 17       		.uleb128 0x17
 1755 00bf 01       		.byte	0x1
 1756 00c0 0B       		.uleb128 0xb
 1757 00c1 0B       		.uleb128 0xb
 1758 00c2 3A       		.uleb128 0x3a
 1759 00c3 0B       		.uleb128 0xb
 1760 00c4 3B       		.uleb128 0x3b
 1761 00c5 0B       		.uleb128 0xb
 1762 00c6 01       		.uleb128 0x1
 1763 00c7 13       		.uleb128 0x13
 1764 00c8 00       		.byte	0
 1765 00c9 00       		.byte	0
ARM GAS  /tmp/cc6u7Fux.s 			page 32


 1766 00ca 11       		.uleb128 0x11
 1767 00cb 0D       		.uleb128 0xd
 1768 00cc 00       		.byte	0
 1769 00cd 03       		.uleb128 0x3
 1770 00ce 0E       		.uleb128 0xe
 1771 00cf 3A       		.uleb128 0x3a
 1772 00d0 0B       		.uleb128 0xb
 1773 00d1 3B       		.uleb128 0x3b
 1774 00d2 0B       		.uleb128 0xb
 1775 00d3 49       		.uleb128 0x49
 1776 00d4 13       		.uleb128 0x13
 1777 00d5 00       		.byte	0
 1778 00d6 00       		.byte	0
 1779 00d7 12       		.uleb128 0x12
 1780 00d8 0D       		.uleb128 0xd
 1781 00d9 00       		.byte	0
 1782 00da 03       		.uleb128 0x3
 1783 00db 0E       		.uleb128 0xe
 1784 00dc 3A       		.uleb128 0x3a
 1785 00dd 0B       		.uleb128 0xb
 1786 00de 3B       		.uleb128 0x3b
 1787 00df 05       		.uleb128 0x5
 1788 00e0 49       		.uleb128 0x49
 1789 00e1 13       		.uleb128 0x13
 1790 00e2 00       		.byte	0
 1791 00e3 00       		.byte	0
 1792 00e4 13       		.uleb128 0x13
 1793 00e5 26       		.uleb128 0x26
 1794 00e6 00       		.byte	0
 1795 00e7 49       		.uleb128 0x49
 1796 00e8 13       		.uleb128 0x13
 1797 00e9 00       		.byte	0
 1798 00ea 00       		.byte	0
 1799 00eb 14       		.uleb128 0x14
 1800 00ec 35       		.uleb128 0x35
 1801 00ed 00       		.byte	0
 1802 00ee 49       		.uleb128 0x49
 1803 00ef 13       		.uleb128 0x13
 1804 00f0 00       		.byte	0
 1805 00f1 00       		.byte	0
 1806 00f2 15       		.uleb128 0x15
 1807 00f3 15       		.uleb128 0x15
 1808 00f4 01       		.byte	0x1
 1809 00f5 27       		.uleb128 0x27
 1810 00f6 19       		.uleb128 0x19
 1811 00f7 49       		.uleb128 0x49
 1812 00f8 13       		.uleb128 0x13
 1813 00f9 01       		.uleb128 0x1
 1814 00fa 13       		.uleb128 0x13
 1815 00fb 00       		.byte	0
 1816 00fc 00       		.byte	0
 1817 00fd 16       		.uleb128 0x16
 1818 00fe 17       		.uleb128 0x17
 1819 00ff 01       		.byte	0x1
 1820 0100 03       		.uleb128 0x3
 1821 0101 0E       		.uleb128 0xe
 1822 0102 0B       		.uleb128 0xb
ARM GAS  /tmp/cc6u7Fux.s 			page 33


 1823 0103 0B       		.uleb128 0xb
 1824 0104 3A       		.uleb128 0x3a
 1825 0105 0B       		.uleb128 0xb
 1826 0106 3B       		.uleb128 0x3b
 1827 0107 0B       		.uleb128 0xb
 1828 0108 01       		.uleb128 0x1
 1829 0109 13       		.uleb128 0x13
 1830 010a 00       		.byte	0
 1831 010b 00       		.byte	0
 1832 010c 17       		.uleb128 0x17
 1833 010d 2E       		.uleb128 0x2e
 1834 010e 01       		.byte	0x1
 1835 010f 03       		.uleb128 0x3
 1836 0110 0E       		.uleb128 0xe
 1837 0111 3A       		.uleb128 0x3a
 1838 0112 0B       		.uleb128 0xb
 1839 0113 3B       		.uleb128 0x3b
 1840 0114 05       		.uleb128 0x5
 1841 0115 27       		.uleb128 0x27
 1842 0116 19       		.uleb128 0x19
 1843 0117 20       		.uleb128 0x20
 1844 0118 0B       		.uleb128 0xb
 1845 0119 01       		.uleb128 0x1
 1846 011a 13       		.uleb128 0x13
 1847 011b 00       		.byte	0
 1848 011c 00       		.byte	0
 1849 011d 18       		.uleb128 0x18
 1850 011e 05       		.uleb128 0x5
 1851 011f 00       		.byte	0
 1852 0120 03       		.uleb128 0x3
 1853 0121 0E       		.uleb128 0xe
 1854 0122 3A       		.uleb128 0x3a
 1855 0123 0B       		.uleb128 0xb
 1856 0124 3B       		.uleb128 0x3b
 1857 0125 05       		.uleb128 0x5
 1858 0126 49       		.uleb128 0x49
 1859 0127 13       		.uleb128 0x13
 1860 0128 00       		.byte	0
 1861 0129 00       		.byte	0
 1862 012a 19       		.uleb128 0x19
 1863 012b 2E       		.uleb128 0x2e
 1864 012c 01       		.byte	0x1
 1865 012d 03       		.uleb128 0x3
 1866 012e 0E       		.uleb128 0xe
 1867 012f 3A       		.uleb128 0x3a
 1868 0130 0B       		.uleb128 0xb
 1869 0131 3B       		.uleb128 0x3b
 1870 0132 05       		.uleb128 0x5
 1871 0133 27       		.uleb128 0x27
 1872 0134 19       		.uleb128 0x19
 1873 0135 11       		.uleb128 0x11
 1874 0136 01       		.uleb128 0x1
 1875 0137 12       		.uleb128 0x12
 1876 0138 06       		.uleb128 0x6
 1877 0139 40       		.uleb128 0x40
 1878 013a 18       		.uleb128 0x18
 1879 013b 9742     		.uleb128 0x2117
ARM GAS  /tmp/cc6u7Fux.s 			page 34


 1880 013d 19       		.uleb128 0x19
 1881 013e 01       		.uleb128 0x1
 1882 013f 13       		.uleb128 0x13
 1883 0140 00       		.byte	0
 1884 0141 00       		.byte	0
 1885 0142 1A       		.uleb128 0x1a
 1886 0143 1D       		.uleb128 0x1d
 1887 0144 01       		.byte	0x1
 1888 0145 31       		.uleb128 0x31
 1889 0146 13       		.uleb128 0x13
 1890 0147 11       		.uleb128 0x11
 1891 0148 01       		.uleb128 0x1
 1892 0149 12       		.uleb128 0x12
 1893 014a 06       		.uleb128 0x6
 1894 014b 58       		.uleb128 0x58
 1895 014c 0B       		.uleb128 0xb
 1896 014d 59       		.uleb128 0x59
 1897 014e 05       		.uleb128 0x5
 1898 014f 00       		.byte	0
 1899 0150 00       		.byte	0
 1900 0151 1B       		.uleb128 0x1b
 1901 0152 05       		.uleb128 0x5
 1902 0153 00       		.byte	0
 1903 0154 31       		.uleb128 0x31
 1904 0155 13       		.uleb128 0x13
 1905 0156 02       		.uleb128 0x2
 1906 0157 18       		.uleb128 0x18
 1907 0158 00       		.byte	0
 1908 0159 00       		.byte	0
 1909 015a 1C       		.uleb128 0x1c
 1910 015b 2E       		.uleb128 0x2e
 1911 015c 00       		.byte	0
 1912 015d 03       		.uleb128 0x3
 1913 015e 0E       		.uleb128 0xe
 1914 015f 3A       		.uleb128 0x3a
 1915 0160 0B       		.uleb128 0xb
 1916 0161 3B       		.uleb128 0x3b
 1917 0162 05       		.uleb128 0x5
 1918 0163 27       		.uleb128 0x27
 1919 0164 19       		.uleb128 0x19
 1920 0165 11       		.uleb128 0x11
 1921 0166 01       		.uleb128 0x1
 1922 0167 12       		.uleb128 0x12
 1923 0168 06       		.uleb128 0x6
 1924 0169 40       		.uleb128 0x40
 1925 016a 18       		.uleb128 0x18
 1926 016b 9642     		.uleb128 0x2116
 1927 016d 19       		.uleb128 0x19
 1928 016e 00       		.byte	0
 1929 016f 00       		.byte	0
 1930 0170 1D       		.uleb128 0x1d
 1931 0171 2E       		.uleb128 0x2e
 1932 0172 01       		.byte	0x1
 1933 0173 03       		.uleb128 0x3
 1934 0174 0E       		.uleb128 0xe
 1935 0175 3A       		.uleb128 0x3a
 1936 0176 0B       		.uleb128 0xb
ARM GAS  /tmp/cc6u7Fux.s 			page 35


 1937 0177 3B       		.uleb128 0x3b
 1938 0178 05       		.uleb128 0x5
 1939 0179 27       		.uleb128 0x27
 1940 017a 19       		.uleb128 0x19
 1941 017b 11       		.uleb128 0x11
 1942 017c 01       		.uleb128 0x1
 1943 017d 12       		.uleb128 0x12
 1944 017e 06       		.uleb128 0x6
 1945 017f 40       		.uleb128 0x40
 1946 0180 18       		.uleb128 0x18
 1947 0181 9642     		.uleb128 0x2116
 1948 0183 19       		.uleb128 0x19
 1949 0184 01       		.uleb128 0x1
 1950 0185 13       		.uleb128 0x13
 1951 0186 00       		.byte	0
 1952 0187 00       		.byte	0
 1953 0188 1E       		.uleb128 0x1e
 1954 0189 34       		.uleb128 0x34
 1955 018a 00       		.byte	0
 1956 018b 03       		.uleb128 0x3
 1957 018c 0E       		.uleb128 0xe
 1958 018d 49       		.uleb128 0x49
 1959 018e 13       		.uleb128 0x13
 1960 018f 34       		.uleb128 0x34
 1961 0190 19       		.uleb128 0x19
 1962 0191 00       		.byte	0
 1963 0192 00       		.byte	0
 1964 0193 1F       		.uleb128 0x1f
 1965 0194 01       		.uleb128 0x1
 1966 0195 01       		.byte	0x1
 1967 0196 49       		.uleb128 0x49
 1968 0197 13       		.uleb128 0x13
 1969 0198 01       		.uleb128 0x1
 1970 0199 13       		.uleb128 0x13
 1971 019a 00       		.byte	0
 1972 019b 00       		.byte	0
 1973 019c 20       		.uleb128 0x20
 1974 019d 21       		.uleb128 0x21
 1975 019e 00       		.byte	0
 1976 019f 49       		.uleb128 0x49
 1977 01a0 13       		.uleb128 0x13
 1978 01a1 2F       		.uleb128 0x2f
 1979 01a2 0B       		.uleb128 0xb
 1980 01a3 00       		.byte	0
 1981 01a4 00       		.byte	0
 1982 01a5 21       		.uleb128 0x21
 1983 01a6 2E       		.uleb128 0x2e
 1984 01a7 01       		.byte	0x1
 1985 01a8 3F       		.uleb128 0x3f
 1986 01a9 19       		.uleb128 0x19
 1987 01aa 03       		.uleb128 0x3
 1988 01ab 0E       		.uleb128 0xe
 1989 01ac 3A       		.uleb128 0x3a
 1990 01ad 0B       		.uleb128 0xb
 1991 01ae 3B       		.uleb128 0x3b
 1992 01af 0B       		.uleb128 0xb
 1993 01b0 27       		.uleb128 0x27
ARM GAS  /tmp/cc6u7Fux.s 			page 36


 1994 01b1 19       		.uleb128 0x19
 1995 01b2 49       		.uleb128 0x49
 1996 01b3 13       		.uleb128 0x13
 1997 01b4 11       		.uleb128 0x11
 1998 01b5 01       		.uleb128 0x1
 1999 01b6 12       		.uleb128 0x12
 2000 01b7 06       		.uleb128 0x6
 2001 01b8 40       		.uleb128 0x40
 2002 01b9 18       		.uleb128 0x18
 2003 01ba 9642     		.uleb128 0x2116
 2004 01bc 19       		.uleb128 0x19
 2005 01bd 01       		.uleb128 0x1
 2006 01be 13       		.uleb128 0x13
 2007 01bf 00       		.byte	0
 2008 01c0 00       		.byte	0
 2009 01c1 22       		.uleb128 0x22
 2010 01c2 05       		.uleb128 0x5
 2011 01c3 00       		.byte	0
 2012 01c4 03       		.uleb128 0x3
 2013 01c5 0E       		.uleb128 0xe
 2014 01c6 3A       		.uleb128 0x3a
 2015 01c7 0B       		.uleb128 0xb
 2016 01c8 3B       		.uleb128 0x3b
 2017 01c9 0B       		.uleb128 0xb
 2018 01ca 49       		.uleb128 0x49
 2019 01cb 13       		.uleb128 0x13
 2020 01cc 02       		.uleb128 0x2
 2021 01cd 18       		.uleb128 0x18
 2022 01ce 00       		.byte	0
 2023 01cf 00       		.byte	0
 2024 01d0 23       		.uleb128 0x23
 2025 01d1 05       		.uleb128 0x5
 2026 01d2 00       		.byte	0
 2027 01d3 03       		.uleb128 0x3
 2028 01d4 08       		.uleb128 0x8
 2029 01d5 3A       		.uleb128 0x3a
 2030 01d6 0B       		.uleb128 0xb
 2031 01d7 3B       		.uleb128 0x3b
 2032 01d8 0B       		.uleb128 0xb
 2033 01d9 49       		.uleb128 0x49
 2034 01da 13       		.uleb128 0x13
 2035 01db 02       		.uleb128 0x2
 2036 01dc 18       		.uleb128 0x18
 2037 01dd 00       		.byte	0
 2038 01de 00       		.byte	0
 2039 01df 24       		.uleb128 0x24
 2040 01e0 34       		.uleb128 0x34
 2041 01e1 00       		.byte	0
 2042 01e2 03       		.uleb128 0x3
 2043 01e3 08       		.uleb128 0x8
 2044 01e4 3A       		.uleb128 0x3a
 2045 01e5 0B       		.uleb128 0xb
 2046 01e6 3B       		.uleb128 0x3b
 2047 01e7 0B       		.uleb128 0xb
 2048 01e8 49       		.uleb128 0x49
 2049 01e9 13       		.uleb128 0x13
 2050 01ea 02       		.uleb128 0x2
ARM GAS  /tmp/cc6u7Fux.s 			page 37


 2051 01eb 18       		.uleb128 0x18
 2052 01ec 00       		.byte	0
 2053 01ed 00       		.byte	0
 2054 01ee 25       		.uleb128 0x25
 2055 01ef 34       		.uleb128 0x34
 2056 01f0 00       		.byte	0
 2057 01f1 03       		.uleb128 0x3
 2058 01f2 0E       		.uleb128 0xe
 2059 01f3 3A       		.uleb128 0x3a
 2060 01f4 0B       		.uleb128 0xb
 2061 01f5 3B       		.uleb128 0x3b
 2062 01f6 05       		.uleb128 0x5
 2063 01f7 49       		.uleb128 0x49
 2064 01f8 13       		.uleb128 0x13
 2065 01f9 3F       		.uleb128 0x3f
 2066 01fa 19       		.uleb128 0x19
 2067 01fb 3C       		.uleb128 0x3c
 2068 01fc 19       		.uleb128 0x19
 2069 01fd 00       		.byte	0
 2070 01fe 00       		.byte	0
 2071 01ff 26       		.uleb128 0x26
 2072 0200 34       		.uleb128 0x34
 2073 0201 00       		.byte	0
 2074 0202 03       		.uleb128 0x3
 2075 0203 08       		.uleb128 0x8
 2076 0204 3A       		.uleb128 0x3a
 2077 0205 0B       		.uleb128 0xb
 2078 0206 3B       		.uleb128 0x3b
 2079 0207 05       		.uleb128 0x5
 2080 0208 49       		.uleb128 0x49
 2081 0209 13       		.uleb128 0x13
 2082 020a 3F       		.uleb128 0x3f
 2083 020b 19       		.uleb128 0x19
 2084 020c 3C       		.uleb128 0x3c
 2085 020d 19       		.uleb128 0x19
 2086 020e 00       		.byte	0
 2087 020f 00       		.byte	0
 2088 0210 00       		.byte	0
 2089              		.section	.debug_aranges,"",%progbits
 2090 0000 1C000000 		.4byte	0x1c
 2091 0004 0200     		.2byte	0x2
 2092 0006 00000000 		.4byte	.Ldebug_info0
 2093 000a 04       		.byte	0x4
 2094 000b 00       		.byte	0
 2095 000c 0000     		.2byte	0
 2096 000e 0000     		.2byte	0
 2097 0010 00000000 		.4byte	.Ltext0
 2098 0014 1E010000 		.4byte	.Letext0-.Ltext0
 2099 0018 00000000 		.4byte	0
 2100 001c 00000000 		.4byte	0
 2101              		.section	.debug_line,"",%progbits
 2102              	.Ldebug_line0:
 2103 0000 9D020000 		.section	.debug_str,"MS",%progbits,1
 2103      02003102 
 2103      00000201 
 2103      FB0E0D00 
 2103      01010101 
ARM GAS  /tmp/cc6u7Fux.s 			page 38


 2104              	.LASF89:
 2105 0000 7466756E 		.ascii	"tfunc_t\000"
 2105      635F7400 
 2106              	.LASF51:
 2107 0008 72656164 		.ascii	"ready_list_t\000"
 2107      795F6C69 
 2107      73745F74 
 2107      00
 2108              	.LASF2:
 2109 0015 73697A65 		.ascii	"size_t\000"
 2109      5F7400
 2110              	.LASF47:
 2111 001c 6E657874 		.ascii	"next\000"
 2111      00
 2112              	.LASF57:
 2113 0021 64656C74 		.ascii	"delta\000"
 2113      6100
 2114              	.LASF77:
 2115 0027 7264796D 		.ascii	"rdymsg\000"
 2115      736700
 2116              	.LASF92:
 2117 002e 66756E63 		.ascii	"funcp\000"
 2117      7000
 2118              	.LASF17:
 2119 0034 75696E74 		.ascii	"uint64_t\000"
 2119      36345F74 
 2119      00
 2120              	.LASF3:
 2121 003d 5F5F7569 		.ascii	"__uint8_t\000"
 2121      6E74385F 
 2121      7400
 2122              	.LASF50:
 2123 0047 70726576 		.ascii	"prev\000"
 2123      00
 2124              	.LASF74:
 2125 004c 706F7274 		.ascii	"port_intctx\000"
 2125      5F696E74 
 2125      63747800 
 2126              	.LASF106:
 2127 0058 70616765 		.ascii	"pages\000"
 2127      7300
 2128              	.LASF62:
 2129 005e 73797374 		.ascii	"system_debug_t\000"
 2129      656D5F64 
 2129      65627567 
 2129      5F7400
 2130              	.LASF100:
 2131 006d 70726F76 		.ascii	"provider\000"
 2131      69646572 
 2131      00
 2132              	.LASF93:
 2133 0076 74687265 		.ascii	"thread_descriptor_t\000"
 2133      61645F64 
 2133      65736372 
 2133      6970746F 
 2133      725F7400 
 2134              	.LASF112:
ARM GAS  /tmp/cc6u7Fux.s 			page 39


 2135 008a 706F7274 		.ascii	"port_lock\000"
 2135      5F6C6F63 
 2135      6B00
 2136              	.LASF96:
 2137 0094 6D656D67 		.ascii	"memgetfunc_t\000"
 2137      65746675 
 2137      6E635F74 
 2137      00
 2138              	.LASF91:
 2139 00a1 77656E64 		.ascii	"wend\000"
 2139      00
 2140              	.LASF13:
 2141 00a6 6C6F6E67 		.ascii	"long long unsigned int\000"
 2141      206C6F6E 
 2141      6720756E 
 2141      7369676E 
 2141      65642069 
 2142              	.LASF78:
 2143 00bd 65786974 		.ascii	"exitcode\000"
 2143      636F6465 
 2143      00
 2144              	.LASF69:
 2145 00c6 6D61696E 		.ascii	"mainthread\000"
 2145      74687265 
 2145      616400
 2146              	.LASF81:
 2147 00d1 73656E74 		.ascii	"sentmsg\000"
 2147      6D736700 
 2148              	.LASF59:
 2149 00d9 76697274 		.ascii	"virtual_timers_list_t\000"
 2149      75616C5F 
 2149      74696D65 
 2149      72735F6C 
 2149      6973745F 
 2150              	.LASF119:
 2151 00ef 49544D5F 		.ascii	"ITM_RxBuffer\000"
 2151      52784275 
 2151      66666572 
 2151      00
 2152              	.LASF115:
 2153 00fc 68656170 		.ascii	"heapp\000"
 2153      7000
 2154              	.LASF104:
 2155 0102 66726565 		.ascii	"free\000"
 2155      00
 2156              	.LASF49:
 2157 0107 63685F74 		.ascii	"ch_threads_queue\000"
 2157      68726561 
 2157      64735F71 
 2157      75657565 
 2157      00
 2158              	.LASF11:
 2159 0118 6C6F6E67 		.ascii	"long long int\000"
 2159      206C6F6E 
 2159      6720696E 
 2159      7400
 2160              	.LASF1:
ARM GAS  /tmp/cc6u7Fux.s 			page 40


 2161 0126 7369676E 		.ascii	"signed char\000"
 2161      65642063 
 2161      68617200 
 2162              	.LASF108:
 2163 0132 73697A65 		.ascii	"size\000"
 2163      00
 2164              	.LASF68:
 2165 0137 76746C69 		.ascii	"vtlist\000"
 2165      737400
 2166              	.LASF113:
 2167 013e 706F7274 		.ascii	"port_unlock\000"
 2167      5F756E6C 
 2167      6F636B00 
 2168              	.LASF38:
 2169 014a 6D736771 		.ascii	"msgqueue\000"
 2169      75657565 
 2169      00
 2170              	.LASF34:
 2171 0153 73746174 		.ascii	"state\000"
 2171      6500
 2172              	.LASF8:
 2173 0159 6C6F6E67 		.ascii	"long int\000"
 2173      20696E74 
 2173      00
 2174              	.LASF116:
 2175 0162 63685468 		.ascii	"chThdCreateFromHeap\000"
 2175      64437265 
 2175      61746546 
 2175      726F6D48 
 2175      65617000 
 2176              	.LASF20:
 2177 0176 74737461 		.ascii	"tstate_t\000"
 2177      74655F74 
 2177      00
 2178              	.LASF58:
 2179 017f 66756E63 		.ascii	"func\000"
 2179      00
 2180              	.LASF98:
 2181 0184 6D656D6F 		.ascii	"memory_heap_t\000"
 2181      72795F68 
 2181      6561705F 
 2181      7400
 2182              	.LASF97:
 2183 0192 6D656D67 		.ascii	"memgetfunc2_t\000"
 2183      65746675 
 2183      6E63325F 
 2183      7400
 2184              	.LASF33:
 2185 01a0 77616261 		.ascii	"wabase\000"
 2185      736500
 2186              	.LASF102:
 2187 01a7 68656170 		.ascii	"heap_header_t\000"
 2187      5F686561 
 2187      6465725F 
 2187      7400
 2188              	.LASF9:
 2189 01b5 5F5F7569 		.ascii	"__uint32_t\000"
ARM GAS  /tmp/cc6u7Fux.s 			page 41


 2189      6E743332 
 2189      5F7400
 2190              	.LASF71:
 2191 01c0 72656761 		.ascii	"regarm_t\000"
 2191      726D5F74 
 2191      00
 2192              	.LASF37:
 2193 01c9 77616974 		.ascii	"waiting\000"
 2193      696E6700 
 2194              	.LASF94:
 2195 01d1 6D757465 		.ascii	"mutex_t\000"
 2195      785F7400 
 2196              	.LASF125:
 2197 01d9 76616C75 		.ascii	"value\000"
 2197      6500
 2198              	.LASF103:
 2199 01df 616C6967 		.ascii	"align\000"
 2199      6E00
 2200              	.LASF73:
 2201 01e5 706F7274 		.ascii	"port_context\000"
 2201      5F636F6E 
 2201      74657874 
 2201      00
 2202              	.LASF25:
 2203 01f2 636E745F 		.ascii	"cnt_t\000"
 2203      7400
 2204              	.LASF0:
 2205 01f8 756E7369 		.ascii	"unsigned int\000"
 2205      676E6564 
 2205      20696E74 
 2205      00
 2206              	.LASF82:
 2207 0205 77747365 		.ascii	"wtsemp\000"
 2207      6D7000
 2208              	.LASF80:
 2209 020c 77747472 		.ascii	"wttrp\000"
 2209      7000
 2210              	.LASF122:
 2211 0212 2F686F6D 		.ascii	"/home/declan/ChibiOS2/ChibiOS/demos/STM32/RT-STM32F"
 2211      652F6465 
 2211      636C616E 
 2211      2F436869 
 2211      62694F53 
 2212 0245 3430372D 		.ascii	"407-DISCOVERY\000"
 2212      44495343 
 2212      4F564552 
 2212      5900
 2213              	.LASF111:
 2214 0253 6D656D6F 		.ascii	"memory_pool_t\000"
 2214      72795F70 
 2214      6F6F6C5F 
 2214      7400
 2215              	.LASF28:
 2216 0261 71756575 		.ascii	"queue\000"
 2216      6500
 2217              	.LASF42:
 2218 0267 6D706F6F 		.ascii	"mpool\000"
ARM GAS  /tmp/cc6u7Fux.s 			page 42


 2218      6C00
 2219              	.LASF6:
 2220 026d 73686F72 		.ascii	"short unsigned int\000"
 2220      7420756E 
 2220      7369676E 
 2220      65642069 
 2220      6E7400
 2221              	.LASF45:
 2222 0280 63685F74 		.ascii	"ch_thread\000"
 2222      68726561 
 2222      6400
 2223              	.LASF32:
 2224 028a 6E616D65 		.ascii	"name\000"
 2224      00
 2225              	.LASF23:
 2226 028f 6D73675F 		.ascii	"msg_t\000"
 2226      7400
 2227              	.LASF39:
 2228 0295 6570656E 		.ascii	"epending\000"
 2228      64696E67 
 2228      00
 2229              	.LASF65:
 2230 029e 63685F73 		.ascii	"ch_system_t\000"
 2230      79737465 
 2230      6D5F7400 
 2231              	.LASF19:
 2232 02aa 746D6F64 		.ascii	"tmode_t\000"
 2232      655F7400 
 2233              	.LASF52:
 2234 02b2 63685F72 		.ascii	"ch_ready_list\000"
 2234      65616479 
 2234      5F6C6973 
 2234      7400
 2235              	.LASF24:
 2236 02c0 6576656E 		.ascii	"eventmask_t\000"
 2236      746D6173 
 2236      6B5F7400 
 2237              	.LASF7:
 2238 02cc 5F5F696E 		.ascii	"__int32_t\000"
 2238      7433325F 
 2238      7400
 2239              	.LASF72:
 2240 02d6 73746B61 		.ascii	"stkalign_t\000"
 2240      6C69676E 
 2240      5F7400
 2241              	.LASF30:
 2242 02e1 6E657765 		.ascii	"newer\000"
 2242      7200
 2243              	.LASF41:
 2244 02e7 7265616C 		.ascii	"realprio\000"
 2244      7072696F 
 2244      00
 2245              	.LASF70:
 2246 02f0 73697A65 		.ascii	"sizetype\000"
 2246      74797065 
 2246      00
 2247              	.LASF43:
ARM GAS  /tmp/cc6u7Fux.s 			page 43


 2248 02f9 74687265 		.ascii	"thread_reference_t\000"
 2248      61645F72 
 2248      65666572 
 2248      656E6365 
 2248      5F7400
 2249              	.LASF60:
 2250 030c 63685F76 		.ascii	"ch_virtual_timers_list\000"
 2250      69727475 
 2250      616C5F74 
 2250      696D6572 
 2250      735F6C69 
 2251              	.LASF117:
 2252 0323 63685468 		.ascii	"chThdCreateFromMemoryPool\000"
 2252      64437265 
 2252      61746546 
 2252      726F6D4D 
 2252      656D6F72 
 2253              	.LASF90:
 2254 033d 77626173 		.ascii	"wbase\000"
 2254      6500
 2255              	.LASF76:
 2256 0343 746D5F63 		.ascii	"tm_calibration_t\000"
 2256      616C6962 
 2256      72617469 
 2256      6F6E5F74 
 2256      00
 2257              	.LASF29:
 2258 0354 7072696F 		.ascii	"prio\000"
 2258      00
 2259              	.LASF53:
 2260 0359 63757272 		.ascii	"current\000"
 2260      656E7400 
 2261              	.LASF12:
 2262 0361 5F5F7569 		.ascii	"__uint64_t\000"
 2262      6E743634 
 2262      5F7400
 2263              	.LASF105:
 2264 036c 75736564 		.ascii	"used\000"
 2264      00
 2265              	.LASF21:
 2266 0371 74726566 		.ascii	"trefs_t\000"
 2266      735F7400 
 2267              	.LASF36:
 2268 0379 72656673 		.ascii	"refs\000"
 2268      00
 2269              	.LASF55:
 2270 037e 76697274 		.ascii	"virtual_timer_t\000"
 2270      75616C5F 
 2270      74696D65 
 2270      725F7400 
 2271              	.LASF22:
 2272 038e 74707269 		.ascii	"tprio_t\000"
 2272      6F5F7400 
 2273              	.LASF63:
 2274 0396 63685F73 		.ascii	"ch_system_debug\000"
 2274      79737465 
 2274      6D5F6465 
ARM GAS  /tmp/cc6u7Fux.s 			page 44


 2274      62756700 
 2275              	.LASF95:
 2276 03a6 5F426F6F 		.ascii	"_Bool\000"
 2276      6C00
 2277              	.LASF15:
 2278 03ac 696E7433 		.ascii	"int32_t\000"
 2278      325F7400 
 2279              	.LASF4:
 2280 03b4 756E7369 		.ascii	"unsigned char\000"
 2280      676E6564 
 2280      20636861 
 2280      7200
 2281              	.LASF123:
 2282 03c2 68656170 		.ascii	"heap_header\000"
 2282      5F686561 
 2282      64657200 
 2283              	.LASF5:
 2284 03ce 73686F72 		.ascii	"short int\000"
 2284      7420696E 
 2284      7400
 2285              	.LASF61:
 2286 03d8 6C617374 		.ascii	"lasttime\000"
 2286      74696D65 
 2286      00
 2287              	.LASF84:
 2288 03e1 65776D61 		.ascii	"ewmask\000"
 2288      736B00
 2289              	.LASF66:
 2290 03e8 63685F73 		.ascii	"ch_system\000"
 2290      79737465 
 2290      6D00
 2291              	.LASF118:
 2292 03f2 5F5F6675 		.ascii	"__func__\000"
 2292      6E635F5F 
 2292      00
 2293              	.LASF126:
 2294 03fb 63685379 		.ascii	"chSysLock\000"
 2294      734C6F63 
 2294      6B00
 2295              	.LASF56:
 2296 0405 63685F76 		.ascii	"ch_virtual_timer\000"
 2296      69727475 
 2296      616C5F74 
 2296      696D6572 
 2296      00
 2297              	.LASF85:
 2298 0416 63685F73 		.ascii	"ch_semaphore\000"
 2298      656D6170 
 2298      686F7265 
 2298      00
 2299              	.LASF16:
 2300 0423 75696E74 		.ascii	"uint32_t\000"
 2300      33325F74 
 2300      00
 2301              	.LASF83:
 2302 042c 77746D74 		.ascii	"wtmtxp\000"
 2302      787000
ARM GAS  /tmp/cc6u7Fux.s 			page 45


 2303              	.LASF46:
 2304 0433 63685F74 		.ascii	"ch_threads_list\000"
 2304      68726561 
 2304      64735F6C 
 2304      69737400 
 2305              	.LASF87:
 2306 0443 6F776E65 		.ascii	"owner\000"
 2306      7200
 2307              	.LASF107:
 2308 0449 68656170 		.ascii	"heap\000"
 2308      00
 2309              	.LASF10:
 2310 044e 6C6F6E67 		.ascii	"long unsigned int\000"
 2310      20756E73 
 2310      69676E65 
 2310      6420696E 
 2310      7400
 2311              	.LASF120:
 2312 0460 474E5520 		.ascii	"GNU C 4.9.3 20150529 (prerelease) -mcpu=cortex-m4 -"
 2312      4320342E 
 2312      392E3320 
 2312      32303135 
 2312      30353239 
 2313 0493 6D6E6F2D 		.ascii	"mno-thumb-interwork -mthumb -ggdb -O0 -fomit-frame-"
 2313      7468756D 
 2313      622D696E 
 2313      74657277 
 2313      6F726B20 
 2314 04c6 706F696E 		.ascii	"pointer -falign-functions=16\000"
 2314      74657220 
 2314      2D66616C 
 2314      69676E2D 
 2314      66756E63 
 2315              	.LASF88:
 2316 04e3 63686172 		.ascii	"char\000"
 2316      00
 2317              	.LASF31:
 2318 04e8 6F6C6465 		.ascii	"older\000"
 2318      7200
 2319              	.LASF27:
 2320 04ee 74687265 		.ascii	"thread_t\000"
 2320      61645F74 
 2320      00
 2321              	.LASF26:
 2322 04f7 73797374 		.ascii	"systime_t\000"
 2322      696D655F 
 2322      7400
 2323              	.LASF54:
 2324 0501 76746675 		.ascii	"vtfunc_t\000"
 2324      6E635F74 
 2324      00
 2325              	.LASF124:
 2326 050a 5F5F7365 		.ascii	"__set_BASEPRI\000"
 2326      745F4241 
 2326      53455052 
 2326      4900
 2327              	.LASF64:
ARM GAS  /tmp/cc6u7Fux.s 			page 46


 2328 0518 70616E69 		.ascii	"panic_msg\000"
 2328      635F6D73 
 2328      6700
 2329              	.LASF75:
 2330 0522 6F666673 		.ascii	"offset\000"
 2330      657400
 2331              	.LASF86:
 2332 0529 63685F6D 		.ascii	"ch_mutex\000"
 2332      75746578 
 2332      00
 2333              	.LASF18:
 2334 0532 7274636E 		.ascii	"rtcnt_t\000"
 2334      745F7400 
 2335              	.LASF110:
 2336 053a 6F626A65 		.ascii	"object_size\000"
 2336      63745F73 
 2336      697A6500 
 2337              	.LASF48:
 2338 0546 74687265 		.ascii	"threads_queue_t\000"
 2338      6164735F 
 2338      71756575 
 2338      655F7400 
 2339              	.LASF109:
 2340 0556 706F6F6C 		.ascii	"pool_header\000"
 2340      5F686561 
 2340      64657200 
 2341              	.LASF67:
 2342 0562 726C6973 		.ascii	"rlist\000"
 2342      7400
 2343              	.LASF14:
 2344 0568 75696E74 		.ascii	"uint8_t\000"
 2344      385F7400 
 2345              	.LASF35:
 2346 0570 666C6167 		.ascii	"flags\000"
 2346      7300
 2347              	.LASF79:
 2348 0576 77746F62 		.ascii	"wtobjp\000"
 2348      6A7000
 2349              	.LASF121:
 2350 057d 2E2E2F2E 		.ascii	"../../../os/rt/src/chdynamic.c\000"
 2350      2E2F2E2E 
 2350      2F6F732F 
 2350      72742F73 
 2350      72632F63 
 2351              	.LASF44:
 2352 059c 74687265 		.ascii	"threads_list_t\000"
 2352      6164735F 
 2352      6C697374 
 2352      5F7400
 2353              	.LASF114:
 2354 05ab 63685379 		.ascii	"chSysUnlock\000"
 2354      73556E6C 
 2354      6F636B00 
 2355              	.LASF40:
 2356 05b7 6D74786C 		.ascii	"mtxlist\000"
 2356      69737400 
 2357              	.LASF101:
ARM GAS  /tmp/cc6u7Fux.s 			page 47


 2358 05bf 68656164 		.ascii	"header\000"
 2358      657200
 2359              	.LASF99:
 2360 05c6 6D656D6F 		.ascii	"memory_heap\000"
 2360      72795F68 
 2360      65617000 
 2361              		.ident	"GCC: (15:4.9.3+svn231177-1) 4.9.3 20150529 (prerelease)"
ARM GAS  /tmp/cc6u7Fux.s 			page 48


DEFINED SYMBOLS
                            *ABS*:0000000000000000 chdynamic.c
     /tmp/cc6u7Fux.s:18     .text:0000000000000000 $t
     /tmp/cc6u7Fux.s:23     .text:0000000000000000 port_lock
     /tmp/cc6u7Fux.s:59     .text:0000000000000010 port_unlock
     /tmp/cc6u7Fux.s:93     .text:0000000000000020 chSysLock
     /tmp/cc6u7Fux.s:116    .text:0000000000000030 chSysUnlock
     /tmp/cc6u7Fux.s:139    .text:0000000000000040 chThdCreateFromHeap
     /tmp/cc6u7Fux.s:221    .text:00000000000000b0 chThdCreateFromMemoryPool
                     .debug_frame:0000000000000010 $d

UNDEFINED SYMBOLS
chHeapAllocAligned
chThdCreateSuspendedI
chSchWakeupS
chPoolAlloc
