ARM GAS  /tmp/cc6u7Fux.s 			page 1


   1              		.syntax unified
   2              		.cpu cortex-m4
   3              		.fpu softvfp
   4              		.eabi_attribute 20, 1
   5              		.eabi_attribute 21, 1
   6              		.eabi_attribute 23, 3
   7              		.eabi_attribute 24, 1
   8              		.eabi_attribute 25, 1
   9              		.eabi_attribute 26, 1
  10              		.eabi_attribute 30, 6
  11              		.eabi_attribute 34, 1
  12              		.eabi_attribute 18, 4
  13              		.thumb
  14              		.file	"chdynamic.c"
  15              		.text
  16              	.Ltext0:
  17              		.cfi_sections	.debug_frame
  18              		.align	2
  19              		.p2align 4,,15
  20              		.thumb
  21              		.thumb_func
  22              		.type	port_lock, %function
  23              	port_lock:
  24              	.LFB127:
  25              		.file 1 "../../../os/common/ports/ARMCMx/chcore_v7m.h"
  26              		.loc 1 594 0
  27              		.cfi_startproc
  28              		@ args = 0, pretend = 0, frame = 8
  29              		@ frame_needed = 0, uses_anonymous_args = 0
  30              		@ link register save eliminated.
  31 0000 82B0     		sub	sp, sp, #8
  32              		.cfi_def_cfa_offset 8
  33 0002 2023     		movs	r3, #32
  34 0004 0193     		str	r3, [sp, #4]
  35              	.LBB6:
  36              	.LBB7:
  37              		.file 2 "../../../os/common/ext/CMSIS/include/cmsis_gcc.h"
  38              		.loc 2 264 0
  39 0006 019B     		ldr	r3, [sp, #4]
  40              	@ 264 "../../../os/common/ext/CMSIS/include/cmsis_gcc.h" 1
  41 0008 83F31188 		MSR basepri, r3
  42              	@ 0 "" 2
  43              		.thumb
  44              	.LBE7:
  45              	.LBE6:
  46              		.loc 1 611 0
  47 000c 02B0     		add	sp, sp, #8
  48              		.cfi_def_cfa_offset 0
  49              		@ sp needed
  50 000e 7047     		bx	lr
  51              		.cfi_endproc
  52              	.LFE127:
  53              		.size	port_lock, .-port_lock
  54              		.align	2
  55              		.p2align 4,,15
  56              		.thumb
  57              		.thumb_func
ARM GAS  /tmp/cc6u7Fux.s 			page 2


  58              		.type	port_unlock, %function
  59              	port_unlock:
  60              	.LFB128:
  61              		.loc 1 618 0
  62              		.cfi_startproc
  63              		@ args = 0, pretend = 0, frame = 8
  64              		@ frame_needed = 0, uses_anonymous_args = 0
  65              		@ link register save eliminated.
  66 0010 82B0     		sub	sp, sp, #8
  67              		.cfi_def_cfa_offset 8
  68 0012 0023     		movs	r3, #0
  69 0014 0193     		str	r3, [sp, #4]
  70              	.LBB8:
  71              	.LBB9:
  72              		.loc 2 264 0
  73 0016 019B     		ldr	r3, [sp, #4]
  74              	@ 264 "../../../os/common/ext/CMSIS/include/cmsis_gcc.h" 1
  75 0018 83F31188 		MSR basepri, r3
  76              	@ 0 "" 2
  77              		.thumb
  78              	.LBE9:
  79              	.LBE8:
  80              		.loc 1 625 0
  81 001c 02B0     		add	sp, sp, #8
  82              		.cfi_def_cfa_offset 0
  83              		@ sp needed
  84 001e 7047     		bx	lr
  85              		.cfi_endproc
  86              	.LFE128:
  87              		.size	port_unlock, .-port_unlock
  88              		.align	2
  89              		.p2align 4,,15
  90              		.thumb
  91              		.thumb_func
  92              		.type	chSysLock, %function
  93              	chSysLock:
  94              	.LFB167:
  95              		.file 3 "../../../os/rt/include/chsys.h"
  96              		.loc 3 374 0
  97              		.cfi_startproc
  98              		@ args = 0, pretend = 0, frame = 0
  99              		@ frame_needed = 0, uses_anonymous_args = 0
 100 0020 08B5     		push	{r3, lr}
 101              		.cfi_def_cfa_offset 8
 102              		.cfi_offset 3, -8
 103              		.cfi_offset 14, -4
 104              		.loc 3 376 0
 105 0022 FFF7EDFF 		bl	port_lock
 106              		.loc 3 379 0
 107 0026 08BD     		pop	{r3, pc}
 108              		.cfi_endproc
 109              	.LFE167:
 110              		.size	chSysLock, .-chSysLock
 111              		.align	2
 112 0028 AFF30080 		.p2align 4,,15
 112      AFF30080 
 113              		.thumb
ARM GAS  /tmp/cc6u7Fux.s 			page 3


 114              		.thumb_func
 115              		.type	chSysUnlock, %function
 116              	chSysUnlock:
 117              	.LFB168:
 118              		.loc 3 386 0
 119              		.cfi_startproc
 120              		@ args = 0, pretend = 0, frame = 0
 121              		@ frame_needed = 0, uses_anonymous_args = 0
 122 0030 08B5     		push	{r3, lr}
 123              		.cfi_def_cfa_offset 8
 124              		.cfi_offset 3, -8
 125              		.cfi_offset 14, -4
 126              		.loc 3 399 0
 127 0032 FFF7EDFF 		bl	port_unlock
 128              		.loc 3 400 0
 129 0036 08BD     		pop	{r3, pc}
 130              		.cfi_endproc
 131              	.LFE168:
 132              		.size	chSysUnlock, .-chSysUnlock
 133              		.align	2
 134 0038 AFF30080 		.p2align 4,,15
 134      AFF30080 
 135              		.global	chThdCreateFromHeap
 136              		.thumb
 137              		.thumb_func
 138              		.type	chThdCreateFromHeap, %function
 139              	chThdCreateFromHeap:
 140              	.LFB248:
 141              		.file 4 "../../../os/rt/src/chdynamic.c"
 142              		.loc 4 84 0
 143              		.cfi_startproc
 144              		@ args = 8, pretend = 0, frame = 48
 145              		@ frame_needed = 0, uses_anonymous_args = 0
 146 0040 00B5     		push	{lr}
 147              		.cfi_def_cfa_offset 4
 148              		.cfi_offset 14, -4
 149 0042 8DB0     		sub	sp, sp, #52
 150              		.cfi_def_cfa_offset 56
 151 0044 0390     		str	r0, [sp, #12]
 152 0046 0291     		str	r1, [sp, #8]
 153 0048 0192     		str	r2, [sp, #4]
 154 004a 0093     		str	r3, [sp]
 155              		.loc 4 88 0
 156 004c 0398     		ldr	r0, [sp, #12]
 157 004e 0299     		ldr	r1, [sp, #8]
 158 0050 0822     		movs	r2, #8
 159 0052 FFF7FEFF 		bl	chHeapAllocAligned
 160 0056 0B90     		str	r0, [sp, #44]
 161              		.loc 4 89 0
 162 0058 0B9B     		ldr	r3, [sp, #44]
 163 005a 002B     		cmp	r3, #0
 164 005c 01D1     		bne	.L6
 165              		.loc 4 90 0
 166 005e 0023     		movs	r3, #0
 167 0060 1FE0     		b	.L8
 168              	.L6:
 169              		.loc 4 93 0
ARM GAS  /tmp/cc6u7Fux.s 			page 4


 170 0062 019B     		ldr	r3, [sp, #4]
 171 0064 0493     		str	r3, [sp, #16]
 172 0066 0B9B     		ldr	r3, [sp, #44]
 173 0068 0593     		str	r3, [sp, #20]
 174              		.loc 4 96 0
 175 006a 0B9A     		ldr	r2, [sp, #44]
 176 006c 029B     		ldr	r3, [sp, #8]
 177 006e 1344     		add	r3, r3, r2
 178              		.loc 4 93 0
 179 0070 0693     		str	r3, [sp, #24]
 180 0072 009B     		ldr	r3, [sp]
 181 0074 0793     		str	r3, [sp, #28]
 182 0076 0E9B     		ldr	r3, [sp, #56]
 183 0078 0893     		str	r3, [sp, #32]
 184 007a 0F9B     		ldr	r3, [sp, #60]
 185 007c 0993     		str	r3, [sp, #36]
 186              		.loc 4 108 0
 187 007e FFF7CFFF 		bl	chSysLock
 188              		.loc 4 109 0
 189 0082 04AB     		add	r3, sp, #16
 190 0084 1846     		mov	r0, r3
 191 0086 FFF7FEFF 		bl	chThdCreateSuspendedI
 192 008a 0A90     		str	r0, [sp, #40]
 193              		.loc 4 110 0
 194 008c 0A9B     		ldr	r3, [sp, #40]
 195 008e 0122     		movs	r2, #1
 196 0090 83F82120 		strb	r2, [r3, #33]
 197              		.loc 4 111 0
 198 0094 0A98     		ldr	r0, [sp, #40]
 199 0096 0021     		movs	r1, #0
 200 0098 FFF7FEFF 		bl	chSchWakeupS
 201              		.loc 4 112 0
 202 009c FFF7C8FF 		bl	chSysUnlock
 203              		.loc 4 114 0
 204 00a0 0A9B     		ldr	r3, [sp, #40]
 205              	.L8:
 206              		.loc 4 115 0 discriminator 1
 207 00a2 1846     		mov	r0, r3
 208 00a4 0DB0     		add	sp, sp, #52
 209              		.cfi_def_cfa_offset 4
 210              		@ sp needed
 211 00a6 5DF804FB 		ldr	pc, [sp], #4
 212              		.cfi_endproc
 213              	.LFE248:
 214              		.size	chThdCreateFromHeap, .-chThdCreateFromHeap
 215 00aa 00BF     		.align	2
 216 00ac AFF30080 		.p2align 4,,15
 217              		.global	chThdCreateFromMemoryPool
 218              		.thumb
 219              		.thumb_func
 220              		.type	chThdCreateFromMemoryPool, %function
 221              	chThdCreateFromMemoryPool:
 222              	.LFB249:
 223              		.loc 4 146 0
 224              		.cfi_startproc
 225              		@ args = 4, pretend = 0, frame = 48
 226              		@ frame_needed = 0, uses_anonymous_args = 0
ARM GAS  /tmp/cc6u7Fux.s 			page 5


 227 00b0 00B5     		push	{lr}
 228              		.cfi_def_cfa_offset 4
 229              		.cfi_offset 14, -4
 230 00b2 8DB0     		sub	sp, sp, #52
 231              		.cfi_def_cfa_offset 56
 232 00b4 0390     		str	r0, [sp, #12]
 233 00b6 0291     		str	r1, [sp, #8]
 234 00b8 0192     		str	r2, [sp, #4]
 235 00ba 0093     		str	r3, [sp]
 236              		.loc 4 152 0
 237 00bc 0398     		ldr	r0, [sp, #12]
 238 00be FFF7FEFF 		bl	chPoolAlloc
 239 00c2 0B90     		str	r0, [sp, #44]
 240              		.loc 4 153 0
 241 00c4 0B9B     		ldr	r3, [sp, #44]
 242 00c6 002B     		cmp	r3, #0
 243 00c8 01D1     		bne	.L10
 244              		.loc 4 154 0
 245 00ca 0023     		movs	r3, #0
 246 00cc 23E0     		b	.L12
 247              	.L10:
 248              		.loc 4 157 0
 249 00ce 029B     		ldr	r3, [sp, #8]
 250 00d0 0493     		str	r3, [sp, #16]
 251 00d2 0B9B     		ldr	r3, [sp, #44]
 252 00d4 0593     		str	r3, [sp, #20]
 253              		.loc 4 160 0
 254 00d6 039B     		ldr	r3, [sp, #12]
 255 00d8 5B68     		ldr	r3, [r3, #4]
 256 00da 0B9A     		ldr	r2, [sp, #44]
 257 00dc 1344     		add	r3, r3, r2
 258              		.loc 4 157 0
 259 00de 0693     		str	r3, [sp, #24]
 260 00e0 019B     		ldr	r3, [sp, #4]
 261 00e2 0793     		str	r3, [sp, #28]
 262 00e4 009B     		ldr	r3, [sp]
 263 00e6 0893     		str	r3, [sp, #32]
 264 00e8 0E9B     		ldr	r3, [sp, #56]
 265 00ea 0993     		str	r3, [sp, #36]
 266              		.loc 4 172 0
 267 00ec FFF798FF 		bl	chSysLock
 268              		.loc 4 173 0
 269 00f0 04AB     		add	r3, sp, #16
 270 00f2 1846     		mov	r0, r3
 271 00f4 FFF7FEFF 		bl	chThdCreateSuspendedI
 272 00f8 0A90     		str	r0, [sp, #40]
 273              		.loc 4 174 0
 274 00fa 0A9B     		ldr	r3, [sp, #40]
 275 00fc 0222     		movs	r2, #2
 276 00fe 83F82120 		strb	r2, [r3, #33]
 277              		.loc 4 175 0
 278 0102 0A9B     		ldr	r3, [sp, #40]
 279 0104 039A     		ldr	r2, [sp, #12]
 280 0106 1A64     		str	r2, [r3, #64]
 281              		.loc 4 176 0
 282 0108 0A98     		ldr	r0, [sp, #40]
 283 010a 0021     		movs	r1, #0
ARM GAS  /tmp/cc6u7Fux.s 			page 6


 284 010c FFF7FEFF 		bl	chSchWakeupS
 285              		.loc 4 177 0
 286 0110 FFF78EFF 		bl	chSysUnlock
 287              		.loc 4 179 0
 288 0114 0A9B     		ldr	r3, [sp, #40]
 289              	.L12:
 290              		.loc 4 180 0 discriminator 1
 291 0116 1846     		mov	r0, r3
 292 0118 0DB0     		add	sp, sp, #52
 293              		.cfi_def_cfa_offset 4
 294              		@ sp needed
 295 011a 5DF804FB 		ldr	pc, [sp], #4
 296              		.cfi_endproc
 297              	.LFE249:
 298              		.size	chThdCreateFromMemoryPool, .-chThdCreateFromMemoryPool
 299              	.Letext0:
 300              		.file 5 "/usr/lib/gcc/arm-none-eabi/4.9.3/include/stddef.h"
 301              		.file 6 "/usr/include/newlib/machine/_default_types.h"
 302              		.file 7 "/usr/include/newlib/sys/_stdint.h"
 303              		.file 8 "../../../os/common/ports/ARMCMx/compilers/GCC/chtypes.h"
 304              		.file 9 "../../../os/rt/include/chsystypes.h"
 305              		.file 10 "../../../os/rt/include/chschd.h"
 306              		.file 11 "../../../os/common/ports/ARMCMx/chcore.h"
 307              		.file 12 "../../../os/rt/include/chtm.h"
 308              		.file 13 "../../../os/rt/include/chsem.h"
 309              		.file 14 "../../../os/rt/include/chmtx.h"
 310              		.file 15 "../../../os/rt/include/chthreads.h"
 311              		.file 16 "../../../os/common/oslib/include/chmemcore.h"
 312              		.file 17 "../../../os/common/oslib/include/chheap.h"
 313              		.file 18 "../../../os/common/oslib/include/chmempools.h"
 314              		.file 19 "../../../os/common/ext/CMSIS/include/core_cm4.h"