ARM GAS  /tmp/ccJUuh9D.s 			page 1


   1              		.syntax unified
   2              		.cpu cortex-m4
   3              		.fpu softvfp
   4              		.eabi_attribute 20, 1
   5              		.eabi_attribute 21, 1
   6              		.eabi_attribute 23, 3
   7              		.eabi_attribute 24, 1
   8              		.eabi_attribute 25, 1
   9              		.eabi_attribute 26, 1
  10              		.eabi_attribute 30, 6
  11              		.eabi_attribute 34, 1
  12              		.eabi_attribute 18, 4
  13              		.thumb
  14              		.file	"chevents.c"
  15              		.text
  16              	.Ltext0:
  17              		.cfi_sections	.debug_frame
  18              		.align	2
  19              		.p2align 4,,15
  20              		.thumb
  21              		.thumb_func
  22              		.type	port_lock, %function
  23              	port_lock:
  24              	.LFB127:
  25              		.file 1 "../../../os/common/ports/ARMCMx/chcore_v7m.h"
  26              		.loc 1 594 0
  27              		.cfi_startproc
  28              		@ args = 0, pretend = 0, frame = 8
  29              		@ frame_needed = 0, uses_anonymous_args = 0
  30              		@ link register save eliminated.
  31 0000 82B0     		sub	sp, sp, #8
  32              		.cfi_def_cfa_offset 8
  33 0002 2023     		movs	r3, #32
  34 0004 0193     		str	r3, [sp, #4]
  35              	.LBB6:
  36              	.LBB7:
  37              		.file 2 "../../../os/common/ext/CMSIS/include/cmsis_gcc.h"
  38              		.loc 2 264 0
  39 0006 019B     		ldr	r3, [sp, #4]
  40              	@ 264 "../../../os/common/ext/CMSIS/include/cmsis_gcc.h" 1
  41 0008 83F31188 		MSR basepri, r3
  42              	@ 0 "" 2
  43              		.thumb
  44              	.LBE7:
  45              	.LBE6:
  46              		.loc 1 611 0
  47 000c 02B0     		add	sp, sp, #8
  48              		.cfi_def_cfa_offset 0
  49              		@ sp needed
  50 000e 7047     		bx	lr
  51              		.cfi_endproc
  52              	.LFE127:
  53              		.size	port_lock, .-port_lock
  54              		.align	2
  55              		.p2align 4,,15
  56              		.thumb
  57              		.thumb_func
ARM GAS  /tmp/ccJUuh9D.s 			page 2


  58              		.type	port_unlock, %function
  59              	port_unlock:
  60              	.LFB128:
  61              		.loc 1 618 0
  62              		.cfi_startproc
  63              		@ args = 0, pretend = 0, frame = 8
  64              		@ frame_needed = 0, uses_anonymous_args = 0
  65              		@ link register save eliminated.
  66 0010 82B0     		sub	sp, sp, #8
  67              		.cfi_def_cfa_offset 8
  68 0012 0023     		movs	r3, #0
  69 0014 0193     		str	r3, [sp, #4]
  70              	.LBB8:
  71              	.LBB9:
  72              		.loc 2 264 0
  73 0016 019B     		ldr	r3, [sp, #4]
  74              	@ 264 "../../../os/common/ext/CMSIS/include/cmsis_gcc.h" 1
  75 0018 83F31188 		MSR basepri, r3
  76              	@ 0 "" 2
  77              		.thumb
  78              	.LBE9:
  79              	.LBE8:
  80              		.loc 1 625 0
  81 001c 02B0     		add	sp, sp, #8
  82              		.cfi_def_cfa_offset 0
  83              		@ sp needed
  84 001e 7047     		bx	lr
  85              		.cfi_endproc
  86              	.LFE128:
  87              		.size	port_unlock, .-port_unlock
  88              		.align	2
  89              		.p2align 4,,15
  90              		.thumb
  91              		.thumb_func
  92              		.type	chSysLock, %function
  93              	chSysLock:
  94              	.LFB167:
  95              		.file 3 "../../../os/rt/include/chsys.h"
  96              		.loc 3 374 0
  97              		.cfi_startproc
  98              		@ args = 0, pretend = 0, frame = 0
  99              		@ frame_needed = 0, uses_anonymous_args = 0
 100 0020 08B5     		push	{r3, lr}
 101              		.cfi_def_cfa_offset 8
 102              		.cfi_offset 3, -8
 103              		.cfi_offset 14, -4
 104              		.loc 3 376 0
 105 0022 FFF7EDFF 		bl	port_lock
 106              		.loc 3 379 0
 107 0026 08BD     		pop	{r3, pc}
 108              		.cfi_endproc
 109              	.LFE167:
 110              		.size	chSysLock, .-chSysLock
 111              		.align	2
 112 0028 AFF30080 		.p2align 4,,15
 112      AFF30080 
 113              		.thumb
ARM GAS  /tmp/ccJUuh9D.s 			page 3


 114              		.thumb_func
 115              		.type	chSysUnlock, %function
 116              	chSysUnlock:
 117              	.LFB168:
 118              		.loc 3 386 0
 119              		.cfi_startproc
 120              		@ args = 0, pretend = 0, frame = 0
 121              		@ frame_needed = 0, uses_anonymous_args = 0
 122 0030 08B5     		push	{r3, lr}
 123              		.cfi_def_cfa_offset 8
 124              		.cfi_offset 3, -8
 125              		.cfi_offset 14, -4
 126              		.loc 3 399 0
 127 0032 FFF7EDFF 		bl	port_unlock
 128              		.loc 3 400 0
 129 0036 08BD     		pop	{r3, pc}
 130              		.cfi_endproc
 131              	.LFE168:
 132              		.size	chSysUnlock, .-chSysUnlock
 133              		.align	2
 134 0038 AFF30080 		.p2align 4,,15
 134      AFF30080 
 135              		.global	chEvtRegisterMaskWithFlags
 136              		.thumb
 137              		.thumb_func
 138              		.type	chEvtRegisterMaskWithFlags, %function
 139              	chEvtRegisterMaskWithFlags:
 140              	.LFB248:
 141              		.file 4 "../../../os/rt/src/chevents.c"
 142              		.loc 4 106 0
 143              		.cfi_startproc
 144              		@ args = 0, pretend = 0, frame = 16
 145              		@ frame_needed = 0, uses_anonymous_args = 0
 146 0040 00B5     		push	{lr}
 147              		.cfi_def_cfa_offset 4
 148              		.cfi_offset 14, -4
 149 0042 85B0     		sub	sp, sp, #20
 150              		.cfi_def_cfa_offset 24
 151 0044 0390     		str	r0, [sp, #12]
 152 0046 0291     		str	r1, [sp, #8]
 153 0048 0192     		str	r2, [sp, #4]
 154 004a 0093     		str	r3, [sp]
 155              		.loc 4 110 0
 156 004c FFF7E8FF 		bl	chSysLock
 157              		.loc 4 111 0
 158 0050 039B     		ldr	r3, [sp, #12]
 159 0052 1A68     		ldr	r2, [r3]
 160 0054 029B     		ldr	r3, [sp, #8]
 161 0056 1A60     		str	r2, [r3]
 162              		.loc 4 112 0
 163 0058 039B     		ldr	r3, [sp, #12]
 164 005a 029A     		ldr	r2, [sp, #8]
 165 005c 1A60     		str	r2, [r3]
 166              		.loc 4 113 0
 167 005e 094B     		ldr	r3, .L6
 168 0060 9A69     		ldr	r2, [r3, #24]
 169 0062 029B     		ldr	r3, [sp, #8]
ARM GAS  /tmp/ccJUuh9D.s 			page 4


 170 0064 5A60     		str	r2, [r3, #4]
 171              		.loc 4 114 0
 172 0066 029B     		ldr	r3, [sp, #8]
 173 0068 019A     		ldr	r2, [sp, #4]
 174 006a 9A60     		str	r2, [r3, #8]
 175              		.loc 4 115 0
 176 006c 029B     		ldr	r3, [sp, #8]
 177 006e 0022     		movs	r2, #0
 178 0070 DA60     		str	r2, [r3, #12]
 179              		.loc 4 116 0
 180 0072 029B     		ldr	r3, [sp, #8]
 181 0074 009A     		ldr	r2, [sp]
 182 0076 1A61     		str	r2, [r3, #16]
 183              		.loc 4 117 0
 184 0078 FFF7DAFF 		bl	chSysUnlock
 185              		.loc 4 118 0
 186 007c 05B0     		add	sp, sp, #20
 187              		.cfi_def_cfa_offset 4
 188              		@ sp needed
 189 007e 5DF804FB 		ldr	pc, [sp], #4
 190              	.L7:
 191 0082 00BF     		.align	2
 192              	.L6:
 193 0084 00000000 		.word	ch
 194              		.cfi_endproc
 195              	.LFE248:
 196              		.size	chEvtRegisterMaskWithFlags, .-chEvtRegisterMaskWithFlags
 197              		.align	2
 198 0088 AFF30080 		.p2align 4,,15
 198      AFF30080 
 199              		.global	chEvtUnregister
 200              		.thumb
 201              		.thumb_func
 202              		.type	chEvtUnregister, %function
 203              	chEvtUnregister:
 204              	.LFB249:
 205              		.loc 4 133 0
 206              		.cfi_startproc
 207              		@ args = 0, pretend = 0, frame = 16
 208              		@ frame_needed = 0, uses_anonymous_args = 0
 209 0090 00B5     		push	{lr}
 210              		.cfi_def_cfa_offset 4
 211              		.cfi_offset 14, -4
 212 0092 85B0     		sub	sp, sp, #20
 213              		.cfi_def_cfa_offset 24
 214 0094 0190     		str	r0, [sp, #4]
 215 0096 0091     		str	r1, [sp]
 216              		.loc 4 139 0
 217 0098 019B     		ldr	r3, [sp, #4]
 218 009a 0393     		str	r3, [sp, #12]
 219              		.loc 4 141 0
 220 009c FFF7C0FF 		bl	chSysLock
 221              		.loc 4 143 0
 222 00a0 0CE0     		b	.L9
 223              	.L12:
 224              		.loc 4 145 0
 225 00a2 039B     		ldr	r3, [sp, #12]
ARM GAS  /tmp/ccJUuh9D.s 			page 5


 226 00a4 1A68     		ldr	r2, [r3]
 227 00a6 009B     		ldr	r3, [sp]
 228 00a8 9A42     		cmp	r2, r3
 229 00aa 04D1     		bne	.L10
 230              		.loc 4 146 0
 231 00ac 009B     		ldr	r3, [sp]
 232 00ae 1A68     		ldr	r2, [r3]
 233 00b0 039B     		ldr	r3, [sp, #12]
 234 00b2 1A60     		str	r2, [r3]
 235              		.loc 4 147 0
 236 00b4 07E0     		b	.L11
 237              	.L10:
 238              		.loc 4 149 0
 239 00b6 039B     		ldr	r3, [sp, #12]
 240 00b8 1B68     		ldr	r3, [r3]
 241 00ba 0393     		str	r3, [sp, #12]
 242              	.L9:
 243              		.loc 4 143 0
 244 00bc 039B     		ldr	r3, [sp, #12]
 245 00be 1A68     		ldr	r2, [r3]
 246 00c0 019B     		ldr	r3, [sp, #4]
 247 00c2 9A42     		cmp	r2, r3
 248 00c4 EDD1     		bne	.L12
 249              	.L11:
 250              		.loc 4 151 0
 251 00c6 FFF7B3FF 		bl	chSysUnlock
 252              		.loc 4 152 0
 253 00ca 05B0     		add	sp, sp, #20
 254              		.cfi_def_cfa_offset 4
 255              		@ sp needed
 256 00cc 5DF804FB 		ldr	pc, [sp], #4
 257              		.cfi_endproc
 258              	.LFE249:
 259              		.size	chEvtUnregister, .-chEvtUnregister
 260              		.align	2
 261              		.p2align 4,,15
 262              		.global	chEvtGetAndClearEvents
 263              		.thumb
 264              		.thumb_func
 265              		.type	chEvtGetAndClearEvents, %function
 266              	chEvtGetAndClearEvents:
 267              	.LFB250:
 268              		.loc 4 162 0
 269              		.cfi_startproc
 270              		@ args = 0, pretend = 0, frame = 16
 271              		@ frame_needed = 0, uses_anonymous_args = 0
 272 00d0 00B5     		push	{lr}
 273              		.cfi_def_cfa_offset 4
 274              		.cfi_offset 14, -4
 275 00d2 85B0     		sub	sp, sp, #20
 276              		.cfi_def_cfa_offset 24
 277 00d4 0190     		str	r0, [sp, #4]
 278              		.loc 4 165 0
 279 00d6 FFF7A3FF 		bl	chSysLock
 280              		.loc 4 166 0
 281 00da 0B4B     		ldr	r3, .L15
 282 00dc 9B69     		ldr	r3, [r3, #24]
ARM GAS  /tmp/ccJUuh9D.s 			page 6


 283 00de 5A6B     		ldr	r2, [r3, #52]
 284 00e0 019B     		ldr	r3, [sp, #4]
 285 00e2 1340     		ands	r3, r3, r2
 286 00e4 0393     		str	r3, [sp, #12]
 287              		.loc 4 167 0
 288 00e6 084B     		ldr	r3, .L15
 289 00e8 9B69     		ldr	r3, [r3, #24]
 290 00ea 074A     		ldr	r2, .L15
 291 00ec 9269     		ldr	r2, [r2, #24]
 292 00ee 516B     		ldr	r1, [r2, #52]
 293 00f0 019A     		ldr	r2, [sp, #4]
 294 00f2 D243     		mvns	r2, r2
 295 00f4 0A40     		ands	r2, r2, r1
 296 00f6 5A63     		str	r2, [r3, #52]
 297              		.loc 4 168 0
 298 00f8 FFF79AFF 		bl	chSysUnlock
 299              		.loc 4 170 0
 300 00fc 039B     		ldr	r3, [sp, #12]
 301              		.loc 4 171 0
 302 00fe 1846     		mov	r0, r3
 303 0100 05B0     		add	sp, sp, #20
 304              		.cfi_def_cfa_offset 4
 305              		@ sp needed
 306 0102 5DF804FB 		ldr	pc, [sp], #4
 307              	.L16:
 308 0106 00BF     		.align	2
 309              	.L15:
 310 0108 00000000 		.word	ch
 311              		.cfi_endproc
 312              	.LFE250:
 313              		.size	chEvtGetAndClearEvents, .-chEvtGetAndClearEvents
 314              		.align	2
 315 010c AFF30080 		.p2align 4,,15
 316              		.global	chEvtAddEvents
 317              		.thumb
 318              		.thumb_func
 319              		.type	chEvtAddEvents, %function
 320              	chEvtAddEvents:
 321              	.LFB251:
 322              		.loc 4 182 0
 323              		.cfi_startproc
 324              		@ args = 0, pretend = 0, frame = 8
 325              		@ frame_needed = 0, uses_anonymous_args = 0
 326 0110 00B5     		push	{lr}
 327              		.cfi_def_cfa_offset 4
 328              		.cfi_offset 14, -4
 329 0112 83B0     		sub	sp, sp, #12
 330              		.cfi_def_cfa_offset 16
 331 0114 0190     		str	r0, [sp, #4]
 332              		.loc 4 184 0
 333 0116 FFF783FF 		bl	chSysLock
 334              		.loc 4 185 0
 335 011a 094B     		ldr	r3, .L19
 336 011c 9B69     		ldr	r3, [r3, #24]
 337 011e 084A     		ldr	r2, .L19
 338 0120 9269     		ldr	r2, [r2, #24]
 339 0122 516B     		ldr	r1, [r2, #52]
ARM GAS  /tmp/ccJUuh9D.s 			page 7


 340 0124 019A     		ldr	r2, [sp, #4]
 341 0126 0A43     		orrs	r2, r2, r1
 342 0128 5A63     		str	r2, [r3, #52]
 343              		.loc 4 186 0
 344 012a 054B     		ldr	r3, .L19
 345 012c 9B69     		ldr	r3, [r3, #24]
 346 012e 5B6B     		ldr	r3, [r3, #52]
 347 0130 0193     		str	r3, [sp, #4]
 348              		.loc 4 187 0
 349 0132 FFF77DFF 		bl	chSysUnlock
 350              		.loc 4 189 0
 351 0136 019B     		ldr	r3, [sp, #4]
 352              		.loc 4 190 0
 353 0138 1846     		mov	r0, r3
 354 013a 03B0     		add	sp, sp, #12
 355              		.cfi_def_cfa_offset 4
 356              		@ sp needed
 357 013c 5DF804FB 		ldr	pc, [sp], #4
 358              	.L20:
 359              		.align	2
 360              	.L19:
 361 0140 00000000 		.word	ch
 362              		.cfi_endproc
 363              	.LFE251:
 364              		.size	chEvtAddEvents, .-chEvtAddEvents
 365              		.align	2
 366 0144 AFF30080 		.p2align 4,,15
 366      AFF30080 
 366      AFF30080 
 367              		.global	chEvtBroadcastFlagsI
 368              		.thumb
 369              		.thumb_func
 370              		.type	chEvtBroadcastFlagsI, %function
 371              	chEvtBroadcastFlagsI:
 372              	.LFB252:
 373              		.loc 4 209 0
 374              		.cfi_startproc
 375              		@ args = 0, pretend = 0, frame = 16
 376              		@ frame_needed = 0, uses_anonymous_args = 0
 377 0150 00B5     		push	{lr}
 378              		.cfi_def_cfa_offset 4
 379              		.cfi_offset 14, -4
 380 0152 85B0     		sub	sp, sp, #20
 381              		.cfi_def_cfa_offset 24
 382 0154 0190     		str	r0, [sp, #4]
 383 0156 0091     		str	r1, [sp]
 384              		.loc 4 215 0
 385 0158 019B     		ldr	r3, [sp, #4]
 386 015a 1B68     		ldr	r3, [r3]
 387 015c 0393     		str	r3, [sp, #12]
 388              		.loc 4 217 0
 389 015e 1AE0     		b	.L22
 390              	.L25:
 391              		.loc 4 219 0
 392 0160 039B     		ldr	r3, [sp, #12]
 393 0162 DA68     		ldr	r2, [r3, #12]
 394 0164 009B     		ldr	r3, [sp]
ARM GAS  /tmp/ccJUuh9D.s 			page 8


 395 0166 1A43     		orrs	r2, r2, r3
 396 0168 039B     		ldr	r3, [sp, #12]
 397 016a DA60     		str	r2, [r3, #12]
 398              		.loc 4 222 0
 399 016c 009B     		ldr	r3, [sp]
 400 016e 002B     		cmp	r3, #0
 401 0170 06D0     		beq	.L23
 402              		.loc 4 223 0 discriminator 1
 403 0172 039B     		ldr	r3, [sp, #12]
 404 0174 DA68     		ldr	r2, [r3, #12]
 405 0176 039B     		ldr	r3, [sp, #12]
 406 0178 1B69     		ldr	r3, [r3, #16]
 407 017a 1340     		ands	r3, r3, r2
 408              		.loc 4 222 0 discriminator 1
 409 017c 002B     		cmp	r3, #0
 410 017e 07D0     		beq	.L24
 411              	.L23:
 412              		.loc 4 224 0
 413 0180 039B     		ldr	r3, [sp, #12]
 414 0182 5A68     		ldr	r2, [r3, #4]
 415 0184 039B     		ldr	r3, [sp, #12]
 416 0186 9B68     		ldr	r3, [r3, #8]
 417 0188 1046     		mov	r0, r2
 418 018a 1946     		mov	r1, r3
 419 018c FFF7FEFF 		bl	chEvtSignalI
 420              	.L24:
 421              		.loc 4 226 0
 422 0190 039B     		ldr	r3, [sp, #12]
 423 0192 1B68     		ldr	r3, [r3]
 424 0194 0393     		str	r3, [sp, #12]
 425              	.L22:
 426              		.loc 4 217 0
 427 0196 039A     		ldr	r2, [sp, #12]
 428 0198 019B     		ldr	r3, [sp, #4]
 429 019a 9A42     		cmp	r2, r3
 430 019c E0D1     		bne	.L25
 431              		.loc 4 228 0
 432 019e 05B0     		add	sp, sp, #20
 433              		.cfi_def_cfa_offset 4
 434              		@ sp needed
 435 01a0 5DF804FB 		ldr	pc, [sp], #4
 436              		.cfi_endproc
 437              	.LFE252:
 438              		.size	chEvtBroadcastFlagsI, .-chEvtBroadcastFlagsI
 439              		.align	2
 440 01a4 AFF30080 		.p2align 4,,15
 440      AFF30080 
 440      AFF30080 
 441              		.global	chEvtGetAndClearFlags
 442              		.thumb
 443              		.thumb_func
 444              		.type	chEvtGetAndClearFlags, %function
 445              	chEvtGetAndClearFlags:
 446              	.LFB253:
 447              		.loc 4 241 0
 448              		.cfi_startproc
 449              		@ args = 0, pretend = 0, frame = 16
ARM GAS  /tmp/ccJUuh9D.s 			page 9


 450              		@ frame_needed = 0, uses_anonymous_args = 0
 451 01b0 00B5     		push	{lr}
 452              		.cfi_def_cfa_offset 4
 453              		.cfi_offset 14, -4
 454 01b2 85B0     		sub	sp, sp, #20
 455              		.cfi_def_cfa_offset 24
 456 01b4 0190     		str	r0, [sp, #4]
 457              		.loc 4 244 0
 458 01b6 FFF733FF 		bl	chSysLock
 459              		.loc 4 245 0
 460 01ba 019B     		ldr	r3, [sp, #4]
 461 01bc DB68     		ldr	r3, [r3, #12]
 462 01be 0393     		str	r3, [sp, #12]
 463              		.loc 4 246 0
 464 01c0 019B     		ldr	r3, [sp, #4]
 465 01c2 0022     		movs	r2, #0
 466 01c4 DA60     		str	r2, [r3, #12]
 467              		.loc 4 247 0
 468 01c6 FFF733FF 		bl	chSysUnlock
 469              		.loc 4 249 0
 470 01ca 039B     		ldr	r3, [sp, #12]
 471              		.loc 4 250 0
 472 01cc 1846     		mov	r0, r3
 473 01ce 05B0     		add	sp, sp, #20
 474              		.cfi_def_cfa_offset 4
 475              		@ sp needed
 476 01d0 5DF804FB 		ldr	pc, [sp], #4
 477              		.cfi_endproc
 478              	.LFE253:
 479              		.size	chEvtGetAndClearFlags, .-chEvtGetAndClearFlags
 480              		.align	2
 481 01d4 AFF30080 		.p2align 4,,15
 481      AFF30080 
 481      AFF30080 
 482              		.global	chEvtSignal
 483              		.thumb
 484              		.thumb_func
 485              		.type	chEvtSignal, %function
 486              	chEvtSignal:
 487              	.LFB254:
 488              		.loc 4 260 0
 489              		.cfi_startproc
 490              		@ args = 0, pretend = 0, frame = 8
 491              		@ frame_needed = 0, uses_anonymous_args = 0
 492 01e0 00B5     		push	{lr}
 493              		.cfi_def_cfa_offset 4
 494              		.cfi_offset 14, -4
 495 01e2 83B0     		sub	sp, sp, #12
 496              		.cfi_def_cfa_offset 16
 497 01e4 0190     		str	r0, [sp, #4]
 498 01e6 0091     		str	r1, [sp]
 499              		.loc 4 264 0
 500 01e8 FFF71AFF 		bl	chSysLock
 501              		.loc 4 265 0
 502 01ec 0198     		ldr	r0, [sp, #4]
 503 01ee 0099     		ldr	r1, [sp]
 504 01f0 FFF7FEFF 		bl	chEvtSignalI
ARM GAS  /tmp/ccJUuh9D.s 			page 10


 505              		.loc 4 266 0
 506 01f4 FFF7FEFF 		bl	chSchRescheduleS
 507              		.loc 4 267 0
 508 01f8 FFF71AFF 		bl	chSysUnlock
 509              		.loc 4 268 0
 510 01fc 03B0     		add	sp, sp, #12
 511              		.cfi_def_cfa_offset 4
 512              		@ sp needed
 513 01fe 5DF804FB 		ldr	pc, [sp], #4
 514              		.cfi_endproc
 515              	.LFE254:
 516              		.size	chEvtSignal, .-chEvtSignal
 517 0202 00BF     		.align	2
 518 0204 AFF30080 		.p2align 4,,15
 518      AFF30080 
 518      AFF30080 
 519              		.global	chEvtSignalI
 520              		.thumb
 521              		.thumb_func
 522              		.type	chEvtSignalI, %function
 523              	chEvtSignalI:
 524              	.LFB255:
 525              		.loc 4 282 0
 526              		.cfi_startproc
 527              		@ args = 0, pretend = 0, frame = 8
 528              		@ frame_needed = 0, uses_anonymous_args = 0
 529 0210 00B5     		push	{lr}
 530              		.cfi_def_cfa_offset 4
 531              		.cfi_offset 14, -4
 532 0212 83B0     		sub	sp, sp, #12
 533              		.cfi_def_cfa_offset 16
 534 0214 0190     		str	r0, [sp, #4]
 535 0216 0091     		str	r1, [sp]
 536              		.loc 4 287 0
 537 0218 019B     		ldr	r3, [sp, #4]
 538 021a 5A6B     		ldr	r2, [r3, #52]
 539 021c 009B     		ldr	r3, [sp]
 540 021e 1A43     		orrs	r2, r2, r3
 541 0220 019B     		ldr	r3, [sp, #4]
 542 0222 5A63     		str	r2, [r3, #52]
 543              		.loc 4 289 0
 544 0224 019B     		ldr	r3, [sp, #4]
 545 0226 93F82030 		ldrb	r3, [r3, #32]	@ zero_extendqisi2
 546 022a 0A2B     		cmp	r3, #10
 547 022c 06D1     		bne	.L30
 548              		.loc 4 290 0 discriminator 1
 549 022e 019B     		ldr	r3, [sp, #4]
 550 0230 5A6B     		ldr	r2, [r3, #52]
 551 0232 019B     		ldr	r3, [sp, #4]
 552 0234 5B6A     		ldr	r3, [r3, #36]
 553 0236 1340     		ands	r3, r3, r2
 554              		.loc 4 289 0 discriminator 1
 555 0238 002B     		cmp	r3, #0
 556 023a 0DD1     		bne	.L31
 557              	.L30:
 558              		.loc 4 291 0
 559 023c 019B     		ldr	r3, [sp, #4]
ARM GAS  /tmp/ccJUuh9D.s 			page 11


 560 023e 93F82030 		ldrb	r3, [r3, #32]	@ zero_extendqisi2
 561              		.loc 4 290 0
 562 0242 0B2B     		cmp	r3, #11
 563 0244 0ED1     		bne	.L29
 564              		.loc 4 292 0
 565 0246 019B     		ldr	r3, [sp, #4]
 566 0248 5A6B     		ldr	r2, [r3, #52]
 567 024a 019B     		ldr	r3, [sp, #4]
 568 024c 5B6A     		ldr	r3, [r3, #36]
 569 024e 1A40     		ands	r2, r2, r3
 570 0250 019B     		ldr	r3, [sp, #4]
 571 0252 5B6A     		ldr	r3, [r3, #36]
 572              		.loc 4 291 0
 573 0254 9A42     		cmp	r2, r3
 574 0256 05D1     		bne	.L29
 575              	.L31:
 576              		.loc 4 293 0
 577 0258 019B     		ldr	r3, [sp, #4]
 578 025a 0022     		movs	r2, #0
 579 025c 5A62     		str	r2, [r3, #36]
 580              		.loc 4 294 0
 581 025e 0198     		ldr	r0, [sp, #4]
 582 0260 FFF7FEFF 		bl	chSchReadyI
 583              	.L29:
 584              		.loc 4 296 0
 585 0264 03B0     		add	sp, sp, #12
 586              		.cfi_def_cfa_offset 4
 587              		@ sp needed
 588 0266 5DF804FB 		ldr	pc, [sp], #4
 589              		.cfi_endproc
 590              	.LFE255:
 591              		.size	chEvtSignalI, .-chEvtSignalI
 592 026a 00BF     		.align	2
 593 026c AFF30080 		.p2align 4,,15
 594              		.global	chEvtBroadcastFlags
 595              		.thumb
 596              		.thumb_func
 597              		.type	chEvtBroadcastFlags, %function
 598              	chEvtBroadcastFlags:
 599              	.LFB256:
 600              		.loc 4 311 0
 601              		.cfi_startproc
 602              		@ args = 0, pretend = 0, frame = 8
 603              		@ frame_needed = 0, uses_anonymous_args = 0
 604 0270 00B5     		push	{lr}
 605              		.cfi_def_cfa_offset 4
 606              		.cfi_offset 14, -4
 607 0272 83B0     		sub	sp, sp, #12
 608              		.cfi_def_cfa_offset 16
 609 0274 0190     		str	r0, [sp, #4]
 610 0276 0091     		str	r1, [sp]
 611              		.loc 4 313 0
 612 0278 FFF7D2FE 		bl	chSysLock
 613              		.loc 4 314 0
 614 027c 0198     		ldr	r0, [sp, #4]
 615 027e 0099     		ldr	r1, [sp]
 616 0280 FFF7FEFF 		bl	chEvtBroadcastFlagsI
ARM GAS  /tmp/ccJUuh9D.s 			page 12


 617              		.loc 4 315 0
 618 0284 FFF7FEFF 		bl	chSchRescheduleS
 619              		.loc 4 316 0
 620 0288 FFF7D2FE 		bl	chSysUnlock
 621              		.loc 4 317 0
 622 028c 03B0     		add	sp, sp, #12
 623              		.cfi_def_cfa_offset 4
 624              		@ sp needed
 625 028e 5DF804FB 		ldr	pc, [sp], #4
 626              		.cfi_endproc
 627              	.LFE256:
 628              		.size	chEvtBroadcastFlags, .-chEvtBroadcastFlags
 629 0292 00BF     		.align	2
 630 0294 AFF30080 		.p2align 4,,15
 630      AFF30080 
 630      AFF30080 
 631              		.global	chEvtGetAndClearFlagsI
 632              		.thumb
 633              		.thumb_func
 634              		.type	chEvtGetAndClearFlagsI, %function
 635              	chEvtGetAndClearFlagsI:
 636              	.LFB257:
 637              		.loc 4 330 0
 638              		.cfi_startproc
 639              		@ args = 0, pretend = 0, frame = 16
 640              		@ frame_needed = 0, uses_anonymous_args = 0
 641              		@ link register save eliminated.
 642 02a0 84B0     		sub	sp, sp, #16
 643              		.cfi_def_cfa_offset 16
 644 02a2 0190     		str	r0, [sp, #4]
 645              		.loc 4 333 0
 646 02a4 019B     		ldr	r3, [sp, #4]
 647 02a6 DB68     		ldr	r3, [r3, #12]
 648 02a8 0393     		str	r3, [sp, #12]
 649              		.loc 4 334 0
 650 02aa 019B     		ldr	r3, [sp, #4]
 651 02ac 0022     		movs	r2, #0
 652 02ae DA60     		str	r2, [r3, #12]
 653              		.loc 4 336 0
 654 02b0 039B     		ldr	r3, [sp, #12]
 655              		.loc 4 337 0
 656 02b2 1846     		mov	r0, r3
 657 02b4 04B0     		add	sp, sp, #16
 658              		.cfi_def_cfa_offset 0
 659              		@ sp needed
 660 02b6 7047     		bx	lr
 661              		.cfi_endproc
 662              	.LFE257:
 663              		.size	chEvtGetAndClearFlagsI, .-chEvtGetAndClearFlagsI
 664              		.align	2
 665 02b8 AFF30080 		.p2align 4,,15
 665      AFF30080 
 666              		.global	chEvtDispatch
 667              		.thumb
 668              		.thumb_func
 669              		.type	chEvtDispatch, %function
 670              	chEvtDispatch:
ARM GAS  /tmp/ccJUuh9D.s 			page 13


 671              	.LFB258:
 672              		.loc 4 348 0
 673              		.cfi_startproc
 674              		@ args = 0, pretend = 0, frame = 16
 675              		@ frame_needed = 0, uses_anonymous_args = 0
 676 02c0 00B5     		push	{lr}
 677              		.cfi_def_cfa_offset 4
 678              		.cfi_offset 14, -4
 679 02c2 85B0     		sub	sp, sp, #20
 680              		.cfi_def_cfa_offset 24
 681 02c4 0190     		str	r0, [sp, #4]
 682 02c6 0091     		str	r1, [sp]
 683              		.loc 4 353 0
 684 02c8 0023     		movs	r3, #0
 685 02ca 0393     		str	r3, [sp, #12]
 686              		.loc 4 354 0
 687 02cc 19E0     		b	.L37
 688              	.L39:
 689              		.loc 4 355 0
 690 02ce 009A     		ldr	r2, [sp]
 691 02d0 039B     		ldr	r3, [sp, #12]
 692 02d2 22FA03F3 		lsr	r3, r2, r3
 693 02d6 03F00103 		and	r3, r3, #1
 694 02da 002B     		cmp	r3, #0
 695 02dc 0ED0     		beq	.L38
 696              		.loc 4 357 0
 697 02de 0122     		movs	r2, #1
 698 02e0 039B     		ldr	r3, [sp, #12]
 699 02e2 02FA03F3 		lsl	r3, r2, r3
 700 02e6 DB43     		mvns	r3, r3
 701 02e8 009A     		ldr	r2, [sp]
 702 02ea 1340     		ands	r3, r3, r2
 703 02ec 0093     		str	r3, [sp]
 704              		.loc 4 358 0
 705 02ee 039B     		ldr	r3, [sp, #12]
 706 02f0 9B00     		lsls	r3, r3, #2
 707 02f2 019A     		ldr	r2, [sp, #4]
 708 02f4 1344     		add	r3, r3, r2
 709 02f6 1B68     		ldr	r3, [r3]
 710 02f8 0398     		ldr	r0, [sp, #12]
 711 02fa 9847     		blx	r3
 712              	.L38:
 713              		.loc 4 360 0
 714 02fc 039B     		ldr	r3, [sp, #12]
 715 02fe 0133     		adds	r3, r3, #1
 716 0300 0393     		str	r3, [sp, #12]
 717              	.L37:
 718              		.loc 4 354 0
 719 0302 009B     		ldr	r3, [sp]
 720 0304 002B     		cmp	r3, #0
 721 0306 E2D1     		bne	.L39
 722              		.loc 4 362 0
 723 0308 05B0     		add	sp, sp, #20
 724              		.cfi_def_cfa_offset 4
 725              		@ sp needed
 726 030a 5DF804FB 		ldr	pc, [sp], #4
 727              		.cfi_endproc
ARM GAS  /tmp/ccJUuh9D.s 			page 14


 728              	.LFE258:
 729              		.size	chEvtDispatch, .-chEvtDispatch
 730 030e 00BF     		.align	2
 731              		.p2align 4,,15
 732              		.global	chEvtWaitOne
 733              		.thumb
 734              		.thumb_func
 735              		.type	chEvtWaitOne, %function
 736              	chEvtWaitOne:
 737              	.LFB259:
 738              		.loc 4 383 0
 739              		.cfi_startproc
 740              		@ args = 0, pretend = 0, frame = 16
 741              		@ frame_needed = 0, uses_anonymous_args = 0
 742 0310 00B5     		push	{lr}
 743              		.cfi_def_cfa_offset 4
 744              		.cfi_offset 14, -4
 745 0312 85B0     		sub	sp, sp, #20
 746              		.cfi_def_cfa_offset 24
 747 0314 0190     		str	r0, [sp, #4]
 748              		.loc 4 384 0
 749 0316 154B     		ldr	r3, .L43
 750 0318 9B69     		ldr	r3, [r3, #24]
 751 031a 0293     		str	r3, [sp, #8]
 752              		.loc 4 387 0
 753 031c FFF780FE 		bl	chSysLock
 754              		.loc 4 388 0
 755 0320 029B     		ldr	r3, [sp, #8]
 756 0322 5A6B     		ldr	r2, [r3, #52]
 757 0324 019B     		ldr	r3, [sp, #4]
 758 0326 1340     		ands	r3, r3, r2
 759 0328 0393     		str	r3, [sp, #12]
 760              		.loc 4 389 0
 761 032a 039B     		ldr	r3, [sp, #12]
 762 032c 002B     		cmp	r3, #0
 763 032e 0AD1     		bne	.L41
 764              		.loc 4 390 0
 765 0330 029B     		ldr	r3, [sp, #8]
 766 0332 019A     		ldr	r2, [sp, #4]
 767 0334 5A62     		str	r2, [r3, #36]
 768              		.loc 4 391 0
 769 0336 0A20     		movs	r0, #10
 770 0338 FFF7FEFF 		bl	chSchGoSleepS
 771              		.loc 4 392 0
 772 033c 029B     		ldr	r3, [sp, #8]
 773 033e 5A6B     		ldr	r2, [r3, #52]
 774 0340 019B     		ldr	r3, [sp, #4]
 775 0342 1340     		ands	r3, r3, r2
 776 0344 0393     		str	r3, [sp, #12]
 777              	.L41:
 778              		.loc 4 394 0
 779 0346 039B     		ldr	r3, [sp, #12]
 780 0348 5B42     		negs	r3, r3
 781 034a 039A     		ldr	r2, [sp, #12]
 782 034c 1340     		ands	r3, r3, r2
 783 034e 0393     		str	r3, [sp, #12]
 784              		.loc 4 395 0
ARM GAS  /tmp/ccJUuh9D.s 			page 15


 785 0350 029B     		ldr	r3, [sp, #8]
 786 0352 5A6B     		ldr	r2, [r3, #52]
 787 0354 039B     		ldr	r3, [sp, #12]
 788 0356 DB43     		mvns	r3, r3
 789 0358 1A40     		ands	r2, r2, r3
 790 035a 029B     		ldr	r3, [sp, #8]
 791 035c 5A63     		str	r2, [r3, #52]
 792              		.loc 4 396 0
 793 035e FFF767FE 		bl	chSysUnlock
 794              		.loc 4 398 0
 795 0362 039B     		ldr	r3, [sp, #12]
 796              		.loc 4 399 0
 797 0364 1846     		mov	r0, r3
 798 0366 05B0     		add	sp, sp, #20
 799              		.cfi_def_cfa_offset 4
 800              		@ sp needed
 801 0368 5DF804FB 		ldr	pc, [sp], #4
 802              	.L44:
 803              		.align	2
 804              	.L43:
 805 036c 00000000 		.word	ch
 806              		.cfi_endproc
 807              	.LFE259:
 808              		.size	chEvtWaitOne, .-chEvtWaitOne
 809              		.align	2
 810              		.p2align 4,,15
 811              		.global	chEvtWaitAny
 812              		.thumb
 813              		.thumb_func
 814              		.type	chEvtWaitAny, %function
 815              	chEvtWaitAny:
 816              	.LFB260:
 817              		.loc 4 413 0
 818              		.cfi_startproc
 819              		@ args = 0, pretend = 0, frame = 16
 820              		@ frame_needed = 0, uses_anonymous_args = 0
 821 0370 00B5     		push	{lr}
 822              		.cfi_def_cfa_offset 4
 823              		.cfi_offset 14, -4
 824 0372 85B0     		sub	sp, sp, #20
 825              		.cfi_def_cfa_offset 24
 826 0374 0190     		str	r0, [sp, #4]
 827              		.loc 4 414 0
 828 0376 134B     		ldr	r3, .L48
 829 0378 9B69     		ldr	r3, [r3, #24]
 830 037a 0293     		str	r3, [sp, #8]
 831              		.loc 4 417 0
 832 037c FFF750FE 		bl	chSysLock
 833              		.loc 4 418 0
 834 0380 029B     		ldr	r3, [sp, #8]
 835 0382 5A6B     		ldr	r2, [r3, #52]
 836 0384 019B     		ldr	r3, [sp, #4]
 837 0386 1340     		ands	r3, r3, r2
 838 0388 0393     		str	r3, [sp, #12]
 839              		.loc 4 419 0
 840 038a 039B     		ldr	r3, [sp, #12]
 841 038c 002B     		cmp	r3, #0
ARM GAS  /tmp/ccJUuh9D.s 			page 16


 842 038e 0AD1     		bne	.L46
 843              		.loc 4 420 0
 844 0390 029B     		ldr	r3, [sp, #8]
 845 0392 019A     		ldr	r2, [sp, #4]
 846 0394 5A62     		str	r2, [r3, #36]
 847              		.loc 4 421 0
 848 0396 0A20     		movs	r0, #10
 849 0398 FFF7FEFF 		bl	chSchGoSleepS
 850              		.loc 4 422 0
 851 039c 029B     		ldr	r3, [sp, #8]
 852 039e 5A6B     		ldr	r2, [r3, #52]
 853 03a0 019B     		ldr	r3, [sp, #4]
 854 03a2 1340     		ands	r3, r3, r2
 855 03a4 0393     		str	r3, [sp, #12]
 856              	.L46:
 857              		.loc 4 424 0
 858 03a6 029B     		ldr	r3, [sp, #8]
 859 03a8 5A6B     		ldr	r2, [r3, #52]
 860 03aa 039B     		ldr	r3, [sp, #12]
 861 03ac DB43     		mvns	r3, r3
 862 03ae 1A40     		ands	r2, r2, r3
 863 03b0 029B     		ldr	r3, [sp, #8]
 864 03b2 5A63     		str	r2, [r3, #52]
 865              		.loc 4 425 0
 866 03b4 FFF73CFE 		bl	chSysUnlock
 867              		.loc 4 427 0
 868 03b8 039B     		ldr	r3, [sp, #12]
 869              		.loc 4 428 0
 870 03ba 1846     		mov	r0, r3
 871 03bc 05B0     		add	sp, sp, #20
 872              		.cfi_def_cfa_offset 4
 873              		@ sp needed
 874 03be 5DF804FB 		ldr	pc, [sp], #4
 875              	.L49:
 876 03c2 00BF     		.align	2
 877              	.L48:
 878 03c4 00000000 		.word	ch
 879              		.cfi_endproc
 880              	.LFE260:
 881              		.size	chEvtWaitAny, .-chEvtWaitAny
 882              		.align	2
 883 03c8 AFF30080 		.p2align 4,,15
 883      AFF30080 
 884              		.global	chEvtWaitAll
 885              		.thumb
 886              		.thumb_func
 887              		.type	chEvtWaitAll, %function
 888              	chEvtWaitAll:
 889              	.LFB261:
 890              		.loc 4 441 0
 891              		.cfi_startproc
 892              		@ args = 0, pretend = 0, frame = 16
 893              		@ frame_needed = 0, uses_anonymous_args = 0
 894 03d0 00B5     		push	{lr}
 895              		.cfi_def_cfa_offset 4
 896              		.cfi_offset 14, -4
 897 03d2 85B0     		sub	sp, sp, #20
ARM GAS  /tmp/ccJUuh9D.s 			page 17


 898              		.cfi_def_cfa_offset 24
 899 03d4 0190     		str	r0, [sp, #4]
 900              		.loc 4 442 0
 901 03d6 104B     		ldr	r3, .L53
 902 03d8 9B69     		ldr	r3, [r3, #24]
 903 03da 0393     		str	r3, [sp, #12]
 904              		.loc 4 444 0
 905 03dc FFF720FE 		bl	chSysLock
 906              		.loc 4 445 0
 907 03e0 039B     		ldr	r3, [sp, #12]
 908 03e2 5A6B     		ldr	r2, [r3, #52]
 909 03e4 019B     		ldr	r3, [sp, #4]
 910 03e6 1A40     		ands	r2, r2, r3
 911 03e8 019B     		ldr	r3, [sp, #4]
 912 03ea 9A42     		cmp	r2, r3
 913 03ec 05D0     		beq	.L51
 914              		.loc 4 446 0
 915 03ee 039B     		ldr	r3, [sp, #12]
 916 03f0 019A     		ldr	r2, [sp, #4]
 917 03f2 5A62     		str	r2, [r3, #36]
 918              		.loc 4 447 0
 919 03f4 0B20     		movs	r0, #11
 920 03f6 FFF7FEFF 		bl	chSchGoSleepS
 921              	.L51:
 922              		.loc 4 449 0
 923 03fa 039B     		ldr	r3, [sp, #12]
 924 03fc 5A6B     		ldr	r2, [r3, #52]
 925 03fe 019B     		ldr	r3, [sp, #4]
 926 0400 DB43     		mvns	r3, r3
 927 0402 1A40     		ands	r2, r2, r3
 928 0404 039B     		ldr	r3, [sp, #12]
 929 0406 5A63     		str	r2, [r3, #52]
 930              		.loc 4 450 0
 931 0408 FFF712FE 		bl	chSysUnlock
 932              		.loc 4 452 0
 933 040c 019B     		ldr	r3, [sp, #4]
 934              		.loc 4 453 0
 935 040e 1846     		mov	r0, r3
 936 0410 05B0     		add	sp, sp, #20
 937              		.cfi_def_cfa_offset 4
 938              		@ sp needed
 939 0412 5DF804FB 		ldr	pc, [sp], #4
 940              	.L54:
 941 0416 00BF     		.align	2
 942              	.L53:
 943 0418 00000000 		.word	ch
 944              		.cfi_endproc
 945              	.LFE261:
 946              		.size	chEvtWaitAll, .-chEvtWaitAll
 947              		.align	2
 948 041c AFF30080 		.p2align 4,,15
 949              		.global	chEvtWaitOneTimeout
 950              		.thumb
 951              		.thumb_func
 952              		.type	chEvtWaitOneTimeout, %function
 953              	chEvtWaitOneTimeout:
 954              	.LFB262:
ARM GAS  /tmp/ccJUuh9D.s 			page 18


 955              		.loc 4 479 0
 956              		.cfi_startproc
 957              		@ args = 0, pretend = 0, frame = 16
 958              		@ frame_needed = 0, uses_anonymous_args = 0
 959 0420 00B5     		push	{lr}
 960              		.cfi_def_cfa_offset 4
 961              		.cfi_offset 14, -4
 962 0422 85B0     		sub	sp, sp, #20
 963              		.cfi_def_cfa_offset 24
 964 0424 0190     		str	r0, [sp, #4]
 965 0426 0091     		str	r1, [sp]
 966              		.loc 4 480 0
 967 0428 1C4B     		ldr	r3, .L60
 968 042a 9B69     		ldr	r3, [r3, #24]
 969 042c 0293     		str	r3, [sp, #8]
 970              		.loc 4 483 0
 971 042e FFF7F7FD 		bl	chSysLock
 972              		.loc 4 484 0
 973 0432 029B     		ldr	r3, [sp, #8]
 974 0434 5A6B     		ldr	r2, [r3, #52]
 975 0436 019B     		ldr	r3, [sp, #4]
 976 0438 1340     		ands	r3, r3, r2
 977 043a 0393     		str	r3, [sp, #12]
 978              		.loc 4 485 0
 979 043c 039B     		ldr	r3, [sp, #12]
 980 043e 002B     		cmp	r3, #0
 981 0440 19D1     		bne	.L56
 982              		.loc 4 486 0
 983 0442 009B     		ldr	r3, [sp]
 984 0444 002B     		cmp	r3, #0
 985 0446 03D1     		bne	.L57
 986              		.loc 4 487 0
 987 0448 FFF7F2FD 		bl	chSysUnlock
 988              		.loc 4 488 0
 989 044c 0023     		movs	r3, #0
 990 044e 21E0     		b	.L58
 991              	.L57:
 992              		.loc 4 490 0
 993 0450 029B     		ldr	r3, [sp, #8]
 994 0452 019A     		ldr	r2, [sp, #4]
 995 0454 5A62     		str	r2, [r3, #36]
 996              		.loc 4 491 0
 997 0456 0A20     		movs	r0, #10
 998 0458 0099     		ldr	r1, [sp]
 999 045a FFF7FEFF 		bl	chSchGoSleepTimeoutS
 1000 045e 0346     		mov	r3, r0
 1001 0460 002B     		cmp	r3, #0
 1002 0462 03DA     		bge	.L59
 1003              		.loc 4 492 0
 1004 0464 FFF7E4FD 		bl	chSysUnlock
 1005              		.loc 4 493 0
 1006 0468 0023     		movs	r3, #0
 1007 046a 13E0     		b	.L58
 1008              	.L59:
 1009              		.loc 4 495 0
 1010 046c 029B     		ldr	r3, [sp, #8]
 1011 046e 5A6B     		ldr	r2, [r3, #52]
ARM GAS  /tmp/ccJUuh9D.s 			page 19


 1012 0470 019B     		ldr	r3, [sp, #4]
 1013 0472 1340     		ands	r3, r3, r2
 1014 0474 0393     		str	r3, [sp, #12]
 1015              	.L56:
 1016              		.loc 4 497 0
 1017 0476 039B     		ldr	r3, [sp, #12]
 1018 0478 5B42     		negs	r3, r3
 1019 047a 039A     		ldr	r2, [sp, #12]
 1020 047c 1340     		ands	r3, r3, r2
 1021 047e 0393     		str	r3, [sp, #12]
 1022              		.loc 4 498 0
 1023 0480 029B     		ldr	r3, [sp, #8]
 1024 0482 5A6B     		ldr	r2, [r3, #52]
 1025 0484 039B     		ldr	r3, [sp, #12]
 1026 0486 DB43     		mvns	r3, r3
 1027 0488 1A40     		ands	r2, r2, r3
 1028 048a 029B     		ldr	r3, [sp, #8]
 1029 048c 5A63     		str	r2, [r3, #52]
 1030              		.loc 4 499 0
 1031 048e FFF7CFFD 		bl	chSysUnlock
 1032              		.loc 4 501 0
 1033 0492 039B     		ldr	r3, [sp, #12]
 1034              	.L58:
 1035              		.loc 4 502 0
 1036 0494 1846     		mov	r0, r3
 1037 0496 05B0     		add	sp, sp, #20
 1038              		.cfi_def_cfa_offset 4
 1039              		@ sp needed
 1040 0498 5DF804FB 		ldr	pc, [sp], #4
 1041              	.L61:
 1042              		.align	2
 1043              	.L60:
 1044 049c 00000000 		.word	ch
 1045              		.cfi_endproc
 1046              	.LFE262:
 1047              		.size	chEvtWaitOneTimeout, .-chEvtWaitOneTimeout
 1048              		.align	2
 1049              		.p2align 4,,15
 1050              		.global	chEvtWaitAnyTimeout
 1051              		.thumb
 1052              		.thumb_func
 1053              		.type	chEvtWaitAnyTimeout, %function
 1054              	chEvtWaitAnyTimeout:
 1055              	.LFB263:
 1056              		.loc 4 522 0
 1057              		.cfi_startproc
 1058              		@ args = 0, pretend = 0, frame = 16
 1059              		@ frame_needed = 0, uses_anonymous_args = 0
 1060 04a0 00B5     		push	{lr}
 1061              		.cfi_def_cfa_offset 4
 1062              		.cfi_offset 14, -4
 1063 04a2 85B0     		sub	sp, sp, #20
 1064              		.cfi_def_cfa_offset 24
 1065 04a4 0190     		str	r0, [sp, #4]
 1066 04a6 0091     		str	r1, [sp]
 1067              		.loc 4 523 0
 1068 04a8 1A4B     		ldr	r3, .L67
ARM GAS  /tmp/ccJUuh9D.s 			page 20


 1069 04aa 9B69     		ldr	r3, [r3, #24]
 1070 04ac 0293     		str	r3, [sp, #8]
 1071              		.loc 4 526 0
 1072 04ae FFF7B7FD 		bl	chSysLock
 1073              		.loc 4 527 0
 1074 04b2 029B     		ldr	r3, [sp, #8]
 1075 04b4 5A6B     		ldr	r2, [r3, #52]
 1076 04b6 019B     		ldr	r3, [sp, #4]
 1077 04b8 1340     		ands	r3, r3, r2
 1078 04ba 0393     		str	r3, [sp, #12]
 1079              		.loc 4 528 0
 1080 04bc 039B     		ldr	r3, [sp, #12]
 1081 04be 002B     		cmp	r3, #0
 1082 04c0 19D1     		bne	.L63
 1083              		.loc 4 529 0
 1084 04c2 009B     		ldr	r3, [sp]
 1085 04c4 002B     		cmp	r3, #0
 1086 04c6 03D1     		bne	.L64
 1087              		.loc 4 530 0
 1088 04c8 FFF7B2FD 		bl	chSysUnlock
 1089              		.loc 4 531 0
 1090 04cc 0023     		movs	r3, #0
 1091 04ce 1CE0     		b	.L65
 1092              	.L64:
 1093              		.loc 4 533 0
 1094 04d0 029B     		ldr	r3, [sp, #8]
 1095 04d2 019A     		ldr	r2, [sp, #4]
 1096 04d4 5A62     		str	r2, [r3, #36]
 1097              		.loc 4 534 0
 1098 04d6 0A20     		movs	r0, #10
 1099 04d8 0099     		ldr	r1, [sp]
 1100 04da FFF7FEFF 		bl	chSchGoSleepTimeoutS
 1101 04de 0346     		mov	r3, r0
 1102 04e0 002B     		cmp	r3, #0
 1103 04e2 03DA     		bge	.L66
 1104              		.loc 4 535 0
 1105 04e4 FFF7A4FD 		bl	chSysUnlock
 1106              		.loc 4 536 0
 1107 04e8 0023     		movs	r3, #0
 1108 04ea 0EE0     		b	.L65
 1109              	.L66:
 1110              		.loc 4 538 0
 1111 04ec 029B     		ldr	r3, [sp, #8]
 1112 04ee 5A6B     		ldr	r2, [r3, #52]
 1113 04f0 019B     		ldr	r3, [sp, #4]
 1114 04f2 1340     		ands	r3, r3, r2
 1115 04f4 0393     		str	r3, [sp, #12]
 1116              	.L63:
 1117              		.loc 4 540 0
 1118 04f6 029B     		ldr	r3, [sp, #8]
 1119 04f8 5A6B     		ldr	r2, [r3, #52]
 1120 04fa 039B     		ldr	r3, [sp, #12]
 1121 04fc DB43     		mvns	r3, r3
 1122 04fe 1A40     		ands	r2, r2, r3
 1123 0500 029B     		ldr	r3, [sp, #8]
 1124 0502 5A63     		str	r2, [r3, #52]
 1125              		.loc 4 541 0
ARM GAS  /tmp/ccJUuh9D.s 			page 21


 1126 0504 FFF794FD 		bl	chSysUnlock
 1127              		.loc 4 543 0
 1128 0508 039B     		ldr	r3, [sp, #12]
 1129              	.L65:
 1130              		.loc 4 544 0
 1131 050a 1846     		mov	r0, r3
 1132 050c 05B0     		add	sp, sp, #20
 1133              		.cfi_def_cfa_offset 4
 1134              		@ sp needed
 1135 050e 5DF804FB 		ldr	pc, [sp], #4
 1136              	.L68:
 1137 0512 00BF     		.align	2
 1138              	.L67:
 1139 0514 00000000 		.word	ch
 1140              		.cfi_endproc
 1141              	.LFE263:
 1142              		.size	chEvtWaitAnyTimeout, .-chEvtWaitAnyTimeout
 1143              		.align	2
 1144 0518 AFF30080 		.p2align 4,,15
 1144      AFF30080 
 1145              		.global	chEvtWaitAllTimeout
 1146              		.thumb
 1147              		.thumb_func
 1148              		.type	chEvtWaitAllTimeout, %function
 1149              	chEvtWaitAllTimeout:
 1150              	.LFB264:
 1151              		.loc 4 563 0
 1152              		.cfi_startproc
 1153              		@ args = 0, pretend = 0, frame = 16
 1154              		@ frame_needed = 0, uses_anonymous_args = 0
 1155 0520 00B5     		push	{lr}
 1156              		.cfi_def_cfa_offset 4
 1157              		.cfi_offset 14, -4
 1158 0522 85B0     		sub	sp, sp, #20
 1159              		.cfi_def_cfa_offset 24
 1160 0524 0190     		str	r0, [sp, #4]
 1161 0526 0091     		str	r1, [sp]
 1162              		.loc 4 564 0
 1163 0528 174B     		ldr	r3, .L73
 1164 052a 9B69     		ldr	r3, [r3, #24]
 1165 052c 0393     		str	r3, [sp, #12]
 1166              		.loc 4 566 0
 1167 052e FFF777FD 		bl	chSysLock
 1168              		.loc 4 567 0
 1169 0532 039B     		ldr	r3, [sp, #12]
 1170 0534 5A6B     		ldr	r2, [r3, #52]
 1171 0536 019B     		ldr	r3, [sp, #4]
 1172 0538 1A40     		ands	r2, r2, r3
 1173 053a 019B     		ldr	r3, [sp, #4]
 1174 053c 9A42     		cmp	r2, r3
 1175 053e 14D0     		beq	.L70
 1176              		.loc 4 568 0
 1177 0540 009B     		ldr	r3, [sp]
 1178 0542 002B     		cmp	r3, #0
 1179 0544 03D1     		bne	.L71
 1180              		.loc 4 569 0
 1181 0546 FFF773FD 		bl	chSysUnlock
ARM GAS  /tmp/ccJUuh9D.s 			page 22


 1182              		.loc 4 570 0
 1183 054a 0023     		movs	r3, #0
 1184 054c 17E0     		b	.L72
 1185              	.L71:
 1186              		.loc 4 572 0
 1187 054e 039B     		ldr	r3, [sp, #12]
 1188 0550 019A     		ldr	r2, [sp, #4]
 1189 0552 5A62     		str	r2, [r3, #36]
 1190              		.loc 4 573 0
 1191 0554 0B20     		movs	r0, #11
 1192 0556 0099     		ldr	r1, [sp]
 1193 0558 FFF7FEFF 		bl	chSchGoSleepTimeoutS
 1194 055c 0346     		mov	r3, r0
 1195 055e 002B     		cmp	r3, #0
 1196 0560 03DA     		bge	.L70
 1197              		.loc 4 574 0
 1198 0562 FFF765FD 		bl	chSysUnlock
 1199              		.loc 4 575 0
 1200 0566 0023     		movs	r3, #0
 1201 0568 09E0     		b	.L72
 1202              	.L70:
 1203              		.loc 4 578 0
 1204 056a 039B     		ldr	r3, [sp, #12]
 1205 056c 5A6B     		ldr	r2, [r3, #52]
 1206 056e 019B     		ldr	r3, [sp, #4]
 1207 0570 DB43     		mvns	r3, r3
 1208 0572 1A40     		ands	r2, r2, r3
 1209 0574 039B     		ldr	r3, [sp, #12]
 1210 0576 5A63     		str	r2, [r3, #52]
 1211              		.loc 4 579 0
 1212 0578 FFF75AFD 		bl	chSysUnlock
 1213              		.loc 4 581 0
 1214 057c 019B     		ldr	r3, [sp, #4]
 1215              	.L72:
 1216              		.loc 4 582 0
 1217 057e 1846     		mov	r0, r3
 1218 0580 05B0     		add	sp, sp, #20
 1219              		.cfi_def_cfa_offset 4
 1220              		@ sp needed
 1221 0582 5DF804FB 		ldr	pc, [sp], #4
 1222              	.L74:
 1223 0586 00BF     		.align	2
 1224              	.L73:
 1225 0588 00000000 		.word	ch
 1226              		.cfi_endproc
 1227              	.LFE264:
 1228              		.size	chEvtWaitAllTimeout, .-chEvtWaitAllTimeout
 1229              	.Letext0:
 1230              		.file 5 "/usr/include/newlib/machine/_default_types.h"
 1231              		.file 6 "/usr/include/newlib/sys/_stdint.h"
 1232              		.file 7 "../../../os/common/ports/ARMCMx/compilers/GCC/chtypes.h"
 1233              		.file 8 "../../../os/rt/include/chsystypes.h"
 1234              		.file 9 "../../../os/rt/include/chschd.h"
 1235              		.file 10 "../../../os/common/ports/ARMCMx/chcore.h"
 1236              		.file 11 "../../../os/rt/include/chtm.h"
 1237              		.file 12 "../../../os/rt/include/chsem.h"
 1238              		.file 13 "../../../os/rt/include/chmtx.h"
ARM GAS  /tmp/ccJUuh9D.s 			page 23


 1239              		.file 14 "../../../os/rt/include/chevents.h"
 1240              		.file 15 "../../../os/common/ext/CMSIS/include/core_cm4.h"