ARM GAS  /tmp/ccAKQuJZ.s 			page 1


   1              		.syntax unified
   2              		.cpu cortex-m4
   3              		.fpu softvfp
   4              		.eabi_attribute 20, 1
   5              		.eabi_attribute 21, 1
   6              		.eabi_attribute 23, 3
   7              		.eabi_attribute 24, 1
   8              		.eabi_attribute 25, 1
   9              		.eabi_attribute 26, 1
  10              		.eabi_attribute 30, 6
  11              		.eabi_attribute 34, 1
  12              		.eabi_attribute 18, 4
  13              		.thumb
  14              		.file	"chheap.c"
  15              		.text
  16              	.Ltext0:
  17              		.cfi_sections	.debug_frame
  18              		.bss
  19              		.align	3
  20              	default_heap:
  21 0000 00000000 		.space	32
  21      00000000 
  21      00000000 
  21      00000000 
  21      00000000 
  22              		.text
  23              		.align	2
  24              		.p2align 4,,15
  25              		.global	_heap_init
  26              		.thumb
  27              		.thumb_func
  28              		.type	_heap_init, %function
  29              	_heap_init:
  30              	.LFB248:
  31              		.file 1 "../../../os/common/oslib/src/chheap.c"
  32              		.loc 1 107 0
  33              		.cfi_startproc
  34              		@ args = 0, pretend = 0, frame = 0
  35              		@ frame_needed = 0, uses_anonymous_args = 0
  36 0000 08B5     		push	{r3, lr}
  37              		.cfi_def_cfa_offset 8
  38              		.cfi_offset 3, -8
  39              		.cfi_offset 14, -4
  40              		.loc 1 109 0
  41 0002 064B     		ldr	r3, .L2
  42 0004 064A     		ldr	r2, .L2+4
  43 0006 1A60     		str	r2, [r3]
  44              		.loc 1 110 0
  45 0008 044B     		ldr	r3, .L2
  46 000a 0022     		movs	r2, #0
  47 000c 9A60     		str	r2, [r3, #8]
  48              		.loc 1 111 0
  49 000e 034B     		ldr	r3, .L2
  50 0010 0022     		movs	r2, #0
  51 0012 DA60     		str	r2, [r3, #12]
  52              		.loc 1 113 0
  53 0014 0348     		ldr	r0, .L2+8
ARM GAS  /tmp/ccAKQuJZ.s 			page 2


  54 0016 FFF7FEFF 		bl	chMtxObjectInit
  55              		.loc 1 117 0
  56 001a 08BD     		pop	{r3, pc}
  57              	.L3:
  58              		.align	2
  59              	.L2:
  60 001c 00000000 		.word	default_heap
  61 0020 00000000 		.word	chCoreAllocAlignedWithOffset
  62 0024 10000000 		.word	default_heap+16
  63              		.cfi_endproc
  64              	.LFE248:
  65              		.size	_heap_init, .-_heap_init
  66              		.align	2
  67 0028 AFF30080 		.p2align 4,,15
  67      AFF30080 
  68              		.global	chHeapObjectInit
  69              		.thumb
  70              		.thumb_func
  71              		.type	chHeapObjectInit, %function
  72              	chHeapObjectInit:
  73              	.LFB249:
  74              		.loc 1 131 0
  75              		.cfi_startproc
  76              		@ args = 0, pretend = 0, frame = 24
  77              		@ frame_needed = 0, uses_anonymous_args = 0
  78 0030 00B5     		push	{lr}
  79              		.cfi_def_cfa_offset 4
  80              		.cfi_offset 14, -4
  81 0032 87B0     		sub	sp, sp, #28
  82              		.cfi_def_cfa_offset 32
  83 0034 0390     		str	r0, [sp, #12]
  84 0036 0291     		str	r1, [sp, #8]
  85 0038 0192     		str	r2, [sp, #4]
  86              		.loc 1 132 0
  87 003a 029B     		ldr	r3, [sp, #8]
  88 003c 0733     		adds	r3, r3, #7
  89 003e 23F00703 		bic	r3, r3, #7
  90 0042 0593     		str	r3, [sp, #20]
  91              		.loc 1 138 0
  92 0044 029A     		ldr	r2, [sp, #8]
  93 0046 059B     		ldr	r3, [sp, #20]
  94 0048 D31A     		subs	r3, r2, r3
  95 004a 1A46     		mov	r2, r3
  96 004c 019B     		ldr	r3, [sp, #4]
  97 004e 1344     		add	r3, r3, r2
  98 0050 0193     		str	r3, [sp, #4]
  99              		.loc 1 141 0
 100 0052 039B     		ldr	r3, [sp, #12]
 101 0054 0022     		movs	r2, #0
 102 0056 1A60     		str	r2, [r3]
 103              		.loc 1 142 0
 104 0058 039B     		ldr	r3, [sp, #12]
 105 005a 059A     		ldr	r2, [sp, #20]
 106 005c 9A60     		str	r2, [r3, #8]
 107              		.loc 1 143 0
 108 005e 039B     		ldr	r3, [sp, #12]
 109 0060 0022     		movs	r2, #0
ARM GAS  /tmp/ccAKQuJZ.s 			page 3


 110 0062 DA60     		str	r2, [r3, #12]
 111              		.loc 1 144 0
 112 0064 059B     		ldr	r3, [sp, #20]
 113 0066 0022     		movs	r2, #0
 114 0068 1A60     		str	r2, [r3]
 115              		.loc 1 145 0
 116 006a 019B     		ldr	r3, [sp, #4]
 117 006c 083B     		subs	r3, r3, #8
 118 006e DA08     		lsrs	r2, r3, #3
 119 0070 059B     		ldr	r3, [sp, #20]
 120 0072 5A60     		str	r2, [r3, #4]
 121              		.loc 1 147 0
 122 0074 039B     		ldr	r3, [sp, #12]
 123 0076 1033     		adds	r3, r3, #16
 124 0078 1846     		mov	r0, r3
 125 007a FFF7FEFF 		bl	chMtxObjectInit
 126              		.loc 1 151 0
 127 007e 07B0     		add	sp, sp, #28
 128              		.cfi_def_cfa_offset 4
 129              		@ sp needed
 130 0080 5DF804FB 		ldr	pc, [sp], #4
 131              		.cfi_endproc
 132              	.LFE249:
 133              		.size	chHeapObjectInit, .-chHeapObjectInit
 134              		.align	2
 135 0084 AFF30080 		.p2align 4,,15
 135      AFF30080 
 135      AFF30080 
 136              		.global	chHeapAllocAligned
 137              		.thumb
 138              		.thumb_func
 139              		.type	chHeapAllocAligned, %function
 140              	chHeapAllocAligned:
 141              	.LFB250:
 142              		.loc 1 170 0
 143              		.cfi_startproc
 144              		@ args = 0, pretend = 0, frame = 48
 145              		@ frame_needed = 0, uses_anonymous_args = 0
 146 0090 00B5     		push	{lr}
 147              		.cfi_def_cfa_offset 4
 148              		.cfi_offset 14, -4
 149 0092 8DB0     		sub	sp, sp, #52
 150              		.cfi_def_cfa_offset 56
 151 0094 0390     		str	r0, [sp, #12]
 152 0096 0291     		str	r1, [sp, #8]
 153 0098 0192     		str	r2, [sp, #4]
 154              		.loc 1 177 0
 155 009a 039B     		ldr	r3, [sp, #12]
 156 009c 002B     		cmp	r3, #0
 157 009e 01D1     		bne	.L6
 158              		.loc 1 178 0
 159 00a0 654B     		ldr	r3, .L17
 160 00a2 0393     		str	r3, [sp, #12]
 161              	.L6:
 162              		.loc 1 182 0
 163 00a4 019B     		ldr	r3, [sp, #4]
 164 00a6 072B     		cmp	r3, #7
ARM GAS  /tmp/ccAKQuJZ.s 			page 4


 165 00a8 01D8     		bhi	.L7
 166              		.loc 1 183 0
 167 00aa 0823     		movs	r3, #8
 168 00ac 0193     		str	r3, [sp, #4]
 169              	.L7:
 170              		.loc 1 187 0
 171 00ae 029B     		ldr	r3, [sp, #8]
 172 00b0 0733     		adds	r3, r3, #7
 173 00b2 23F00703 		bic	r3, r3, #7
 174 00b6 DB08     		lsrs	r3, r3, #3
 175 00b8 0993     		str	r3, [sp, #36]
 176              		.loc 1 190 0
 177 00ba 039B     		ldr	r3, [sp, #12]
 178 00bc 1033     		adds	r3, r3, #16
 179 00be 1846     		mov	r0, r3
 180 00c0 FFF7FEFF 		bl	chMtxLock
 181              		.loc 1 193 0
 182 00c4 039B     		ldr	r3, [sp, #12]
 183 00c6 0833     		adds	r3, r3, #8
 184 00c8 0B93     		str	r3, [sp, #44]
 185              		.loc 1 194 0
 186 00ca 89E0     		b	.L8
 187              	.L15:
 188              		.loc 1 197 0
 189 00cc 0B9B     		ldr	r3, [sp, #44]
 190 00ce 1B68     		ldr	r3, [r3]
 191 00d0 0A93     		str	r3, [sp, #40]
 192              		.loc 1 200 0
 193 00d2 0A9B     		ldr	r3, [sp, #40]
 194 00d4 0833     		adds	r3, r3, #8
 195 00d6 1A46     		mov	r2, r3
 196 00d8 019B     		ldr	r3, [sp, #4]
 197 00da 1344     		add	r3, r3, r2
 198 00dc 5A1E     		subs	r2, r3, #1
 199 00de 019B     		ldr	r3, [sp, #4]
 200 00e0 5B42     		negs	r3, r3
 201 00e2 1340     		ands	r3, r3, r2
 202 00e4 083B     		subs	r3, r3, #8
 203 00e6 0893     		str	r3, [sp, #32]
 204              		.loc 1 202 0
 205 00e8 0A9B     		ldr	r3, [sp, #40]
 206 00ea 5B68     		ldr	r3, [r3, #4]
 207 00ec 0133     		adds	r3, r3, #1
 208 00ee DB00     		lsls	r3, r3, #3
 209 00f0 0A9A     		ldr	r2, [sp, #40]
 210 00f2 1A44     		add	r2, r2, r3
 211 00f4 089B     		ldr	r3, [sp, #32]
 212 00f6 9A42     		cmp	r2, r3
 213 00f8 70D9     		bls	.L9
 214              		.loc 1 202 0 is_stmt 0 discriminator 1
 215 00fa 0A9A     		ldr	r2, [sp, #40]
 216 00fc 089B     		ldr	r3, [sp, #32]
 217 00fe D21A     		subs	r2, r2, r3
 218 0100 0A9B     		ldr	r3, [sp, #40]
 219 0102 5B68     		ldr	r3, [r3, #4]
 220 0104 0133     		adds	r3, r3, #1
 221 0106 DB00     		lsls	r3, r3, #3
ARM GAS  /tmp/ccAKQuJZ.s 			page 5


 222 0108 083B     		subs	r3, r3, #8
 223 010a 1344     		add	r3, r3, r2
 224 010c DB10     		asrs	r3, r3, #3
 225 010e 1A46     		mov	r2, r3
 226 0110 099B     		ldr	r3, [sp, #36]
 227 0112 9A42     		cmp	r2, r3
 228 0114 62D3     		bcc	.L9
 229              		.loc 1 206 0 is_stmt 1
 230 0116 089A     		ldr	r2, [sp, #32]
 231 0118 0A9B     		ldr	r3, [sp, #40]
 232 011a 9A42     		cmp	r2, r3
 233 011c 2CD9     		bls	.L10
 234              	.LBB2:
 235              		.loc 1 210 0
 236 011e 0A9A     		ldr	r2, [sp, #40]
 237 0120 089B     		ldr	r3, [sp, #32]
 238 0122 D21A     		subs	r2, r2, r3
 239 0124 0A9B     		ldr	r3, [sp, #40]
 240 0126 5B68     		ldr	r3, [r3, #4]
 241 0128 0133     		adds	r3, r3, #1
 242 012a DB00     		lsls	r3, r3, #3
 243 012c 083B     		subs	r3, r3, #8
 244 012e 1344     		add	r3, r3, r2
 245 0130 DB10     		asrs	r3, r3, #3
 246 0132 0793     		str	r3, [sp, #28]
 247              		.loc 1 211 0
 248 0134 089B     		ldr	r3, [sp, #32]
 249 0136 0A9A     		ldr	r2, [sp, #40]
 250 0138 0832     		adds	r2, r2, #8
 251 013a 9B1A     		subs	r3, r3, r2
 252 013c DB10     		asrs	r3, r3, #3
 253 013e 1A46     		mov	r2, r3
 254 0140 0A9B     		ldr	r3, [sp, #40]
 255 0142 5A60     		str	r2, [r3, #4]
 256              		.loc 1 212 0
 257 0144 079A     		ldr	r2, [sp, #28]
 258 0146 099B     		ldr	r3, [sp, #36]
 259 0148 9A42     		cmp	r2, r3
 260 014a 12D9     		bls	.L11
 261              	.LBB3:
 262              		.loc 1 217 0
 263 014c 099B     		ldr	r3, [sp, #36]
 264 014e 0133     		adds	r3, r3, #1
 265 0150 DB00     		lsls	r3, r3, #3
 266 0152 089A     		ldr	r2, [sp, #32]
 267 0154 1344     		add	r3, r3, r2
 268 0156 0693     		str	r3, [sp, #24]
 269              		.loc 1 218 0
 270 0158 079A     		ldr	r2, [sp, #28]
 271 015a 099B     		ldr	r3, [sp, #36]
 272 015c D31A     		subs	r3, r2, r3
 273 015e 5A1E     		subs	r2, r3, #1
 274 0160 069B     		ldr	r3, [sp, #24]
 275 0162 5A60     		str	r2, [r3, #4]
 276              		.loc 1 221 0
 277 0164 0A9B     		ldr	r3, [sp, #40]
 278 0166 1A68     		ldr	r2, [r3]
ARM GAS  /tmp/ccAKQuJZ.s 			page 6


 279 0168 069B     		ldr	r3, [sp, #24]
 280 016a 1A60     		str	r2, [r3]
 281              		.loc 1 222 0
 282 016c 0A9B     		ldr	r3, [sp, #40]
 283 016e 069A     		ldr	r2, [sp, #24]
 284 0170 1A60     		str	r2, [r3]
 285              	.L11:
 286              	.LBE3:
 287              		.loc 1 225 0
 288 0172 089B     		ldr	r3, [sp, #32]
 289 0174 0A93     		str	r3, [sp, #40]
 290              	.LBE2:
 291 0176 23E0     		b	.L12
 292              	.L10:
 293              		.loc 1 230 0
 294 0178 0A9B     		ldr	r3, [sp, #40]
 295 017a 5A68     		ldr	r2, [r3, #4]
 296 017c 099B     		ldr	r3, [sp, #36]
 297 017e 9A42     		cmp	r2, r3
 298 0180 04D1     		bne	.L13
 299              		.loc 1 232 0
 300 0182 0A9B     		ldr	r3, [sp, #40]
 301 0184 1A68     		ldr	r2, [r3]
 302 0186 0B9B     		ldr	r3, [sp, #44]
 303 0188 1A60     		str	r2, [r3]
 304 018a 19E0     		b	.L12
 305              	.L13:
 306              	.LBB4:
 307              		.loc 1 238 0
 308 018c 099B     		ldr	r3, [sp, #36]
 309 018e 0133     		adds	r3, r3, #1
 310 0190 DB00     		lsls	r3, r3, #3
 311 0192 0A9A     		ldr	r2, [sp, #40]
 312 0194 1344     		add	r3, r3, r2
 313 0196 0593     		str	r3, [sp, #20]
 314              		.loc 1 239 0
 315 0198 0A9B     		ldr	r3, [sp, #40]
 316 019a 1A68     		ldr	r2, [r3]
 317 019c 059B     		ldr	r3, [sp, #20]
 318 019e 1A60     		str	r2, [r3]
 319              		.loc 1 240 0
 320 01a0 0A9A     		ldr	r2, [sp, #40]
 321 01a2 059B     		ldr	r3, [sp, #20]
 322 01a4 D21A     		subs	r2, r2, r3
 323 01a6 0A9B     		ldr	r3, [sp, #40]
 324 01a8 5B68     		ldr	r3, [r3, #4]
 325 01aa 0133     		adds	r3, r3, #1
 326 01ac DB00     		lsls	r3, r3, #3
 327 01ae 083B     		subs	r3, r3, #8
 328 01b0 1344     		add	r3, r3, r2
 329 01b2 DB10     		asrs	r3, r3, #3
 330 01b4 1A46     		mov	r2, r3
 331 01b6 059B     		ldr	r3, [sp, #20]
 332 01b8 5A60     		str	r2, [r3, #4]
 333              		.loc 1 241 0
 334 01ba 0B9B     		ldr	r3, [sp, #44]
 335 01bc 059A     		ldr	r2, [sp, #20]
ARM GAS  /tmp/ccAKQuJZ.s 			page 7


 336 01be 1A60     		str	r2, [r3]
 337              	.L12:
 338              	.LBE4:
 339              		.loc 1 246 0
 340 01c0 0A9B     		ldr	r3, [sp, #40]
 341 01c2 029A     		ldr	r2, [sp, #8]
 342 01c4 5A60     		str	r2, [r3, #4]
 343              		.loc 1 247 0
 344 01c6 0A9B     		ldr	r3, [sp, #40]
 345 01c8 039A     		ldr	r2, [sp, #12]
 346 01ca 1A60     		str	r2, [r3]
 347              		.loc 1 250 0
 348 01cc 039B     		ldr	r3, [sp, #12]
 349 01ce 1033     		adds	r3, r3, #16
 350 01d0 1846     		mov	r0, r3
 351 01d2 FFF7FEFF 		bl	chMtxUnlock
 352              		.loc 1 253 0
 353 01d6 0A9B     		ldr	r3, [sp, #40]
 354 01d8 0833     		adds	r3, r3, #8
 355 01da 28E0     		b	.L14
 356              	.L9:
 357              		.loc 1 258 0
 358 01dc 0A9B     		ldr	r3, [sp, #40]
 359 01de 0B93     		str	r3, [sp, #44]
 360              	.L8:
 361              		.loc 1 194 0
 362 01e0 0B9B     		ldr	r3, [sp, #44]
 363 01e2 1B68     		ldr	r3, [r3]
 364 01e4 002B     		cmp	r3, #0
 365 01e6 7FF471AF 		bne	.L15
 366              		.loc 1 262 0
 367 01ea 039B     		ldr	r3, [sp, #12]
 368 01ec 1033     		adds	r3, r3, #16
 369 01ee 1846     		mov	r0, r3
 370 01f0 FFF7FEFF 		bl	chMtxUnlock
 371              		.loc 1 266 0
 372 01f4 039B     		ldr	r3, [sp, #12]
 373 01f6 1B68     		ldr	r3, [r3]
 374 01f8 002B     		cmp	r3, #0
 375 01fa 17D0     		beq	.L16
 376              		.loc 1 267 0
 377 01fc 039B     		ldr	r3, [sp, #12]
 378 01fe 1B68     		ldr	r3, [r3]
 379 0200 099A     		ldr	r2, [sp, #36]
 380 0202 0132     		adds	r2, r2, #1
 381 0204 D200     		lsls	r2, r2, #3
 382 0206 1046     		mov	r0, r2
 383 0208 0199     		ldr	r1, [sp, #4]
 384 020a 0822     		movs	r2, #8
 385 020c 9847     		blx	r3
 386 020e 0890     		str	r0, [sp, #32]
 387              		.loc 1 270 0
 388 0210 089B     		ldr	r3, [sp, #32]
 389 0212 002B     		cmp	r3, #0
 390 0214 0AD0     		beq	.L16
 391              		.loc 1 271 0
 392 0216 089B     		ldr	r3, [sp, #32]
ARM GAS  /tmp/ccAKQuJZ.s 			page 8


 393 0218 083B     		subs	r3, r3, #8
 394 021a 0A93     		str	r3, [sp, #40]
 395              		.loc 1 272 0
 396 021c 0A9B     		ldr	r3, [sp, #40]
 397 021e 039A     		ldr	r2, [sp, #12]
 398 0220 1A60     		str	r2, [r3]
 399              		.loc 1 273 0
 400 0222 0A9B     		ldr	r3, [sp, #40]
 401 0224 029A     		ldr	r2, [sp, #8]
 402 0226 5A60     		str	r2, [r3, #4]
 403              		.loc 1 276 0
 404 0228 089B     		ldr	r3, [sp, #32]
 405 022a 00E0     		b	.L14
 406              	.L16:
 407              		.loc 1 281 0
 408 022c 0023     		movs	r3, #0
 409              	.L14:
 410              		.loc 1 282 0
 411 022e 1846     		mov	r0, r3
 412 0230 0DB0     		add	sp, sp, #52
 413              		.cfi_def_cfa_offset 4
 414              		@ sp needed
 415 0232 5DF804FB 		ldr	pc, [sp], #4
 416              	.L18:
 417 0236 00BF     		.align	2
 418              	.L17:
 419 0238 00000000 		.word	default_heap
 420              		.cfi_endproc
 421              	.LFE250:
 422              		.size	chHeapAllocAligned, .-chHeapAllocAligned
 423              		.align	2
 424 023c AFF30080 		.p2align 4,,15
 425              		.global	chHeapFree
 426              		.thumb
 427              		.thumb_func
 428              		.type	chHeapFree, %function
 429              	chHeapFree:
 430              	.LFB251:
 431              		.loc 1 291 0
 432              		.cfi_startproc
 433              		@ args = 0, pretend = 0, frame = 24
 434              		@ frame_needed = 0, uses_anonymous_args = 0
 435 0240 00B5     		push	{lr}
 436              		.cfi_def_cfa_offset 4
 437              		.cfi_offset 14, -4
 438 0242 87B0     		sub	sp, sp, #28
 439              		.cfi_def_cfa_offset 32
 440 0244 0190     		str	r0, [sp, #4]
 441              		.loc 1 298 0
 442 0246 019B     		ldr	r3, [sp, #4]
 443 0248 083B     		subs	r3, r3, #8
 444 024a 0493     		str	r3, [sp, #16]
 445              		.loc 1 300 0
 446 024c 049B     		ldr	r3, [sp, #16]
 447 024e 1B68     		ldr	r3, [r3]
 448 0250 0393     		str	r3, [sp, #12]
 449              		.loc 1 301 0
ARM GAS  /tmp/ccAKQuJZ.s 			page 9


 450 0252 039B     		ldr	r3, [sp, #12]
 451 0254 0833     		adds	r3, r3, #8
 452 0256 0593     		str	r3, [sp, #20]
 453              		.loc 1 304 0
 454 0258 049B     		ldr	r3, [sp, #16]
 455 025a 5B68     		ldr	r3, [r3, #4]
 456 025c 0733     		adds	r3, r3, #7
 457 025e 23F00703 		bic	r3, r3, #7
 458              		.loc 1 305 0
 459 0262 DA08     		lsrs	r2, r3, #3
 460              		.loc 1 304 0
 461 0264 049B     		ldr	r3, [sp, #16]
 462 0266 5A60     		str	r2, [r3, #4]
 463              		.loc 1 308 0
 464 0268 039B     		ldr	r3, [sp, #12]
 465 026a 1033     		adds	r3, r3, #16
 466 026c 1846     		mov	r0, r3
 467 026e FFF7FEFF 		bl	chMtxLock
 468              	.L26:
 469              		.loc 1 313 0
 470 0272 039B     		ldr	r3, [sp, #12]
 471 0274 03F10802 		add	r2, r3, #8
 472 0278 059B     		ldr	r3, [sp, #20]
 473 027a 9A42     		cmp	r2, r3
 474 027c 03D0     		beq	.L20
 475              		.loc 1 313 0 is_stmt 0 discriminator 2
 476 027e 049A     		ldr	r2, [sp, #16]
 477 0280 059B     		ldr	r3, [sp, #20]
 478 0282 9A42     		cmp	r2, r3
 479 0284 3ED9     		bls	.L21
 480              	.L20:
 481              		.loc 1 314 0 is_stmt 1 discriminator 3
 482 0286 059B     		ldr	r3, [sp, #20]
 483 0288 1B68     		ldr	r3, [r3]
 484              		.loc 1 313 0 discriminator 3
 485 028a 002B     		cmp	r3, #0
 486 028c 04D0     		beq	.L22
 487              		.loc 1 314 0
 488 028e 059B     		ldr	r3, [sp, #20]
 489 0290 1A68     		ldr	r2, [r3]
 490 0292 049B     		ldr	r3, [sp, #16]
 491 0294 9A42     		cmp	r2, r3
 492 0296 35D9     		bls	.L21
 493              	.L22:
 494              		.loc 1 316 0
 495 0298 059B     		ldr	r3, [sp, #20]
 496 029a 1A68     		ldr	r2, [r3]
 497 029c 049B     		ldr	r3, [sp, #16]
 498 029e 1A60     		str	r2, [r3]
 499              		.loc 1 317 0
 500 02a0 059B     		ldr	r3, [sp, #20]
 501 02a2 049A     		ldr	r2, [sp, #16]
 502 02a4 1A60     		str	r2, [r3]
 503              		.loc 1 319 0
 504 02a6 049B     		ldr	r3, [sp, #16]
 505 02a8 5B68     		ldr	r3, [r3, #4]
 506 02aa 0133     		adds	r3, r3, #1
ARM GAS  /tmp/ccAKQuJZ.s 			page 10


 507 02ac DB00     		lsls	r3, r3, #3
 508 02ae 049A     		ldr	r2, [sp, #16]
 509 02b0 1A44     		add	r2, r2, r3
 510 02b2 049B     		ldr	r3, [sp, #16]
 511 02b4 1B68     		ldr	r3, [r3]
 512 02b6 9A42     		cmp	r2, r3
 513 02b8 0DD1     		bne	.L23
 514              		.loc 1 321 0
 515 02ba 049B     		ldr	r3, [sp, #16]
 516 02bc 5A68     		ldr	r2, [r3, #4]
 517 02be 049B     		ldr	r3, [sp, #16]
 518 02c0 1B68     		ldr	r3, [r3]
 519 02c2 5B68     		ldr	r3, [r3, #4]
 520 02c4 1344     		add	r3, r3, r2
 521 02c6 5A1C     		adds	r2, r3, #1
 522 02c8 049B     		ldr	r3, [sp, #16]
 523 02ca 5A60     		str	r2, [r3, #4]
 524              		.loc 1 322 0
 525 02cc 049B     		ldr	r3, [sp, #16]
 526 02ce 1B68     		ldr	r3, [r3]
 527 02d0 1A68     		ldr	r2, [r3]
 528 02d2 049B     		ldr	r3, [sp, #16]
 529 02d4 1A60     		str	r2, [r3]
 530              	.L23:
 531              		.loc 1 324 0
 532 02d6 059B     		ldr	r3, [sp, #20]
 533 02d8 5B68     		ldr	r3, [r3, #4]
 534 02da 0133     		adds	r3, r3, #1
 535 02dc DB00     		lsls	r3, r3, #3
 536 02de 059A     		ldr	r2, [sp, #20]
 537 02e0 1A44     		add	r2, r2, r3
 538 02e2 049B     		ldr	r3, [sp, #16]
 539 02e4 9A42     		cmp	r2, r3
 540 02e6 0CD1     		bne	.L24
 541              		.loc 1 326 0
 542 02e8 059B     		ldr	r3, [sp, #20]
 543 02ea 5A68     		ldr	r2, [r3, #4]
 544 02ec 049B     		ldr	r3, [sp, #16]
 545 02ee 5B68     		ldr	r3, [r3, #4]
 546 02f0 1344     		add	r3, r3, r2
 547 02f2 5A1C     		adds	r2, r3, #1
 548 02f4 059B     		ldr	r3, [sp, #20]
 549 02f6 5A60     		str	r2, [r3, #4]
 550              		.loc 1 327 0
 551 02f8 049B     		ldr	r3, [sp, #16]
 552 02fa 1A68     		ldr	r2, [r3]
 553 02fc 059B     		ldr	r3, [sp, #20]
 554 02fe 1A60     		str	r2, [r3]
 555              		.loc 1 329 0
 556 0300 04E0     		b	.L25
 557              	.L24:
 558 0302 03E0     		b	.L25
 559              	.L21:
 560              		.loc 1 331 0
 561 0304 059B     		ldr	r3, [sp, #20]
 562 0306 1B68     		ldr	r3, [r3]
 563 0308 0593     		str	r3, [sp, #20]
ARM GAS  /tmp/ccAKQuJZ.s 			page 11


 564              		.loc 1 332 0
 565 030a B2E7     		b	.L26
 566              	.L25:
 567              		.loc 1 335 0
 568 030c 039B     		ldr	r3, [sp, #12]
 569 030e 1033     		adds	r3, r3, #16
 570 0310 1846     		mov	r0, r3
 571 0312 FFF7FEFF 		bl	chMtxUnlock
 572              		.loc 1 337 0
 573 0316 00BF     		nop
 574              		.loc 1 338 0
 575 0318 07B0     		add	sp, sp, #28
 576              		.cfi_def_cfa_offset 4
 577              		@ sp needed
 578 031a 5DF804FB 		ldr	pc, [sp], #4
 579              		.cfi_endproc
 580              	.LFE251:
 581              		.size	chHeapFree, .-chHeapFree
 582 031e 00BF     		.align	2
 583              		.p2align 4,,15
 584              		.global	chHeapStatus
 585              		.thumb
 586              		.thumb_func
 587              		.type	chHeapStatus, %function
 588              	chHeapStatus:
 589              	.LFB252:
 590              		.loc 1 355 0
 591              		.cfi_startproc
 592              		@ args = 0, pretend = 0, frame = 40
 593              		@ frame_needed = 0, uses_anonymous_args = 0
 594 0320 00B5     		push	{lr}
 595              		.cfi_def_cfa_offset 4
 596              		.cfi_offset 14, -4
 597 0322 8BB0     		sub	sp, sp, #44
 598              		.cfi_def_cfa_offset 48
 599 0324 0390     		str	r0, [sp, #12]
 600 0326 0291     		str	r1, [sp, #8]
 601 0328 0192     		str	r2, [sp, #4]
 602              		.loc 1 359 0
 603 032a 039B     		ldr	r3, [sp, #12]
 604 032c 002B     		cmp	r3, #0
 605 032e 01D1     		bne	.L29
 606              		.loc 1 360 0
 607 0330 204B     		ldr	r3, .L36
 608 0332 0393     		str	r3, [sp, #12]
 609              	.L29:
 610              		.loc 1 363 0
 611 0334 039B     		ldr	r3, [sp, #12]
 612 0336 1033     		adds	r3, r3, #16
 613 0338 1846     		mov	r0, r3
 614 033a FFF7FEFF 		bl	chMtxLock
 615              		.loc 1 364 0
 616 033e 0023     		movs	r3, #0
 617 0340 0793     		str	r3, [sp, #28]
 618              		.loc 1 365 0
 619 0342 0023     		movs	r3, #0
 620 0344 0693     		str	r3, [sp, #24]
ARM GAS  /tmp/ccAKQuJZ.s 			page 12


 621              		.loc 1 366 0
 622 0346 0023     		movs	r3, #0
 623 0348 0893     		str	r3, [sp, #32]
 624              		.loc 1 367 0
 625 034a 039B     		ldr	r3, [sp, #12]
 626 034c 0833     		adds	r3, r3, #8
 627 034e 0993     		str	r3, [sp, #36]
 628              		.loc 1 368 0
 629 0350 13E0     		b	.L30
 630              	.L32:
 631              	.LBB5:
 632              		.loc 1 369 0
 633 0352 099B     		ldr	r3, [sp, #36]
 634 0354 1B68     		ldr	r3, [r3]
 635 0356 5B68     		ldr	r3, [r3, #4]
 636 0358 0593     		str	r3, [sp, #20]
 637              		.loc 1 372 0
 638 035a 089B     		ldr	r3, [sp, #32]
 639 035c 0133     		adds	r3, r3, #1
 640 035e 0893     		str	r3, [sp, #32]
 641              		.loc 1 373 0
 642 0360 079A     		ldr	r2, [sp, #28]
 643 0362 059B     		ldr	r3, [sp, #20]
 644 0364 1344     		add	r3, r3, r2
 645 0366 0793     		str	r3, [sp, #28]
 646              		.loc 1 374 0
 647 0368 059A     		ldr	r2, [sp, #20]
 648 036a 069B     		ldr	r3, [sp, #24]
 649 036c 9A42     		cmp	r2, r3
 650 036e 01D9     		bls	.L31
 651              		.loc 1 375 0
 652 0370 059B     		ldr	r3, [sp, #20]
 653 0372 0693     		str	r3, [sp, #24]
 654              	.L31:
 655              		.loc 1 378 0
 656 0374 099B     		ldr	r3, [sp, #36]
 657 0376 1B68     		ldr	r3, [r3]
 658 0378 0993     		str	r3, [sp, #36]
 659              	.L30:
 660              	.LBE5:
 661              		.loc 1 368 0
 662 037a 099B     		ldr	r3, [sp, #36]
 663 037c 1B68     		ldr	r3, [r3]
 664 037e 002B     		cmp	r3, #0
 665 0380 E7D1     		bne	.L32
 666              		.loc 1 382 0
 667 0382 029B     		ldr	r3, [sp, #8]
 668 0384 002B     		cmp	r3, #0
 669 0386 03D0     		beq	.L33
 670              		.loc 1 383 0
 671 0388 079B     		ldr	r3, [sp, #28]
 672 038a DA00     		lsls	r2, r3, #3
 673 038c 029B     		ldr	r3, [sp, #8]
 674 038e 1A60     		str	r2, [r3]
 675              	.L33:
 676              		.loc 1 387 0
 677 0390 019B     		ldr	r3, [sp, #4]
ARM GAS  /tmp/ccAKQuJZ.s 			page 13


 678 0392 002B     		cmp	r3, #0
 679 0394 03D0     		beq	.L34
 680              		.loc 1 388 0
 681 0396 069B     		ldr	r3, [sp, #24]
 682 0398 DA00     		lsls	r2, r3, #3
 683 039a 019B     		ldr	r3, [sp, #4]
 684 039c 1A60     		str	r2, [r3]
 685              	.L34:
 686              		.loc 1 390 0
 687 039e 039B     		ldr	r3, [sp, #12]
 688 03a0 1033     		adds	r3, r3, #16
 689 03a2 1846     		mov	r0, r3
 690 03a4 FFF7FEFF 		bl	chMtxUnlock
 691              		.loc 1 392 0
 692 03a8 089B     		ldr	r3, [sp, #32]
 693              		.loc 1 393 0
 694 03aa 1846     		mov	r0, r3
 695 03ac 0BB0     		add	sp, sp, #44
 696              		.cfi_def_cfa_offset 4
 697              		@ sp needed
 698 03ae 5DF804FB 		ldr	pc, [sp], #4
 699              	.L37:
 700 03b2 00BF     		.align	2
 701              	.L36:
 702 03b4 00000000 		.word	default_heap
 703              		.cfi_endproc
 704              	.LFE252:
 705              		.size	chHeapStatus, .-chHeapStatus
 706              	.Letext0:
 707              		.file 2 "/usr/lib/gcc/arm-none-eabi/4.9.3/include/stddef.h"
 708              		.file 3 "/usr/include/newlib/machine/_default_types.h"
 709              		.file 4 "/usr/include/newlib/sys/_stdint.h"
 710              		.file 5 "../../../os/common/ports/ARMCMx/compilers/GCC/chtypes.h"
 711              		.file 6 "../../../os/rt/include/chsystypes.h"
 712              		.file 7 "../../../os/rt/include/chschd.h"
 713              		.file 8 "../../../os/common/ports/ARMCMx/chcore.h"
 714              		.file 9 "../../../os/common/ports/ARMCMx/chcore_v7m.h"
 715              		.file 10 "../../../os/rt/include/chtm.h"
 716              		.file 11 "../../../os/rt/include/chsem.h"
 717              		.file 12 "../../../os/rt/include/chmtx.h"
 718              		.file 13 "../../../os/common/oslib/include/chmemcore.h"
 719              		.file 14 "../../../os/common/oslib/include/chheap.h"
 720              		.file 15 "../../../os/common/ext/CMSIS/include/core_cm4.h"