ARM GAS  /tmp/ccOOEKzZ.s 			page 1


   1              		.syntax unified
   2              		.cpu cortex-m4
   3              		.fpu softvfp
   4              		.eabi_attribute 20, 1
   5              		.eabi_attribute 21, 1
   6              		.eabi_attribute 23, 3
   7              		.eabi_attribute 24, 1
   8              		.eabi_attribute 25, 1
   9              		.eabi_attribute 26, 1
  10              		.eabi_attribute 30, 6
  11              		.eabi_attribute 34, 1
  12              		.eabi_attribute 18, 4
  13              		.thumb
  14              		.file	"chmboxes.c"
  15              		.text
  16              	.Ltext0:
  17              		.cfi_sections	.debug_frame
  18              		.align	2
  19              		.p2align 4,,15
  20              		.thumb
  21              		.thumb_func
  22              		.type	port_lock, %function
  23              	port_lock:
  24              	.LFB127:
  25              		.file 1 "../../../os/common/ports/ARMCMx/chcore_v7m.h"
  26              		.loc 1 594 0
  27              		.cfi_startproc
  28              		@ args = 0, pretend = 0, frame = 8
  29              		@ frame_needed = 0, uses_anonymous_args = 0
  30              		@ link register save eliminated.
  31 0000 82B0     		sub	sp, sp, #8
  32              		.cfi_def_cfa_offset 8
  33 0002 2023     		movs	r3, #32
  34 0004 0193     		str	r3, [sp, #4]
  35              	.LBB6:
  36              	.LBB7:
  37              		.file 2 "../../../os/common/ext/CMSIS/include/cmsis_gcc.h"
  38              		.loc 2 264 0
  39 0006 019B     		ldr	r3, [sp, #4]
  40              	@ 264 "../../../os/common/ext/CMSIS/include/cmsis_gcc.h" 1
  41 0008 83F31188 		MSR basepri, r3
  42              	@ 0 "" 2
  43              		.thumb
  44              	.LBE7:
  45              	.LBE6:
  46              		.loc 1 611 0
  47 000c 02B0     		add	sp, sp, #8
  48              		.cfi_def_cfa_offset 0
  49              		@ sp needed
  50 000e 7047     		bx	lr
  51              		.cfi_endproc
  52              	.LFE127:
  53              		.size	port_lock, .-port_lock
  54              		.align	2
  55              		.p2align 4,,15
  56              		.thumb
  57              		.thumb_func
ARM GAS  /tmp/ccOOEKzZ.s 			page 2


  58              		.type	port_unlock, %function
  59              	port_unlock:
  60              	.LFB128:
  61              		.loc 1 618 0
  62              		.cfi_startproc
  63              		@ args = 0, pretend = 0, frame = 8
  64              		@ frame_needed = 0, uses_anonymous_args = 0
  65              		@ link register save eliminated.
  66 0010 82B0     		sub	sp, sp, #8
  67              		.cfi_def_cfa_offset 8
  68 0012 0023     		movs	r3, #0
  69 0014 0193     		str	r3, [sp, #4]
  70              	.LBB8:
  71              	.LBB9:
  72              		.loc 2 264 0
  73 0016 019B     		ldr	r3, [sp, #4]
  74              	@ 264 "../../../os/common/ext/CMSIS/include/cmsis_gcc.h" 1
  75 0018 83F31188 		MSR basepri, r3
  76              	@ 0 "" 2
  77              		.thumb
  78              	.LBE9:
  79              	.LBE8:
  80              		.loc 1 625 0
  81 001c 02B0     		add	sp, sp, #8
  82              		.cfi_def_cfa_offset 0
  83              		@ sp needed
  84 001e 7047     		bx	lr
  85              		.cfi_endproc
  86              	.LFE128:
  87              		.size	port_unlock, .-port_unlock
  88              		.align	2
  89              		.p2align 4,,15
  90              		.thumb
  91              		.thumb_func
  92              		.type	queue_init, %function
  93              	queue_init:
  94              	.LFB150:
  95              		.file 3 "../../../os/rt/include/chschd.h"
  96              		.loc 3 548 0
  97              		.cfi_startproc
  98              		@ args = 0, pretend = 0, frame = 8
  99              		@ frame_needed = 0, uses_anonymous_args = 0
 100              		@ link register save eliminated.
 101 0020 82B0     		sub	sp, sp, #8
 102              		.cfi_def_cfa_offset 8
 103 0022 0190     		str	r0, [sp, #4]
 104              		.loc 3 550 0
 105 0024 019B     		ldr	r3, [sp, #4]
 106 0026 019A     		ldr	r2, [sp, #4]
 107 0028 1A60     		str	r2, [r3]
 108              		.loc 3 551 0
 109 002a 019B     		ldr	r3, [sp, #4]
 110 002c 019A     		ldr	r2, [sp, #4]
 111 002e 5A60     		str	r2, [r3, #4]
 112              		.loc 3 552 0
 113 0030 02B0     		add	sp, sp, #8
 114              		.cfi_def_cfa_offset 0
ARM GAS  /tmp/ccOOEKzZ.s 			page 3


 115              		@ sp needed
 116 0032 7047     		bx	lr
 117              		.cfi_endproc
 118              	.LFE150:
 119              		.size	queue_init, .-queue_init
 120              		.align	2
 121 0034 AFF30080 		.p2align 4,,15
 121      AFF30080 
 121      AFF30080 
 122              		.thumb
 123              		.thumb_func
 124              		.type	chSysLock, %function
 125              	chSysLock:
 126              	.LFB167:
 127              		.file 4 "../../../os/rt/include/chsys.h"
 128              		.loc 4 374 0
 129              		.cfi_startproc
 130              		@ args = 0, pretend = 0, frame = 0
 131              		@ frame_needed = 0, uses_anonymous_args = 0
 132 0040 08B5     		push	{r3, lr}
 133              		.cfi_def_cfa_offset 8
 134              		.cfi_offset 3, -8
 135              		.cfi_offset 14, -4
 136              		.loc 4 376 0
 137 0042 FFF7DDFF 		bl	port_lock
 138              		.loc 4 379 0
 139 0046 08BD     		pop	{r3, pc}
 140              		.cfi_endproc
 141              	.LFE167:
 142              		.size	chSysLock, .-chSysLock
 143              		.align	2
 144 0048 AFF30080 		.p2align 4,,15
 144      AFF30080 
 145              		.thumb
 146              		.thumb_func
 147              		.type	chSysUnlock, %function
 148              	chSysUnlock:
 149              	.LFB168:
 150              		.loc 4 386 0
 151              		.cfi_startproc
 152              		@ args = 0, pretend = 0, frame = 0
 153              		@ frame_needed = 0, uses_anonymous_args = 0
 154 0050 08B5     		push	{r3, lr}
 155              		.cfi_def_cfa_offset 8
 156              		.cfi_offset 3, -8
 157              		.cfi_offset 14, -4
 158              		.loc 4 399 0
 159 0052 FFF7DDFF 		bl	port_unlock
 160              		.loc 4 400 0
 161 0056 08BD     		pop	{r3, pc}
 162              		.cfi_endproc
 163              	.LFE168:
 164              		.size	chSysUnlock, .-chSysUnlock
 165              		.align	2
 166 0058 AFF30080 		.p2align 4,,15
 166      AFF30080 
 167              		.thumb
ARM GAS  /tmp/ccOOEKzZ.s 			page 4


 168              		.thumb_func
 169              		.type	chThdQueueObjectInit, %function
 170              	chThdQueueObjectInit:
 171              	.LFB202:
 172              		.file 5 "../../../os/rt/include/chthreads.h"
 173              		.loc 5 404 0
 174              		.cfi_startproc
 175              		@ args = 0, pretend = 0, frame = 8
 176              		@ frame_needed = 0, uses_anonymous_args = 0
 177 0060 00B5     		push	{lr}
 178              		.cfi_def_cfa_offset 4
 179              		.cfi_offset 14, -4
 180 0062 83B0     		sub	sp, sp, #12
 181              		.cfi_def_cfa_offset 16
 182 0064 0190     		str	r0, [sp, #4]
 183              		.loc 5 406 0
 184 0066 0198     		ldr	r0, [sp, #4]
 185 0068 FFF7DAFF 		bl	queue_init
 186              		.loc 5 407 0
 187 006c 03B0     		add	sp, sp, #12
 188              		.cfi_def_cfa_offset 4
 189              		@ sp needed
 190 006e 5DF804FB 		ldr	pc, [sp], #4
 191              		.cfi_endproc
 192              	.LFE202:
 193              		.size	chThdQueueObjectInit, .-chThdQueueObjectInit
 194 0072 00BF     		.align	2
 195 0074 AFF30080 		.p2align 4,,15
 195      AFF30080 
 195      AFF30080 
 196              		.thumb
 197              		.thumb_func
 198              		.type	chMBGetSizeI, %function
 199              	chMBGetSizeI:
 200              	.LFB233:
 201              		.file 6 "../../../os/common/oslib/include/chmboxes.h"
 202              		.loc 6 136 0
 203              		.cfi_startproc
 204              		@ args = 0, pretend = 0, frame = 8
 205              		@ frame_needed = 0, uses_anonymous_args = 0
 206              		@ link register save eliminated.
 207 0080 82B0     		sub	sp, sp, #8
 208              		.cfi_def_cfa_offset 8
 209 0082 0190     		str	r0, [sp, #4]
 210              		.loc 6 140 0
 211 0084 019B     		ldr	r3, [sp, #4]
 212 0086 5B68     		ldr	r3, [r3, #4]
 213 0088 1A46     		mov	r2, r3
 214 008a 019B     		ldr	r3, [sp, #4]
 215 008c 1B68     		ldr	r3, [r3]
 216 008e D31A     		subs	r3, r2, r3
 217 0090 9B10     		asrs	r3, r3, #2
 218              		.loc 6 142 0
 219 0092 1846     		mov	r0, r3
 220 0094 02B0     		add	sp, sp, #8
 221              		.cfi_def_cfa_offset 0
 222              		@ sp needed
ARM GAS  /tmp/ccOOEKzZ.s 			page 5


 223 0096 7047     		bx	lr
 224              		.cfi_endproc
 225              	.LFE233:
 226              		.size	chMBGetSizeI, .-chMBGetSizeI
 227              		.align	2
 228 0098 AFF30080 		.p2align 4,,15
 228      AFF30080 
 229              		.thumb
 230              		.thumb_func
 231              		.type	chMBGetUsedCountI, %function
 232              	chMBGetUsedCountI:
 233              	.LFB234:
 234              		.loc 6 153 0
 235              		.cfi_startproc
 236              		@ args = 0, pretend = 0, frame = 8
 237              		@ frame_needed = 0, uses_anonymous_args = 0
 238              		@ link register save eliminated.
 239 00a0 82B0     		sub	sp, sp, #8
 240              		.cfi_def_cfa_offset 8
 241 00a2 0190     		str	r0, [sp, #4]
 242              		.loc 6 157 0
 243 00a4 019B     		ldr	r3, [sp, #4]
 244 00a6 1B69     		ldr	r3, [r3, #16]
 245              		.loc 6 158 0
 246 00a8 1846     		mov	r0, r3
 247 00aa 02B0     		add	sp, sp, #8
 248              		.cfi_def_cfa_offset 0
 249              		@ sp needed
 250 00ac 7047     		bx	lr
 251              		.cfi_endproc
 252              	.LFE234:
 253              		.size	chMBGetUsedCountI, .-chMBGetUsedCountI
 254 00ae 00BF     		.align	2
 255              		.p2align 4,,15
 256              		.thumb
 257              		.thumb_func
 258              		.type	chMBGetFreeCountI, %function
 259              	chMBGetFreeCountI:
 260              	.LFB235:
 261              		.loc 6 168 0
 262              		.cfi_startproc
 263              		@ args = 0, pretend = 0, frame = 8
 264              		@ frame_needed = 0, uses_anonymous_args = 0
 265 00b0 10B5     		push	{r4, lr}
 266              		.cfi_def_cfa_offset 8
 267              		.cfi_offset 4, -8
 268              		.cfi_offset 14, -4
 269 00b2 82B0     		sub	sp, sp, #8
 270              		.cfi_def_cfa_offset 16
 271 00b4 0190     		str	r0, [sp, #4]
 272              		.loc 6 172 0
 273 00b6 0198     		ldr	r0, [sp, #4]
 274 00b8 FFF7E2FF 		bl	chMBGetSizeI
 275 00bc 0446     		mov	r4, r0
 276 00be 0198     		ldr	r0, [sp, #4]
 277 00c0 FFF7EEFF 		bl	chMBGetUsedCountI
 278 00c4 0346     		mov	r3, r0
ARM GAS  /tmp/ccOOEKzZ.s 			page 6


 279 00c6 E31A     		subs	r3, r4, r3
 280              		.loc 6 173 0
 281 00c8 1846     		mov	r0, r3
 282 00ca 02B0     		add	sp, sp, #8
 283              		.cfi_def_cfa_offset 8
 284              		@ sp needed
 285 00cc 10BD     		pop	{r4, pc}
 286              		.cfi_endproc
 287              	.LFE235:
 288              		.size	chMBGetFreeCountI, .-chMBGetFreeCountI
 289 00ce 00BF     		.align	2
 290              		.p2align 4,,15
 291              		.global	chMBObjectInit
 292              		.thumb
 293              		.thumb_func
 294              		.type	chMBObjectInit, %function
 295              	chMBObjectInit:
 296              	.LFB248:
 297              		.file 7 "../../../os/common/oslib/src/chmboxes.c"
 298              		.loc 7 87 0
 299              		.cfi_startproc
 300              		@ args = 0, pretend = 0, frame = 16
 301              		@ frame_needed = 0, uses_anonymous_args = 0
 302 00d0 00B5     		push	{lr}
 303              		.cfi_def_cfa_offset 4
 304              		.cfi_offset 14, -4
 305 00d2 85B0     		sub	sp, sp, #20
 306              		.cfi_def_cfa_offset 24
 307 00d4 0390     		str	r0, [sp, #12]
 308 00d6 0291     		str	r1, [sp, #8]
 309 00d8 0192     		str	r2, [sp, #4]
 310              		.loc 7 91 0
 311 00da 039B     		ldr	r3, [sp, #12]
 312 00dc 029A     		ldr	r2, [sp, #8]
 313 00de 1A60     		str	r2, [r3]
 314              		.loc 7 92 0
 315 00e0 039B     		ldr	r3, [sp, #12]
 316 00e2 029A     		ldr	r2, [sp, #8]
 317 00e4 DA60     		str	r2, [r3, #12]
 318              		.loc 7 93 0
 319 00e6 039B     		ldr	r3, [sp, #12]
 320 00e8 029A     		ldr	r2, [sp, #8]
 321 00ea 9A60     		str	r2, [r3, #8]
 322              		.loc 7 94 0
 323 00ec 019B     		ldr	r3, [sp, #4]
 324 00ee 9B00     		lsls	r3, r3, #2
 325 00f0 029A     		ldr	r2, [sp, #8]
 326 00f2 1A44     		add	r2, r2, r3
 327 00f4 039B     		ldr	r3, [sp, #12]
 328 00f6 5A60     		str	r2, [r3, #4]
 329              		.loc 7 95 0
 330 00f8 039B     		ldr	r3, [sp, #12]
 331 00fa 0022     		movs	r2, #0
 332 00fc 1A61     		str	r2, [r3, #16]
 333              		.loc 7 96 0
 334 00fe 039B     		ldr	r3, [sp, #12]
 335 0100 0022     		movs	r2, #0
ARM GAS  /tmp/ccOOEKzZ.s 			page 7


 336 0102 1A75     		strb	r2, [r3, #20]
 337              		.loc 7 97 0
 338 0104 039B     		ldr	r3, [sp, #12]
 339 0106 1833     		adds	r3, r3, #24
 340 0108 1846     		mov	r0, r3
 341 010a FFF7A9FF 		bl	chThdQueueObjectInit
 342              		.loc 7 98 0
 343 010e 039B     		ldr	r3, [sp, #12]
 344 0110 2033     		adds	r3, r3, #32
 345 0112 1846     		mov	r0, r3
 346 0114 FFF7A4FF 		bl	chThdQueueObjectInit
 347              		.loc 7 99 0
 348 0118 05B0     		add	sp, sp, #20
 349              		.cfi_def_cfa_offset 4
 350              		@ sp needed
 351 011a 5DF804FB 		ldr	pc, [sp], #4
 352              		.cfi_endproc
 353              	.LFE248:
 354              		.size	chMBObjectInit, .-chMBObjectInit
 355 011e 00BF     		.align	2
 356              		.p2align 4,,15
 357              		.global	chMBReset
 358              		.thumb
 359              		.thumb_func
 360              		.type	chMBReset, %function
 361              	chMBReset:
 362              	.LFB249:
 363              		.loc 7 113 0
 364              		.cfi_startproc
 365              		@ args = 0, pretend = 0, frame = 8
 366              		@ frame_needed = 0, uses_anonymous_args = 0
 367 0120 00B5     		push	{lr}
 368              		.cfi_def_cfa_offset 4
 369              		.cfi_offset 14, -4
 370 0122 83B0     		sub	sp, sp, #12
 371              		.cfi_def_cfa_offset 16
 372 0124 0190     		str	r0, [sp, #4]
 373              		.loc 7 115 0
 374 0126 FFF78BFF 		bl	chSysLock
 375              		.loc 7 116 0
 376 012a 0198     		ldr	r0, [sp, #4]
 377 012c FFF7FEFF 		bl	chMBResetI
 378              		.loc 7 117 0
 379 0130 FFF7FEFF 		bl	chSchRescheduleS
 380              		.loc 7 118 0
 381 0134 FFF78CFF 		bl	chSysUnlock
 382              		.loc 7 119 0
 383 0138 03B0     		add	sp, sp, #12
 384              		.cfi_def_cfa_offset 4
 385              		@ sp needed
 386 013a 5DF804FB 		ldr	pc, [sp], #4
 387              		.cfi_endproc
 388              	.LFE249:
 389              		.size	chMBReset, .-chMBReset
 390 013e 00BF     		.align	2
 391              		.p2align 4,,15
 392              		.global	chMBResetI
ARM GAS  /tmp/ccOOEKzZ.s 			page 8


 393              		.thumb
 394              		.thumb_func
 395              		.type	chMBResetI, %function
 396              	chMBResetI:
 397              	.LFB250:
 398              		.loc 7 133 0
 399              		.cfi_startproc
 400              		@ args = 0, pretend = 0, frame = 8
 401              		@ frame_needed = 0, uses_anonymous_args = 0
 402 0140 00B5     		push	{lr}
 403              		.cfi_def_cfa_offset 4
 404              		.cfi_offset 14, -4
 405 0142 83B0     		sub	sp, sp, #12
 406              		.cfi_def_cfa_offset 16
 407 0144 0190     		str	r0, [sp, #4]
 408              		.loc 7 138 0
 409 0146 019B     		ldr	r3, [sp, #4]
 410 0148 1A68     		ldr	r2, [r3]
 411 014a 019B     		ldr	r3, [sp, #4]
 412 014c 9A60     		str	r2, [r3, #8]
 413              		.loc 7 139 0
 414 014e 019B     		ldr	r3, [sp, #4]
 415 0150 1A68     		ldr	r2, [r3]
 416 0152 019B     		ldr	r3, [sp, #4]
 417 0154 DA60     		str	r2, [r3, #12]
 418              		.loc 7 140 0
 419 0156 019B     		ldr	r3, [sp, #4]
 420 0158 0022     		movs	r2, #0
 421 015a 1A61     		str	r2, [r3, #16]
 422              		.loc 7 141 0
 423 015c 019B     		ldr	r3, [sp, #4]
 424 015e 0122     		movs	r2, #1
 425 0160 1A75     		strb	r2, [r3, #20]
 426              		.loc 7 142 0
 427 0162 019B     		ldr	r3, [sp, #4]
 428 0164 1833     		adds	r3, r3, #24
 429 0166 1846     		mov	r0, r3
 430 0168 6FF00101 		mvn	r1, #1
 431 016c FFF7FEFF 		bl	chThdDequeueAllI
 432              		.loc 7 143 0
 433 0170 019B     		ldr	r3, [sp, #4]
 434 0172 2033     		adds	r3, r3, #32
 435 0174 1846     		mov	r0, r3
 436 0176 6FF00101 		mvn	r1, #1
 437 017a FFF7FEFF 		bl	chThdDequeueAllI
 438              		.loc 7 144 0
 439 017e 03B0     		add	sp, sp, #12
 440              		.cfi_def_cfa_offset 4
 441              		@ sp needed
 442 0180 5DF804FB 		ldr	pc, [sp], #4
 443              		.cfi_endproc
 444              	.LFE250:
 445              		.size	chMBResetI, .-chMBResetI
 446              		.align	2
 447 0184 AFF30080 		.p2align 4,,15
 447      AFF30080 
 447      AFF30080 
ARM GAS  /tmp/ccOOEKzZ.s 			page 9


 448              		.global	chMBPost
 449              		.thumb
 450              		.thumb_func
 451              		.type	chMBPost, %function
 452              	chMBPost:
 453              	.LFB251:
 454              		.loc 7 165 0
 455              		.cfi_startproc
 456              		@ args = 0, pretend = 0, frame = 24
 457              		@ frame_needed = 0, uses_anonymous_args = 0
 458 0190 00B5     		push	{lr}
 459              		.cfi_def_cfa_offset 4
 460              		.cfi_offset 14, -4
 461 0192 87B0     		sub	sp, sp, #28
 462              		.cfi_def_cfa_offset 32
 463 0194 0390     		str	r0, [sp, #12]
 464 0196 0291     		str	r1, [sp, #8]
 465 0198 0192     		str	r2, [sp, #4]
 466              		.loc 7 168 0
 467 019a FFF751FF 		bl	chSysLock
 468              		.loc 7 169 0
 469 019e 0398     		ldr	r0, [sp, #12]
 470 01a0 0299     		ldr	r1, [sp, #8]
 471 01a2 019A     		ldr	r2, [sp, #4]
 472 01a4 FFF7FEFF 		bl	chMBPostS
 473 01a8 0590     		str	r0, [sp, #20]
 474              		.loc 7 170 0
 475 01aa FFF751FF 		bl	chSysUnlock
 476              		.loc 7 172 0
 477 01ae 059B     		ldr	r3, [sp, #20]
 478              		.loc 7 173 0
 479 01b0 1846     		mov	r0, r3
 480 01b2 07B0     		add	sp, sp, #28
 481              		.cfi_def_cfa_offset 4
 482              		@ sp needed
 483 01b4 5DF804FB 		ldr	pc, [sp], #4
 484              		.cfi_endproc
 485              	.LFE251:
 486              		.size	chMBPost, .-chMBPost
 487              		.align	2
 488 01b8 AFF30080 		.p2align 4,,15
 488      AFF30080 
 489              		.global	chMBPostS
 490              		.thumb
 491              		.thumb_func
 492              		.type	chMBPostS, %function
 493              	chMBPostS:
 494              	.LFB252:
 495              		.loc 7 194 0
 496              		.cfi_startproc
 497              		@ args = 0, pretend = 0, frame = 24
 498              		@ frame_needed = 0, uses_anonymous_args = 0
 499 01c0 00B5     		push	{lr}
 500              		.cfi_def_cfa_offset 4
 501              		.cfi_offset 14, -4
 502 01c2 87B0     		sub	sp, sp, #28
 503              		.cfi_def_cfa_offset 32
ARM GAS  /tmp/ccOOEKzZ.s 			page 10


 504 01c4 0390     		str	r0, [sp, #12]
 505 01c6 0291     		str	r1, [sp, #8]
 506 01c8 0192     		str	r2, [sp, #4]
 507              	.L23:
 508              		.loc 7 202 0
 509 01ca 039B     		ldr	r3, [sp, #12]
 510 01cc 1B7D     		ldrb	r3, [r3, #20]	@ zero_extendqisi2
 511 01ce 002B     		cmp	r3, #0
 512 01d0 02D0     		beq	.L19
 513              		.loc 7 203 0
 514 01d2 6FF00103 		mvn	r3, #1
 515 01d6 30E0     		b	.L20
 516              	.L19:
 517              		.loc 7 207 0
 518 01d8 0398     		ldr	r0, [sp, #12]
 519 01da FFF769FF 		bl	chMBGetFreeCountI
 520 01de 0346     		mov	r3, r0
 521 01e0 002B     		cmp	r3, #0
 522 01e2 1FDD     		ble	.L21
 523              		.loc 7 208 0
 524 01e4 039B     		ldr	r3, [sp, #12]
 525 01e6 9B68     		ldr	r3, [r3, #8]
 526 01e8 191D     		adds	r1, r3, #4
 527 01ea 039A     		ldr	r2, [sp, #12]
 528 01ec 9160     		str	r1, [r2, #8]
 529 01ee 029A     		ldr	r2, [sp, #8]
 530 01f0 1A60     		str	r2, [r3]
 531              		.loc 7 209 0
 532 01f2 039B     		ldr	r3, [sp, #12]
 533 01f4 9A68     		ldr	r2, [r3, #8]
 534 01f6 039B     		ldr	r3, [sp, #12]
 535 01f8 5B68     		ldr	r3, [r3, #4]
 536 01fa 9A42     		cmp	r2, r3
 537 01fc 03D3     		bcc	.L22
 538              		.loc 7 210 0
 539 01fe 039B     		ldr	r3, [sp, #12]
 540 0200 1A68     		ldr	r2, [r3]
 541 0202 039B     		ldr	r3, [sp, #12]
 542 0204 9A60     		str	r2, [r3, #8]
 543              	.L22:
 544              		.loc 7 212 0
 545 0206 039B     		ldr	r3, [sp, #12]
 546 0208 1B69     		ldr	r3, [r3, #16]
 547 020a 5A1C     		adds	r2, r3, #1
 548 020c 039B     		ldr	r3, [sp, #12]
 549 020e 1A61     		str	r2, [r3, #16]
 550              		.loc 7 215 0
 551 0210 039B     		ldr	r3, [sp, #12]
 552 0212 2033     		adds	r3, r3, #32
 553 0214 1846     		mov	r0, r3
 554 0216 0021     		movs	r1, #0
 555 0218 FFF7FEFF 		bl	chThdDequeueNextI
 556              		.loc 7 216 0
 557 021c FFF7FEFF 		bl	chSchRescheduleS
 558              		.loc 7 218 0
 559 0220 0023     		movs	r3, #0
 560 0222 0AE0     		b	.L20
ARM GAS  /tmp/ccOOEKzZ.s 			page 11


 561              	.L21:
 562              		.loc 7 222 0
 563 0224 039B     		ldr	r3, [sp, #12]
 564 0226 1833     		adds	r3, r3, #24
 565 0228 1846     		mov	r0, r3
 566 022a 0199     		ldr	r1, [sp, #4]
 567 022c FFF7FEFF 		bl	chThdEnqueueTimeoutS
 568 0230 0590     		str	r0, [sp, #20]
 569              		.loc 7 223 0
 570 0232 059B     		ldr	r3, [sp, #20]
 571 0234 002B     		cmp	r3, #0
 572 0236 C8D0     		beq	.L23
 573              		.loc 7 225 0
 574 0238 059B     		ldr	r3, [sp, #20]
 575              	.L20:
 576              		.loc 7 226 0
 577 023a 1846     		mov	r0, r3
 578 023c 07B0     		add	sp, sp, #28
 579              		.cfi_def_cfa_offset 4
 580              		@ sp needed
 581 023e 5DF804FB 		ldr	pc, [sp], #4
 582              		.cfi_endproc
 583              	.LFE252:
 584              		.size	chMBPostS, .-chMBPostS
 585 0242 00BF     		.align	2
 586 0244 AFF30080 		.p2align 4,,15
 586      AFF30080 
 586      AFF30080 
 587              		.global	chMBPostI
 588              		.thumb
 589              		.thumb_func
 590              		.type	chMBPostI, %function
 591              	chMBPostI:
 592              	.LFB253:
 593              		.loc 7 243 0
 594              		.cfi_startproc
 595              		@ args = 0, pretend = 0, frame = 8
 596              		@ frame_needed = 0, uses_anonymous_args = 0
 597 0250 00B5     		push	{lr}
 598              		.cfi_def_cfa_offset 4
 599              		.cfi_offset 14, -4
 600 0252 83B0     		sub	sp, sp, #12
 601              		.cfi_def_cfa_offset 16
 602 0254 0190     		str	r0, [sp, #4]
 603 0256 0091     		str	r1, [sp]
 604              		.loc 7 249 0
 605 0258 019B     		ldr	r3, [sp, #4]
 606 025a 1B7D     		ldrb	r3, [r3, #20]	@ zero_extendqisi2
 607 025c 002B     		cmp	r3, #0
 608 025e 02D0     		beq	.L25
 609              		.loc 7 250 0
 610 0260 6FF00103 		mvn	r3, #1
 611 0264 25E0     		b	.L26
 612              	.L25:
 613              		.loc 7 254 0
 614 0266 0198     		ldr	r0, [sp, #4]
 615 0268 FFF722FF 		bl	chMBGetFreeCountI
ARM GAS  /tmp/ccOOEKzZ.s 			page 12


 616 026c 0346     		mov	r3, r0
 617 026e 002B     		cmp	r3, #0
 618 0270 1DDD     		ble	.L27
 619              		.loc 7 255 0
 620 0272 019B     		ldr	r3, [sp, #4]
 621 0274 9B68     		ldr	r3, [r3, #8]
 622 0276 191D     		adds	r1, r3, #4
 623 0278 019A     		ldr	r2, [sp, #4]
 624 027a 9160     		str	r1, [r2, #8]
 625 027c 009A     		ldr	r2, [sp]
 626 027e 1A60     		str	r2, [r3]
 627              		.loc 7 256 0
 628 0280 019B     		ldr	r3, [sp, #4]
 629 0282 9A68     		ldr	r2, [r3, #8]
 630 0284 019B     		ldr	r3, [sp, #4]
 631 0286 5B68     		ldr	r3, [r3, #4]
 632 0288 9A42     		cmp	r2, r3
 633 028a 03D3     		bcc	.L28
 634              		.loc 7 257 0
 635 028c 019B     		ldr	r3, [sp, #4]
 636 028e 1A68     		ldr	r2, [r3]
 637 0290 019B     		ldr	r3, [sp, #4]
 638 0292 9A60     		str	r2, [r3, #8]
 639              	.L28:
 640              		.loc 7 259 0
 641 0294 019B     		ldr	r3, [sp, #4]
 642 0296 1B69     		ldr	r3, [r3, #16]
 643 0298 5A1C     		adds	r2, r3, #1
 644 029a 019B     		ldr	r3, [sp, #4]
 645 029c 1A61     		str	r2, [r3, #16]
 646              		.loc 7 262 0
 647 029e 019B     		ldr	r3, [sp, #4]
 648 02a0 2033     		adds	r3, r3, #32
 649 02a2 1846     		mov	r0, r3
 650 02a4 0021     		movs	r1, #0
 651 02a6 FFF7FEFF 		bl	chThdDequeueNextI
 652              		.loc 7 264 0
 653 02aa 0023     		movs	r3, #0
 654 02ac 01E0     		b	.L26
 655              	.L27:
 656              		.loc 7 268 0
 657 02ae 4FF0FF33 		mov	r3, #-1
 658              	.L26:
 659              		.loc 7 269 0
 660 02b2 1846     		mov	r0, r3
 661 02b4 03B0     		add	sp, sp, #12
 662              		.cfi_def_cfa_offset 4
 663              		@ sp needed
 664 02b6 5DF804FB 		ldr	pc, [sp], #4
 665              		.cfi_endproc
 666              	.LFE253:
 667              		.size	chMBPostI, .-chMBPostI
 668 02ba 00BF     		.align	2
 669 02bc AFF30080 		.p2align 4,,15
 670              		.global	chMBPostAhead
 671              		.thumb
 672              		.thumb_func
ARM GAS  /tmp/ccOOEKzZ.s 			page 13


 673              		.type	chMBPostAhead, %function
 674              	chMBPostAhead:
 675              	.LFB254:
 676              		.loc 7 290 0
 677              		.cfi_startproc
 678              		@ args = 0, pretend = 0, frame = 24
 679              		@ frame_needed = 0, uses_anonymous_args = 0
 680 02c0 00B5     		push	{lr}
 681              		.cfi_def_cfa_offset 4
 682              		.cfi_offset 14, -4
 683 02c2 87B0     		sub	sp, sp, #28
 684              		.cfi_def_cfa_offset 32
 685 02c4 0390     		str	r0, [sp, #12]
 686 02c6 0291     		str	r1, [sp, #8]
 687 02c8 0192     		str	r2, [sp, #4]
 688              		.loc 7 293 0
 689 02ca FFF7B9FE 		bl	chSysLock
 690              		.loc 7 294 0
 691 02ce 0398     		ldr	r0, [sp, #12]
 692 02d0 0299     		ldr	r1, [sp, #8]
 693 02d2 019A     		ldr	r2, [sp, #4]
 694 02d4 FFF7FEFF 		bl	chMBPostAheadS
 695 02d8 0590     		str	r0, [sp, #20]
 696              		.loc 7 295 0
 697 02da FFF7B9FE 		bl	chSysUnlock
 698              		.loc 7 297 0
 699 02de 059B     		ldr	r3, [sp, #20]
 700              		.loc 7 298 0
 701 02e0 1846     		mov	r0, r3
 702 02e2 07B0     		add	sp, sp, #28
 703              		.cfi_def_cfa_offset 4
 704              		@ sp needed
 705 02e4 5DF804FB 		ldr	pc, [sp], #4
 706              		.cfi_endproc
 707              	.LFE254:
 708              		.size	chMBPostAhead, .-chMBPostAhead
 709              		.align	2
 710 02e8 AFF30080 		.p2align 4,,15
 710      AFF30080 
 711              		.global	chMBPostAheadS
 712              		.thumb
 713              		.thumb_func
 714              		.type	chMBPostAheadS, %function
 715              	chMBPostAheadS:
 716              	.LFB255:
 717              		.loc 7 319 0
 718              		.cfi_startproc
 719              		@ args = 0, pretend = 0, frame = 24
 720              		@ frame_needed = 0, uses_anonymous_args = 0
 721 02f0 00B5     		push	{lr}
 722              		.cfi_def_cfa_offset 4
 723              		.cfi_offset 14, -4
 724 02f2 87B0     		sub	sp, sp, #28
 725              		.cfi_def_cfa_offset 32
 726 02f4 0390     		str	r0, [sp, #12]
 727 02f6 0291     		str	r1, [sp, #8]
 728 02f8 0192     		str	r2, [sp, #4]
ARM GAS  /tmp/ccOOEKzZ.s 			page 14


 729              	.L36:
 730              		.loc 7 327 0
 731 02fa 039B     		ldr	r3, [sp, #12]
 732 02fc 1B7D     		ldrb	r3, [r3, #20]	@ zero_extendqisi2
 733 02fe 002B     		cmp	r3, #0
 734 0300 02D0     		beq	.L32
 735              		.loc 7 328 0
 736 0302 6FF00103 		mvn	r3, #1
 737 0306 33E0     		b	.L33
 738              	.L32:
 739              		.loc 7 332 0
 740 0308 0398     		ldr	r0, [sp, #12]
 741 030a FFF7D1FE 		bl	chMBGetFreeCountI
 742 030e 0346     		mov	r3, r0
 743 0310 002B     		cmp	r3, #0
 744 0312 22DD     		ble	.L34
 745              		.loc 7 333 0
 746 0314 039B     		ldr	r3, [sp, #12]
 747 0316 DB68     		ldr	r3, [r3, #12]
 748 0318 1A1F     		subs	r2, r3, #4
 749 031a 039B     		ldr	r3, [sp, #12]
 750 031c DA60     		str	r2, [r3, #12]
 751 031e 039B     		ldr	r3, [sp, #12]
 752 0320 DA68     		ldr	r2, [r3, #12]
 753 0322 039B     		ldr	r3, [sp, #12]
 754 0324 1B68     		ldr	r3, [r3]
 755 0326 9A42     		cmp	r2, r3
 756 0328 04D2     		bcs	.L35
 757              		.loc 7 334 0
 758 032a 039B     		ldr	r3, [sp, #12]
 759 032c 5B68     		ldr	r3, [r3, #4]
 760 032e 1A1F     		subs	r2, r3, #4
 761 0330 039B     		ldr	r3, [sp, #12]
 762 0332 DA60     		str	r2, [r3, #12]
 763              	.L35:
 764              		.loc 7 336 0
 765 0334 039B     		ldr	r3, [sp, #12]
 766 0336 DB68     		ldr	r3, [r3, #12]
 767 0338 029A     		ldr	r2, [sp, #8]
 768 033a 1A60     		str	r2, [r3]
 769              		.loc 7 337 0
 770 033c 039B     		ldr	r3, [sp, #12]
 771 033e 1B69     		ldr	r3, [r3, #16]
 772 0340 5A1C     		adds	r2, r3, #1
 773 0342 039B     		ldr	r3, [sp, #12]
 774 0344 1A61     		str	r2, [r3, #16]
 775              		.loc 7 340 0
 776 0346 039B     		ldr	r3, [sp, #12]
 777 0348 2033     		adds	r3, r3, #32
 778 034a 1846     		mov	r0, r3
 779 034c 0021     		movs	r1, #0
 780 034e FFF7FEFF 		bl	chThdDequeueNextI
 781              		.loc 7 341 0
 782 0352 FFF7FEFF 		bl	chSchRescheduleS
 783              		.loc 7 343 0
 784 0356 0023     		movs	r3, #0
 785 0358 0AE0     		b	.L33
ARM GAS  /tmp/ccOOEKzZ.s 			page 15


 786              	.L34:
 787              		.loc 7 347 0
 788 035a 039B     		ldr	r3, [sp, #12]
 789 035c 1833     		adds	r3, r3, #24
 790 035e 1846     		mov	r0, r3
 791 0360 0199     		ldr	r1, [sp, #4]
 792 0362 FFF7FEFF 		bl	chThdEnqueueTimeoutS
 793 0366 0590     		str	r0, [sp, #20]
 794              		.loc 7 348 0
 795 0368 059B     		ldr	r3, [sp, #20]
 796 036a 002B     		cmp	r3, #0
 797 036c C5D0     		beq	.L36
 798              		.loc 7 350 0
 799 036e 059B     		ldr	r3, [sp, #20]
 800              	.L33:
 801              		.loc 7 351 0
 802 0370 1846     		mov	r0, r3
 803 0372 07B0     		add	sp, sp, #28
 804              		.cfi_def_cfa_offset 4
 805              		@ sp needed
 806 0374 5DF804FB 		ldr	pc, [sp], #4
 807              		.cfi_endproc
 808              	.LFE255:
 809              		.size	chMBPostAheadS, .-chMBPostAheadS
 810              		.align	2
 811 0378 AFF30080 		.p2align 4,,15
 811      AFF30080 
 812              		.global	chMBPostAheadI
 813              		.thumb
 814              		.thumb_func
 815              		.type	chMBPostAheadI, %function
 816              	chMBPostAheadI:
 817              	.LFB256:
 818              		.loc 7 368 0
 819              		.cfi_startproc
 820              		@ args = 0, pretend = 0, frame = 8
 821              		@ frame_needed = 0, uses_anonymous_args = 0
 822 0380 00B5     		push	{lr}
 823              		.cfi_def_cfa_offset 4
 824              		.cfi_offset 14, -4
 825 0382 83B0     		sub	sp, sp, #12
 826              		.cfi_def_cfa_offset 16
 827 0384 0190     		str	r0, [sp, #4]
 828 0386 0091     		str	r1, [sp]
 829              		.loc 7 374 0
 830 0388 019B     		ldr	r3, [sp, #4]
 831 038a 1B7D     		ldrb	r3, [r3, #20]	@ zero_extendqisi2
 832 038c 002B     		cmp	r3, #0
 833 038e 02D0     		beq	.L38
 834              		.loc 7 375 0
 835 0390 6FF00103 		mvn	r3, #1
 836 0394 28E0     		b	.L39
 837              	.L38:
 838              		.loc 7 379 0
 839 0396 0198     		ldr	r0, [sp, #4]
 840 0398 FFF78AFE 		bl	chMBGetFreeCountI
 841 039c 0346     		mov	r3, r0
ARM GAS  /tmp/ccOOEKzZ.s 			page 16


 842 039e 002B     		cmp	r3, #0
 843 03a0 20DD     		ble	.L40
 844              		.loc 7 380 0
 845 03a2 019B     		ldr	r3, [sp, #4]
 846 03a4 DB68     		ldr	r3, [r3, #12]
 847 03a6 1A1F     		subs	r2, r3, #4
 848 03a8 019B     		ldr	r3, [sp, #4]
 849 03aa DA60     		str	r2, [r3, #12]
 850 03ac 019B     		ldr	r3, [sp, #4]
 851 03ae DA68     		ldr	r2, [r3, #12]
 852 03b0 019B     		ldr	r3, [sp, #4]
 853 03b2 1B68     		ldr	r3, [r3]
 854 03b4 9A42     		cmp	r2, r3
 855 03b6 04D2     		bcs	.L41
 856              		.loc 7 381 0
 857 03b8 019B     		ldr	r3, [sp, #4]
 858 03ba 5B68     		ldr	r3, [r3, #4]
 859 03bc 1A1F     		subs	r2, r3, #4
 860 03be 019B     		ldr	r3, [sp, #4]
 861 03c0 DA60     		str	r2, [r3, #12]
 862              	.L41:
 863              		.loc 7 383 0
 864 03c2 019B     		ldr	r3, [sp, #4]
 865 03c4 DB68     		ldr	r3, [r3, #12]
 866 03c6 009A     		ldr	r2, [sp]
 867 03c8 1A60     		str	r2, [r3]
 868              		.loc 7 384 0
 869 03ca 019B     		ldr	r3, [sp, #4]
 870 03cc 1B69     		ldr	r3, [r3, #16]
 871 03ce 5A1C     		adds	r2, r3, #1
 872 03d0 019B     		ldr	r3, [sp, #4]
 873 03d2 1A61     		str	r2, [r3, #16]
 874              		.loc 7 387 0
 875 03d4 019B     		ldr	r3, [sp, #4]
 876 03d6 2033     		adds	r3, r3, #32
 877 03d8 1846     		mov	r0, r3
 878 03da 0021     		movs	r1, #0
 879 03dc FFF7FEFF 		bl	chThdDequeueNextI
 880              		.loc 7 389 0
 881 03e0 0023     		movs	r3, #0
 882 03e2 01E0     		b	.L39
 883              	.L40:
 884              		.loc 7 393 0
 885 03e4 4FF0FF33 		mov	r3, #-1
 886              	.L39:
 887              		.loc 7 394 0
 888 03e8 1846     		mov	r0, r3
 889 03ea 03B0     		add	sp, sp, #12
 890              		.cfi_def_cfa_offset 4
 891              		@ sp needed
 892 03ec 5DF804FB 		ldr	pc, [sp], #4
 893              		.cfi_endproc
 894              	.LFE256:
 895              		.size	chMBPostAheadI, .-chMBPostAheadI
 896              		.align	2
 897              		.p2align 4,,15
 898              		.global	chMBFetch
ARM GAS  /tmp/ccOOEKzZ.s 			page 17


 899              		.thumb
 900              		.thumb_func
 901              		.type	chMBFetch, %function
 902              	chMBFetch:
 903              	.LFB257:
 904              		.loc 7 415 0
 905              		.cfi_startproc
 906              		@ args = 0, pretend = 0, frame = 24
 907              		@ frame_needed = 0, uses_anonymous_args = 0
 908 03f0 00B5     		push	{lr}
 909              		.cfi_def_cfa_offset 4
 910              		.cfi_offset 14, -4
 911 03f2 87B0     		sub	sp, sp, #28
 912              		.cfi_def_cfa_offset 32
 913 03f4 0390     		str	r0, [sp, #12]
 914 03f6 0291     		str	r1, [sp, #8]
 915 03f8 0192     		str	r2, [sp, #4]
 916              		.loc 7 418 0
 917 03fa FFF721FE 		bl	chSysLock
 918              		.loc 7 419 0
 919 03fe 0398     		ldr	r0, [sp, #12]
 920 0400 0299     		ldr	r1, [sp, #8]
 921 0402 019A     		ldr	r2, [sp, #4]
 922 0404 FFF7FEFF 		bl	chMBFetchS
 923 0408 0590     		str	r0, [sp, #20]
 924              		.loc 7 420 0
 925 040a FFF721FE 		bl	chSysUnlock
 926              		.loc 7 422 0
 927 040e 059B     		ldr	r3, [sp, #20]
 928              		.loc 7 423 0
 929 0410 1846     		mov	r0, r3
 930 0412 07B0     		add	sp, sp, #28
 931              		.cfi_def_cfa_offset 4
 932              		@ sp needed
 933 0414 5DF804FB 		ldr	pc, [sp], #4
 934              		.cfi_endproc
 935              	.LFE257:
 936              		.size	chMBFetch, .-chMBFetch
 937              		.align	2
 938 0418 AFF30080 		.p2align 4,,15
 938      AFF30080 
 939              		.global	chMBFetchS
 940              		.thumb
 941              		.thumb_func
 942              		.type	chMBFetchS, %function
 943              	chMBFetchS:
 944              	.LFB258:
 945              		.loc 7 444 0
 946              		.cfi_startproc
 947              		@ args = 0, pretend = 0, frame = 24
 948              		@ frame_needed = 0, uses_anonymous_args = 0
 949 0420 00B5     		push	{lr}
 950              		.cfi_def_cfa_offset 4
 951              		.cfi_offset 14, -4
 952 0422 87B0     		sub	sp, sp, #28
 953              		.cfi_def_cfa_offset 32
 954 0424 0390     		str	r0, [sp, #12]
ARM GAS  /tmp/ccOOEKzZ.s 			page 18


 955 0426 0291     		str	r1, [sp, #8]
 956 0428 0192     		str	r2, [sp, #4]
 957              	.L49:
 958              		.loc 7 452 0
 959 042a 039B     		ldr	r3, [sp, #12]
 960 042c 1B7D     		ldrb	r3, [r3, #20]	@ zero_extendqisi2
 961 042e 002B     		cmp	r3, #0
 962 0430 02D0     		beq	.L45
 963              		.loc 7 453 0
 964 0432 6FF00103 		mvn	r3, #1
 965 0436 31E0     		b	.L46
 966              	.L45:
 967              		.loc 7 457 0
 968 0438 0398     		ldr	r0, [sp, #12]
 969 043a FFF731FE 		bl	chMBGetUsedCountI
 970 043e 0346     		mov	r3, r0
 971 0440 002B     		cmp	r3, #0
 972 0442 20DD     		ble	.L47
 973              		.loc 7 458 0
 974 0444 039B     		ldr	r3, [sp, #12]
 975 0446 DB68     		ldr	r3, [r3, #12]
 976 0448 191D     		adds	r1, r3, #4
 977 044a 039A     		ldr	r2, [sp, #12]
 978 044c D160     		str	r1, [r2, #12]
 979 044e 1A68     		ldr	r2, [r3]
 980 0450 029B     		ldr	r3, [sp, #8]
 981 0452 1A60     		str	r2, [r3]
 982              		.loc 7 459 0
 983 0454 039B     		ldr	r3, [sp, #12]
 984 0456 DA68     		ldr	r2, [r3, #12]
 985 0458 039B     		ldr	r3, [sp, #12]
 986 045a 5B68     		ldr	r3, [r3, #4]
 987 045c 9A42     		cmp	r2, r3
 988 045e 03D3     		bcc	.L48
 989              		.loc 7 460 0
 990 0460 039B     		ldr	r3, [sp, #12]
 991 0462 1A68     		ldr	r2, [r3]
 992 0464 039B     		ldr	r3, [sp, #12]
 993 0466 DA60     		str	r2, [r3, #12]
 994              	.L48:
 995              		.loc 7 462 0
 996 0468 039B     		ldr	r3, [sp, #12]
 997 046a 1B69     		ldr	r3, [r3, #16]
 998 046c 5A1E     		subs	r2, r3, #1
 999 046e 039B     		ldr	r3, [sp, #12]
 1000 0470 1A61     		str	r2, [r3, #16]
 1001              		.loc 7 465 0
 1002 0472 039B     		ldr	r3, [sp, #12]
 1003 0474 1833     		adds	r3, r3, #24
 1004 0476 1846     		mov	r0, r3
 1005 0478 0021     		movs	r1, #0
 1006 047a FFF7FEFF 		bl	chThdDequeueNextI
 1007              		.loc 7 466 0
 1008 047e FFF7FEFF 		bl	chSchRescheduleS
 1009              		.loc 7 468 0
 1010 0482 0023     		movs	r3, #0
 1011 0484 0AE0     		b	.L46
ARM GAS  /tmp/ccOOEKzZ.s 			page 19


 1012              	.L47:
 1013              		.loc 7 472 0
 1014 0486 039B     		ldr	r3, [sp, #12]
 1015 0488 2033     		adds	r3, r3, #32
 1016 048a 1846     		mov	r0, r3
 1017 048c 0199     		ldr	r1, [sp, #4]
 1018 048e FFF7FEFF 		bl	chThdEnqueueTimeoutS
 1019 0492 0590     		str	r0, [sp, #20]
 1020              		.loc 7 473 0
 1021 0494 059B     		ldr	r3, [sp, #20]
 1022 0496 002B     		cmp	r3, #0
 1023 0498 C7D0     		beq	.L49
 1024              		.loc 7 475 0
 1025 049a 059B     		ldr	r3, [sp, #20]
 1026              	.L46:
 1027              		.loc 7 476 0
 1028 049c 1846     		mov	r0, r3
 1029 049e 07B0     		add	sp, sp, #28
 1030              		.cfi_def_cfa_offset 4
 1031              		@ sp needed
 1032 04a0 5DF804FB 		ldr	pc, [sp], #4
 1033              		.cfi_endproc
 1034              	.LFE258:
 1035              		.size	chMBFetchS, .-chMBFetchS
 1036              		.align	2
 1037 04a4 AFF30080 		.p2align 4,,15
 1037      AFF30080 
 1037      AFF30080 
 1038              		.global	chMBFetchI
 1039              		.thumb
 1040              		.thumb_func
 1041              		.type	chMBFetchI, %function
 1042              	chMBFetchI:
 1043              	.LFB259:
 1044              		.loc 7 493 0
 1045              		.cfi_startproc
 1046              		@ args = 0, pretend = 0, frame = 8
 1047              		@ frame_needed = 0, uses_anonymous_args = 0
 1048 04b0 00B5     		push	{lr}
 1049              		.cfi_def_cfa_offset 4
 1050              		.cfi_offset 14, -4
 1051 04b2 83B0     		sub	sp, sp, #12
 1052              		.cfi_def_cfa_offset 16
 1053 04b4 0190     		str	r0, [sp, #4]
 1054 04b6 0091     		str	r1, [sp]
 1055              		.loc 7 499 0
 1056 04b8 019B     		ldr	r3, [sp, #4]
 1057 04ba 1B7D     		ldrb	r3, [r3, #20]	@ zero_extendqisi2
 1058 04bc 002B     		cmp	r3, #0
 1059 04be 02D0     		beq	.L51
 1060              		.loc 7 500 0
 1061 04c0 6FF00103 		mvn	r3, #1
 1062 04c4 26E0     		b	.L52
 1063              	.L51:
 1064              		.loc 7 504 0
 1065 04c6 0198     		ldr	r0, [sp, #4]
 1066 04c8 FFF7EAFD 		bl	chMBGetUsedCountI
ARM GAS  /tmp/ccOOEKzZ.s 			page 20


 1067 04cc 0346     		mov	r3, r0
 1068 04ce 002B     		cmp	r3, #0
 1069 04d0 1EDD     		ble	.L53
 1070              		.loc 7 505 0
 1071 04d2 019B     		ldr	r3, [sp, #4]
 1072 04d4 DB68     		ldr	r3, [r3, #12]
 1073 04d6 191D     		adds	r1, r3, #4
 1074 04d8 019A     		ldr	r2, [sp, #4]
 1075 04da D160     		str	r1, [r2, #12]
 1076 04dc 1A68     		ldr	r2, [r3]
 1077 04de 009B     		ldr	r3, [sp]
 1078 04e0 1A60     		str	r2, [r3]
 1079              		.loc 7 506 0
 1080 04e2 019B     		ldr	r3, [sp, #4]
 1081 04e4 DA68     		ldr	r2, [r3, #12]
 1082 04e6 019B     		ldr	r3, [sp, #4]
 1083 04e8 5B68     		ldr	r3, [r3, #4]
 1084 04ea 9A42     		cmp	r2, r3
 1085 04ec 03D3     		bcc	.L54
 1086              		.loc 7 507 0
 1087 04ee 019B     		ldr	r3, [sp, #4]
 1088 04f0 1A68     		ldr	r2, [r3]
 1089 04f2 019B     		ldr	r3, [sp, #4]
 1090 04f4 DA60     		str	r2, [r3, #12]
 1091              	.L54:
 1092              		.loc 7 509 0
 1093 04f6 019B     		ldr	r3, [sp, #4]
 1094 04f8 1B69     		ldr	r3, [r3, #16]
 1095 04fa 5A1E     		subs	r2, r3, #1
 1096 04fc 019B     		ldr	r3, [sp, #4]
 1097 04fe 1A61     		str	r2, [r3, #16]
 1098              		.loc 7 512 0
 1099 0500 019B     		ldr	r3, [sp, #4]
 1100 0502 1833     		adds	r3, r3, #24
 1101 0504 1846     		mov	r0, r3
 1102 0506 0021     		movs	r1, #0
 1103 0508 FFF7FEFF 		bl	chThdDequeueNextI
 1104              		.loc 7 514 0
 1105 050c 0023     		movs	r3, #0
 1106 050e 01E0     		b	.L52
 1107              	.L53:
 1108              		.loc 7 518 0
 1109 0510 4FF0FF33 		mov	r3, #-1
 1110              	.L52:
 1111              		.loc 7 519 0
 1112 0514 1846     		mov	r0, r3
 1113 0516 03B0     		add	sp, sp, #12
 1114              		.cfi_def_cfa_offset 4
 1115              		@ sp needed
 1116 0518 5DF804FB 		ldr	pc, [sp], #4
 1117              		.cfi_endproc
 1118              	.LFE259:
 1119              		.size	chMBFetchI, .-chMBFetchI
 1120              	.Letext0:
 1121              		.file 8 "/usr/include/newlib/machine/_default_types.h"
 1122              		.file 9 "/usr/include/newlib/sys/_stdint.h"
 1123              		.file 10 "../../../os/common/ports/ARMCMx/compilers/GCC/chtypes.h"
ARM GAS  /tmp/ccOOEKzZ.s 			page 21


 1124              		.file 11 "../../../os/rt/include/chsystypes.h"
 1125              		.file 12 "../../../os/common/ports/ARMCMx/chcore.h"
 1126              		.file 13 "../../../os/rt/include/chtm.h"
 1127              		.file 14 "../../../os/rt/include/chsem.h"
 1128              		.file 15 "../../../os/rt/include/chmtx.h"
 1129              		.file 16 "../../../os/common/ext/CMSIS/include/core_cm4.h"