ARM GAS  /tmp/ccaTeYG5.s 			page 1


   1              		.syntax unified
   2              		.cpu cortex-m4
   3              		.fpu softvfp
   4              		.eabi_attribute 20, 1
   5              		.eabi_attribute 21, 1
   6              		.eabi_attribute 23, 3
   7              		.eabi_attribute 24, 1
   8              		.eabi_attribute 25, 1
   9              		.eabi_attribute 26, 1
  10              		.eabi_attribute 30, 6
  11              		.eabi_attribute 34, 1
  12              		.eabi_attribute 18, 4
  13              		.thumb
  14              		.file	"chmempools.c"
  15              		.text
  16              	.Ltext0:
  17              		.cfi_sections	.debug_frame
  18              		.align	2
  19              		.p2align 4,,15
  20              		.thumb
  21              		.thumb_func
  22              		.type	port_lock, %function
  23              	port_lock:
  24              	.LFB127:
  25              		.file 1 "../../../os/common/ports/ARMCMx/chcore_v7m.h"
  26              		.loc 1 594 0
  27              		.cfi_startproc
  28              		@ args = 0, pretend = 0, frame = 8
  29              		@ frame_needed = 0, uses_anonymous_args = 0
  30              		@ link register save eliminated.
  31 0000 82B0     		sub	sp, sp, #8
  32              		.cfi_def_cfa_offset 8
  33 0002 2023     		movs	r3, #32
  34 0004 0193     		str	r3, [sp, #4]
  35              	.LBB6:
  36              	.LBB7:
  37              		.file 2 "../../../os/common/ext/CMSIS/include/cmsis_gcc.h"
  38              		.loc 2 264 0
  39 0006 019B     		ldr	r3, [sp, #4]
  40              	@ 264 "../../../os/common/ext/CMSIS/include/cmsis_gcc.h" 1
  41 0008 83F31188 		MSR basepri, r3
  42              	@ 0 "" 2
  43              		.thumb
  44              	.LBE7:
  45              	.LBE6:
  46              		.loc 1 611 0
  47 000c 02B0     		add	sp, sp, #8
  48              		.cfi_def_cfa_offset 0
  49              		@ sp needed
  50 000e 7047     		bx	lr
  51              		.cfi_endproc
  52              	.LFE127:
  53              		.size	port_lock, .-port_lock
  54              		.align	2
  55              		.p2align 4,,15
  56              		.thumb
  57              		.thumb_func
ARM GAS  /tmp/ccaTeYG5.s 			page 2


  58              		.type	port_unlock, %function
  59              	port_unlock:
  60              	.LFB128:
  61              		.loc 1 618 0
  62              		.cfi_startproc
  63              		@ args = 0, pretend = 0, frame = 8
  64              		@ frame_needed = 0, uses_anonymous_args = 0
  65              		@ link register save eliminated.
  66 0010 82B0     		sub	sp, sp, #8
  67              		.cfi_def_cfa_offset 8
  68 0012 0023     		movs	r3, #0
  69 0014 0193     		str	r3, [sp, #4]
  70              	.LBB8:
  71              	.LBB9:
  72              		.loc 2 264 0
  73 0016 019B     		ldr	r3, [sp, #4]
  74              	@ 264 "../../../os/common/ext/CMSIS/include/cmsis_gcc.h" 1
  75 0018 83F31188 		MSR basepri, r3
  76              	@ 0 "" 2
  77              		.thumb
  78              	.LBE9:
  79              	.LBE8:
  80              		.loc 1 625 0
  81 001c 02B0     		add	sp, sp, #8
  82              		.cfi_def_cfa_offset 0
  83              		@ sp needed
  84 001e 7047     		bx	lr
  85              		.cfi_endproc
  86              	.LFE128:
  87              		.size	port_unlock, .-port_unlock
  88              		.align	2
  89              		.p2align 4,,15
  90              		.thumb
  91              		.thumb_func
  92              		.type	chSysLock, %function
  93              	chSysLock:
  94              	.LFB167:
  95              		.file 3 "../../../os/rt/include/chsys.h"
  96              		.loc 3 374 0
  97              		.cfi_startproc
  98              		@ args = 0, pretend = 0, frame = 0
  99              		@ frame_needed = 0, uses_anonymous_args = 0
 100 0020 08B5     		push	{r3, lr}
 101              		.cfi_def_cfa_offset 8
 102              		.cfi_offset 3, -8
 103              		.cfi_offset 14, -4
 104              		.loc 3 376 0
 105 0022 FFF7EDFF 		bl	port_lock
 106              		.loc 3 379 0
 107 0026 08BD     		pop	{r3, pc}
 108              		.cfi_endproc
 109              	.LFE167:
 110              		.size	chSysLock, .-chSysLock
 111              		.align	2
 112 0028 AFF30080 		.p2align 4,,15
 112      AFF30080 
 113              		.thumb
ARM GAS  /tmp/ccaTeYG5.s 			page 3


 114              		.thumb_func
 115              		.type	chSysUnlock, %function
 116              	chSysUnlock:
 117              	.LFB168:
 118              		.loc 3 386 0
 119              		.cfi_startproc
 120              		@ args = 0, pretend = 0, frame = 0
 121              		@ frame_needed = 0, uses_anonymous_args = 0
 122 0030 08B5     		push	{r3, lr}
 123              		.cfi_def_cfa_offset 8
 124              		.cfi_offset 3, -8
 125              		.cfi_offset 14, -4
 126              		.loc 3 399 0
 127 0032 FFF7EDFF 		bl	port_unlock
 128              		.loc 3 400 0
 129 0036 08BD     		pop	{r3, pc}
 130              		.cfi_endproc
 131              	.LFE168:
 132              		.size	chSysUnlock, .-chSysUnlock
 133              		.align	2
 134 0038 AFF30080 		.p2align 4,,15
 134      AFF30080 
 135              		.thumb
 136              		.thumb_func
 137              		.type	chPoolAdd, %function
 138              	chPoolAdd:
 139              	.LFB244:
 140              		.file 4 "../../../os/common/oslib/include/chmempools.h"
 141              		.loc 4 184 0
 142              		.cfi_startproc
 143              		@ args = 0, pretend = 0, frame = 8
 144              		@ frame_needed = 0, uses_anonymous_args = 0
 145 0040 00B5     		push	{lr}
 146              		.cfi_def_cfa_offset 4
 147              		.cfi_offset 14, -4
 148 0042 83B0     		sub	sp, sp, #12
 149              		.cfi_def_cfa_offset 16
 150 0044 0190     		str	r0, [sp, #4]
 151 0046 0091     		str	r1, [sp]
 152              		.loc 4 186 0
 153 0048 0198     		ldr	r0, [sp, #4]
 154 004a 0099     		ldr	r1, [sp]
 155 004c FFF7FEFF 		bl	chPoolFree
 156              		.loc 4 187 0
 157 0050 03B0     		add	sp, sp, #12
 158              		.cfi_def_cfa_offset 4
 159              		@ sp needed
 160 0052 5DF804FB 		ldr	pc, [sp], #4
 161              		.cfi_endproc
 162              	.LFE244:
 163              		.size	chPoolAdd, .-chPoolAdd
 164 0056 00BF     		.align	2
 165 0058 AFF30080 		.p2align 4,,15
 165      AFF30080 
 166              		.thumb
 167              		.thumb_func
 168              		.type	chGuardedPoolAdd, %function
ARM GAS  /tmp/ccaTeYG5.s 			page 4


 169              	chGuardedPoolAdd:
 170              	.LFB246:
 171              		.loc 4 226 0
 172              		.cfi_startproc
 173              		@ args = 0, pretend = 0, frame = 8
 174              		@ frame_needed = 0, uses_anonymous_args = 0
 175 0060 00B5     		push	{lr}
 176              		.cfi_def_cfa_offset 4
 177              		.cfi_offset 14, -4
 178 0062 83B0     		sub	sp, sp, #12
 179              		.cfi_def_cfa_offset 16
 180 0064 0190     		str	r0, [sp, #4]
 181 0066 0091     		str	r1, [sp]
 182              		.loc 4 228 0
 183 0068 0198     		ldr	r0, [sp, #4]
 184 006a 0099     		ldr	r1, [sp]
 185 006c FFF7FEFF 		bl	chGuardedPoolFree
 186              		.loc 4 229 0
 187 0070 03B0     		add	sp, sp, #12
 188              		.cfi_def_cfa_offset 4
 189              		@ sp needed
 190 0072 5DF804FB 		ldr	pc, [sp], #4
 191              		.cfi_endproc
 192              	.LFE246:
 193              		.size	chGuardedPoolAdd, .-chGuardedPoolAdd
 194 0076 00BF     		.align	2
 195 0078 AFF30080 		.p2align 4,,15
 195      AFF30080 
 196              		.global	chPoolObjectInit
 197              		.thumb
 198              		.thumb_func
 199              		.type	chPoolObjectInit, %function
 200              	chPoolObjectInit:
 201              	.LFB248:
 202              		.file 5 "../../../os/common/oslib/src/chmempools.c"
 203              		.loc 5 76 0
 204              		.cfi_startproc
 205              		@ args = 0, pretend = 0, frame = 16
 206              		@ frame_needed = 0, uses_anonymous_args = 0
 207              		@ link register save eliminated.
 208 0080 84B0     		sub	sp, sp, #16
 209              		.cfi_def_cfa_offset 16
 210 0082 0390     		str	r0, [sp, #12]
 211 0084 0291     		str	r1, [sp, #8]
 212 0086 0192     		str	r2, [sp, #4]
 213              		.loc 5 80 0
 214 0088 039B     		ldr	r3, [sp, #12]
 215 008a 0022     		movs	r2, #0
 216 008c 1A60     		str	r2, [r3]
 217              		.loc 5 81 0
 218 008e 039B     		ldr	r3, [sp, #12]
 219 0090 029A     		ldr	r2, [sp, #8]
 220 0092 5A60     		str	r2, [r3, #4]
 221              		.loc 5 82 0
 222 0094 039B     		ldr	r3, [sp, #12]
 223 0096 019A     		ldr	r2, [sp, #4]
 224 0098 9A60     		str	r2, [r3, #8]
ARM GAS  /tmp/ccaTeYG5.s 			page 5


 225              		.loc 5 83 0
 226 009a 04B0     		add	sp, sp, #16
 227              		.cfi_def_cfa_offset 0
 228              		@ sp needed
 229 009c 7047     		bx	lr
 230              		.cfi_endproc
 231              	.LFE248:
 232              		.size	chPoolObjectInit, .-chPoolObjectInit
 233 009e 00BF     		.align	2
 234              		.p2align 4,,15
 235              		.global	chPoolLoadArray
 236              		.thumb
 237              		.thumb_func
 238              		.type	chPoolLoadArray, %function
 239              	chPoolLoadArray:
 240              	.LFB249:
 241              		.loc 5 98 0
 242              		.cfi_startproc
 243              		@ args = 0, pretend = 0, frame = 16
 244              		@ frame_needed = 0, uses_anonymous_args = 0
 245 00a0 00B5     		push	{lr}
 246              		.cfi_def_cfa_offset 4
 247              		.cfi_offset 14, -4
 248 00a2 85B0     		sub	sp, sp, #20
 249              		.cfi_def_cfa_offset 24
 250 00a4 0390     		str	r0, [sp, #12]
 251 00a6 0291     		str	r1, [sp, #8]
 252 00a8 0192     		str	r2, [sp, #4]
 253              		.loc 5 102 0
 254 00aa 0BE0     		b	.L9
 255              	.L10:
 256              		.loc 5 103 0
 257 00ac 0398     		ldr	r0, [sp, #12]
 258 00ae 0299     		ldr	r1, [sp, #8]
 259 00b0 FFF7C6FF 		bl	chPoolAdd
 260              		.loc 5 105 0
 261 00b4 039B     		ldr	r3, [sp, #12]
 262 00b6 5B68     		ldr	r3, [r3, #4]
 263 00b8 029A     		ldr	r2, [sp, #8]
 264 00ba 1344     		add	r3, r3, r2
 265 00bc 0293     		str	r3, [sp, #8]
 266              		.loc 5 107 0
 267 00be 019B     		ldr	r3, [sp, #4]
 268 00c0 013B     		subs	r3, r3, #1
 269 00c2 0193     		str	r3, [sp, #4]
 270              	.L9:
 271              		.loc 5 102 0
 272 00c4 019B     		ldr	r3, [sp, #4]
 273 00c6 002B     		cmp	r3, #0
 274 00c8 F0D1     		bne	.L10
 275              		.loc 5 109 0
 276 00ca 05B0     		add	sp, sp, #20
 277              		.cfi_def_cfa_offset 4
 278              		@ sp needed
 279 00cc 5DF804FB 		ldr	pc, [sp], #4
 280              		.cfi_endproc
 281              	.LFE249:
ARM GAS  /tmp/ccaTeYG5.s 			page 6


 282              		.size	chPoolLoadArray, .-chPoolLoadArray
 283              		.align	2
 284              		.p2align 4,,15
 285              		.global	chPoolAllocI
 286              		.thumb
 287              		.thumb_func
 288              		.type	chPoolAllocI, %function
 289              	chPoolAllocI:
 290              	.LFB250:
 291              		.loc 5 121 0
 292              		.cfi_startproc
 293              		@ args = 0, pretend = 0, frame = 16
 294              		@ frame_needed = 0, uses_anonymous_args = 0
 295 00d0 00B5     		push	{lr}
 296              		.cfi_def_cfa_offset 4
 297              		.cfi_offset 14, -4
 298 00d2 85B0     		sub	sp, sp, #20
 299              		.cfi_def_cfa_offset 24
 300 00d4 0190     		str	r0, [sp, #4]
 301              		.loc 5 127 0
 302 00d6 019B     		ldr	r3, [sp, #4]
 303 00d8 1B68     		ldr	r3, [r3]
 304 00da 0393     		str	r3, [sp, #12]
 305              		.loc 5 129 0
 306 00dc 039B     		ldr	r3, [sp, #12]
 307 00de 002B     		cmp	r3, #0
 308 00e0 05D0     		beq	.L12
 309              		.loc 5 130 0
 310 00e2 019B     		ldr	r3, [sp, #4]
 311 00e4 1B68     		ldr	r3, [r3]
 312 00e6 1A68     		ldr	r2, [r3]
 313 00e8 019B     		ldr	r3, [sp, #4]
 314 00ea 1A60     		str	r2, [r3]
 315 00ec 0BE0     		b	.L13
 316              	.L12:
 317              		.loc 5 132 0
 318 00ee 019B     		ldr	r3, [sp, #4]
 319 00f0 9B68     		ldr	r3, [r3, #8]
 320 00f2 002B     		cmp	r3, #0
 321 00f4 07D0     		beq	.L13
 322              		.loc 5 133 0
 323 00f6 019B     		ldr	r3, [sp, #4]
 324 00f8 9B68     		ldr	r3, [r3, #8]
 325 00fa 019A     		ldr	r2, [sp, #4]
 326 00fc 5268     		ldr	r2, [r2, #4]
 327 00fe 1046     		mov	r0, r2
 328 0100 0421     		movs	r1, #4
 329 0102 9847     		blx	r3
 330 0104 0390     		str	r0, [sp, #12]
 331              	.L13:
 332              		.loc 5 137 0
 333 0106 039B     		ldr	r3, [sp, #12]
 334              		.loc 5 138 0
 335 0108 1846     		mov	r0, r3
 336 010a 05B0     		add	sp, sp, #20
 337              		.cfi_def_cfa_offset 4
 338              		@ sp needed
ARM GAS  /tmp/ccaTeYG5.s 			page 7


 339 010c 5DF804FB 		ldr	pc, [sp], #4
 340              		.cfi_endproc
 341              	.LFE250:
 342              		.size	chPoolAllocI, .-chPoolAllocI
 343              		.align	2
 344              		.p2align 4,,15
 345              		.global	chPoolAlloc
 346              		.thumb
 347              		.thumb_func
 348              		.type	chPoolAlloc, %function
 349              	chPoolAlloc:
 350              	.LFB251:
 351              		.loc 5 150 0
 352              		.cfi_startproc
 353              		@ args = 0, pretend = 0, frame = 16
 354              		@ frame_needed = 0, uses_anonymous_args = 0
 355 0110 00B5     		push	{lr}
 356              		.cfi_def_cfa_offset 4
 357              		.cfi_offset 14, -4
 358 0112 85B0     		sub	sp, sp, #20
 359              		.cfi_def_cfa_offset 24
 360 0114 0190     		str	r0, [sp, #4]
 361              		.loc 5 153 0
 362 0116 FFF783FF 		bl	chSysLock
 363              		.loc 5 154 0
 364 011a 0198     		ldr	r0, [sp, #4]
 365 011c FFF7FEFF 		bl	chPoolAllocI
 366 0120 0390     		str	r0, [sp, #12]
 367              		.loc 5 155 0
 368 0122 FFF785FF 		bl	chSysUnlock
 369              		.loc 5 157 0
 370 0126 039B     		ldr	r3, [sp, #12]
 371              		.loc 5 158 0
 372 0128 1846     		mov	r0, r3
 373 012a 05B0     		add	sp, sp, #20
 374              		.cfi_def_cfa_offset 4
 375              		@ sp needed
 376 012c 5DF804FB 		ldr	pc, [sp], #4
 377              		.cfi_endproc
 378              	.LFE251:
 379              		.size	chPoolAlloc, .-chPoolAlloc
 380              		.align	2
 381              		.p2align 4,,15
 382              		.global	chPoolFreeI
 383              		.thumb
 384              		.thumb_func
 385              		.type	chPoolFreeI, %function
 386              	chPoolFreeI:
 387              	.LFB252:
 388              		.loc 5 172 0
 389              		.cfi_startproc
 390              		@ args = 0, pretend = 0, frame = 16
 391              		@ frame_needed = 0, uses_anonymous_args = 0
 392              		@ link register save eliminated.
 393 0130 84B0     		sub	sp, sp, #16
 394              		.cfi_def_cfa_offset 16
 395 0132 0190     		str	r0, [sp, #4]
ARM GAS  /tmp/ccaTeYG5.s 			page 8


 396 0134 0091     		str	r1, [sp]
 397              		.loc 5 173 0
 398 0136 009B     		ldr	r3, [sp]
 399 0138 0393     		str	r3, [sp, #12]
 400              		.loc 5 178 0
 401 013a 019B     		ldr	r3, [sp, #4]
 402 013c 1A68     		ldr	r2, [r3]
 403 013e 039B     		ldr	r3, [sp, #12]
 404 0140 1A60     		str	r2, [r3]
 405              		.loc 5 179 0
 406 0142 019B     		ldr	r3, [sp, #4]
 407 0144 039A     		ldr	r2, [sp, #12]
 408 0146 1A60     		str	r2, [r3]
 409              		.loc 5 180 0
 410 0148 04B0     		add	sp, sp, #16
 411              		.cfi_def_cfa_offset 0
 412              		@ sp needed
 413 014a 7047     		bx	lr
 414              		.cfi_endproc
 415              	.LFE252:
 416              		.size	chPoolFreeI, .-chPoolFreeI
 417              		.align	2
 418 014c AFF30080 		.p2align 4,,15
 419              		.global	chPoolFree
 420              		.thumb
 421              		.thumb_func
 422              		.type	chPoolFree, %function
 423              	chPoolFree:
 424              	.LFB253:
 425              		.loc 5 194 0
 426              		.cfi_startproc
 427              		@ args = 0, pretend = 0, frame = 8
 428              		@ frame_needed = 0, uses_anonymous_args = 0
 429 0150 00B5     		push	{lr}
 430              		.cfi_def_cfa_offset 4
 431              		.cfi_offset 14, -4
 432 0152 83B0     		sub	sp, sp, #12
 433              		.cfi_def_cfa_offset 16
 434 0154 0190     		str	r0, [sp, #4]
 435 0156 0091     		str	r1, [sp]
 436              		.loc 5 196 0
 437 0158 FFF762FF 		bl	chSysLock
 438              		.loc 5 197 0
 439 015c 0198     		ldr	r0, [sp, #4]
 440 015e 0099     		ldr	r1, [sp]
 441 0160 FFF7FEFF 		bl	chPoolFreeI
 442              		.loc 5 198 0
 443 0164 FFF764FF 		bl	chSysUnlock
 444              		.loc 5 199 0
 445 0168 03B0     		add	sp, sp, #12
 446              		.cfi_def_cfa_offset 4
 447              		@ sp needed
 448 016a 5DF804FB 		ldr	pc, [sp], #4
 449              		.cfi_endproc
 450              	.LFE253:
 451              		.size	chPoolFree, .-chPoolFree
 452 016e 00BF     		.align	2
ARM GAS  /tmp/ccaTeYG5.s 			page 9


 453              		.p2align 4,,15
 454              		.global	chGuardedPoolObjectInit
 455              		.thumb
 456              		.thumb_func
 457              		.type	chGuardedPoolObjectInit, %function
 458              	chGuardedPoolObjectInit:
 459              	.LFB254:
 460              		.loc 5 212 0
 461              		.cfi_startproc
 462              		@ args = 0, pretend = 0, frame = 8
 463              		@ frame_needed = 0, uses_anonymous_args = 0
 464 0170 00B5     		push	{lr}
 465              		.cfi_def_cfa_offset 4
 466              		.cfi_offset 14, -4
 467 0172 83B0     		sub	sp, sp, #12
 468              		.cfi_def_cfa_offset 16
 469 0174 0190     		str	r0, [sp, #4]
 470 0176 0091     		str	r1, [sp]
 471              		.loc 5 214 0
 472 0178 019B     		ldr	r3, [sp, #4]
 473 017a 0C33     		adds	r3, r3, #12
 474 017c 1846     		mov	r0, r3
 475 017e 0099     		ldr	r1, [sp]
 476 0180 0022     		movs	r2, #0
 477 0182 FFF7FEFF 		bl	chPoolObjectInit
 478              		.loc 5 215 0
 479 0186 019B     		ldr	r3, [sp, #4]
 480 0188 1846     		mov	r0, r3
 481 018a 0021     		movs	r1, #0
 482 018c FFF7FEFF 		bl	chSemObjectInit
 483              		.loc 5 216 0
 484 0190 03B0     		add	sp, sp, #12
 485              		.cfi_def_cfa_offset 4
 486              		@ sp needed
 487 0192 5DF804FB 		ldr	pc, [sp], #4
 488              		.cfi_endproc
 489              	.LFE254:
 490              		.size	chGuardedPoolObjectInit, .-chGuardedPoolObjectInit
 491 0196 00BF     		.align	2
 492 0198 AFF30080 		.p2align 4,,15
 492      AFF30080 
 493              		.global	chGuardedPoolLoadArray
 494              		.thumb
 495              		.thumb_func
 496              		.type	chGuardedPoolLoadArray, %function
 497              	chGuardedPoolLoadArray:
 498              	.LFB255:
 499              		.loc 5 231 0
 500              		.cfi_startproc
 501              		@ args = 0, pretend = 0, frame = 16
 502              		@ frame_needed = 0, uses_anonymous_args = 0
 503 01a0 00B5     		push	{lr}
 504              		.cfi_def_cfa_offset 4
 505              		.cfi_offset 14, -4
 506 01a2 85B0     		sub	sp, sp, #20
 507              		.cfi_def_cfa_offset 24
 508 01a4 0390     		str	r0, [sp, #12]
ARM GAS  /tmp/ccaTeYG5.s 			page 10


 509 01a6 0291     		str	r1, [sp, #8]
 510 01a8 0192     		str	r2, [sp, #4]
 511              		.loc 5 235 0
 512 01aa 0BE0     		b	.L21
 513              	.L22:
 514              		.loc 5 236 0
 515 01ac 0398     		ldr	r0, [sp, #12]
 516 01ae 0299     		ldr	r1, [sp, #8]
 517 01b0 FFF756FF 		bl	chGuardedPoolAdd
 518              		.loc 5 238 0
 519 01b4 039B     		ldr	r3, [sp, #12]
 520 01b6 1B69     		ldr	r3, [r3, #16]
 521 01b8 029A     		ldr	r2, [sp, #8]
 522 01ba 1344     		add	r3, r3, r2
 523 01bc 0293     		str	r3, [sp, #8]
 524              		.loc 5 240 0
 525 01be 019B     		ldr	r3, [sp, #4]
 526 01c0 013B     		subs	r3, r3, #1
 527 01c2 0193     		str	r3, [sp, #4]
 528              	.L21:
 529              		.loc 5 235 0
 530 01c4 019B     		ldr	r3, [sp, #4]
 531 01c6 002B     		cmp	r3, #0
 532 01c8 F0D1     		bne	.L22
 533              		.loc 5 242 0
 534 01ca 05B0     		add	sp, sp, #20
 535              		.cfi_def_cfa_offset 4
 536              		@ sp needed
 537 01cc 5DF804FB 		ldr	pc, [sp], #4
 538              		.cfi_endproc
 539              	.LFE255:
 540              		.size	chGuardedPoolLoadArray, .-chGuardedPoolLoadArray
 541              		.align	2
 542              		.p2align 4,,15
 543              		.global	chGuardedPoolAllocTimeoutS
 544              		.thumb
 545              		.thumb_func
 546              		.type	chGuardedPoolAllocTimeoutS, %function
 547              	chGuardedPoolAllocTimeoutS:
 548              	.LFB256:
 549              		.loc 5 260 0
 550              		.cfi_startproc
 551              		@ args = 0, pretend = 0, frame = 16
 552              		@ frame_needed = 0, uses_anonymous_args = 0
 553 01d0 00B5     		push	{lr}
 554              		.cfi_def_cfa_offset 4
 555              		.cfi_offset 14, -4
 556 01d2 85B0     		sub	sp, sp, #20
 557              		.cfi_def_cfa_offset 24
 558 01d4 0190     		str	r0, [sp, #4]
 559 01d6 0091     		str	r1, [sp]
 560              		.loc 5 263 0
 561 01d8 019B     		ldr	r3, [sp, #4]
 562 01da 1846     		mov	r0, r3
 563 01dc 0099     		ldr	r1, [sp]
 564 01de FFF7FEFF 		bl	chSemWaitTimeoutS
 565 01e2 0390     		str	r0, [sp, #12]
ARM GAS  /tmp/ccaTeYG5.s 			page 11


 566              		.loc 5 264 0
 567 01e4 039B     		ldr	r3, [sp, #12]
 568 01e6 002B     		cmp	r3, #0
 569 01e8 01D0     		beq	.L24
 570              		.loc 5 265 0
 571 01ea 0023     		movs	r3, #0
 572 01ec 05E0     		b	.L25
 573              	.L24:
 574              		.loc 5 268 0
 575 01ee 019B     		ldr	r3, [sp, #4]
 576 01f0 0C33     		adds	r3, r3, #12
 577 01f2 1846     		mov	r0, r3
 578 01f4 FFF7FEFF 		bl	chPoolAllocI
 579 01f8 0346     		mov	r3, r0
 580              	.L25:
 581              		.loc 5 269 0
 582 01fa 1846     		mov	r0, r3
 583 01fc 05B0     		add	sp, sp, #20
 584              		.cfi_def_cfa_offset 4
 585              		@ sp needed
 586 01fe 5DF804FB 		ldr	pc, [sp], #4
 587              		.cfi_endproc
 588              	.LFE256:
 589              		.size	chGuardedPoolAllocTimeoutS, .-chGuardedPoolAllocTimeoutS
 590 0202 00BF     		.align	2
 591 0204 AFF30080 		.p2align 4,,15
 591      AFF30080 
 591      AFF30080 
 592              		.global	chGuardedPoolAllocTimeout
 593              		.thumb
 594              		.thumb_func
 595              		.type	chGuardedPoolAllocTimeout, %function
 596              	chGuardedPoolAllocTimeout:
 597              	.LFB257:
 598              		.loc 5 287 0
 599              		.cfi_startproc
 600              		@ args = 0, pretend = 0, frame = 16
 601              		@ frame_needed = 0, uses_anonymous_args = 0
 602 0210 00B5     		push	{lr}
 603              		.cfi_def_cfa_offset 4
 604              		.cfi_offset 14, -4
 605 0212 85B0     		sub	sp, sp, #20
 606              		.cfi_def_cfa_offset 24
 607 0214 0190     		str	r0, [sp, #4]
 608 0216 0091     		str	r1, [sp]
 609              		.loc 5 290 0
 610 0218 FFF702FF 		bl	chSysLock
 611              		.loc 5 291 0
 612 021c 0198     		ldr	r0, [sp, #4]
 613 021e 0099     		ldr	r1, [sp]
 614 0220 FFF7FEFF 		bl	chGuardedPoolAllocTimeoutS
 615 0224 0390     		str	r0, [sp, #12]
 616              		.loc 5 292 0
 617 0226 FFF703FF 		bl	chSysUnlock
 618              		.loc 5 294 0
 619 022a 039B     		ldr	r3, [sp, #12]
 620              		.loc 5 295 0
ARM GAS  /tmp/ccaTeYG5.s 			page 12


 621 022c 1846     		mov	r0, r3
 622 022e 05B0     		add	sp, sp, #20
 623              		.cfi_def_cfa_offset 4
 624              		@ sp needed
 625 0230 5DF804FB 		ldr	pc, [sp], #4
 626              		.cfi_endproc
 627              	.LFE257:
 628              		.size	chGuardedPoolAllocTimeout, .-chGuardedPoolAllocTimeout
 629              		.align	2
 630 0234 AFF30080 		.p2align 4,,15
 630      AFF30080 
 630      AFF30080 
 631              		.global	chGuardedPoolFreeI
 632              		.thumb
 633              		.thumb_func
 634              		.type	chGuardedPoolFreeI, %function
 635              	chGuardedPoolFreeI:
 636              	.LFB258:
 637              		.loc 5 309 0
 638              		.cfi_startproc
 639              		@ args = 0, pretend = 0, frame = 8
 640              		@ frame_needed = 0, uses_anonymous_args = 0
 641 0240 00B5     		push	{lr}
 642              		.cfi_def_cfa_offset 4
 643              		.cfi_offset 14, -4
 644 0242 83B0     		sub	sp, sp, #12
 645              		.cfi_def_cfa_offset 16
 646 0244 0190     		str	r0, [sp, #4]
 647 0246 0091     		str	r1, [sp]
 648              		.loc 5 311 0
 649 0248 019B     		ldr	r3, [sp, #4]
 650 024a 0C33     		adds	r3, r3, #12
 651 024c 1846     		mov	r0, r3
 652 024e 0099     		ldr	r1, [sp]
 653 0250 FFF7FEFF 		bl	chPoolFreeI
 654              		.loc 5 312 0
 655 0254 019B     		ldr	r3, [sp, #4]
 656 0256 1846     		mov	r0, r3
 657 0258 FFF7FEFF 		bl	chSemSignalI
 658              		.loc 5 313 0
 659 025c 03B0     		add	sp, sp, #12
 660              		.cfi_def_cfa_offset 4
 661              		@ sp needed
 662 025e 5DF804FB 		ldr	pc, [sp], #4
 663              		.cfi_endproc
 664              	.LFE258:
 665              		.size	chGuardedPoolFreeI, .-chGuardedPoolFreeI
 666 0262 00BF     		.align	2
 667 0264 AFF30080 		.p2align 4,,15
 667      AFF30080 
 667      AFF30080 
 668              		.global	chGuardedPoolFree
 669              		.thumb
 670              		.thumb_func
 671              		.type	chGuardedPoolFree, %function
 672              	chGuardedPoolFree:
 673              	.LFB259:
ARM GAS  /tmp/ccaTeYG5.s 			page 13


 674              		.loc 5 327 0
 675              		.cfi_startproc
 676              		@ args = 0, pretend = 0, frame = 8
 677              		@ frame_needed = 0, uses_anonymous_args = 0
 678 0270 00B5     		push	{lr}
 679              		.cfi_def_cfa_offset 4
 680              		.cfi_offset 14, -4
 681 0272 83B0     		sub	sp, sp, #12
 682              		.cfi_def_cfa_offset 16
 683 0274 0190     		str	r0, [sp, #4]
 684 0276 0091     		str	r1, [sp]
 685              		.loc 5 329 0
 686 0278 FFF7D2FE 		bl	chSysLock
 687              		.loc 5 330 0
 688 027c 0198     		ldr	r0, [sp, #4]
 689 027e 0099     		ldr	r1, [sp]
 690 0280 FFF7FEFF 		bl	chGuardedPoolFreeI
 691              		.loc 5 331 0
 692 0284 FFF7FEFF 		bl	chSchRescheduleS
 693              		.loc 5 332 0
 694 0288 FFF7D2FE 		bl	chSysUnlock
 695              		.loc 5 333 0
 696 028c 03B0     		add	sp, sp, #12
 697              		.cfi_def_cfa_offset 4
 698              		@ sp needed
 699 028e 5DF804FB 		ldr	pc, [sp], #4
 700              		.cfi_endproc
 701              	.LFE259:
 702              		.size	chGuardedPoolFree, .-chGuardedPoolFree
 703              	.Letext0:
 704              		.file 6 "/usr/lib/gcc/arm-none-eabi/4.9.3/include/stddef.h"
 705              		.file 7 "/usr/include/newlib/machine/_default_types.h"
 706              		.file 8 "/usr/include/newlib/sys/_stdint.h"
 707              		.file 9 "../../../os/common/ports/ARMCMx/compilers/GCC/chtypes.h"
 708              		.file 10 "../../../os/rt/include/chsystypes.h"
 709              		.file 11 "../../../os/rt/include/chschd.h"
 710              		.file 12 "../../../os/common/ports/ARMCMx/chcore.h"
 711              		.file 13 "../../../os/rt/include/chtm.h"
 712              		.file 14 "../../../os/rt/include/chsem.h"
 713              		.file 15 "../../../os/rt/include/chmtx.h"
 714              		.file 16 "../../../os/common/oslib/include/chmemcore.h"
 715              		.file 17 "../../../os/common/ext/CMSIS/include/core_cm4.h"