ARM GAS  /tmp/ccAbPrkK.s 			page 1


   1              		.syntax unified
   2              		.cpu cortex-m4
   3              		.fpu softvfp
   4              		.eabi_attribute 20, 1
   5              		.eabi_attribute 21, 1
   6              		.eabi_attribute 23, 3
   7              		.eabi_attribute 24, 1
   8              		.eabi_attribute 25, 1
   9              		.eabi_attribute 26, 1
  10              		.eabi_attribute 30, 6
  11              		.eabi_attribute 34, 1
  12              		.eabi_attribute 18, 4
  13              		.thumb
  14              		.file	"chmsg.c"
  15              		.text
  16              	.Ltext0:
  17              		.cfi_sections	.debug_frame
  18              		.align	2
  19              		.p2align 4,,15
  20              		.thumb
  21              		.thumb_func
  22              		.type	port_lock, %function
  23              	port_lock:
  24              	.LFB127:
  25              		.file 1 "../../../os/common/ports/ARMCMx/chcore_v7m.h"
  26              		.loc 1 594 0
  27              		.cfi_startproc
  28              		@ args = 0, pretend = 0, frame = 8
  29              		@ frame_needed = 0, uses_anonymous_args = 0
  30              		@ link register save eliminated.
  31 0000 82B0     		sub	sp, sp, #8
  32              		.cfi_def_cfa_offset 8
  33 0002 2023     		movs	r3, #32
  34 0004 0193     		str	r3, [sp, #4]
  35              	.LBB6:
  36              	.LBB7:
  37              		.file 2 "../../../os/common/ext/CMSIS/include/cmsis_gcc.h"
  38              		.loc 2 264 0
  39 0006 019B     		ldr	r3, [sp, #4]
  40              	@ 264 "../../../os/common/ext/CMSIS/include/cmsis_gcc.h" 1
  41 0008 83F31188 		MSR basepri, r3
  42              	@ 0 "" 2
  43              		.thumb
  44              	.LBE7:
  45              	.LBE6:
  46              		.loc 1 611 0
  47 000c 02B0     		add	sp, sp, #8
  48              		.cfi_def_cfa_offset 0
  49              		@ sp needed
  50 000e 7047     		bx	lr
  51              		.cfi_endproc
  52              	.LFE127:
  53              		.size	port_lock, .-port_lock
  54              		.align	2
  55              		.p2align 4,,15
  56              		.thumb
  57              		.thumb_func
ARM GAS  /tmp/ccAbPrkK.s 			page 2


  58              		.type	port_unlock, %function
  59              	port_unlock:
  60              	.LFB128:
  61              		.loc 1 618 0
  62              		.cfi_startproc
  63              		@ args = 0, pretend = 0, frame = 8
  64              		@ frame_needed = 0, uses_anonymous_args = 0
  65              		@ link register save eliminated.
  66 0010 82B0     		sub	sp, sp, #8
  67              		.cfi_def_cfa_offset 8
  68 0012 0023     		movs	r3, #0
  69 0014 0193     		str	r3, [sp, #4]
  70              	.LBB8:
  71              	.LBB9:
  72              		.loc 2 264 0
  73 0016 019B     		ldr	r3, [sp, #4]
  74              	@ 264 "../../../os/common/ext/CMSIS/include/cmsis_gcc.h" 1
  75 0018 83F31188 		MSR basepri, r3
  76              	@ 0 "" 2
  77              		.thumb
  78              	.LBE9:
  79              	.LBE8:
  80              		.loc 1 625 0
  81 001c 02B0     		add	sp, sp, #8
  82              		.cfi_def_cfa_offset 0
  83              		@ sp needed
  84 001e 7047     		bx	lr
  85              		.cfi_endproc
  86              	.LFE128:
  87              		.size	port_unlock, .-port_unlock
  88              		.align	2
  89              		.p2align 4,,15
  90              		.thumb
  91              		.thumb_func
  92              		.type	queue_insert, %function
  93              	queue_insert:
  94              	.LFB156:
  95              		.file 3 "../../../os/rt/include/chschd.h"
  96              		.loc 3 609 0
  97              		.cfi_startproc
  98              		@ args = 0, pretend = 0, frame = 8
  99              		@ frame_needed = 0, uses_anonymous_args = 0
 100              		@ link register save eliminated.
 101 0020 82B0     		sub	sp, sp, #8
 102              		.cfi_def_cfa_offset 8
 103 0022 0190     		str	r0, [sp, #4]
 104 0024 0091     		str	r1, [sp]
 105              		.loc 3 611 0
 106 0026 019B     		ldr	r3, [sp, #4]
 107 0028 009A     		ldr	r2, [sp]
 108 002a 1A60     		str	r2, [r3]
 109              		.loc 3 612 0
 110 002c 009B     		ldr	r3, [sp]
 111 002e 5A68     		ldr	r2, [r3, #4]
 112 0030 019B     		ldr	r3, [sp, #4]
 113 0032 5A60     		str	r2, [r3, #4]
 114              		.loc 3 613 0
ARM GAS  /tmp/ccAbPrkK.s 			page 3


 115 0034 019B     		ldr	r3, [sp, #4]
 116 0036 5B68     		ldr	r3, [r3, #4]
 117 0038 019A     		ldr	r2, [sp, #4]
 118 003a 1A60     		str	r2, [r3]
 119              		.loc 3 614 0
 120 003c 009B     		ldr	r3, [sp]
 121 003e 019A     		ldr	r2, [sp, #4]
 122 0040 5A60     		str	r2, [r3, #4]
 123              		.loc 3 615 0
 124 0042 02B0     		add	sp, sp, #8
 125              		.cfi_def_cfa_offset 0
 126              		@ sp needed
 127 0044 7047     		bx	lr
 128              		.cfi_endproc
 129              	.LFE156:
 130              		.size	queue_insert, .-queue_insert
 131 0046 00BF     		.align	2
 132 0048 AFF30080 		.p2align 4,,15
 132      AFF30080 
 133              		.thumb
 134              		.thumb_func
 135              		.type	queue_fifo_remove, %function
 136              	queue_fifo_remove:
 137              	.LFB157:
 138              		.loc 3 617 0
 139              		.cfi_startproc
 140              		@ args = 0, pretend = 0, frame = 16
 141              		@ frame_needed = 0, uses_anonymous_args = 0
 142              		@ link register save eliminated.
 143 0050 84B0     		sub	sp, sp, #16
 144              		.cfi_def_cfa_offset 16
 145 0052 0190     		str	r0, [sp, #4]
 146              		.loc 3 618 0
 147 0054 019B     		ldr	r3, [sp, #4]
 148 0056 1B68     		ldr	r3, [r3]
 149 0058 0393     		str	r3, [sp, #12]
 150              		.loc 3 620 0
 151 005a 039B     		ldr	r3, [sp, #12]
 152 005c 1A68     		ldr	r2, [r3]
 153 005e 019B     		ldr	r3, [sp, #4]
 154 0060 1A60     		str	r2, [r3]
 155              		.loc 3 621 0
 156 0062 019B     		ldr	r3, [sp, #4]
 157 0064 1B68     		ldr	r3, [r3]
 158 0066 019A     		ldr	r2, [sp, #4]
 159 0068 5A60     		str	r2, [r3, #4]
 160              		.loc 3 623 0
 161 006a 039B     		ldr	r3, [sp, #12]
 162              		.loc 3 624 0
 163 006c 1846     		mov	r0, r3
 164 006e 04B0     		add	sp, sp, #16
 165              		.cfi_def_cfa_offset 0
 166              		@ sp needed
 167 0070 7047     		bx	lr
 168              		.cfi_endproc
 169              	.LFE157:
 170              		.size	queue_fifo_remove, .-queue_fifo_remove
ARM GAS  /tmp/ccAbPrkK.s 			page 4


 171 0072 00BF     		.align	2
 172 0074 AFF30080 		.p2align 4,,15
 172      AFF30080 
 172      AFF30080 
 173              		.thumb
 174              		.thumb_func
 175              		.type	chSysLock, %function
 176              	chSysLock:
 177              	.LFB167:
 178              		.file 4 "../../../os/rt/include/chsys.h"
 179              		.loc 4 374 0
 180              		.cfi_startproc
 181              		@ args = 0, pretend = 0, frame = 0
 182              		@ frame_needed = 0, uses_anonymous_args = 0
 183 0080 08B5     		push	{r3, lr}
 184              		.cfi_def_cfa_offset 8
 185              		.cfi_offset 3, -8
 186              		.cfi_offset 14, -4
 187              		.loc 4 376 0
 188 0082 FFF7BDFF 		bl	port_lock
 189              		.loc 4 379 0
 190 0086 08BD     		pop	{r3, pc}
 191              		.cfi_endproc
 192              	.LFE167:
 193              		.size	chSysLock, .-chSysLock
 194              		.align	2
 195 0088 AFF30080 		.p2align 4,,15
 195      AFF30080 
 196              		.thumb
 197              		.thumb_func
 198              		.type	chSysUnlock, %function
 199              	chSysUnlock:
 200              	.LFB168:
 201              		.loc 4 386 0
 202              		.cfi_startproc
 203              		@ args = 0, pretend = 0, frame = 0
 204              		@ frame_needed = 0, uses_anonymous_args = 0
 205 0090 08B5     		push	{r3, lr}
 206              		.cfi_def_cfa_offset 8
 207              		.cfi_offset 3, -8
 208              		.cfi_offset 14, -4
 209              		.loc 4 399 0
 210 0092 FFF7BDFF 		bl	port_unlock
 211              		.loc 4 400 0
 212 0096 08BD     		pop	{r3, pc}
 213              		.cfi_endproc
 214              	.LFE168:
 215              		.size	chSysUnlock, .-chSysUnlock
 216              		.align	2
 217 0098 AFF30080 		.p2align 4,,15
 217      AFF30080 
 218              		.thumb
 219              		.thumb_func
 220              		.type	chMsgIsPendingI, %function
 221              	chMsgIsPendingI:
 222              	.LFB230:
 223              		.file 5 "../../../os/rt/include/chmsg.h"
ARM GAS  /tmp/ccAbPrkK.s 			page 5


 224              		.loc 5 79 0
 225              		.cfi_startproc
 226              		@ args = 0, pretend = 0, frame = 8
 227              		@ frame_needed = 0, uses_anonymous_args = 0
 228              		@ link register save eliminated.
 229 00a0 82B0     		sub	sp, sp, #8
 230              		.cfi_def_cfa_offset 8
 231 00a2 0190     		str	r0, [sp, #4]
 232              		.loc 5 83 0
 233 00a4 019B     		ldr	r3, [sp, #4]
 234 00a6 DA6A     		ldr	r2, [r3, #44]
 235 00a8 019B     		ldr	r3, [sp, #4]
 236 00aa 2C33     		adds	r3, r3, #44
 237 00ac 9A42     		cmp	r2, r3
 238 00ae 14BF     		ite	ne
 239 00b0 0123     		movne	r3, #1
 240 00b2 0023     		moveq	r3, #0
 241 00b4 DBB2     		uxtb	r3, r3
 242              		.loc 5 84 0
 243 00b6 1846     		mov	r0, r3
 244 00b8 02B0     		add	sp, sp, #8
 245              		.cfi_def_cfa_offset 0
 246              		@ sp needed
 247 00ba 7047     		bx	lr
 248              		.cfi_endproc
 249              	.LFE230:
 250              		.size	chMsgIsPendingI, .-chMsgIsPendingI
 251              		.align	2
 252 00bc AFF30080 		.p2align 4,,15
 253              		.thumb
 254              		.thumb_func
 255              		.type	chMsgReleaseS, %function
 256              	chMsgReleaseS:
 257              	.LFB232:
 258              		.loc 5 113 0
 259              		.cfi_startproc
 260              		@ args = 0, pretend = 0, frame = 8
 261              		@ frame_needed = 0, uses_anonymous_args = 0
 262 00c0 00B5     		push	{lr}
 263              		.cfi_def_cfa_offset 4
 264              		.cfi_offset 14, -4
 265 00c2 83B0     		sub	sp, sp, #12
 266              		.cfi_def_cfa_offset 16
 267 00c4 0190     		str	r0, [sp, #4]
 268 00c6 0091     		str	r1, [sp]
 269              		.loc 5 117 0
 270 00c8 0198     		ldr	r0, [sp, #4]
 271 00ca 0099     		ldr	r1, [sp]
 272 00cc FFF7FEFF 		bl	chSchWakeupS
 273              		.loc 5 118 0
 274 00d0 03B0     		add	sp, sp, #12
 275              		.cfi_def_cfa_offset 4
 276              		@ sp needed
 277 00d2 5DF804FB 		ldr	pc, [sp], #4
 278              		.cfi_endproc
 279              	.LFE232:
 280              		.size	chMsgReleaseS, .-chMsgReleaseS
ARM GAS  /tmp/ccAbPrkK.s 			page 6


 281 00d6 00BF     		.align	2
 282 00d8 AFF30080 		.p2align 4,,15
 282      AFF30080 
 283              		.global	chMsgSend
 284              		.thumb
 285              		.thumb_func
 286              		.type	chMsgSend, %function
 287              	chMsgSend:
 288              	.LFB248:
 289              		.file 6 "../../../os/rt/src/chmsg.c"
 290              		.loc 6 87 0
 291              		.cfi_startproc
 292              		@ args = 0, pretend = 0, frame = 16
 293              		@ frame_needed = 0, uses_anonymous_args = 0
 294 00e0 00B5     		push	{lr}
 295              		.cfi_def_cfa_offset 4
 296              		.cfi_offset 14, -4
 297 00e2 85B0     		sub	sp, sp, #20
 298              		.cfi_def_cfa_offset 24
 299 00e4 0190     		str	r0, [sp, #4]
 300 00e6 0091     		str	r1, [sp]
 301              		.loc 6 88 0
 302 00e8 114B     		ldr	r3, .L14
 303 00ea 9B69     		ldr	r3, [r3, #24]
 304 00ec 0393     		str	r3, [sp, #12]
 305              		.loc 6 92 0
 306 00ee FFF7C7FF 		bl	chSysLock
 307              		.loc 6 93 0
 308 00f2 039B     		ldr	r3, [sp, #12]
 309 00f4 009A     		ldr	r2, [sp]
 310 00f6 5A62     		str	r2, [r3, #36]
 311              		.loc 6 94 0
 312 00f8 019B     		ldr	r3, [sp, #4]
 313 00fa 2C33     		adds	r3, r3, #44
 314 00fc 0398     		ldr	r0, [sp, #12]
 315 00fe 1946     		mov	r1, r3
 316 0100 FFF78EFF 		bl	queue_insert
 317              		.loc 6 95 0
 318 0104 019B     		ldr	r3, [sp, #4]
 319 0106 93F82030 		ldrb	r3, [r3, #32]	@ zero_extendqisi2
 320 010a 0E2B     		cmp	r3, #14
 321 010c 02D1     		bne	.L12
 322              		.loc 6 96 0
 323 010e 0198     		ldr	r0, [sp, #4]
 324 0110 FFF7FEFF 		bl	chSchReadyI
 325              	.L12:
 326              		.loc 6 98 0
 327 0114 0C20     		movs	r0, #12
 328 0116 FFF7FEFF 		bl	chSchGoSleepS
 329              		.loc 6 99 0
 330 011a 039B     		ldr	r3, [sp, #12]
 331 011c 5B6A     		ldr	r3, [r3, #36]
 332 011e 0093     		str	r3, [sp]
 333              		.loc 6 100 0
 334 0120 FFF7B6FF 		bl	chSysUnlock
 335              		.loc 6 102 0
 336 0124 009B     		ldr	r3, [sp]
ARM GAS  /tmp/ccAbPrkK.s 			page 7


 337              		.loc 6 103 0
 338 0126 1846     		mov	r0, r3
 339 0128 05B0     		add	sp, sp, #20
 340              		.cfi_def_cfa_offset 4
 341              		@ sp needed
 342 012a 5DF804FB 		ldr	pc, [sp], #4
 343              	.L15:
 344 012e 00BF     		.align	2
 345              	.L14:
 346 0130 00000000 		.word	ch
 347              		.cfi_endproc
 348              	.LFE248:
 349              		.size	chMsgSend, .-chMsgSend
 350              		.align	2
 351 0134 AFF30080 		.p2align 4,,15
 351      AFF30080 
 351      AFF30080 
 352              		.global	chMsgWait
 353              		.thumb
 354              		.thumb_func
 355              		.type	chMsgWait, %function
 356              	chMsgWait:
 357              	.LFB249:
 358              		.loc 6 119 0
 359              		.cfi_startproc
 360              		@ args = 0, pretend = 0, frame = 8
 361              		@ frame_needed = 0, uses_anonymous_args = 0
 362 0140 00B5     		push	{lr}
 363              		.cfi_def_cfa_offset 4
 364              		.cfi_offset 14, -4
 365 0142 83B0     		sub	sp, sp, #12
 366              		.cfi_def_cfa_offset 16
 367              		.loc 6 122 0
 368 0144 FFF79CFF 		bl	chSysLock
 369              		.loc 6 123 0
 370 0148 0F4B     		ldr	r3, .L19
 371 014a 9B69     		ldr	r3, [r3, #24]
 372 014c 1846     		mov	r0, r3
 373 014e FFF7A7FF 		bl	chMsgIsPendingI
 374 0152 0346     		mov	r3, r0
 375 0154 83F00103 		eor	r3, r3, #1
 376 0158 DBB2     		uxtb	r3, r3
 377 015a 002B     		cmp	r3, #0
 378 015c 02D0     		beq	.L17
 379              		.loc 6 124 0
 380 015e 0E20     		movs	r0, #14
 381 0160 FFF7FEFF 		bl	chSchGoSleepS
 382              	.L17:
 383              		.loc 6 126 0
 384 0164 084B     		ldr	r3, .L19
 385 0166 9B69     		ldr	r3, [r3, #24]
 386 0168 2C33     		adds	r3, r3, #44
 387 016a 1846     		mov	r0, r3
 388 016c FFF770FF 		bl	queue_fifo_remove
 389 0170 0190     		str	r0, [sp, #4]
 390              		.loc 6 127 0
 391 0172 019B     		ldr	r3, [sp, #4]
ARM GAS  /tmp/ccAbPrkK.s 			page 8


 392 0174 0D22     		movs	r2, #13
 393 0176 83F82020 		strb	r2, [r3, #32]
 394              		.loc 6 128 0
 395 017a FFF789FF 		bl	chSysUnlock
 396              		.loc 6 130 0
 397 017e 019B     		ldr	r3, [sp, #4]
 398              		.loc 6 131 0
 399 0180 1846     		mov	r0, r3
 400 0182 03B0     		add	sp, sp, #12
 401              		.cfi_def_cfa_offset 4
 402              		@ sp needed
 403 0184 5DF804FB 		ldr	pc, [sp], #4
 404              	.L20:
 405              		.align	2
 406              	.L19:
 407 0188 00000000 		.word	ch
 408              		.cfi_endproc
 409              	.LFE249:
 410              		.size	chMsgWait, .-chMsgWait
 411              		.align	2
 412 018c AFF30080 		.p2align 4,,15
 413              		.global	chMsgRelease
 414              		.thumb
 415              		.thumb_func
 416              		.type	chMsgRelease, %function
 417              	chMsgRelease:
 418              	.LFB250:
 419              		.loc 6 143 0
 420              		.cfi_startproc
 421              		@ args = 0, pretend = 0, frame = 8
 422              		@ frame_needed = 0, uses_anonymous_args = 0
 423 0190 00B5     		push	{lr}
 424              		.cfi_def_cfa_offset 4
 425              		.cfi_offset 14, -4
 426 0192 83B0     		sub	sp, sp, #12
 427              		.cfi_def_cfa_offset 16
 428 0194 0190     		str	r0, [sp, #4]
 429 0196 0091     		str	r1, [sp]
 430              		.loc 6 145 0
 431 0198 FFF772FF 		bl	chSysLock
 432              		.loc 6 147 0
 433 019c 0198     		ldr	r0, [sp, #4]
 434 019e 0099     		ldr	r1, [sp]
 435 01a0 FFF78EFF 		bl	chMsgReleaseS
 436              		.loc 6 148 0
 437 01a4 FFF774FF 		bl	chSysUnlock
 438              		.loc 6 149 0
 439 01a8 03B0     		add	sp, sp, #12
 440              		.cfi_def_cfa_offset 4
 441              		@ sp needed
 442 01aa 5DF804FB 		ldr	pc, [sp], #4
 443              		.cfi_endproc
 444              	.LFE250:
 445              		.size	chMsgRelease, .-chMsgRelease
 446              	.Letext0:
 447              		.file 7 "/usr/include/newlib/machine/_default_types.h"
 448              		.file 8 "/usr/include/newlib/sys/_stdint.h"
ARM GAS  /tmp/ccAbPrkK.s 			page 9


 449              		.file 9 "../../../os/common/ports/ARMCMx/compilers/GCC/chtypes.h"
 450              		.file 10 "../../../os/rt/include/chsystypes.h"
 451              		.file 11 "../../../os/common/ports/ARMCMx/chcore.h"
 452              		.file 12 "../../../os/rt/include/chtm.h"
 453              		.file 13 "../../../os/rt/include/chsem.h"
 454              		.file 14 "../../../os/rt/include/chmtx.h"
 455              		.file 15 "../../../os/common/ext/CMSIS/include/core_cm4.h"