ARM GAS  /tmp/ccU554fw.s 			page 1


   1              		.syntax unified
   2              		.cpu cortex-m4
   3              		.fpu softvfp
   4              		.eabi_attribute 20, 1
   5              		.eabi_attribute 21, 1
   6              		.eabi_attribute 23, 3
   7              		.eabi_attribute 24, 1
   8              		.eabi_attribute 25, 1
   9              		.eabi_attribute 26, 1
  10              		.eabi_attribute 30, 6
  11              		.eabi_attribute 34, 1
  12              		.eabi_attribute 18, 4
  13              		.thumb
  14              		.file	"chmtx.c"
  15              		.text
  16              	.Ltext0:
  17              		.cfi_sections	.debug_frame
  18              		.align	2
  19              		.p2align 4,,15
  20              		.thumb
  21              		.thumb_func
  22              		.type	port_lock, %function
  23              	port_lock:
  24              	.LFB127:
  25              		.file 1 "../../../os/common/ports/ARMCMx/chcore_v7m.h"
  26              		.loc 1 594 0
  27              		.cfi_startproc
  28              		@ args = 0, pretend = 0, frame = 8
  29              		@ frame_needed = 0, uses_anonymous_args = 0
  30              		@ link register save eliminated.
  31 0000 82B0     		sub	sp, sp, #8
  32              		.cfi_def_cfa_offset 8
  33 0002 2023     		movs	r3, #32
  34 0004 0193     		str	r3, [sp, #4]
  35              	.LBB6:
  36              	.LBB7:
  37              		.file 2 "../../../os/common/ext/CMSIS/include/cmsis_gcc.h"
  38              		.loc 2 264 0
  39 0006 019B     		ldr	r3, [sp, #4]
  40              	@ 264 "../../../os/common/ext/CMSIS/include/cmsis_gcc.h" 1
  41 0008 83F31188 		MSR basepri, r3
  42              	@ 0 "" 2
  43              		.thumb
  44              	.LBE7:
  45              	.LBE6:
  46              		.loc 1 611 0
  47 000c 02B0     		add	sp, sp, #8
  48              		.cfi_def_cfa_offset 0
  49              		@ sp needed
  50 000e 7047     		bx	lr
  51              		.cfi_endproc
  52              	.LFE127:
  53              		.size	port_lock, .-port_lock
  54              		.align	2
  55              		.p2align 4,,15
  56              		.thumb
  57              		.thumb_func
ARM GAS  /tmp/ccU554fw.s 			page 2


  58              		.type	port_unlock, %function
  59              	port_unlock:
  60              	.LFB128:
  61              		.loc 1 618 0
  62              		.cfi_startproc
  63              		@ args = 0, pretend = 0, frame = 8
  64              		@ frame_needed = 0, uses_anonymous_args = 0
  65              		@ link register save eliminated.
  66 0010 82B0     		sub	sp, sp, #8
  67              		.cfi_def_cfa_offset 8
  68 0012 0023     		movs	r3, #0
  69 0014 0193     		str	r3, [sp, #4]
  70              	.LBB8:
  71              	.LBB9:
  72              		.loc 2 264 0
  73 0016 019B     		ldr	r3, [sp, #4]
  74              	@ 264 "../../../os/common/ext/CMSIS/include/cmsis_gcc.h" 1
  75 0018 83F31188 		MSR basepri, r3
  76              	@ 0 "" 2
  77              		.thumb
  78              	.LBE9:
  79              	.LBE8:
  80              		.loc 1 625 0
  81 001c 02B0     		add	sp, sp, #8
  82              		.cfi_def_cfa_offset 0
  83              		@ sp needed
  84 001e 7047     		bx	lr
  85              		.cfi_endproc
  86              	.LFE128:
  87              		.size	port_unlock, .-port_unlock
  88              		.align	2
  89              		.p2align 4,,15
  90              		.thumb
  91              		.thumb_func
  92              		.type	queue_init, %function
  93              	queue_init:
  94              	.LFB150:
  95              		.file 3 "../../../os/rt/include/chschd.h"
  96              		.loc 3 548 0
  97              		.cfi_startproc
  98              		@ args = 0, pretend = 0, frame = 8
  99              		@ frame_needed = 0, uses_anonymous_args = 0
 100              		@ link register save eliminated.
 101 0020 82B0     		sub	sp, sp, #8
 102              		.cfi_def_cfa_offset 8
 103 0022 0190     		str	r0, [sp, #4]
 104              		.loc 3 550 0
 105 0024 019B     		ldr	r3, [sp, #4]
 106 0026 019A     		ldr	r2, [sp, #4]
 107 0028 1A60     		str	r2, [r3]
 108              		.loc 3 551 0
 109 002a 019B     		ldr	r3, [sp, #4]
 110 002c 019A     		ldr	r2, [sp, #4]
 111 002e 5A60     		str	r2, [r3, #4]
 112              		.loc 3 552 0
 113 0030 02B0     		add	sp, sp, #8
 114              		.cfi_def_cfa_offset 0
ARM GAS  /tmp/ccU554fw.s 			page 3


 115              		@ sp needed
 116 0032 7047     		bx	lr
 117              		.cfi_endproc
 118              	.LFE150:
 119              		.size	queue_init, .-queue_init
 120              		.align	2
 121 0034 AFF30080 		.p2align 4,,15
 121      AFF30080 
 121      AFF30080 
 122              		.thumb
 123              		.thumb_func
 124              		.type	queue_notempty, %function
 125              	queue_notempty:
 126              	.LFB152:
 127              		.loc 3 575 0
 128              		.cfi_startproc
 129              		@ args = 0, pretend = 0, frame = 8
 130              		@ frame_needed = 0, uses_anonymous_args = 0
 131              		@ link register save eliminated.
 132 0040 82B0     		sub	sp, sp, #8
 133              		.cfi_def_cfa_offset 8
 134 0042 0190     		str	r0, [sp, #4]
 135              		.loc 3 577 0
 136 0044 019B     		ldr	r3, [sp, #4]
 137 0046 1A68     		ldr	r2, [r3]
 138 0048 019B     		ldr	r3, [sp, #4]
 139 004a 9A42     		cmp	r2, r3
 140 004c 14BF     		ite	ne
 141 004e 0123     		movne	r3, #1
 142 0050 0023     		moveq	r3, #0
 143 0052 DBB2     		uxtb	r3, r3
 144              		.loc 3 578 0
 145 0054 1846     		mov	r0, r3
 146 0056 02B0     		add	sp, sp, #8
 147              		.cfi_def_cfa_offset 0
 148              		@ sp needed
 149 0058 7047     		bx	lr
 150              		.cfi_endproc
 151              	.LFE152:
 152              		.size	queue_notempty, .-queue_notempty
 153 005a 00BF     		.align	2
 154 005c AFF30080 		.p2align 4,,15
 155              		.thumb
 156              		.thumb_func
 157              		.type	queue_prio_insert, %function
 158              	queue_prio_insert:
 159              	.LFB155:
 160              		.loc 3 597 0
 161              		.cfi_startproc
 162              		@ args = 0, pretend = 0, frame = 16
 163              		@ frame_needed = 0, uses_anonymous_args = 0
 164              		@ link register save eliminated.
 165 0060 84B0     		sub	sp, sp, #16
 166              		.cfi_def_cfa_offset 16
 167 0062 0190     		str	r0, [sp, #4]
 168 0064 0091     		str	r1, [sp]
 169              		.loc 3 599 0
ARM GAS  /tmp/ccU554fw.s 			page 4


 170 0066 009B     		ldr	r3, [sp]
 171 0068 0393     		str	r3, [sp, #12]
 172              	.L8:
 173              		.loc 3 601 0 discriminator 2
 174 006a 039B     		ldr	r3, [sp, #12]
 175 006c 1B68     		ldr	r3, [r3]
 176 006e 0393     		str	r3, [sp, #12]
 177              		.loc 3 602 0 discriminator 2
 178 0070 039A     		ldr	r2, [sp, #12]
 179 0072 009B     		ldr	r3, [sp]
 180 0074 9A42     		cmp	r2, r3
 181 0076 05D0     		beq	.L7
 182              		.loc 3 602 0 is_stmt 0 discriminator 1
 183 0078 039B     		ldr	r3, [sp, #12]
 184 007a 9A68     		ldr	r2, [r3, #8]
 185 007c 019B     		ldr	r3, [sp, #4]
 186 007e 9B68     		ldr	r3, [r3, #8]
 187 0080 9A42     		cmp	r2, r3
 188 0082 F2D2     		bcs	.L8
 189              	.L7:
 190              		.loc 3 603 0 is_stmt 1
 191 0084 019B     		ldr	r3, [sp, #4]
 192 0086 039A     		ldr	r2, [sp, #12]
 193 0088 1A60     		str	r2, [r3]
 194              		.loc 3 604 0
 195 008a 039B     		ldr	r3, [sp, #12]
 196 008c 5A68     		ldr	r2, [r3, #4]
 197 008e 019B     		ldr	r3, [sp, #4]
 198 0090 5A60     		str	r2, [r3, #4]
 199              		.loc 3 605 0
 200 0092 019B     		ldr	r3, [sp, #4]
 201 0094 5B68     		ldr	r3, [r3, #4]
 202 0096 019A     		ldr	r2, [sp, #4]
 203 0098 1A60     		str	r2, [r3]
 204              		.loc 3 606 0
 205 009a 039B     		ldr	r3, [sp, #12]
 206 009c 019A     		ldr	r2, [sp, #4]
 207 009e 5A60     		str	r2, [r3, #4]
 208              		.loc 3 607 0
 209 00a0 04B0     		add	sp, sp, #16
 210              		.cfi_def_cfa_offset 0
 211              		@ sp needed
 212 00a2 7047     		bx	lr
 213              		.cfi_endproc
 214              	.LFE155:
 215              		.size	queue_prio_insert, .-queue_prio_insert
 216              		.align	2
 217 00a4 AFF30080 		.p2align 4,,15
 217      AFF30080 
 217      AFF30080 
 218              		.thumb
 219              		.thumb_func
 220              		.type	queue_fifo_remove, %function
 221              	queue_fifo_remove:
 222              	.LFB157:
 223              		.loc 3 617 0
 224              		.cfi_startproc
ARM GAS  /tmp/ccU554fw.s 			page 5


 225              		@ args = 0, pretend = 0, frame = 16
 226              		@ frame_needed = 0, uses_anonymous_args = 0
 227              		@ link register save eliminated.
 228 00b0 84B0     		sub	sp, sp, #16
 229              		.cfi_def_cfa_offset 16
 230 00b2 0190     		str	r0, [sp, #4]
 231              		.loc 3 618 0
 232 00b4 019B     		ldr	r3, [sp, #4]
 233 00b6 1B68     		ldr	r3, [r3]
 234 00b8 0393     		str	r3, [sp, #12]
 235              		.loc 3 620 0
 236 00ba 039B     		ldr	r3, [sp, #12]
 237 00bc 1A68     		ldr	r2, [r3]
 238 00be 019B     		ldr	r3, [sp, #4]
 239 00c0 1A60     		str	r2, [r3]
 240              		.loc 3 621 0
 241 00c2 019B     		ldr	r3, [sp, #4]
 242 00c4 1B68     		ldr	r3, [r3]
 243 00c6 019A     		ldr	r2, [sp, #4]
 244 00c8 5A60     		str	r2, [r3, #4]
 245              		.loc 3 623 0
 246 00ca 039B     		ldr	r3, [sp, #12]
 247              		.loc 3 624 0
 248 00cc 1846     		mov	r0, r3
 249 00ce 04B0     		add	sp, sp, #16
 250              		.cfi_def_cfa_offset 0
 251              		@ sp needed
 252 00d0 7047     		bx	lr
 253              		.cfi_endproc
 254              	.LFE157:
 255              		.size	queue_fifo_remove, .-queue_fifo_remove
 256 00d2 00BF     		.align	2
 257 00d4 AFF30080 		.p2align 4,,15
 257      AFF30080 
 257      AFF30080 
 258              		.thumb
 259              		.thumb_func
 260              		.type	queue_dequeue, %function
 261              	queue_dequeue:
 262              	.LFB159:
 263              		.loc 3 635 0
 264              		.cfi_startproc
 265              		@ args = 0, pretend = 0, frame = 8
 266              		@ frame_needed = 0, uses_anonymous_args = 0
 267              		@ link register save eliminated.
 268 00e0 82B0     		sub	sp, sp, #8
 269              		.cfi_def_cfa_offset 8
 270 00e2 0190     		str	r0, [sp, #4]
 271              		.loc 3 637 0
 272 00e4 019B     		ldr	r3, [sp, #4]
 273 00e6 5B68     		ldr	r3, [r3, #4]
 274 00e8 019A     		ldr	r2, [sp, #4]
 275 00ea 1268     		ldr	r2, [r2]
 276 00ec 1A60     		str	r2, [r3]
 277              		.loc 3 638 0
 278 00ee 019B     		ldr	r3, [sp, #4]
 279 00f0 1B68     		ldr	r3, [r3]
ARM GAS  /tmp/ccU554fw.s 			page 6


 280 00f2 019A     		ldr	r2, [sp, #4]
 281 00f4 5268     		ldr	r2, [r2, #4]
 282 00f6 5A60     		str	r2, [r3, #4]
 283              		.loc 3 640 0
 284 00f8 019B     		ldr	r3, [sp, #4]
 285              		.loc 3 641 0
 286 00fa 1846     		mov	r0, r3
 287 00fc 02B0     		add	sp, sp, #8
 288              		.cfi_def_cfa_offset 0
 289              		@ sp needed
 290 00fe 7047     		bx	lr
 291              		.cfi_endproc
 292              	.LFE159:
 293              		.size	queue_dequeue, .-queue_dequeue
 294              		.align	2
 295              		.p2align 4,,15
 296              		.thumb
 297              		.thumb_func
 298              		.type	chSysLock, %function
 299              	chSysLock:
 300              	.LFB167:
 301              		.file 4 "../../../os/rt/include/chsys.h"
 302              		.loc 4 374 0
 303              		.cfi_startproc
 304              		@ args = 0, pretend = 0, frame = 0
 305              		@ frame_needed = 0, uses_anonymous_args = 0
 306 0100 08B5     		push	{r3, lr}
 307              		.cfi_def_cfa_offset 8
 308              		.cfi_offset 3, -8
 309              		.cfi_offset 14, -4
 310              		.loc 4 376 0
 311 0102 FFF77DFF 		bl	port_lock
 312              		.loc 4 379 0
 313 0106 08BD     		pop	{r3, pc}
 314              		.cfi_endproc
 315              	.LFE167:
 316              		.size	chSysLock, .-chSysLock
 317              		.align	2
 318 0108 AFF30080 		.p2align 4,,15
 318      AFF30080 
 319              		.thumb
 320              		.thumb_func
 321              		.type	chSysUnlock, %function
 322              	chSysUnlock:
 323              	.LFB168:
 324              		.loc 4 386 0
 325              		.cfi_startproc
 326              		@ args = 0, pretend = 0, frame = 0
 327              		@ frame_needed = 0, uses_anonymous_args = 0
 328 0110 08B5     		push	{r3, lr}
 329              		.cfi_def_cfa_offset 8
 330              		.cfi_offset 3, -8
 331              		.cfi_offset 14, -4
 332              		.loc 4 399 0
 333 0112 FFF77DFF 		bl	port_unlock
 334              		.loc 4 400 0
 335 0116 08BD     		pop	{r3, pc}
ARM GAS  /tmp/ccU554fw.s 			page 7


 336              		.cfi_endproc
 337              	.LFE168:
 338              		.size	chSysUnlock, .-chSysUnlock
 339              		.align	2
 340 0118 AFF30080 		.p2align 4,,15
 340      AFF30080 
 341              		.thumb
 342              		.thumb_func
 343              		.type	chMtxQueueNotEmptyS, %function
 344              	chMtxQueueNotEmptyS:
 345              	.LFB221:
 346              		.file 5 "../../../os/rt/include/chmtx.h"
 347              		.loc 5 129 0
 348              		.cfi_startproc
 349              		@ args = 0, pretend = 0, frame = 8
 350              		@ frame_needed = 0, uses_anonymous_args = 0
 351 0120 00B5     		push	{lr}
 352              		.cfi_def_cfa_offset 4
 353              		.cfi_offset 14, -4
 354 0122 83B0     		sub	sp, sp, #12
 355              		.cfi_def_cfa_offset 16
 356 0124 0190     		str	r0, [sp, #4]
 357              		.loc 5 133 0
 358 0126 019B     		ldr	r3, [sp, #4]
 359 0128 1846     		mov	r0, r3
 360 012a FFF789FF 		bl	queue_notempty
 361 012e 0346     		mov	r3, r0
 362              		.loc 5 134 0
 363 0130 1846     		mov	r0, r3
 364 0132 03B0     		add	sp, sp, #12
 365              		.cfi_def_cfa_offset 4
 366              		@ sp needed
 367 0134 5DF804FB 		ldr	pc, [sp], #4
 368              		.cfi_endproc
 369              	.LFE221:
 370              		.size	chMtxQueueNotEmptyS, .-chMtxQueueNotEmptyS
 371              		.align	2
 372 0138 AFF30080 		.p2align 4,,15
 372      AFF30080 
 373              		.global	chMtxObjectInit
 374              		.thumb
 375              		.thumb_func
 376              		.type	chMtxObjectInit, %function
 377              	chMtxObjectInit:
 378              	.LFB248:
 379              		.file 6 "../../../os/rt/src/chmtx.c"
 380              		.loc 6 103 0
 381              		.cfi_startproc
 382              		@ args = 0, pretend = 0, frame = 8
 383              		@ frame_needed = 0, uses_anonymous_args = 0
 384 0140 00B5     		push	{lr}
 385              		.cfi_def_cfa_offset 4
 386              		.cfi_offset 14, -4
 387 0142 83B0     		sub	sp, sp, #12
 388              		.cfi_def_cfa_offset 16
 389 0144 0190     		str	r0, [sp, #4]
 390              		.loc 6 107 0
ARM GAS  /tmp/ccU554fw.s 			page 8


 391 0146 019B     		ldr	r3, [sp, #4]
 392 0148 1846     		mov	r0, r3
 393 014a FFF769FF 		bl	queue_init
 394              		.loc 6 108 0
 395 014e 019B     		ldr	r3, [sp, #4]
 396 0150 0022     		movs	r2, #0
 397 0152 9A60     		str	r2, [r3, #8]
 398              		.loc 6 112 0
 399 0154 03B0     		add	sp, sp, #12
 400              		.cfi_def_cfa_offset 4
 401              		@ sp needed
 402 0156 5DF804FB 		ldr	pc, [sp], #4
 403              		.cfi_endproc
 404              	.LFE248:
 405              		.size	chMtxObjectInit, .-chMtxObjectInit
 406 015a 00BF     		.align	2
 407 015c AFF30080 		.p2align 4,,15
 408              		.global	chMtxLock
 409              		.thumb
 410              		.thumb_func
 411              		.type	chMtxLock, %function
 412              	chMtxLock:
 413              	.LFB249:
 414              		.loc 6 123 0
 415              		.cfi_startproc
 416              		@ args = 0, pretend = 0, frame = 8
 417              		@ frame_needed = 0, uses_anonymous_args = 0
 418 0160 00B5     		push	{lr}
 419              		.cfi_def_cfa_offset 4
 420              		.cfi_offset 14, -4
 421 0162 83B0     		sub	sp, sp, #12
 422              		.cfi_def_cfa_offset 16
 423 0164 0190     		str	r0, [sp, #4]
 424              		.loc 6 125 0
 425 0166 FFF7CBFF 		bl	chSysLock
 426              		.loc 6 126 0
 427 016a 0198     		ldr	r0, [sp, #4]
 428 016c FFF7FEFF 		bl	chMtxLockS
 429              		.loc 6 127 0
 430 0170 FFF7CEFF 		bl	chSysUnlock
 431              		.loc 6 128 0
 432 0174 03B0     		add	sp, sp, #12
 433              		.cfi_def_cfa_offset 4
 434              		@ sp needed
 435 0176 5DF804FB 		ldr	pc, [sp], #4
 436              		.cfi_endproc
 437              	.LFE249:
 438              		.size	chMtxLock, .-chMtxLock
 439 017a 00BF     		.align	2
 440 017c AFF30080 		.p2align 4,,15
 441              		.global	chMtxLockS
 442              		.thumb
 443              		.thumb_func
 444              		.type	chMtxLockS, %function
 445              	chMtxLockS:
 446              	.LFB250:
 447              		.loc 6 139 0
ARM GAS  /tmp/ccU554fw.s 			page 9


 448              		.cfi_startproc
 449              		@ args = 0, pretend = 0, frame = 16
 450              		@ frame_needed = 0, uses_anonymous_args = 0
 451 0180 00B5     		push	{lr}
 452              		.cfi_def_cfa_offset 4
 453              		.cfi_offset 14, -4
 454 0182 85B0     		sub	sp, sp, #20
 455              		.cfi_def_cfa_offset 24
 456 0184 0190     		str	r0, [sp, #4]
 457              		.loc 6 140 0
 458 0186 2D4B     		ldr	r3, .L30
 459 0188 9B69     		ldr	r3, [r3, #24]
 460 018a 0293     		str	r3, [sp, #8]
 461              		.loc 6 146 0
 462 018c 019B     		ldr	r3, [sp, #4]
 463 018e 9B68     		ldr	r3, [r3, #8]
 464 0190 002B     		cmp	r3, #0
 465 0192 46D0     		beq	.L20
 466              	.LBB10:
 467              		.loc 6 161 0
 468 0194 019B     		ldr	r3, [sp, #4]
 469 0196 9B68     		ldr	r3, [r3, #8]
 470 0198 0393     		str	r3, [sp, #12]
 471              		.loc 6 165 0
 472 019a 30E0     		b	.L21
 473              	.L28:
 474              		.loc 6 167 0
 475 019c 029B     		ldr	r3, [sp, #8]
 476 019e 9A68     		ldr	r2, [r3, #8]
 477 01a0 039B     		ldr	r3, [sp, #12]
 478 01a2 9A60     		str	r2, [r3, #8]
 479              		.loc 6 170 0
 480 01a4 039B     		ldr	r3, [sp, #12]
 481 01a6 93F82030 		ldrb	r3, [r3, #32]	@ zero_extendqisi2
 482 01aa 062B     		cmp	r3, #6
 483 01ac 04D0     		beq	.L23
 484 01ae 072B     		cmp	r3, #7
 485 01b0 11D0     		beq	.L24
 486 01b2 002B     		cmp	r3, #0
 487 01b4 1AD0     		beq	.L25
 488              		.loc 6 206 0
 489 01b6 21E0     		b	.L26
 490              	.L23:
 491              		.loc 6 173 0
 492 01b8 0398     		ldr	r0, [sp, #12]
 493 01ba FFF791FF 		bl	queue_dequeue
 494 01be 0246     		mov	r2, r0
 495 01c0 039B     		ldr	r3, [sp, #12]
 496 01c2 5B6A     		ldr	r3, [r3, #36]
 497 01c4 1046     		mov	r0, r2
 498 01c6 1946     		mov	r1, r3
 499 01c8 FFF74AFF 		bl	queue_prio_insert
 500              		.loc 6 174 0
 501 01cc 039B     		ldr	r3, [sp, #12]
 502 01ce 5B6A     		ldr	r3, [r3, #36]
 503 01d0 9B68     		ldr	r3, [r3, #8]
 504 01d2 0393     		str	r3, [sp, #12]
ARM GAS  /tmp/ccU554fw.s 			page 10


 505              		.loc 6 176 0
 506 01d4 13E0     		b	.L21
 507              	.L24:
 508              		.loc 6 193 0
 509 01d6 0398     		ldr	r0, [sp, #12]
 510 01d8 FFF782FF 		bl	queue_dequeue
 511 01dc 0246     		mov	r2, r0
 512 01de 039B     		ldr	r3, [sp, #12]
 513 01e0 5B6A     		ldr	r3, [r3, #36]
 514 01e2 1046     		mov	r0, r2
 515 01e4 1946     		mov	r1, r3
 516 01e6 FFF73BFF 		bl	queue_prio_insert
 517              		.loc 6 194 0
 518 01ea 07E0     		b	.L26
 519              	.L25:
 520              		.loc 6 202 0
 521 01ec 0398     		ldr	r0, [sp, #12]
 522 01ee FFF777FF 		bl	queue_dequeue
 523 01f2 0346     		mov	r3, r0
 524 01f4 1846     		mov	r0, r3
 525 01f6 FFF7FEFF 		bl	chSchReadyI
 526              		.loc 6 203 0
 527 01fa 00BF     		nop
 528              	.L26:
 529              		.loc 6 208 0 discriminator 1
 530 01fc 05E0     		b	.L27
 531              	.L21:
 532              		.loc 6 165 0
 533 01fe 039B     		ldr	r3, [sp, #12]
 534 0200 9A68     		ldr	r2, [r3, #8]
 535 0202 029B     		ldr	r3, [sp, #8]
 536 0204 9B68     		ldr	r3, [r3, #8]
 537 0206 9A42     		cmp	r2, r3
 538 0208 C8D3     		bcc	.L28
 539              	.L27:
 540              		.loc 6 212 0
 541 020a 019B     		ldr	r3, [sp, #4]
 542 020c 0298     		ldr	r0, [sp, #8]
 543 020e 1946     		mov	r1, r3
 544 0210 FFF726FF 		bl	queue_prio_insert
 545              		.loc 6 213 0
 546 0214 029B     		ldr	r3, [sp, #8]
 547 0216 019A     		ldr	r2, [sp, #4]
 548 0218 5A62     		str	r2, [r3, #36]
 549              		.loc 6 214 0
 550 021a 0620     		movs	r0, #6
 551 021c FFF7FEFF 		bl	chSchGoSleepS
 552 0220 09E0     		b	.L19
 553              	.L20:
 554              	.LBE10:
 555              		.loc 6 232 0
 556 0222 019B     		ldr	r3, [sp, #4]
 557 0224 029A     		ldr	r2, [sp, #8]
 558 0226 9A60     		str	r2, [r3, #8]
 559              		.loc 6 233 0
 560 0228 029B     		ldr	r3, [sp, #8]
 561 022a 9A6B     		ldr	r2, [r3, #56]
ARM GAS  /tmp/ccU554fw.s 			page 11


 562 022c 019B     		ldr	r3, [sp, #4]
 563 022e DA60     		str	r2, [r3, #12]
 564              		.loc 6 234 0
 565 0230 029B     		ldr	r3, [sp, #8]
 566 0232 019A     		ldr	r2, [sp, #4]
 567 0234 9A63     		str	r2, [r3, #56]
 568              	.L19:
 569              		.loc 6 236 0
 570 0236 05B0     		add	sp, sp, #20
 571              		.cfi_def_cfa_offset 4
 572              		@ sp needed
 573 0238 5DF804FB 		ldr	pc, [sp], #4
 574              	.L31:
 575              		.align	2
 576              	.L30:
 577 023c 00000000 		.word	ch
 578              		.cfi_endproc
 579              	.LFE250:
 580              		.size	chMtxLockS, .-chMtxLockS
 581              		.align	2
 582              		.p2align 4,,15
 583              		.global	chMtxTryLock
 584              		.thumb
 585              		.thumb_func
 586              		.type	chMtxTryLock, %function
 587              	chMtxTryLock:
 588              	.LFB251:
 589              		.loc 6 255 0
 590              		.cfi_startproc
 591              		@ args = 0, pretend = 0, frame = 16
 592              		@ frame_needed = 0, uses_anonymous_args = 0
 593 0240 00B5     		push	{lr}
 594              		.cfi_def_cfa_offset 4
 595              		.cfi_offset 14, -4
 596 0242 85B0     		sub	sp, sp, #20
 597              		.cfi_def_cfa_offset 24
 598 0244 0190     		str	r0, [sp, #4]
 599              		.loc 6 258 0
 600 0246 FFF75BFF 		bl	chSysLock
 601              		.loc 6 259 0
 602 024a 0198     		ldr	r0, [sp, #4]
 603 024c FFF7FEFF 		bl	chMtxTryLockS
 604 0250 0346     		mov	r3, r0
 605 0252 8DF80F30 		strb	r3, [sp, #15]
 606              		.loc 6 260 0
 607 0256 FFF75BFF 		bl	chSysUnlock
 608              		.loc 6 262 0
 609 025a 9DF80F30 		ldrb	r3, [sp, #15]	@ zero_extendqisi2
 610              		.loc 6 263 0
 611 025e 1846     		mov	r0, r3
 612 0260 05B0     		add	sp, sp, #20
 613              		.cfi_def_cfa_offset 4
 614              		@ sp needed
 615 0262 5DF804FB 		ldr	pc, [sp], #4
 616              		.cfi_endproc
 617              	.LFE251:
 618              		.size	chMtxTryLock, .-chMtxTryLock
ARM GAS  /tmp/ccU554fw.s 			page 12


 619 0266 00BF     		.align	2
 620 0268 AFF30080 		.p2align 4,,15
 620      AFF30080 
 621              		.global	chMtxTryLockS
 622              		.thumb
 623              		.thumb_func
 624              		.type	chMtxTryLockS, %function
 625              	chMtxTryLockS:
 626              	.LFB252:
 627              		.loc 6 282 0
 628              		.cfi_startproc
 629              		@ args = 0, pretend = 0, frame = 8
 630              		@ frame_needed = 0, uses_anonymous_args = 0
 631              		@ link register save eliminated.
 632 0270 82B0     		sub	sp, sp, #8
 633              		.cfi_def_cfa_offset 8
 634 0272 0190     		str	r0, [sp, #4]
 635              		.loc 6 287 0
 636 0274 019B     		ldr	r3, [sp, #4]
 637 0276 9B68     		ldr	r3, [r3, #8]
 638 0278 002B     		cmp	r3, #0
 639 027a 01D0     		beq	.L35
 640              		.loc 6 297 0
 641 027c 0023     		movs	r3, #0
 642 027e 0DE0     		b	.L36
 643              	.L35:
 644              		.loc 6 305 0
 645 0280 084B     		ldr	r3, .L37
 646 0282 9A69     		ldr	r2, [r3, #24]
 647 0284 019B     		ldr	r3, [sp, #4]
 648 0286 9A60     		str	r2, [r3, #8]
 649              		.loc 6 306 0
 650 0288 064B     		ldr	r3, .L37
 651 028a 9B69     		ldr	r3, [r3, #24]
 652 028c 9A6B     		ldr	r2, [r3, #56]
 653 028e 019B     		ldr	r3, [sp, #4]
 654 0290 DA60     		str	r2, [r3, #12]
 655              		.loc 6 307 0
 656 0292 044B     		ldr	r3, .L37
 657 0294 9B69     		ldr	r3, [r3, #24]
 658 0296 019A     		ldr	r2, [sp, #4]
 659 0298 9A63     		str	r2, [r3, #56]
 660              		.loc 6 308 0
 661 029a 0123     		movs	r3, #1
 662              	.L36:
 663              		.loc 6 309 0
 664 029c 1846     		mov	r0, r3
 665 029e 02B0     		add	sp, sp, #8
 666              		.cfi_def_cfa_offset 0
 667              		@ sp needed
 668 02a0 7047     		bx	lr
 669              	.L38:
 670 02a2 00BF     		.align	2
 671              	.L37:
 672 02a4 00000000 		.word	ch
 673              		.cfi_endproc
 674              	.LFE252:
ARM GAS  /tmp/ccU554fw.s 			page 13


 675              		.size	chMtxTryLockS, .-chMtxTryLockS
 676              		.align	2
 677 02a8 AFF30080 		.p2align 4,,15
 677      AFF30080 
 678              		.global	chMtxUnlock
 679              		.thumb
 680              		.thumb_func
 681              		.type	chMtxUnlock, %function
 682              	chMtxUnlock:
 683              	.LFB253:
 684              		.loc 6 323 0
 685              		.cfi_startproc
 686              		@ args = 0, pretend = 0, frame = 24
 687              		@ frame_needed = 0, uses_anonymous_args = 0
 688 02b0 00B5     		push	{lr}
 689              		.cfi_def_cfa_offset 4
 690              		.cfi_offset 14, -4
 691 02b2 87B0     		sub	sp, sp, #28
 692              		.cfi_def_cfa_offset 32
 693 02b4 0190     		str	r0, [sp, #4]
 694              		.loc 6 324 0
 695 02b6 264B     		ldr	r3, .L45
 696 02b8 9B69     		ldr	r3, [r3, #24]
 697 02ba 0393     		str	r3, [sp, #12]
 698              		.loc 6 329 0
 699 02bc FFF720FF 		bl	chSysLock
 700              		.loc 6 344 0
 701 02c0 019B     		ldr	r3, [sp, #4]
 702 02c2 DA68     		ldr	r2, [r3, #12]
 703 02c4 039B     		ldr	r3, [sp, #12]
 704 02c6 9A63     		str	r2, [r3, #56]
 705              		.loc 6 347 0
 706 02c8 0198     		ldr	r0, [sp, #4]
 707 02ca FFF729FF 		bl	chMtxQueueNotEmptyS
 708 02ce 0346     		mov	r3, r0
 709 02d0 002B     		cmp	r3, #0
 710 02d2 34D0     		beq	.L40
 711              	.LBB11:
 712              		.loc 6 352 0
 713 02d4 039B     		ldr	r3, [sp, #12]
 714 02d6 DB6B     		ldr	r3, [r3, #60]
 715 02d8 0493     		str	r3, [sp, #16]
 716              		.loc 6 353 0
 717 02da 039B     		ldr	r3, [sp, #12]
 718 02dc 9B6B     		ldr	r3, [r3, #56]
 719 02de 0593     		str	r3, [sp, #20]
 720              		.loc 6 354 0
 721 02e0 12E0     		b	.L41
 722              	.L43:
 723              		.loc 6 358 0
 724 02e2 0598     		ldr	r0, [sp, #20]
 725 02e4 FFF71CFF 		bl	chMtxQueueNotEmptyS
 726 02e8 0346     		mov	r3, r0
 727 02ea 002B     		cmp	r3, #0
 728 02ec 09D0     		beq	.L42
 729              		.loc 6 359 0 discriminator 1
 730 02ee 059B     		ldr	r3, [sp, #20]
ARM GAS  /tmp/ccU554fw.s 			page 14


 731 02f0 1B68     		ldr	r3, [r3]
 732 02f2 9A68     		ldr	r2, [r3, #8]
 733              		.loc 6 358 0 discriminator 1
 734 02f4 049B     		ldr	r3, [sp, #16]
 735 02f6 9A42     		cmp	r2, r3
 736 02f8 03D9     		bls	.L42
 737              		.loc 6 360 0
 738 02fa 059B     		ldr	r3, [sp, #20]
 739 02fc 1B68     		ldr	r3, [r3]
 740 02fe 9B68     		ldr	r3, [r3, #8]
 741 0300 0493     		str	r3, [sp, #16]
 742              	.L42:
 743              		.loc 6 362 0
 744 0302 059B     		ldr	r3, [sp, #20]
 745 0304 DB68     		ldr	r3, [r3, #12]
 746 0306 0593     		str	r3, [sp, #20]
 747              	.L41:
 748              		.loc 6 354 0
 749 0308 059B     		ldr	r3, [sp, #20]
 750 030a 002B     		cmp	r3, #0
 751 030c E9D1     		bne	.L43
 752              		.loc 6 367 0
 753 030e 039B     		ldr	r3, [sp, #12]
 754 0310 049A     		ldr	r2, [sp, #16]
 755 0312 9A60     		str	r2, [r3, #8]
 756              		.loc 6 374 0
 757 0314 019B     		ldr	r3, [sp, #4]
 758 0316 1846     		mov	r0, r3
 759 0318 FFF7CAFE 		bl	queue_fifo_remove
 760 031c 0290     		str	r0, [sp, #8]
 761              		.loc 6 375 0
 762 031e 019B     		ldr	r3, [sp, #4]
 763 0320 029A     		ldr	r2, [sp, #8]
 764 0322 9A60     		str	r2, [r3, #8]
 765              		.loc 6 376 0
 766 0324 029B     		ldr	r3, [sp, #8]
 767 0326 9A6B     		ldr	r2, [r3, #56]
 768 0328 019B     		ldr	r3, [sp, #4]
 769 032a DA60     		str	r2, [r3, #12]
 770              		.loc 6 377 0
 771 032c 029B     		ldr	r3, [sp, #8]
 772 032e 019A     		ldr	r2, [sp, #4]
 773 0330 9A63     		str	r2, [r3, #56]
 774              		.loc 6 383 0
 775 0332 0298     		ldr	r0, [sp, #8]
 776 0334 FFF7FEFF 		bl	chSchReadyI
 777              		.loc 6 384 0
 778 0338 FFF7FEFF 		bl	chSchRescheduleS
 779              	.LBE11:
 780 033c 02E0     		b	.L44
 781              	.L40:
 782              		.loc 6 387 0
 783 033e 019B     		ldr	r3, [sp, #4]
 784 0340 0022     		movs	r2, #0
 785 0342 9A60     		str	r2, [r3, #8]
 786              	.L44:
 787              		.loc 6 393 0
ARM GAS  /tmp/ccU554fw.s 			page 15


 788 0344 FFF7E4FE 		bl	chSysUnlock
 789              		.loc 6 394 0
 790 0348 07B0     		add	sp, sp, #28
 791              		.cfi_def_cfa_offset 4
 792              		@ sp needed
 793 034a 5DF804FB 		ldr	pc, [sp], #4
 794              	.L46:
 795 034e 00BF     		.align	2
 796              	.L45:
 797 0350 00000000 		.word	ch
 798              		.cfi_endproc
 799              	.LFE253:
 800              		.size	chMtxUnlock, .-chMtxUnlock
 801              		.align	2
 802 0354 AFF30080 		.p2align 4,,15
 802      AFF30080 
 802      AFF30080 
 803              		.global	chMtxUnlockS
 804              		.thumb
 805              		.thumb_func
 806              		.type	chMtxUnlockS, %function
 807              	chMtxUnlockS:
 808              	.LFB254:
 809              		.loc 6 410 0
 810              		.cfi_startproc
 811              		@ args = 0, pretend = 0, frame = 24
 812              		@ frame_needed = 0, uses_anonymous_args = 0
 813 0360 00B5     		push	{lr}
 814              		.cfi_def_cfa_offset 4
 815              		.cfi_offset 14, -4
 816 0362 87B0     		sub	sp, sp, #28
 817              		.cfi_def_cfa_offset 32
 818 0364 0190     		str	r0, [sp, #4]
 819              		.loc 6 411 0
 820 0366 234B     		ldr	r3, .L53
 821 0368 9B69     		ldr	r3, [r3, #24]
 822 036a 0393     		str	r3, [sp, #12]
 823              		.loc 6 430 0
 824 036c 019B     		ldr	r3, [sp, #4]
 825 036e DA68     		ldr	r2, [r3, #12]
 826 0370 039B     		ldr	r3, [sp, #12]
 827 0372 9A63     		str	r2, [r3, #56]
 828              		.loc 6 433 0
 829 0374 0198     		ldr	r0, [sp, #4]
 830 0376 FFF7D3FE 		bl	chMtxQueueNotEmptyS
 831 037a 0346     		mov	r3, r0
 832 037c 002B     		cmp	r3, #0
 833 037e 32D0     		beq	.L48
 834              	.LBB12:
 835              		.loc 6 438 0
 836 0380 039B     		ldr	r3, [sp, #12]
 837 0382 DB6B     		ldr	r3, [r3, #60]
 838 0384 0493     		str	r3, [sp, #16]
 839              		.loc 6 439 0
 840 0386 039B     		ldr	r3, [sp, #12]
 841 0388 9B6B     		ldr	r3, [r3, #56]
 842 038a 0593     		str	r3, [sp, #20]
ARM GAS  /tmp/ccU554fw.s 			page 16


 843              		.loc 6 440 0
 844 038c 12E0     		b	.L49
 845              	.L51:
 846              		.loc 6 444 0
 847 038e 0598     		ldr	r0, [sp, #20]
 848 0390 FFF7C6FE 		bl	chMtxQueueNotEmptyS
 849 0394 0346     		mov	r3, r0
 850 0396 002B     		cmp	r3, #0
 851 0398 09D0     		beq	.L50
 852              		.loc 6 445 0 discriminator 1
 853 039a 059B     		ldr	r3, [sp, #20]
 854 039c 1B68     		ldr	r3, [r3]
 855 039e 9A68     		ldr	r2, [r3, #8]
 856              		.loc 6 444 0 discriminator 1
 857 03a0 049B     		ldr	r3, [sp, #16]
 858 03a2 9A42     		cmp	r2, r3
 859 03a4 03D9     		bls	.L50
 860              		.loc 6 446 0
 861 03a6 059B     		ldr	r3, [sp, #20]
 862 03a8 1B68     		ldr	r3, [r3]
 863 03aa 9B68     		ldr	r3, [r3, #8]
 864 03ac 0493     		str	r3, [sp, #16]
 865              	.L50:
 866              		.loc 6 448 0
 867 03ae 059B     		ldr	r3, [sp, #20]
 868 03b0 DB68     		ldr	r3, [r3, #12]
 869 03b2 0593     		str	r3, [sp, #20]
 870              	.L49:
 871              		.loc 6 440 0
 872 03b4 059B     		ldr	r3, [sp, #20]
 873 03b6 002B     		cmp	r3, #0
 874 03b8 E9D1     		bne	.L51
 875              		.loc 6 453 0
 876 03ba 039B     		ldr	r3, [sp, #12]
 877 03bc 049A     		ldr	r2, [sp, #16]
 878 03be 9A60     		str	r2, [r3, #8]
 879              		.loc 6 460 0
 880 03c0 019B     		ldr	r3, [sp, #4]
 881 03c2 1846     		mov	r0, r3
 882 03c4 FFF774FE 		bl	queue_fifo_remove
 883 03c8 0290     		str	r0, [sp, #8]
 884              		.loc 6 461 0
 885 03ca 019B     		ldr	r3, [sp, #4]
 886 03cc 029A     		ldr	r2, [sp, #8]
 887 03ce 9A60     		str	r2, [r3, #8]
 888              		.loc 6 462 0
 889 03d0 029B     		ldr	r3, [sp, #8]
 890 03d2 9A6B     		ldr	r2, [r3, #56]
 891 03d4 019B     		ldr	r3, [sp, #4]
 892 03d6 DA60     		str	r2, [r3, #12]
 893              		.loc 6 463 0
 894 03d8 029B     		ldr	r3, [sp, #8]
 895 03da 019A     		ldr	r2, [sp, #4]
 896 03dc 9A63     		str	r2, [r3, #56]
 897              		.loc 6 464 0
 898 03de 0298     		ldr	r0, [sp, #8]
 899 03e0 FFF7FEFF 		bl	chSchReadyI
ARM GAS  /tmp/ccU554fw.s 			page 17


 900              	.LBE12:
 901 03e4 02E0     		b	.L47
 902              	.L48:
 903              		.loc 6 467 0
 904 03e6 019B     		ldr	r3, [sp, #4]
 905 03e8 0022     		movs	r2, #0
 906 03ea 9A60     		str	r2, [r3, #8]
 907              	.L47:
 908              		.loc 6 472 0
 909 03ec 07B0     		add	sp, sp, #28
 910              		.cfi_def_cfa_offset 4
 911              		@ sp needed
 912 03ee 5DF804FB 		ldr	pc, [sp], #4
 913              	.L54:
 914 03f2 00BF     		.align	2
 915              	.L53:
 916 03f4 00000000 		.word	ch
 917              		.cfi_endproc
 918              	.LFE254:
 919              		.size	chMtxUnlockS, .-chMtxUnlockS
 920              		.align	2
 921 03f8 AFF30080 		.p2align 4,,15
 921      AFF30080 
 922              		.global	chMtxUnlockAllS
 923              		.thumb
 924              		.thumb_func
 925              		.type	chMtxUnlockAllS, %function
 926              	chMtxUnlockAllS:
 927              	.LFB255:
 928              		.loc 6 487 0
 929              		.cfi_startproc
 930              		@ args = 0, pretend = 0, frame = 16
 931              		@ frame_needed = 0, uses_anonymous_args = 0
 932 0400 00B5     		push	{lr}
 933              		.cfi_def_cfa_offset 4
 934              		.cfi_offset 14, -4
 935 0402 85B0     		sub	sp, sp, #20
 936              		.cfi_def_cfa_offset 24
 937              		.loc 6 488 0
 938 0404 184B     		ldr	r3, .L59
 939 0406 9B69     		ldr	r3, [r3, #24]
 940 0408 0393     		str	r3, [sp, #12]
 941              		.loc 6 490 0
 942 040a 22E0     		b	.L56
 943              	.L58:
 944              	.LBB13:
 945              		.loc 6 491 0
 946 040c 039B     		ldr	r3, [sp, #12]
 947 040e 9B6B     		ldr	r3, [r3, #56]
 948 0410 0293     		str	r3, [sp, #8]
 949              		.loc 6 492 0
 950 0412 029B     		ldr	r3, [sp, #8]
 951 0414 DA68     		ldr	r2, [r3, #12]
 952 0416 039B     		ldr	r3, [sp, #12]
 953 0418 9A63     		str	r2, [r3, #56]
 954              		.loc 6 493 0
 955 041a 0298     		ldr	r0, [sp, #8]
ARM GAS  /tmp/ccU554fw.s 			page 18


 956 041c FFF780FE 		bl	chMtxQueueNotEmptyS
 957 0420 0346     		mov	r3, r0
 958 0422 002B     		cmp	r3, #0
 959 0424 12D0     		beq	.L57
 960              	.LBB14:
 961              		.loc 6 497 0
 962 0426 029B     		ldr	r3, [sp, #8]
 963 0428 1846     		mov	r0, r3
 964 042a FFF741FE 		bl	queue_fifo_remove
 965 042e 0190     		str	r0, [sp, #4]
 966              		.loc 6 498 0
 967 0430 029B     		ldr	r3, [sp, #8]
 968 0432 019A     		ldr	r2, [sp, #4]
 969 0434 9A60     		str	r2, [r3, #8]
 970              		.loc 6 499 0
 971 0436 019B     		ldr	r3, [sp, #4]
 972 0438 9A6B     		ldr	r2, [r3, #56]
 973 043a 029B     		ldr	r3, [sp, #8]
 974 043c DA60     		str	r2, [r3, #12]
 975              		.loc 6 500 0
 976 043e 019B     		ldr	r3, [sp, #4]
 977 0440 029A     		ldr	r2, [sp, #8]
 978 0442 9A63     		str	r2, [r3, #56]
 979              		.loc 6 501 0
 980 0444 0198     		ldr	r0, [sp, #4]
 981 0446 FFF7FEFF 		bl	chSchReadyI
 982              	.LBE14:
 983 044a 02E0     		b	.L56
 984              	.L57:
 985              		.loc 6 507 0
 986 044c 029B     		ldr	r3, [sp, #8]
 987 044e 0022     		movs	r2, #0
 988 0450 9A60     		str	r2, [r3, #8]
 989              	.L56:
 990              	.LBE13:
 991              		.loc 6 490 0
 992 0452 039B     		ldr	r3, [sp, #12]
 993 0454 9B6B     		ldr	r3, [r3, #56]
 994 0456 002B     		cmp	r3, #0
 995 0458 D8D1     		bne	.L58
 996              		.loc 6 510 0
 997 045a 039B     		ldr	r3, [sp, #12]
 998 045c DA6B     		ldr	r2, [r3, #60]
 999 045e 039B     		ldr	r3, [sp, #12]
 1000 0460 9A60     		str	r2, [r3, #8]
 1001              		.loc 6 511 0
 1002 0462 05B0     		add	sp, sp, #20
 1003              		.cfi_def_cfa_offset 4
 1004              		@ sp needed
 1005 0464 5DF804FB 		ldr	pc, [sp], #4
 1006              	.L60:
 1007              		.align	2
 1008              	.L59:
 1009 0468 00000000 		.word	ch
 1010              		.cfi_endproc
 1011              	.LFE255:
 1012              		.size	chMtxUnlockAllS, .-chMtxUnlockAllS
ARM GAS  /tmp/ccU554fw.s 			page 19


 1013              		.align	2
 1014 046c AFF30080 		.p2align 4,,15
 1015              		.global	chMtxUnlockAll
 1016              		.thumb
 1017              		.thumb_func
 1018              		.type	chMtxUnlockAll, %function
 1019              	chMtxUnlockAll:
 1020              	.LFB256:
 1021              		.loc 6 524 0
 1022              		.cfi_startproc
 1023              		@ args = 0, pretend = 0, frame = 16
 1024              		@ frame_needed = 0, uses_anonymous_args = 0
 1025 0470 00B5     		push	{lr}
 1026              		.cfi_def_cfa_offset 4
 1027              		.cfi_offset 14, -4
 1028 0472 85B0     		sub	sp, sp, #20
 1029              		.cfi_def_cfa_offset 24
 1030              		.loc 6 525 0
 1031 0474 1D4B     		ldr	r3, .L66
 1032 0476 9B69     		ldr	r3, [r3, #24]
 1033 0478 0393     		str	r3, [sp, #12]
 1034              		.loc 6 527 0
 1035 047a FFF741FE 		bl	chSysLock
 1036              		.loc 6 528 0
 1037 047e 039B     		ldr	r3, [sp, #12]
 1038 0480 9B6B     		ldr	r3, [r3, #56]
 1039 0482 002B     		cmp	r3, #0
 1040 0484 2CD0     		beq	.L62
 1041              	.L65:
 1042              	.LBB15:
 1043              		.loc 6 530 0
 1044 0486 039B     		ldr	r3, [sp, #12]
 1045 0488 9B6B     		ldr	r3, [r3, #56]
 1046 048a 0293     		str	r3, [sp, #8]
 1047              		.loc 6 531 0
 1048 048c 029B     		ldr	r3, [sp, #8]
 1049 048e DA68     		ldr	r2, [r3, #12]
 1050 0490 039B     		ldr	r3, [sp, #12]
 1051 0492 9A63     		str	r2, [r3, #56]
 1052              		.loc 6 532 0
 1053 0494 0298     		ldr	r0, [sp, #8]
 1054 0496 FFF743FE 		bl	chMtxQueueNotEmptyS
 1055 049a 0346     		mov	r3, r0
 1056 049c 002B     		cmp	r3, #0
 1057 049e 12D0     		beq	.L63
 1058              	.LBB16:
 1059              		.loc 6 536 0
 1060 04a0 029B     		ldr	r3, [sp, #8]
 1061 04a2 1846     		mov	r0, r3
 1062 04a4 FFF704FE 		bl	queue_fifo_remove
 1063 04a8 0190     		str	r0, [sp, #4]
 1064              		.loc 6 537 0
 1065 04aa 029B     		ldr	r3, [sp, #8]
 1066 04ac 019A     		ldr	r2, [sp, #4]
 1067 04ae 9A60     		str	r2, [r3, #8]
 1068              		.loc 6 538 0
 1069 04b0 019B     		ldr	r3, [sp, #4]
ARM GAS  /tmp/ccU554fw.s 			page 20


 1070 04b2 9A6B     		ldr	r2, [r3, #56]
 1071 04b4 029B     		ldr	r3, [sp, #8]
 1072 04b6 DA60     		str	r2, [r3, #12]
 1073              		.loc 6 539 0
 1074 04b8 019B     		ldr	r3, [sp, #4]
 1075 04ba 029A     		ldr	r2, [sp, #8]
 1076 04bc 9A63     		str	r2, [r3, #56]
 1077              		.loc 6 540 0
 1078 04be 0198     		ldr	r0, [sp, #4]
 1079 04c0 FFF7FEFF 		bl	chSchReadyI
 1080              	.LBE16:
 1081 04c4 02E0     		b	.L64
 1082              	.L63:
 1083              		.loc 6 546 0
 1084 04c6 029B     		ldr	r3, [sp, #8]
 1085 04c8 0022     		movs	r2, #0
 1086 04ca 9A60     		str	r2, [r3, #8]
 1087              	.L64:
 1088              	.LBE15:
 1089              		.loc 6 548 0
 1090 04cc 039B     		ldr	r3, [sp, #12]
 1091 04ce 9B6B     		ldr	r3, [r3, #56]
 1092 04d0 002B     		cmp	r3, #0
 1093 04d2 D8D1     		bne	.L65
 1094              		.loc 6 549 0
 1095 04d4 039B     		ldr	r3, [sp, #12]
 1096 04d6 DA6B     		ldr	r2, [r3, #60]
 1097 04d8 039B     		ldr	r3, [sp, #12]
 1098 04da 9A60     		str	r2, [r3, #8]
 1099              		.loc 6 550 0
 1100 04dc FFF7FEFF 		bl	chSchRescheduleS
 1101              	.L62:
 1102              		.loc 6 552 0
 1103 04e0 FFF716FE 		bl	chSysUnlock
 1104              		.loc 6 553 0
 1105 04e4 05B0     		add	sp, sp, #20
 1106              		.cfi_def_cfa_offset 4
 1107              		@ sp needed
 1108 04e6 5DF804FB 		ldr	pc, [sp], #4
 1109              	.L67:
 1110 04ea 00BF     		.align	2
 1111              	.L66:
 1112 04ec 00000000 		.word	ch
 1113              		.cfi_endproc
 1114              	.LFE256:
 1115              		.size	chMtxUnlockAll, .-chMtxUnlockAll
 1116              	.Letext0:
 1117              		.file 7 "/usr/include/newlib/machine/_default_types.h"
 1118              		.file 8 "/usr/include/newlib/sys/_stdint.h"
 1119              		.file 9 "../../../os/common/ports/ARMCMx/compilers/GCC/chtypes.h"
 1120              		.file 10 "../../../os/rt/include/chsystypes.h"
 1121              		.file 11 "../../../os/common/ports/ARMCMx/chcore.h"
 1122              		.file 12 "../../../os/rt/include/chtm.h"
 1123              		.file 13 "../../../os/rt/include/chsem.h"
 1124              		.file 14 "../../../os/common/ext/CMSIS/include/core_cm4.h"