ARM GAS  /tmp/cc6XJJDj.s 			page 1


   1              		.syntax unified
   2              		.cpu cortex-m4
   3              		.fpu softvfp
   4              		.eabi_attribute 20, 1
   5              		.eabi_attribute 21, 1
   6              		.eabi_attribute 23, 3
   7              		.eabi_attribute 24, 1
   8              		.eabi_attribute 25, 1
   9              		.eabi_attribute 26, 1
  10              		.eabi_attribute 30, 6
  11              		.eabi_attribute 34, 1
  12              		.eabi_attribute 18, 4
  13              		.thumb
  14              		.file	"chregistry.c"
  15              		.text
  16              	.Ltext0:
  17              		.cfi_sections	.debug_frame
  18              		.align	2
  19              		.p2align 4,,15
  20              		.thumb
  21              		.thumb_func
  22              		.type	port_lock, %function
  23              	port_lock:
  24              	.LFB127:
  25              		.file 1 "../../../os/common/ports/ARMCMx/chcore_v7m.h"
  26              		.loc 1 594 0
  27              		.cfi_startproc
  28              		@ args = 0, pretend = 0, frame = 8
  29              		@ frame_needed = 0, uses_anonymous_args = 0
  30              		@ link register save eliminated.
  31 0000 82B0     		sub	sp, sp, #8
  32              		.cfi_def_cfa_offset 8
  33 0002 2023     		movs	r3, #32
  34 0004 0193     		str	r3, [sp, #4]
  35              	.LBB6:
  36              	.LBB7:
  37              		.file 2 "../../../os/common/ext/CMSIS/include/cmsis_gcc.h"
  38              		.loc 2 264 0
  39 0006 019B     		ldr	r3, [sp, #4]
  40              	@ 264 "../../../os/common/ext/CMSIS/include/cmsis_gcc.h" 1
  41 0008 83F31188 		MSR basepri, r3
  42              	@ 0 "" 2
  43              		.thumb
  44              	.LBE7:
  45              	.LBE6:
  46              		.loc 1 611 0
  47 000c 02B0     		add	sp, sp, #8
  48              		.cfi_def_cfa_offset 0
  49              		@ sp needed
  50 000e 7047     		bx	lr
  51              		.cfi_endproc
  52              	.LFE127:
  53              		.size	port_lock, .-port_lock
  54              		.align	2
  55              		.p2align 4,,15
  56              		.thumb
  57              		.thumb_func
ARM GAS  /tmp/cc6XJJDj.s 			page 2


  58              		.type	port_unlock, %function
  59              	port_unlock:
  60              	.LFB128:
  61              		.loc 1 618 0
  62              		.cfi_startproc
  63              		@ args = 0, pretend = 0, frame = 8
  64              		@ frame_needed = 0, uses_anonymous_args = 0
  65              		@ link register save eliminated.
  66 0010 82B0     		sub	sp, sp, #8
  67              		.cfi_def_cfa_offset 8
  68 0012 0023     		movs	r3, #0
  69 0014 0193     		str	r3, [sp, #4]
  70              	.LBB8:
  71              	.LBB9:
  72              		.loc 2 264 0
  73 0016 019B     		ldr	r3, [sp, #4]
  74              	@ 264 "../../../os/common/ext/CMSIS/include/cmsis_gcc.h" 1
  75 0018 83F31188 		MSR basepri, r3
  76              	@ 0 "" 2
  77              		.thumb
  78              	.LBE9:
  79              	.LBE8:
  80              		.loc 1 625 0
  81 001c 02B0     		add	sp, sp, #8
  82              		.cfi_def_cfa_offset 0
  83              		@ sp needed
  84 001e 7047     		bx	lr
  85              		.cfi_endproc
  86              	.LFE128:
  87              		.size	port_unlock, .-port_unlock
  88              		.align	2
  89              		.p2align 4,,15
  90              		.thumb
  91              		.thumb_func
  92              		.type	chSysLock, %function
  93              	chSysLock:
  94              	.LFB167:
  95              		.file 3 "../../../os/rt/include/chsys.h"
  96              		.loc 3 374 0
  97              		.cfi_startproc
  98              		@ args = 0, pretend = 0, frame = 0
  99              		@ frame_needed = 0, uses_anonymous_args = 0
 100 0020 08B5     		push	{r3, lr}
 101              		.cfi_def_cfa_offset 8
 102              		.cfi_offset 3, -8
 103              		.cfi_offset 14, -4
 104              		.loc 3 376 0
 105 0022 FFF7EDFF 		bl	port_lock
 106              		.loc 3 379 0
 107 0026 08BD     		pop	{r3, pc}
 108              		.cfi_endproc
 109              	.LFE167:
 110              		.size	chSysLock, .-chSysLock
 111              		.align	2
 112 0028 AFF30080 		.p2align 4,,15
 112      AFF30080 
 113              		.thumb
ARM GAS  /tmp/cc6XJJDj.s 			page 3


 114              		.thumb_func
 115              		.type	chSysUnlock, %function
 116              	chSysUnlock:
 117              	.LFB168:
 118              		.loc 3 386 0
 119              		.cfi_startproc
 120              		@ args = 0, pretend = 0, frame = 0
 121              		@ frame_needed = 0, uses_anonymous_args = 0
 122 0030 08B5     		push	{r3, lr}
 123              		.cfi_def_cfa_offset 8
 124              		.cfi_offset 3, -8
 125              		.cfi_offset 14, -4
 126              		.loc 3 399 0
 127 0032 FFF7EDFF 		bl	port_unlock
 128              		.loc 3 400 0
 129 0036 08BD     		pop	{r3, pc}
 130              		.cfi_endproc
 131              	.LFE168:
 132              		.size	chSysUnlock, .-chSysUnlock
 133              		.align	2
 134 0038 AFF30080 		.p2align 4,,15
 134      AFF30080 
 135              		.thumb
 136              		.thumb_func
 137              		.type	chThdGetWorkingAreaX, %function
 138              	chThdGetWorkingAreaX:
 139              	.LFB197:
 140              		.file 4 "../../../os/rt/include/chthreads.h"
 141              		.loc 4 329 0
 142              		.cfi_startproc
 143              		@ args = 0, pretend = 0, frame = 8
 144              		@ frame_needed = 0, uses_anonymous_args = 0
 145              		@ link register save eliminated.
 146 0040 82B0     		sub	sp, sp, #8
 147              		.cfi_def_cfa_offset 8
 148 0042 0190     		str	r0, [sp, #4]
 149              		.loc 4 331 0
 150 0044 019B     		ldr	r3, [sp, #4]
 151 0046 DB69     		ldr	r3, [r3, #28]
 152              		.loc 4 332 0
 153 0048 1846     		mov	r0, r3
 154 004a 02B0     		add	sp, sp, #8
 155              		.cfi_def_cfa_offset 0
 156              		@ sp needed
 157 004c 7047     		bx	lr
 158              		.cfi_endproc
 159              	.LFE197:
 160              		.size	chThdGetWorkingAreaX, .-chThdGetWorkingAreaX
 161 004e 00BF     		.align	2
 162              		.p2align 4,,15
 163              		.thumb
 164              		.thumb_func
 165              		.type	chRegGetThreadNameX, %function
 166              	chRegGetThreadNameX:
 167              	.LFB206:
 168              		.file 5 "../../../os/rt/include/chregistry.h"
 169              		.loc 5 153 0
ARM GAS  /tmp/cc6XJJDj.s 			page 4


 170              		.cfi_startproc
 171              		@ args = 0, pretend = 0, frame = 8
 172              		@ frame_needed = 0, uses_anonymous_args = 0
 173              		@ link register save eliminated.
 174 0050 82B0     		sub	sp, sp, #8
 175              		.cfi_def_cfa_offset 8
 176 0052 0190     		str	r0, [sp, #4]
 177              		.loc 5 156 0
 178 0054 019B     		ldr	r3, [sp, #4]
 179 0056 9B69     		ldr	r3, [r3, #24]
 180              		.loc 5 161 0
 181 0058 1846     		mov	r0, r3
 182 005a 02B0     		add	sp, sp, #8
 183              		.cfi_def_cfa_offset 0
 184              		@ sp needed
 185 005c 7047     		bx	lr
 186              		.cfi_endproc
 187              	.LFE206:
 188              		.size	chRegGetThreadNameX, .-chRegGetThreadNameX
 189              		.global	ch_debug
 190              		.section	.rodata
 191              		.align	2
 192              		.type	ch_debug, %object
 193              		.size	ch_debug, 22
 194              	ch_debug:
 195 0000 6D       		.byte	109
 196 0001 61       		.byte	97
 197 0002 69       		.byte	105
 198 0003 6E       		.byte	110
 199 0004 00       		.byte	0
 200 0005 16       		.byte	22
 201 0006 0320     		.short	8195
 202 0008 04       		.byte	4
 203 0009 04       		.byte	4
 204 000a 44       		.byte	68
 205 000b 08       		.byte	8
 206 000c 0C       		.byte	12
 207 000d 10       		.byte	16
 208 000e 14       		.byte	20
 209 000f 18       		.byte	24
 210 0010 1C       		.byte	28
 211 0011 20       		.byte	32
 212 0012 21       		.byte	33
 213 0013 22       		.byte	34
 214 0014 00       		.byte	0
 215 0015 00       		.byte	0
 216              		.text
 217 005e 00BF     		.align	2
 218              		.p2align 4,,15
 219              		.global	chRegFirstThread
 220              		.thumb
 221              		.thumb_func
 222              		.type	chRegFirstThread, %function
 223              	chRegFirstThread:
 224              	.LFB248:
 225              		.file 6 "../../../os/rt/src/chregistry.c"
 226              		.loc 6 134 0
ARM GAS  /tmp/cc6XJJDj.s 			page 5


 227              		.cfi_startproc
 228              		@ args = 0, pretend = 0, frame = 8
 229              		@ frame_needed = 0, uses_anonymous_args = 0
 230 0060 00B5     		push	{lr}
 231              		.cfi_def_cfa_offset 4
 232              		.cfi_offset 14, -4
 233 0062 83B0     		sub	sp, sp, #12
 234              		.cfi_def_cfa_offset 16
 235              		.loc 6 137 0
 236 0064 FFF7DCFF 		bl	chSysLock
 237              		.loc 6 138 0
 238 0068 084B     		ldr	r3, .L11
 239 006a 1B69     		ldr	r3, [r3, #16]
 240 006c 0193     		str	r3, [sp, #4]
 241              		.loc 6 140 0
 242 006e 019B     		ldr	r3, [sp, #4]
 243 0070 93F82230 		ldrb	r3, [r3, #34]	@ zero_extendqisi2
 244 0074 0133     		adds	r3, r3, #1
 245 0076 DAB2     		uxtb	r2, r3
 246 0078 019B     		ldr	r3, [sp, #4]
 247 007a 83F82220 		strb	r2, [r3, #34]
 248              		.loc 6 142 0
 249 007e FFF7D7FF 		bl	chSysUnlock
 250              		.loc 6 144 0
 251 0082 019B     		ldr	r3, [sp, #4]
 252              		.loc 6 145 0
 253 0084 1846     		mov	r0, r3
 254 0086 03B0     		add	sp, sp, #12
 255              		.cfi_def_cfa_offset 4
 256              		@ sp needed
 257 0088 5DF804FB 		ldr	pc, [sp], #4
 258              	.L12:
 259              		.align	2
 260              	.L11:
 261 008c 00000000 		.word	ch
 262              		.cfi_endproc
 263              	.LFE248:
 264              		.size	chRegFirstThread, .-chRegFirstThread
 265              		.align	2
 266              		.p2align 4,,15
 267              		.global	chRegNextThread
 268              		.thumb
 269              		.thumb_func
 270              		.type	chRegNextThread, %function
 271              	chRegNextThread:
 272              	.LFB249:
 273              		.loc 6 158 0
 274              		.cfi_startproc
 275              		@ args = 0, pretend = 0, frame = 16
 276              		@ frame_needed = 0, uses_anonymous_args = 0
 277 0090 00B5     		push	{lr}
 278              		.cfi_def_cfa_offset 4
 279              		.cfi_offset 14, -4
 280 0092 85B0     		sub	sp, sp, #20
 281              		.cfi_def_cfa_offset 24
 282 0094 0190     		str	r0, [sp, #4]
 283              		.loc 6 161 0
ARM GAS  /tmp/cc6XJJDj.s 			page 6


 284 0096 FFF7C3FF 		bl	chSysLock
 285              		.loc 6 162 0
 286 009a 019B     		ldr	r3, [sp, #4]
 287 009c 1B69     		ldr	r3, [r3, #16]
 288 009e 0393     		str	r3, [sp, #12]
 289              		.loc 6 164 0
 290 00a0 039B     		ldr	r3, [sp, #12]
 291 00a2 0C4A     		ldr	r2, .L17
 292 00a4 9342     		cmp	r3, r2
 293 00a6 02D1     		bne	.L14
 294              		.loc 6 166 0
 295 00a8 0023     		movs	r3, #0
 296 00aa 0393     		str	r3, [sp, #12]
 297 00ac 07E0     		b	.L15
 298              	.L14:
 299              		.loc 6 171 0
 300 00ae 039B     		ldr	r3, [sp, #12]
 301 00b0 93F82230 		ldrb	r3, [r3, #34]	@ zero_extendqisi2
 302 00b4 0133     		adds	r3, r3, #1
 303 00b6 DAB2     		uxtb	r2, r3
 304 00b8 039B     		ldr	r3, [sp, #12]
 305 00ba 83F82220 		strb	r2, [r3, #34]
 306              	.L15:
 307              		.loc 6 174 0
 308 00be FFF7B7FF 		bl	chSysUnlock
 309              		.loc 6 176 0
 310 00c2 0198     		ldr	r0, [sp, #4]
 311 00c4 FFF7FEFF 		bl	chThdRelease
 312              		.loc 6 179 0
 313 00c8 039B     		ldr	r3, [sp, #12]
 314              		.loc 6 180 0
 315 00ca 1846     		mov	r0, r3
 316 00cc 05B0     		add	sp, sp, #20
 317              		.cfi_def_cfa_offset 4
 318              		@ sp needed
 319 00ce 5DF804FB 		ldr	pc, [sp], #4
 320              	.L18:
 321 00d2 00BF     		.align	2
 322              	.L17:
 323 00d4 00000000 		.word	ch
 324              		.cfi_endproc
 325              	.LFE249:
 326              		.size	chRegNextThread, .-chRegNextThread
 327              		.align	2
 328 00d8 AFF30080 		.p2align 4,,15
 328      AFF30080 
 329              		.global	chRegFindThreadByName
 330              		.thumb
 331              		.thumb_func
 332              		.type	chRegFindThreadByName, %function
 333              	chRegFindThreadByName:
 334              	.LFB250:
 335              		.loc 6 194 0
 336              		.cfi_startproc
 337              		@ args = 0, pretend = 0, frame = 16
 338              		@ frame_needed = 0, uses_anonymous_args = 0
 339 00e0 00B5     		push	{lr}
ARM GAS  /tmp/cc6XJJDj.s 			page 7


 340              		.cfi_def_cfa_offset 4
 341              		.cfi_offset 14, -4
 342 00e2 85B0     		sub	sp, sp, #20
 343              		.cfi_def_cfa_offset 24
 344 00e4 0190     		str	r0, [sp, #4]
 345              		.loc 6 198 0
 346 00e6 FFF7FEFF 		bl	chRegFirstThread
 347 00ea 0390     		str	r0, [sp, #12]
 348              	.L22:
 349              		.loc 6 200 0
 350 00ec 0398     		ldr	r0, [sp, #12]
 351 00ee FFF7AFFF 		bl	chRegGetThreadNameX
 352 00f2 0346     		mov	r3, r0
 353 00f4 1846     		mov	r0, r3
 354 00f6 0199     		ldr	r1, [sp, #4]
 355 00f8 FFF7FEFF 		bl	strcmp
 356 00fc 0346     		mov	r3, r0
 357 00fe 002B     		cmp	r3, #0
 358 0100 01D1     		bne	.L20
 359              		.loc 6 201 0
 360 0102 039B     		ldr	r3, [sp, #12]
 361 0104 07E0     		b	.L21
 362              	.L20:
 363              		.loc 6 203 0
 364 0106 0398     		ldr	r0, [sp, #12]
 365 0108 FFF7FEFF 		bl	chRegNextThread
 366 010c 0390     		str	r0, [sp, #12]
 367              		.loc 6 204 0
 368 010e 039B     		ldr	r3, [sp, #12]
 369 0110 002B     		cmp	r3, #0
 370 0112 EBD1     		bne	.L22
 371              		.loc 6 206 0
 372 0114 0023     		movs	r3, #0
 373              	.L21:
 374              		.loc 6 207 0
 375 0116 1846     		mov	r0, r3
 376 0118 05B0     		add	sp, sp, #20
 377              		.cfi_def_cfa_offset 4
 378              		@ sp needed
 379 011a 5DF804FB 		ldr	pc, [sp], #4
 380              		.cfi_endproc
 381              	.LFE250:
 382              		.size	chRegFindThreadByName, .-chRegFindThreadByName
 383 011e 00BF     		.align	2
 384              		.p2align 4,,15
 385              		.global	chRegFindThreadByPointer
 386              		.thumb
 387              		.thumb_func
 388              		.type	chRegFindThreadByPointer, %function
 389              	chRegFindThreadByPointer:
 390              	.LFB251:
 391              		.loc 6 221 0
 392              		.cfi_startproc
 393              		@ args = 0, pretend = 0, frame = 16
 394              		@ frame_needed = 0, uses_anonymous_args = 0
 395 0120 00B5     		push	{lr}
 396              		.cfi_def_cfa_offset 4
ARM GAS  /tmp/cc6XJJDj.s 			page 8


 397              		.cfi_offset 14, -4
 398 0122 85B0     		sub	sp, sp, #20
 399              		.cfi_def_cfa_offset 24
 400 0124 0190     		str	r0, [sp, #4]
 401              		.loc 6 225 0
 402 0126 FFF7FEFF 		bl	chRegFirstThread
 403 012a 0390     		str	r0, [sp, #12]
 404              	.L26:
 405              		.loc 6 227 0
 406 012c 039A     		ldr	r2, [sp, #12]
 407 012e 019B     		ldr	r3, [sp, #4]
 408 0130 9A42     		cmp	r2, r3
 409 0132 01D1     		bne	.L24
 410              		.loc 6 228 0
 411 0134 039B     		ldr	r3, [sp, #12]
 412 0136 07E0     		b	.L25
 413              	.L24:
 414              		.loc 6 230 0
 415 0138 0398     		ldr	r0, [sp, #12]
 416 013a FFF7FEFF 		bl	chRegNextThread
 417 013e 0390     		str	r0, [sp, #12]
 418              		.loc 6 231 0
 419 0140 039B     		ldr	r3, [sp, #12]
 420 0142 002B     		cmp	r3, #0
 421 0144 F2D1     		bne	.L26
 422              		.loc 6 233 0
 423 0146 0023     		movs	r3, #0
 424              	.L25:
 425              		.loc 6 234 0
 426 0148 1846     		mov	r0, r3
 427 014a 05B0     		add	sp, sp, #20
 428              		.cfi_def_cfa_offset 4
 429              		@ sp needed
 430 014c 5DF804FB 		ldr	pc, [sp], #4
 431              		.cfi_endproc
 432              	.LFE251:
 433              		.size	chRegFindThreadByPointer, .-chRegFindThreadByPointer
 434              		.align	2
 435              		.p2align 4,,15
 436              		.global	chRegFindThreadByWorkingArea
 437              		.thumb
 438              		.thumb_func
 439              		.type	chRegFindThreadByWorkingArea, %function
 440              	chRegFindThreadByWorkingArea:
 441              	.LFB252:
 442              		.loc 6 250 0
 443              		.cfi_startproc
 444              		@ args = 0, pretend = 0, frame = 16
 445              		@ frame_needed = 0, uses_anonymous_args = 0
 446 0150 00B5     		push	{lr}
 447              		.cfi_def_cfa_offset 4
 448              		.cfi_offset 14, -4
 449 0152 85B0     		sub	sp, sp, #20
 450              		.cfi_def_cfa_offset 24
 451 0154 0190     		str	r0, [sp, #4]
 452              		.loc 6 254 0
 453 0156 FFF7FEFF 		bl	chRegFirstThread
ARM GAS  /tmp/cc6XJJDj.s 			page 9


 454 015a 0390     		str	r0, [sp, #12]
 455              	.L30:
 456              		.loc 6 256 0
 457 015c 0398     		ldr	r0, [sp, #12]
 458 015e FFF76FFF 		bl	chThdGetWorkingAreaX
 459 0162 0246     		mov	r2, r0
 460 0164 019B     		ldr	r3, [sp, #4]
 461 0166 9A42     		cmp	r2, r3
 462 0168 01D1     		bne	.L28
 463              		.loc 6 257 0
 464 016a 039B     		ldr	r3, [sp, #12]
 465 016c 07E0     		b	.L29
 466              	.L28:
 467              		.loc 6 259 0
 468 016e 0398     		ldr	r0, [sp, #12]
 469 0170 FFF7FEFF 		bl	chRegNextThread
 470 0174 0390     		str	r0, [sp, #12]
 471              		.loc 6 260 0
 472 0176 039B     		ldr	r3, [sp, #12]
 473 0178 002B     		cmp	r3, #0
 474 017a EFD1     		bne	.L30
 475              		.loc 6 262 0
 476 017c 0023     		movs	r3, #0
 477              	.L29:
 478              		.loc 6 263 0
 479 017e 1846     		mov	r0, r3
 480 0180 05B0     		add	sp, sp, #20
 481              		.cfi_def_cfa_offset 4
 482              		@ sp needed
 483 0182 5DF804FB 		ldr	pc, [sp], #4
 484              		.cfi_endproc
 485              	.LFE252:
 486              		.size	chRegFindThreadByWorkingArea, .-chRegFindThreadByWorkingArea
 487              	.Letext0:
 488              		.file 7 "/usr/lib/gcc/arm-none-eabi/4.9.3/include/stddef.h"
 489              		.file 8 "/usr/include/newlib/machine/_default_types.h"
 490              		.file 9 "/usr/include/newlib/sys/_stdint.h"
 491              		.file 10 "../../../os/common/ports/ARMCMx/compilers/GCC/chtypes.h"
 492              		.file 11 "../../../os/rt/include/chsystypes.h"
 493              		.file 12 "../../../os/rt/include/chschd.h"
 494              		.file 13 "../../../os/common/ports/ARMCMx/chcore.h"
 495              		.file 14 "../../../os/rt/include/chtm.h"
 496              		.file 15 "../../../os/rt/include/chsem.h"
 497              		.file 16 "../../../os/rt/include/chmtx.h"
 498              		.file 17 "../../../os/common/ext/CMSIS/include/core_cm4.h"