ARM GAS  /tmp/ccYIACCT.s 			page 1


   1              		.syntax unified
   2              		.cpu cortex-m4
   3              		.fpu softvfp
   4              		.eabi_attribute 20, 1
   5              		.eabi_attribute 21, 1
   6              		.eabi_attribute 23, 3
   7              		.eabi_attribute 24, 1
   8              		.eabi_attribute 25, 1
   9              		.eabi_attribute 26, 1
  10              		.eabi_attribute 30, 6
  11              		.eabi_attribute 34, 1
  12              		.eabi_attribute 18, 4
  13              		.thumb
  14              		.file	"chschd.c"
  15              		.text
  16              	.Ltext0:
  17              		.cfi_sections	.debug_frame
  18              		.align	2
  19              		.p2align 4,,15
  20              		.thumb
  21              		.thumb_func
  22              		.type	port_lock, %function
  23              	port_lock:
  24              	.LFB127:
  25              		.file 1 "../../../os/common/ports/ARMCMx/chcore_v7m.h"
  26              		.loc 1 594 0
  27              		.cfi_startproc
  28              		@ args = 0, pretend = 0, frame = 8
  29              		@ frame_needed = 0, uses_anonymous_args = 0
  30              		@ link register save eliminated.
  31 0000 82B0     		sub	sp, sp, #8
  32              		.cfi_def_cfa_offset 8
  33 0002 2023     		movs	r3, #32
  34 0004 0193     		str	r3, [sp, #4]
  35              	.LBB6:
  36              	.LBB7:
  37              		.file 2 "../../../os/common/ext/CMSIS/include/cmsis_gcc.h"
  38              		.loc 2 264 0
  39 0006 019B     		ldr	r3, [sp, #4]
  40              	@ 264 "../../../os/common/ext/CMSIS/include/cmsis_gcc.h" 1
  41 0008 83F31188 		MSR basepri, r3
  42              	@ 0 "" 2
  43              		.thumb
  44              	.LBE7:
  45              	.LBE6:
  46              		.loc 1 611 0
  47 000c 02B0     		add	sp, sp, #8
  48              		.cfi_def_cfa_offset 0
  49              		@ sp needed
  50 000e 7047     		bx	lr
  51              		.cfi_endproc
  52              	.LFE127:
  53              		.size	port_lock, .-port_lock
  54              		.align	2
  55              		.p2align 4,,15
  56              		.thumb
  57              		.thumb_func
ARM GAS  /tmp/ccYIACCT.s 			page 2


  58              		.type	port_unlock, %function
  59              	port_unlock:
  60              	.LFB128:
  61              		.loc 1 618 0
  62              		.cfi_startproc
  63              		@ args = 0, pretend = 0, frame = 8
  64              		@ frame_needed = 0, uses_anonymous_args = 0
  65              		@ link register save eliminated.
  66 0010 82B0     		sub	sp, sp, #8
  67              		.cfi_def_cfa_offset 8
  68 0012 0023     		movs	r3, #0
  69 0014 0193     		str	r3, [sp, #4]
  70              	.LBB8:
  71              	.LBB9:
  72              		.loc 2 264 0
  73 0016 019B     		ldr	r3, [sp, #4]
  74              	@ 264 "../../../os/common/ext/CMSIS/include/cmsis_gcc.h" 1
  75 0018 83F31188 		MSR basepri, r3
  76              	@ 0 "" 2
  77              		.thumb
  78              	.LBE9:
  79              	.LBE8:
  80              		.loc 1 625 0
  81 001c 02B0     		add	sp, sp, #8
  82              		.cfi_def_cfa_offset 0
  83              		@ sp needed
  84 001e 7047     		bx	lr
  85              		.cfi_endproc
  86              	.LFE128:
  87              		.size	port_unlock, .-port_unlock
  88              		.align	2
  89              		.p2align 4,,15
  90              		.thumb
  91              		.thumb_func
  92              		.type	port_lock_from_isr, %function
  93              	port_lock_from_isr:
  94              	.LFB129:
  95              		.loc 1 633 0
  96              		.cfi_startproc
  97              		@ args = 0, pretend = 0, frame = 0
  98              		@ frame_needed = 0, uses_anonymous_args = 0
  99 0020 08B5     		push	{r3, lr}
 100              		.cfi_def_cfa_offset 8
 101              		.cfi_offset 3, -8
 102              		.cfi_offset 14, -4
 103              		.loc 1 635 0
 104 0022 FFF7EDFF 		bl	port_lock
 105              		.loc 1 636 0
 106 0026 08BD     		pop	{r3, pc}
 107              		.cfi_endproc
 108              	.LFE129:
 109              		.size	port_lock_from_isr, .-port_lock_from_isr
 110              		.align	2
 111 0028 AFF30080 		.p2align 4,,15
 111      AFF30080 
 112              		.thumb
 113              		.thumb_func
ARM GAS  /tmp/ccYIACCT.s 			page 3


 114              		.type	port_unlock_from_isr, %function
 115              	port_unlock_from_isr:
 116              	.LFB130:
 117              		.loc 1 644 0
 118              		.cfi_startproc
 119              		@ args = 0, pretend = 0, frame = 0
 120              		@ frame_needed = 0, uses_anonymous_args = 0
 121 0030 08B5     		push	{r3, lr}
 122              		.cfi_def_cfa_offset 8
 123              		.cfi_offset 3, -8
 124              		.cfi_offset 14, -4
 125              		.loc 1 646 0
 126 0032 FFF7EDFF 		bl	port_unlock
 127              		.loc 1 647 0
 128 0036 08BD     		pop	{r3, pc}
 129              		.cfi_endproc
 130              	.LFE130:
 131              		.size	port_unlock_from_isr, .-port_unlock_from_isr
 132              		.align	2
 133 0038 AFF30080 		.p2align 4,,15
 133      AFF30080 
 134              		.thumb
 135              		.thumb_func
 136              		.type	queue_init, %function
 137              	queue_init:
 138              	.LFB150:
 139              		.file 3 "../../../os/rt/include/chschd.h"
 140              		.loc 3 548 0
 141              		.cfi_startproc
 142              		@ args = 0, pretend = 0, frame = 8
 143              		@ frame_needed = 0, uses_anonymous_args = 0
 144              		@ link register save eliminated.
 145 0040 82B0     		sub	sp, sp, #8
 146              		.cfi_def_cfa_offset 8
 147 0042 0190     		str	r0, [sp, #4]
 148              		.loc 3 550 0
 149 0044 019B     		ldr	r3, [sp, #4]
 150 0046 019A     		ldr	r2, [sp, #4]
 151 0048 1A60     		str	r2, [r3]
 152              		.loc 3 551 0
 153 004a 019B     		ldr	r3, [sp, #4]
 154 004c 019A     		ldr	r2, [sp, #4]
 155 004e 5A60     		str	r2, [r3, #4]
 156              		.loc 3 552 0
 157 0050 02B0     		add	sp, sp, #8
 158              		.cfi_def_cfa_offset 0
 159              		@ sp needed
 160 0052 7047     		bx	lr
 161              		.cfi_endproc
 162              	.LFE150:
 163              		.size	queue_init, .-queue_init
 164              		.align	2
 165 0054 AFF30080 		.p2align 4,,15
 165      AFF30080 
 165      AFF30080 
 166              		.thumb
 167              		.thumb_func
ARM GAS  /tmp/ccYIACCT.s 			page 4


 168              		.type	queue_fifo_remove, %function
 169              	queue_fifo_remove:
 170              	.LFB157:
 171              		.loc 3 617 0
 172              		.cfi_startproc
 173              		@ args = 0, pretend = 0, frame = 16
 174              		@ frame_needed = 0, uses_anonymous_args = 0
 175              		@ link register save eliminated.
 176 0060 84B0     		sub	sp, sp, #16
 177              		.cfi_def_cfa_offset 16
 178 0062 0190     		str	r0, [sp, #4]
 179              		.loc 3 618 0
 180 0064 019B     		ldr	r3, [sp, #4]
 181 0066 1B68     		ldr	r3, [r3]
 182 0068 0393     		str	r3, [sp, #12]
 183              		.loc 3 620 0
 184 006a 039B     		ldr	r3, [sp, #12]
 185 006c 1A68     		ldr	r2, [r3]
 186 006e 019B     		ldr	r3, [sp, #4]
 187 0070 1A60     		str	r2, [r3]
 188              		.loc 3 621 0
 189 0072 019B     		ldr	r3, [sp, #4]
 190 0074 1B68     		ldr	r3, [r3]
 191 0076 019A     		ldr	r2, [sp, #4]
 192 0078 5A60     		str	r2, [r3, #4]
 193              		.loc 3 623 0
 194 007a 039B     		ldr	r3, [sp, #12]
 195              		.loc 3 624 0
 196 007c 1846     		mov	r0, r3
 197 007e 04B0     		add	sp, sp, #16
 198              		.cfi_def_cfa_offset 0
 199              		@ sp needed
 200 0080 7047     		bx	lr
 201              		.cfi_endproc
 202              	.LFE157:
 203              		.size	queue_fifo_remove, .-queue_fifo_remove
 204 0082 00BF     		.align	2
 205 0084 AFF30080 		.p2align 4,,15
 205      AFF30080 
 205      AFF30080 
 206              		.thumb
 207              		.thumb_func
 208              		.type	queue_dequeue, %function
 209              	queue_dequeue:
 210              	.LFB159:
 211              		.loc 3 635 0
 212              		.cfi_startproc
 213              		@ args = 0, pretend = 0, frame = 8
 214              		@ frame_needed = 0, uses_anonymous_args = 0
 215              		@ link register save eliminated.
 216 0090 82B0     		sub	sp, sp, #8
 217              		.cfi_def_cfa_offset 8
 218 0092 0190     		str	r0, [sp, #4]
 219              		.loc 3 637 0
 220 0094 019B     		ldr	r3, [sp, #4]
 221 0096 5B68     		ldr	r3, [r3, #4]
 222 0098 019A     		ldr	r2, [sp, #4]
ARM GAS  /tmp/ccYIACCT.s 			page 5


 223 009a 1268     		ldr	r2, [r2]
 224 009c 1A60     		str	r2, [r3]
 225              		.loc 3 638 0
 226 009e 019B     		ldr	r3, [sp, #4]
 227 00a0 1B68     		ldr	r3, [r3]
 228 00a2 019A     		ldr	r2, [sp, #4]
 229 00a4 5268     		ldr	r2, [r2, #4]
 230 00a6 5A60     		str	r2, [r3, #4]
 231              		.loc 3 640 0
 232 00a8 019B     		ldr	r3, [sp, #4]
 233              		.loc 3 641 0
 234 00aa 1846     		mov	r0, r3
 235 00ac 02B0     		add	sp, sp, #8
 236              		.cfi_def_cfa_offset 0
 237              		@ sp needed
 238 00ae 7047     		bx	lr
 239              		.cfi_endproc
 240              	.LFE159:
 241              		.size	queue_dequeue, .-queue_dequeue
 242              		.align	2
 243              		.p2align 4,,15
 244              		.thumb
 245              		.thumb_func
 246              		.type	chSchIsRescRequiredI, %function
 247              	chSchIsRescRequiredI:
 248              	.LFB160:
 249              		.loc 3 655 0
 250              		.cfi_startproc
 251              		@ args = 0, pretend = 0, frame = 0
 252              		@ frame_needed = 0, uses_anonymous_args = 0
 253              		@ link register save eliminated.
 254              		.loc 3 659 0
 255 00b0 064B     		ldr	r3, .L12
 256 00b2 1B68     		ldr	r3, [r3]
 257 00b4 9A68     		ldr	r2, [r3, #8]
 258 00b6 054B     		ldr	r3, .L12
 259 00b8 9B69     		ldr	r3, [r3, #24]
 260 00ba 9B68     		ldr	r3, [r3, #8]
 261 00bc 9A42     		cmp	r2, r3
 262 00be 8CBF     		ite	hi
 263 00c0 0123     		movhi	r3, #1
 264 00c2 0023     		movls	r3, #0
 265 00c4 DBB2     		uxtb	r3, r3
 266              		.loc 3 660 0
 267 00c6 1846     		mov	r0, r3
 268 00c8 7047     		bx	lr
 269              	.L13:
 270 00ca 00BF     		.align	2
 271              	.L12:
 272 00cc 00000000 		.word	ch
 273              		.cfi_endproc
 274              	.LFE160:
 275              		.size	chSchIsRescRequiredI, .-chSchIsRescRequiredI
 276              		.align	2
 277              		.p2align 4,,15
 278              		.thumb
 279              		.thumb_func
ARM GAS  /tmp/ccYIACCT.s 			page 6


 280              		.type	chSysLockFromISR, %function
 281              	chSysLockFromISR:
 282              	.LFB169:
 283              		.file 4 "../../../os/rt/include/chsys.h"
 284              		.loc 4 414 0
 285              		.cfi_startproc
 286              		@ args = 0, pretend = 0, frame = 0
 287              		@ frame_needed = 0, uses_anonymous_args = 0
 288 00d0 08B5     		push	{r3, lr}
 289              		.cfi_def_cfa_offset 8
 290              		.cfi_offset 3, -8
 291              		.cfi_offset 14, -4
 292              		.loc 4 416 0
 293 00d2 FFF7A5FF 		bl	port_lock_from_isr
 294              		.loc 4 419 0
 295 00d6 08BD     		pop	{r3, pc}
 296              		.cfi_endproc
 297              	.LFE169:
 298              		.size	chSysLockFromISR, .-chSysLockFromISR
 299              		.align	2
 300 00d8 AFF30080 		.p2align 4,,15
 300      AFF30080 
 301              		.thumb
 302              		.thumb_func
 303              		.type	chSysUnlockFromISR, %function
 304              	chSysUnlockFromISR:
 305              	.LFB170:
 306              		.loc 4 434 0
 307              		.cfi_startproc
 308              		@ args = 0, pretend = 0, frame = 0
 309              		@ frame_needed = 0, uses_anonymous_args = 0
 310 00e0 08B5     		push	{r3, lr}
 311              		.cfi_def_cfa_offset 8
 312              		.cfi_offset 3, -8
 313              		.cfi_offset 14, -4
 314              		.loc 4 438 0
 315 00e2 FFF7A5FF 		bl	port_unlock_from_isr
 316              		.loc 4 439 0
 317 00e6 08BD     		pop	{r3, pc}
 318              		.cfi_endproc
 319              	.LFE170:
 320              		.size	chSysUnlockFromISR, .-chSysUnlockFromISR
 321              		.align	2
 322 00e8 AFF30080 		.p2align 4,,15
 322      AFF30080 
 323              		.thumb
 324              		.thumb_func
 325              		.type	chVTIsArmedI, %function
 326              	chVTIsArmedI:
 327              	.LFB188:
 328              		.file 5 "../../../os/rt/include/chvt.h"
 329              		.loc 5 537 0
 330              		.cfi_startproc
 331              		@ args = 0, pretend = 0, frame = 8
 332              		@ frame_needed = 0, uses_anonymous_args = 0
 333              		@ link register save eliminated.
 334 00f0 82B0     		sub	sp, sp, #8
ARM GAS  /tmp/ccYIACCT.s 			page 7


 335              		.cfi_def_cfa_offset 8
 336 00f2 0190     		str	r0, [sp, #4]
 337              		.loc 5 541 0
 338 00f4 019B     		ldr	r3, [sp, #4]
 339 00f6 DB68     		ldr	r3, [r3, #12]
 340 00f8 002B     		cmp	r3, #0
 341 00fa 14BF     		ite	ne
 342 00fc 0123     		movne	r3, #1
 343 00fe 0023     		moveq	r3, #0
 344 0100 DBB2     		uxtb	r3, r3
 345              		.loc 5 542 0
 346 0102 1846     		mov	r0, r3
 347 0104 02B0     		add	sp, sp, #8
 348              		.cfi_def_cfa_offset 0
 349              		@ sp needed
 350 0106 7047     		bx	lr
 351              		.cfi_endproc
 352              	.LFE188:
 353              		.size	chVTIsArmedI, .-chVTIsArmedI
 354              		.align	2
 355 0108 AFF30080 		.p2align 4,,15
 355      AFF30080 
 356              		.thumb
 357              		.thumb_func
 358              		.type	chSemFastSignalI, %function
 359              	chSemFastSignalI:
 360              	.LFB209:
 361              		.file 6 "../../../os/rt/include/chsem.h"
 362              		.loc 6 134 0
 363              		.cfi_startproc
 364              		@ args = 0, pretend = 0, frame = 8
 365              		@ frame_needed = 0, uses_anonymous_args = 0
 366              		@ link register save eliminated.
 367 0110 82B0     		sub	sp, sp, #8
 368              		.cfi_def_cfa_offset 8
 369 0112 0190     		str	r0, [sp, #4]
 370              		.loc 6 138 0
 371 0114 019B     		ldr	r3, [sp, #4]
 372 0116 9B68     		ldr	r3, [r3, #8]
 373 0118 5A1C     		adds	r2, r3, #1
 374 011a 019B     		ldr	r3, [sp, #4]
 375 011c 9A60     		str	r2, [r3, #8]
 376              		.loc 6 139 0
 377 011e 02B0     		add	sp, sp, #8
 378              		.cfi_def_cfa_offset 0
 379              		@ sp needed
 380 0120 7047     		bx	lr
 381              		.cfi_endproc
 382              	.LFE209:
 383              		.size	chSemFastSignalI, .-chSemFastSignalI
 384              		.comm	ch,120,4
 385 0122 00BF     		.align	2
 386 0124 AFF30080 		.p2align 4,,15
 386      AFF30080 
 386      AFF30080 
 387              		.global	_scheduler_init
 388              		.thumb
ARM GAS  /tmp/ccYIACCT.s 			page 8


 389              		.thumb_func
 390              		.type	_scheduler_init, %function
 391              	_scheduler_init:
 392              	.LFB248:
 393              		.file 7 "../../../os/rt/src/chschd.c"
 394              		.loc 7 65 0
 395              		.cfi_startproc
 396              		@ args = 0, pretend = 0, frame = 0
 397              		@ frame_needed = 0, uses_anonymous_args = 0
 398 0130 08B5     		push	{r3, lr}
 399              		.cfi_def_cfa_offset 8
 400              		.cfi_offset 3, -8
 401              		.cfi_offset 14, -4
 402              		.loc 7 67 0
 403 0132 0648     		ldr	r0, .L20
 404 0134 FFF784FF 		bl	queue_init
 405              		.loc 7 68 0
 406 0138 044B     		ldr	r3, .L20
 407 013a 0022     		movs	r2, #0
 408 013c 9A60     		str	r2, [r3, #8]
 409              		.loc 7 70 0
 410 013e 034B     		ldr	r3, .L20
 411 0140 024A     		ldr	r2, .L20
 412 0142 1A61     		str	r2, [r3, #16]
 413              		.loc 7 71 0
 414 0144 014B     		ldr	r3, .L20
 415 0146 014A     		ldr	r2, .L20
 416 0148 5A61     		str	r2, [r3, #20]
 417              		.loc 7 73 0
 418 014a 08BD     		pop	{r3, pc}
 419              	.L21:
 420              		.align	2
 421              	.L20:
 422 014c 00000000 		.word	ch
 423              		.cfi_endproc
 424              	.LFE248:
 425              		.size	_scheduler_init, .-_scheduler_init
 426              		.align	2
 427              		.p2align 4,,15
 428              		.global	chSchReadyI
 429              		.thumb
 430              		.thumb_func
 431              		.type	chSchReadyI, %function
 432              	chSchReadyI:
 433              	.LFB249:
 434              		.loc 7 218 0
 435              		.cfi_startproc
 436              		@ args = 0, pretend = 0, frame = 16
 437              		@ frame_needed = 0, uses_anonymous_args = 0
 438              		@ link register save eliminated.
 439 0150 84B0     		sub	sp, sp, #16
 440              		.cfi_def_cfa_offset 16
 441 0152 0190     		str	r0, [sp, #4]
 442              		.loc 7 227 0
 443 0154 019B     		ldr	r3, [sp, #4]
 444 0156 0022     		movs	r2, #0
 445 0158 83F82020 		strb	r2, [r3, #32]
ARM GAS  /tmp/ccYIACCT.s 			page 9


 446              		.loc 7 228 0
 447 015c 0E4B     		ldr	r3, .L25
 448 015e 0393     		str	r3, [sp, #12]
 449              	.L23:
 450              		.loc 7 230 0 discriminator 1
 451 0160 039B     		ldr	r3, [sp, #12]
 452 0162 1B68     		ldr	r3, [r3]
 453 0164 0393     		str	r3, [sp, #12]
 454              		.loc 7 231 0 discriminator 1
 455 0166 039B     		ldr	r3, [sp, #12]
 456 0168 9A68     		ldr	r2, [r3, #8]
 457 016a 019B     		ldr	r3, [sp, #4]
 458 016c 9B68     		ldr	r3, [r3, #8]
 459 016e 9A42     		cmp	r2, r3
 460 0170 F6D2     		bcs	.L23
 461              		.loc 7 233 0
 462 0172 019B     		ldr	r3, [sp, #4]
 463 0174 039A     		ldr	r2, [sp, #12]
 464 0176 1A60     		str	r2, [r3]
 465              		.loc 7 234 0
 466 0178 039B     		ldr	r3, [sp, #12]
 467 017a 5A68     		ldr	r2, [r3, #4]
 468 017c 019B     		ldr	r3, [sp, #4]
 469 017e 5A60     		str	r2, [r3, #4]
 470              		.loc 7 235 0
 471 0180 019B     		ldr	r3, [sp, #4]
 472 0182 5B68     		ldr	r3, [r3, #4]
 473 0184 019A     		ldr	r2, [sp, #4]
 474 0186 1A60     		str	r2, [r3]
 475              		.loc 7 236 0
 476 0188 039B     		ldr	r3, [sp, #12]
 477 018a 019A     		ldr	r2, [sp, #4]
 478 018c 5A60     		str	r2, [r3, #4]
 479              		.loc 7 238 0
 480 018e 019B     		ldr	r3, [sp, #4]
 481              		.loc 7 239 0
 482 0190 1846     		mov	r0, r3
 483 0192 04B0     		add	sp, sp, #16
 484              		.cfi_def_cfa_offset 0
 485              		@ sp needed
 486 0194 7047     		bx	lr
 487              	.L26:
 488 0196 00BF     		.align	2
 489              	.L25:
 490 0198 00000000 		.word	ch
 491              		.cfi_endproc
 492              	.LFE249:
 493              		.size	chSchReadyI, .-chSchReadyI
 494              		.align	2
 495 019c AFF30080 		.p2align 4,,15
 496              		.global	chSchReadyAheadI
 497              		.thumb
 498              		.thumb_func
 499              		.type	chSchReadyAheadI, %function
 500              	chSchReadyAheadI:
 501              	.LFB250:
 502              		.loc 7 257 0
ARM GAS  /tmp/ccYIACCT.s 			page 10


 503              		.cfi_startproc
 504              		@ args = 0, pretend = 0, frame = 16
 505              		@ frame_needed = 0, uses_anonymous_args = 0
 506              		@ link register save eliminated.
 507 01a0 84B0     		sub	sp, sp, #16
 508              		.cfi_def_cfa_offset 16
 509 01a2 0190     		str	r0, [sp, #4]
 510              		.loc 7 266 0
 511 01a4 019B     		ldr	r3, [sp, #4]
 512 01a6 0022     		movs	r2, #0
 513 01a8 83F82020 		strb	r2, [r3, #32]
 514              		.loc 7 267 0
 515 01ac 0E4B     		ldr	r3, .L30
 516 01ae 0393     		str	r3, [sp, #12]
 517              	.L28:
 518              		.loc 7 269 0 discriminator 1
 519 01b0 039B     		ldr	r3, [sp, #12]
 520 01b2 1B68     		ldr	r3, [r3]
 521 01b4 0393     		str	r3, [sp, #12]
 522              		.loc 7 270 0 discriminator 1
 523 01b6 039B     		ldr	r3, [sp, #12]
 524 01b8 9A68     		ldr	r2, [r3, #8]
 525 01ba 019B     		ldr	r3, [sp, #4]
 526 01bc 9B68     		ldr	r3, [r3, #8]
 527 01be 9A42     		cmp	r2, r3
 528 01c0 F6D8     		bhi	.L28
 529              		.loc 7 272 0
 530 01c2 019B     		ldr	r3, [sp, #4]
 531 01c4 039A     		ldr	r2, [sp, #12]
 532 01c6 1A60     		str	r2, [r3]
 533              		.loc 7 273 0
 534 01c8 039B     		ldr	r3, [sp, #12]
 535 01ca 5A68     		ldr	r2, [r3, #4]
 536 01cc 019B     		ldr	r3, [sp, #4]
 537 01ce 5A60     		str	r2, [r3, #4]
 538              		.loc 7 274 0
 539 01d0 019B     		ldr	r3, [sp, #4]
 540 01d2 5B68     		ldr	r3, [r3, #4]
 541 01d4 019A     		ldr	r2, [sp, #4]
 542 01d6 1A60     		str	r2, [r3]
 543              		.loc 7 275 0
 544 01d8 039B     		ldr	r3, [sp, #12]
 545 01da 019A     		ldr	r2, [sp, #4]
 546 01dc 5A60     		str	r2, [r3, #4]
 547              		.loc 7 277 0
 548 01de 019B     		ldr	r3, [sp, #4]
 549              		.loc 7 278 0
 550 01e0 1846     		mov	r0, r3
 551 01e2 04B0     		add	sp, sp, #16
 552              		.cfi_def_cfa_offset 0
 553              		@ sp needed
 554 01e4 7047     		bx	lr
 555              	.L31:
 556 01e6 00BF     		.align	2
 557              	.L30:
 558 01e8 00000000 		.word	ch
 559              		.cfi_endproc
ARM GAS  /tmp/ccYIACCT.s 			page 11


 560              	.LFE250:
 561              		.size	chSchReadyAheadI, .-chSchReadyAheadI
 562              		.align	2
 563 01ec AFF30080 		.p2align 4,,15
 564              		.global	chSchGoSleepS
 565              		.thumb
 566              		.thumb_func
 567              		.type	chSchGoSleepS, %function
 568              	chSchGoSleepS:
 569              	.LFB251:
 570              		.loc 7 289 0
 571              		.cfi_startproc
 572              		@ args = 0, pretend = 0, frame = 16
 573              		@ frame_needed = 0, uses_anonymous_args = 0
 574 01f0 00B5     		push	{lr}
 575              		.cfi_def_cfa_offset 4
 576              		.cfi_offset 14, -4
 577 01f2 85B0     		sub	sp, sp, #20
 578              		.cfi_def_cfa_offset 24
 579 01f4 0346     		mov	r3, r0
 580 01f6 8DF80730 		strb	r3, [sp, #7]
 581              		.loc 7 290 0
 582 01fa 0E4B     		ldr	r3, .L33
 583 01fc 9B69     		ldr	r3, [r3, #24]
 584 01fe 0393     		str	r3, [sp, #12]
 585              		.loc 7 295 0
 586 0200 039B     		ldr	r3, [sp, #12]
 587 0202 9DF80720 		ldrb	r2, [sp, #7]
 588 0206 83F82020 		strb	r2, [r3, #32]
 589              		.loc 7 304 0
 590 020a 0A48     		ldr	r0, .L33
 591 020c FFF728FF 		bl	queue_fifo_remove
 592 0210 0246     		mov	r2, r0
 593 0212 084B     		ldr	r3, .L33
 594 0214 9A61     		str	r2, [r3, #24]
 595              		.loc 7 305 0
 596 0216 074B     		ldr	r3, .L33
 597 0218 9B69     		ldr	r3, [r3, #24]
 598 021a 0122     		movs	r2, #1
 599 021c 83F82020 		strb	r2, [r3, #32]
 600              		.loc 7 313 0
 601 0220 044B     		ldr	r3, .L33
 602 0222 9B69     		ldr	r3, [r3, #24]
 603 0224 1846     		mov	r0, r3
 604 0226 0399     		ldr	r1, [sp, #12]
 605 0228 FFF7FEFF 		bl	_port_switch
 606              		.loc 7 314 0
 607 022c 05B0     		add	sp, sp, #20
 608              		.cfi_def_cfa_offset 4
 609              		@ sp needed
 610 022e 5DF804FB 		ldr	pc, [sp], #4
 611              	.L34:
 612 0232 00BF     		.align	2
 613              	.L33:
 614 0234 00000000 		.word	ch
 615              		.cfi_endproc
 616              	.LFE251:
ARM GAS  /tmp/ccYIACCT.s 			page 12


 617              		.size	chSchGoSleepS, .-chSchGoSleepS
 618              		.align	2
 619 0238 AFF30080 		.p2align 4,,15
 619      AFF30080 
 620              		.thumb
 621              		.thumb_func
 622              		.type	wakeup, %function
 623              	wakeup:
 624              	.LFB252:
 625              		.loc 7 319 0
 626              		.cfi_startproc
 627              		@ args = 0, pretend = 0, frame = 16
 628              		@ frame_needed = 0, uses_anonymous_args = 0
 629 0240 00B5     		push	{lr}
 630              		.cfi_def_cfa_offset 4
 631              		.cfi_offset 14, -4
 632 0242 85B0     		sub	sp, sp, #20
 633              		.cfi_def_cfa_offset 24
 634 0244 0190     		str	r0, [sp, #4]
 635              		.loc 7 320 0
 636 0246 019B     		ldr	r3, [sp, #4]
 637 0248 0393     		str	r3, [sp, #12]
 638              		.loc 7 322 0
 639 024a FFF741FF 		bl	chSysLockFromISR
 640              		.loc 7 323 0
 641 024e 039B     		ldr	r3, [sp, #12]
 642 0250 93F82030 		ldrb	r3, [r3, #32]	@ zero_extendqisi2
 643 0254 072B     		cmp	r3, #7
 644 0256 24D8     		bhi	.L44
 645 0258 01A2     		adr	r2, .L38
 646 025a 52F823F0 		ldr	pc, [r2, r3, lsl #2]
 647 025e 00BF     		.p2align 2
 648              	.L38:
 649 0260 81020000 		.word	.L37+1
 650 0264 A3020000 		.word	.L44+1
 651 0268 A3020000 		.word	.L44+1
 652 026c 87020000 		.word	.L39+1
 653 0270 9B020000 		.word	.L40+1
 654 0274 91020000 		.word	.L41+1
 655 0278 A3020000 		.word	.L44+1
 656 027c 9B020000 		.word	.L40+1
 657              		.p2align 1
 658              	.L37:
 659              		.loc 7 327 0
 660 0280 FFF72EFF 		bl	chSysUnlockFromISR
 661              		.loc 7 328 0
 662 0284 17E0     		b	.L35
 663              	.L39:
 664              		.loc 7 330 0
 665 0286 039B     		ldr	r3, [sp, #12]
 666 0288 5B6A     		ldr	r3, [r3, #36]
 667 028a 0022     		movs	r2, #0
 668 028c 1A60     		str	r2, [r3]
 669              		.loc 7 331 0
 670 028e 09E0     		b	.L43
 671              	.L41:
 672              		.loc 7 334 0
ARM GAS  /tmp/ccYIACCT.s 			page 13


 673 0290 039B     		ldr	r3, [sp, #12]
 674 0292 5B6A     		ldr	r3, [r3, #36]
 675 0294 1846     		mov	r0, r3
 676 0296 FFF73BFF 		bl	chSemFastSignalI
 677              	.L40:
 678              		.loc 7 342 0
 679 029a 0398     		ldr	r0, [sp, #12]
 680 029c FFF7F8FE 		bl	queue_dequeue
 681              		.loc 7 343 0
 682 02a0 00E0     		b	.L43
 683              	.L44:
 684              		.loc 7 346 0
 685 02a2 00BF     		nop
 686              	.L43:
 687              		.loc 7 348 0
 688 02a4 039B     		ldr	r3, [sp, #12]
 689 02a6 4FF0FF32 		mov	r2, #-1
 690 02aa 5A62     		str	r2, [r3, #36]
 691              		.loc 7 349 0
 692 02ac 0398     		ldr	r0, [sp, #12]
 693 02ae FFF7FEFF 		bl	chSchReadyI
 694              		.loc 7 350 0
 695 02b2 FFF715FF 		bl	chSysUnlockFromISR
 696              	.L35:
 697              		.loc 7 351 0
 698 02b6 05B0     		add	sp, sp, #20
 699              		.cfi_def_cfa_offset 4
 700              		@ sp needed
 701 02b8 5DF804FB 		ldr	pc, [sp], #4
 702              		.cfi_endproc
 703              	.LFE252:
 704              		.size	wakeup, .-wakeup
 705              		.align	2
 706 02bc AFF30080 		.p2align 4,,15
 707              		.global	chSchGoSleepTimeoutS
 708              		.thumb
 709              		.thumb_func
 710              		.type	chSchGoSleepTimeoutS, %function
 711              	chSchGoSleepTimeoutS:
 712              	.LFB253:
 713              		.loc 7 374 0
 714              		.cfi_startproc
 715              		@ args = 0, pretend = 0, frame = 32
 716              		@ frame_needed = 0, uses_anonymous_args = 0
 717 02c0 00B5     		push	{lr}
 718              		.cfi_def_cfa_offset 4
 719              		.cfi_offset 14, -4
 720 02c2 89B0     		sub	sp, sp, #36
 721              		.cfi_def_cfa_offset 40
 722 02c4 0346     		mov	r3, r0
 723 02c6 0091     		str	r1, [sp]
 724 02c8 8DF80730 		strb	r3, [sp, #7]
 725              		.loc 7 378 0
 726 02cc 009B     		ldr	r3, [sp]
 727 02ce B3F1FF3F 		cmp	r3, #-1
 728 02d2 19D0     		beq	.L46
 729              	.LBB10:
ARM GAS  /tmp/ccYIACCT.s 			page 14


 730              		.loc 7 381 0
 731 02d4 124B     		ldr	r3, .L50
 732 02d6 9B69     		ldr	r3, [r3, #24]
 733 02d8 03AA     		add	r2, sp, #12
 734 02da 1046     		mov	r0, r2
 735 02dc 0099     		ldr	r1, [sp]
 736 02de 114A     		ldr	r2, .L50+4
 737 02e0 FFF7FEFF 		bl	chVTDoSetI
 738              		.loc 7 382 0
 739 02e4 9DF80730 		ldrb	r3, [sp, #7]	@ zero_extendqisi2
 740 02e8 1846     		mov	r0, r3
 741 02ea FFF7FEFF 		bl	chSchGoSleepS
 742              		.loc 7 383 0
 743 02ee 03AB     		add	r3, sp, #12
 744 02f0 1846     		mov	r0, r3
 745 02f2 FFF7FDFE 		bl	chVTIsArmedI
 746 02f6 0346     		mov	r3, r0
 747 02f8 002B     		cmp	r3, #0
 748 02fa 04D0     		beq	.L47
 749              		.loc 7 384 0
 750 02fc 03AB     		add	r3, sp, #12
 751 02fe 1846     		mov	r0, r3
 752 0300 FFF7FEFF 		bl	chVTDoResetI
 753              	.LBE10:
 754 0304 05E0     		b	.L48
 755              	.L47:
 756 0306 04E0     		b	.L48
 757              	.L46:
 758              		.loc 7 388 0
 759 0308 9DF80730 		ldrb	r3, [sp, #7]	@ zero_extendqisi2
 760 030c 1846     		mov	r0, r3
 761 030e FFF7FEFF 		bl	chSchGoSleepS
 762              	.L48:
 763              		.loc 7 391 0
 764 0312 034B     		ldr	r3, .L50
 765 0314 9B69     		ldr	r3, [r3, #24]
 766 0316 5B6A     		ldr	r3, [r3, #36]
 767              		.loc 7 392 0
 768 0318 1846     		mov	r0, r3
 769 031a 09B0     		add	sp, sp, #36
 770              		.cfi_def_cfa_offset 4
 771              		@ sp needed
 772 031c 5DF804FB 		ldr	pc, [sp], #4
 773              	.L51:
 774              		.align	2
 775              	.L50:
 776 0320 00000000 		.word	ch
 777 0324 00000000 		.word	wakeup
 778              		.cfi_endproc
 779              	.LFE253:
 780              		.size	chSchGoSleepTimeoutS, .-chSchGoSleepTimeoutS
 781              		.align	2
 782 0328 AFF30080 		.p2align 4,,15
 782      AFF30080 
 783              		.global	chSchWakeupS
 784              		.thumb
 785              		.thumb_func
ARM GAS  /tmp/ccYIACCT.s 			page 15


 786              		.type	chSchWakeupS, %function
 787              	chSchWakeupS:
 788              	.LFB254:
 789              		.loc 7 411 0
 790              		.cfi_startproc
 791              		@ args = 0, pretend = 0, frame = 16
 792              		@ frame_needed = 0, uses_anonymous_args = 0
 793 0330 00B5     		push	{lr}
 794              		.cfi_def_cfa_offset 4
 795              		.cfi_offset 14, -4
 796 0332 85B0     		sub	sp, sp, #20
 797              		.cfi_def_cfa_offset 24
 798 0334 0190     		str	r0, [sp, #4]
 799 0336 0091     		str	r1, [sp]
 800              		.loc 7 412 0
 801 0338 104B     		ldr	r3, .L55
 802 033a 9B69     		ldr	r3, [r3, #24]
 803 033c 0393     		str	r3, [sp, #12]
 804              		.loc 7 422 0
 805 033e 019B     		ldr	r3, [sp, #4]
 806 0340 009A     		ldr	r2, [sp]
 807 0342 5A62     		str	r2, [r3, #36]
 808              		.loc 7 428 0
 809 0344 019B     		ldr	r3, [sp, #4]
 810 0346 9A68     		ldr	r2, [r3, #8]
 811 0348 039B     		ldr	r3, [sp, #12]
 812 034a 9B68     		ldr	r3, [r3, #8]
 813 034c 9A42     		cmp	r2, r3
 814 034e 03D8     		bhi	.L53
 815              		.loc 7 429 0
 816 0350 0198     		ldr	r0, [sp, #4]
 817 0352 FFF7FEFF 		bl	chSchReadyI
 818 0356 0EE0     		b	.L52
 819              	.L53:
 820              		.loc 7 432 0
 821 0358 0398     		ldr	r0, [sp, #12]
 822 035a FFF7FEFF 		bl	chSchReadyI
 823 035e 0390     		str	r0, [sp, #12]
 824              		.loc 7 440 0
 825 0360 064A     		ldr	r2, .L55
 826 0362 019B     		ldr	r3, [sp, #4]
 827 0364 9361     		str	r3, [r2, #24]
 828              		.loc 7 441 0
 829 0366 019B     		ldr	r3, [sp, #4]
 830 0368 0122     		movs	r2, #1
 831 036a 83F82020 		strb	r2, [r3, #32]
 832              		.loc 7 444 0
 833 036e 0198     		ldr	r0, [sp, #4]
 834 0370 0399     		ldr	r1, [sp, #12]
 835 0372 FFF7FEFF 		bl	_port_switch
 836              	.L52:
 837              		.loc 7 446 0
 838 0376 05B0     		add	sp, sp, #20
 839              		.cfi_def_cfa_offset 4
 840              		@ sp needed
 841 0378 5DF804FB 		ldr	pc, [sp], #4
 842              	.L56:
ARM GAS  /tmp/ccYIACCT.s 			page 16


 843              		.align	2
 844              	.L55:
 845 037c 00000000 		.word	ch
 846              		.cfi_endproc
 847              	.LFE254:
 848              		.size	chSchWakeupS, .-chSchWakeupS
 849              		.align	2
 850              		.p2align 4,,15
 851              		.global	chSchRescheduleS
 852              		.thumb
 853              		.thumb_func
 854              		.type	chSchRescheduleS, %function
 855              	chSchRescheduleS:
 856              	.LFB255:
 857              		.loc 7 455 0
 858              		.cfi_startproc
 859              		@ args = 0, pretend = 0, frame = 0
 860              		@ frame_needed = 0, uses_anonymous_args = 0
 861 0380 08B5     		push	{r3, lr}
 862              		.cfi_def_cfa_offset 8
 863              		.cfi_offset 3, -8
 864              		.cfi_offset 14, -4
 865              		.loc 7 459 0
 866 0382 FFF795FE 		bl	chSchIsRescRequiredI
 867 0386 0346     		mov	r3, r0
 868 0388 002B     		cmp	r3, #0
 869 038a 01D0     		beq	.L57
 870              		.loc 7 460 0
 871 038c FFF7FEFF 		bl	chSchDoRescheduleAhead
 872              	.L57:
 873              		.loc 7 462 0
 874 0390 08BD     		pop	{r3, pc}
 875              		.cfi_endproc
 876              	.LFE255:
 877              		.size	chSchRescheduleS, .-chSchRescheduleS
 878 0392 00BF     		.align	2
 879 0394 AFF30080 		.p2align 4,,15
 879      AFF30080 
 879      AFF30080 
 880              		.global	chSchIsPreemptionRequired
 881              		.thumb
 882              		.thumb_func
 883              		.type	chSchIsPreemptionRequired, %function
 884              	chSchIsPreemptionRequired:
 885              	.LFB256:
 886              		.loc 7 477 0
 887              		.cfi_startproc
 888              		@ args = 0, pretend = 0, frame = 8
 889              		@ frame_needed = 0, uses_anonymous_args = 0
 890              		@ link register save eliminated.
 891 03a0 82B0     		sub	sp, sp, #8
 892              		.cfi_def_cfa_offset 8
 893              		.loc 7 478 0
 894 03a2 094B     		ldr	r3, .L61
 895 03a4 1B68     		ldr	r3, [r3]
 896 03a6 9B68     		ldr	r3, [r3, #8]
 897 03a8 0193     		str	r3, [sp, #4]
ARM GAS  /tmp/ccYIACCT.s 			page 17


 898              		.loc 7 479 0
 899 03aa 074B     		ldr	r3, .L61
 900 03ac 9B69     		ldr	r3, [r3, #24]
 901 03ae 9B68     		ldr	r3, [r3, #8]
 902 03b0 0093     		str	r3, [sp]
 903              		.loc 7 490 0
 904 03b2 019A     		ldr	r2, [sp, #4]
 905 03b4 009B     		ldr	r3, [sp]
 906 03b6 9A42     		cmp	r2, r3
 907 03b8 8CBF     		ite	hi
 908 03ba 0123     		movhi	r3, #1
 909 03bc 0023     		movls	r3, #0
 910 03be DBB2     		uxtb	r3, r3
 911              		.loc 7 492 0
 912 03c0 1846     		mov	r0, r3
 913 03c2 02B0     		add	sp, sp, #8
 914              		.cfi_def_cfa_offset 0
 915              		@ sp needed
 916 03c4 7047     		bx	lr
 917              	.L62:
 918 03c6 00BF     		.align	2
 919              	.L61:
 920 03c8 00000000 		.word	ch
 921              		.cfi_endproc
 922              	.LFE256:
 923              		.size	chSchIsPreemptionRequired, .-chSchIsPreemptionRequired
 924              		.align	2
 925 03cc AFF30080 		.p2align 4,,15
 926              		.global	chSchDoRescheduleBehind
 927              		.thumb
 928              		.thumb_func
 929              		.type	chSchDoRescheduleBehind, %function
 930              	chSchDoRescheduleBehind:
 931              	.LFB257:
 932              		.loc 7 504 0
 933              		.cfi_startproc
 934              		@ args = 0, pretend = 0, frame = 8
 935              		@ frame_needed = 0, uses_anonymous_args = 0
 936 03d0 00B5     		push	{lr}
 937              		.cfi_def_cfa_offset 4
 938              		.cfi_offset 14, -4
 939 03d2 83B0     		sub	sp, sp, #12
 940              		.cfi_def_cfa_offset 16
 941              		.loc 7 505 0
 942 03d4 0D4B     		ldr	r3, .L64
 943 03d6 9B69     		ldr	r3, [r3, #24]
 944 03d8 0193     		str	r3, [sp, #4]
 945              		.loc 7 508 0
 946 03da 0C48     		ldr	r0, .L64
 947 03dc FFF740FE 		bl	queue_fifo_remove
 948 03e0 0246     		mov	r2, r0
 949 03e2 0A4B     		ldr	r3, .L64
 950 03e4 9A61     		str	r2, [r3, #24]
 951              		.loc 7 509 0
 952 03e6 094B     		ldr	r3, .L64
 953 03e8 9B69     		ldr	r3, [r3, #24]
 954 03ea 0122     		movs	r2, #1
ARM GAS  /tmp/ccYIACCT.s 			page 18


 955 03ec 83F82020 		strb	r2, [r3, #32]
 956              		.loc 7 522 0
 957 03f0 0198     		ldr	r0, [sp, #4]
 958 03f2 FFF7FEFF 		bl	chSchReadyI
 959 03f6 0190     		str	r0, [sp, #4]
 960              		.loc 7 525 0
 961 03f8 044B     		ldr	r3, .L64
 962 03fa 9B69     		ldr	r3, [r3, #24]
 963 03fc 1846     		mov	r0, r3
 964 03fe 0199     		ldr	r1, [sp, #4]
 965 0400 FFF7FEFF 		bl	_port_switch
 966              		.loc 7 526 0
 967 0404 03B0     		add	sp, sp, #12
 968              		.cfi_def_cfa_offset 4
 969              		@ sp needed
 970 0406 5DF804FB 		ldr	pc, [sp], #4
 971              	.L65:
 972 040a 00BF     		.align	2
 973              	.L64:
 974 040c 00000000 		.word	ch
 975              		.cfi_endproc
 976              	.LFE257:
 977              		.size	chSchDoRescheduleBehind, .-chSchDoRescheduleBehind
 978              		.align	2
 979              		.p2align 4,,15
 980              		.global	chSchDoRescheduleAhead
 981              		.thumb
 982              		.thumb_func
 983              		.type	chSchDoRescheduleAhead, %function
 984              	chSchDoRescheduleAhead:
 985              	.LFB258:
 986              		.loc 7 537 0
 987              		.cfi_startproc
 988              		@ args = 0, pretend = 0, frame = 8
 989              		@ frame_needed = 0, uses_anonymous_args = 0
 990 0410 00B5     		push	{lr}
 991              		.cfi_def_cfa_offset 4
 992              		.cfi_offset 14, -4
 993 0412 83B0     		sub	sp, sp, #12
 994              		.cfi_def_cfa_offset 16
 995              		.loc 7 538 0
 996 0414 0D4B     		ldr	r3, .L67
 997 0416 9B69     		ldr	r3, [r3, #24]
 998 0418 0193     		str	r3, [sp, #4]
 999              		.loc 7 541 0
 1000 041a 0C48     		ldr	r0, .L67
 1001 041c FFF720FE 		bl	queue_fifo_remove
 1002 0420 0246     		mov	r2, r0
 1003 0422 0A4B     		ldr	r3, .L67
 1004 0424 9A61     		str	r2, [r3, #24]
 1005              		.loc 7 542 0
 1006 0426 094B     		ldr	r3, .L67
 1007 0428 9B69     		ldr	r3, [r3, #24]
 1008 042a 0122     		movs	r2, #1
 1009 042c 83F82020 		strb	r2, [r3, #32]
 1010              		.loc 7 550 0
 1011 0430 0198     		ldr	r0, [sp, #4]
ARM GAS  /tmp/ccYIACCT.s 			page 19


 1012 0432 FFF7FEFF 		bl	chSchReadyAheadI
 1013 0436 0190     		str	r0, [sp, #4]
 1014              		.loc 7 553 0
 1015 0438 044B     		ldr	r3, .L67
 1016 043a 9B69     		ldr	r3, [r3, #24]
 1017 043c 1846     		mov	r0, r3
 1018 043e 0199     		ldr	r1, [sp, #4]
 1019 0440 FFF7FEFF 		bl	_port_switch
 1020              		.loc 7 554 0
 1021 0444 03B0     		add	sp, sp, #12
 1022              		.cfi_def_cfa_offset 4
 1023              		@ sp needed
 1024 0446 5DF804FB 		ldr	pc, [sp], #4
 1025              	.L68:
 1026 044a 00BF     		.align	2
 1027              	.L67:
 1028 044c 00000000 		.word	ch
 1029              		.cfi_endproc
 1030              	.LFE258:
 1031              		.size	chSchDoRescheduleAhead, .-chSchDoRescheduleAhead
 1032              		.align	2
 1033              		.p2align 4,,15
 1034              		.global	chSchDoReschedule
 1035              		.thumb
 1036              		.thumb_func
 1037              		.type	chSchDoReschedule, %function
 1038              	chSchDoReschedule:
 1039              	.LFB259:
 1040              		.loc 7 566 0
 1041              		.cfi_startproc
 1042              		@ args = 0, pretend = 0, frame = 8
 1043              		@ frame_needed = 0, uses_anonymous_args = 0
 1044 0450 00B5     		push	{lr}
 1045              		.cfi_def_cfa_offset 4
 1046              		.cfi_offset 14, -4
 1047 0452 83B0     		sub	sp, sp, #12
 1048              		.cfi_def_cfa_offset 16
 1049              		.loc 7 567 0
 1050 0454 0D4B     		ldr	r3, .L70
 1051 0456 9B69     		ldr	r3, [r3, #24]
 1052 0458 0193     		str	r3, [sp, #4]
 1053              		.loc 7 570 0
 1054 045a 0C48     		ldr	r0, .L70
 1055 045c FFF700FE 		bl	queue_fifo_remove
 1056 0460 0246     		mov	r2, r0
 1057 0462 0A4B     		ldr	r3, .L70
 1058 0464 9A61     		str	r2, [r3, #24]
 1059              		.loc 7 571 0
 1060 0466 094B     		ldr	r3, .L70
 1061 0468 9B69     		ldr	r3, [r3, #24]
 1062 046a 0122     		movs	r2, #1
 1063 046c 83F82020 		strb	r2, [r3, #32]
 1064              		.loc 7 598 0
 1065 0470 0198     		ldr	r0, [sp, #4]
 1066 0472 FFF7FEFF 		bl	chSchReadyAheadI
 1067 0476 0190     		str	r0, [sp, #4]
 1068              		.loc 7 602 0
ARM GAS  /tmp/ccYIACCT.s 			page 20


 1069 0478 044B     		ldr	r3, .L70
 1070 047a 9B69     		ldr	r3, [r3, #24]
 1071 047c 1846     		mov	r0, r3
 1072 047e 0199     		ldr	r1, [sp, #4]
 1073 0480 FFF7FEFF 		bl	_port_switch
 1074              		.loc 7 603 0
 1075 0484 03B0     		add	sp, sp, #12
 1076              		.cfi_def_cfa_offset 4
 1077              		@ sp needed
 1078 0486 5DF804FB 		ldr	pc, [sp], #4
 1079              	.L71:
 1080 048a 00BF     		.align	2
 1081              	.L70:
 1082 048c 00000000 		.word	ch
 1083              		.cfi_endproc
 1084              	.LFE259:
 1085              		.size	chSchDoReschedule, .-chSchDoReschedule
 1086              	.Letext0:
 1087              		.file 8 "/usr/include/newlib/machine/_default_types.h"
 1088              		.file 9 "/usr/include/newlib/sys/_stdint.h"
 1089              		.file 10 "../../../os/common/ports/ARMCMx/compilers/GCC/chtypes.h"
 1090              		.file 11 "../../../os/rt/include/chsystypes.h"
 1091              		.file 12 "../../../os/common/ports/ARMCMx/chcore.h"
 1092              		.file 13 "../../../os/rt/include/chtm.h"
 1093              		.file 14 "../../../os/rt/include/chmtx.h"
 1094              		.file 15 "../../../os/common/ext/CMSIS/include/core_cm4.h"