ARM GAS  /tmp/ccYIACCT.s 			page 1


   1              		.syntax unified
   2              		.cpu cortex-m4
   3              		.fpu softvfp
   4              		.eabi_attribute 20, 1
   5              		.eabi_attribute 21, 1
   6              		.eabi_attribute 23, 3
   7              		.eabi_attribute 24, 1
   8              		.eabi_attribute 25, 1
   9              		.eabi_attribute 26, 1
  10              		.eabi_attribute 30, 6
  11              		.eabi_attribute 34, 1
  12              		.eabi_attribute 18, 4
  13              		.thumb
  14              		.file	"chschd.c"
  15              		.text
  16              	.Ltext0:
  17              		.cfi_sections	.debug_frame
  18              		.align	2
  19              		.p2align 4,,15
  20              		.thumb
  21              		.thumb_func
  22              		.type	port_lock, %function
  23              	port_lock:
  24              	.LFB127:
  25              		.file 1 "../../../os/common/ports/ARMCMx/chcore_v7m.h"
  26              		.loc 1 594 0
  27              		.cfi_startproc
  28              		@ args = 0, pretend = 0, frame = 8
  29              		@ frame_needed = 0, uses_anonymous_args = 0
  30              		@ link register save eliminated.
  31 0000 82B0     		sub	sp, sp, #8
  32              		.cfi_def_cfa_offset 8
  33 0002 2023     		movs	r3, #32
  34 0004 0193     		str	r3, [sp, #4]
  35              	.LBB6:
  36              	.LBB7:
  37              		.file 2 "../../../os/common/ext/CMSIS/include/cmsis_gcc.h"
  38              		.loc 2 264 0
  39 0006 019B     		ldr	r3, [sp, #4]
  40              	@ 264 "../../../os/common/ext/CMSIS/include/cmsis_gcc.h" 1
  41 0008 83F31188 		MSR basepri, r3
  42              	@ 0 "" 2
  43              		.thumb
  44              	.LBE7:
  45              	.LBE6:
  46              		.loc 1 611 0
  47 000c 02B0     		add	sp, sp, #8
  48              		.cfi_def_cfa_offset 0
  49              		@ sp needed
  50 000e 7047     		bx	lr
  51              		.cfi_endproc
  52              	.LFE127:
  53              		.size	port_lock, .-port_lock
  54              		.align	2
  55              		.p2align 4,,15
  56              		.thumb
  57              		.thumb_func
ARM GAS  /tmp/ccYIACCT.s 			page 2


  58              		.type	port_unlock, %function
  59              	port_unlock:
  60              	.LFB128:
  61              		.loc 1 618 0
  62              		.cfi_startproc
  63              		@ args = 0, pretend = 0, frame = 8
  64              		@ frame_needed = 0, uses_anonymous_args = 0
  65              		@ link register save eliminated.
  66 0010 82B0     		sub	sp, sp, #8
  67              		.cfi_def_cfa_offset 8
  68 0012 0023     		movs	r3, #0
  69 0014 0193     		str	r3, [sp, #4]
  70              	.LBB8:
  71              	.LBB9:
  72              		.loc 2 264 0
  73 0016 019B     		ldr	r3, [sp, #4]
  74              	@ 264 "../../../os/common/ext/CMSIS/include/cmsis_gcc.h" 1
  75 0018 83F31188 		MSR basepri, r3
  76              	@ 0 "" 2
  77              		.thumb
  78              	.LBE9:
  79              	.LBE8:
  80              		.loc 1 625 0
  81 001c 02B0     		add	sp, sp, #8
  82              		.cfi_def_cfa_offset 0
  83              		@ sp needed
  84 001e 7047     		bx	lr
  85              		.cfi_endproc
  86              	.LFE128:
  87              		.size	port_unlock, .-port_unlock
  88              		.align	2
  89              		.p2align 4,,15
  90              		.thumb
  91              		.thumb_func
  92              		.type	port_lock_from_isr, %function
  93              	port_lock_from_isr:
  94              	.LFB129:
  95              		.loc 1 633 0
  96              		.cfi_startproc
  97              		@ args = 0, pretend = 0, frame = 0
  98              		@ frame_needed = 0, uses_anonymous_args = 0
  99 0020 08B5     		push	{r3, lr}
 100              		.cfi_def_cfa_offset 8
 101              		.cfi_offset 3, -8
 102              		.cfi_offset 14, -4
 103              		.loc 1 635 0
 104 0022 FFF7EDFF 		bl	port_lock
 105              		.loc 1 636 0
 106 0026 08BD     		pop	{r3, pc}
 107              		.cfi_endproc
 108              	.LFE129:
 109              		.size	port_lock_from_isr, .-port_lock_from_isr
 110              		.align	2
 111 0028 AFF30080 		.p2align 4,,15
 111      AFF30080 
 112              		.thumb
 113              		.thumb_func
ARM GAS  /tmp/ccYIACCT.s 			page 3


 114              		.type	port_unlock_from_isr, %function
 115              	port_unlock_from_isr:
 116              	.LFB130:
 117              		.loc 1 644 0
 118              		.cfi_startproc
 119              		@ args = 0, pretend = 0, frame = 0
 120              		@ frame_needed = 0, uses_anonymous_args = 0
 121 0030 08B5     		push	{r3, lr}
 122              		.cfi_def_cfa_offset 8
 123              		.cfi_offset 3, -8
 124              		.cfi_offset 14, -4
 125              		.loc 1 646 0
 126 0032 FFF7EDFF 		bl	port_unlock
 127              		.loc 1 647 0
 128 0036 08BD     		pop	{r3, pc}
 129              		.cfi_endproc
 130              	.LFE130:
 131              		.size	port_unlock_from_isr, .-port_unlock_from_isr
 132              		.align	2
 133 0038 AFF30080 		.p2align 4,,15
 133      AFF30080 
 134              		.thumb
 135              		.thumb_func
 136              		.type	queue_init, %function
 137              	queue_init:
 138              	.LFB150:
 139              		.file 3 "../../../os/rt/include/chschd.h"
 140              		.loc 3 548 0
 141              		.cfi_startproc
 142              		@ args = 0, pretend = 0, frame = 8
 143              		@ frame_needed = 0, uses_anonymous_args = 0
 144              		@ link register save eliminated.
 145 0040 82B0     		sub	sp, sp, #8
 146              		.cfi_def_cfa_offset 8
 147 0042 0190     		str	r0, [sp, #4]
 148              		.loc 3 550 0
 149 0044 019B     		ldr	r3, [sp, #4]
 150 0046 019A     		ldr	r2, [sp, #4]
 151 0048 1A60     		str	r2, [r3]
 152              		.loc 3 551 0
 153 004a 019B     		ldr	r3, [sp, #4]
 154 004c 019A     		ldr	r2, [sp, #4]
 155 004e 5A60     		str	r2, [r3, #4]
 156              		.loc 3 552 0
 157 0050 02B0     		add	sp, sp, #8
 158              		.cfi_def_cfa_offset 0
 159              		@ sp needed
 160 0052 7047     		bx	lr
 161              		.cfi_endproc
 162              	.LFE150:
 163              		.size	queue_init, .-queue_init
 164              		.align	2
 165 0054 AFF30080 		.p2align 4,,15
 165      AFF30080 
 165      AFF30080 
 166              		.thumb
 167              		.thumb_func
ARM GAS  /tmp/ccYIACCT.s 			page 4


 168              		.type	queue_fifo_remove, %function
 169              	queue_fifo_remove:
 170              	.LFB157:
 171              		.loc 3 617 0
 172              		.cfi_startproc
 173              		@ args = 0, pretend = 0, frame = 16
 174              		@ frame_needed = 0, uses_anonymous_args = 0
 175              		@ link register save eliminated.
 176 0060 84B0     		sub	sp, sp, #16
 177              		.cfi_def_cfa_offset 16
 178 0062 0190     		str	r0, [sp, #4]
 179              		.loc 3 618 0
 180 0064 019B     		ldr	r3, [sp, #4]
 181 0066 1B68     		ldr	r3, [r3]
 182 0068 0393     		str	r3, [sp, #12]
 183              		.loc 3 620 0
 184 006a 039B     		ldr	r3, [sp, #12]
 185 006c 1A68     		ldr	r2, [r3]
 186 006e 019B     		ldr	r3, [sp, #4]
 187 0070 1A60     		str	r2, [r3]
 188              		.loc 3 621 0
 189 0072 019B     		ldr	r3, [sp, #4]
 190 0074 1B68     		ldr	r3, [r3]
 191 0076 019A     		ldr	r2, [sp, #4]
 192 0078 5A60     		str	r2, [r3, #4]
 193              		.loc 3 623 0
 194 007a 039B     		ldr	r3, [sp, #12]
 195              		.loc 3 624 0
 196 007c 1846     		mov	r0, r3
 197 007e 04B0     		add	sp, sp, #16
 198              		.cfi_def_cfa_offset 0
 199              		@ sp needed
 200 0080 7047     		bx	lr
 201              		.cfi_endproc
 202              	.LFE157:
 203              		.size	queue_fifo_remove, .-queue_fifo_remove
 204 0082 00BF     		.align	2
 205 0084 AFF30080 		.p2align 4,,15
 205      AFF30080 
 205      AFF30080 
 206              		.thumb
 207              		.thumb_func
 208              		.type	queue_dequeue, %function
 209              	queue_dequeue:
 210              	.LFB159:
 211              		.loc 3 635 0
 212              		.cfi_startproc
 213              		@ args = 0, pretend = 0, frame = 8
 214              		@ frame_needed = 0, uses_anonymous_args = 0
 215              		@ link register save eliminated.
 216 0090 82B0     		sub	sp, sp, #8
 217              		.cfi_def_cfa_offset 8
 218 0092 0190     		str	r0, [sp, #4]
 219              		.loc 3 637 0
 220 0094 019B     		ldr	r3, [sp, #4]
 221 0096 5B68     		ldr	r3, [r3, #4]
 222 0098 019A     		ldr	r2, [sp, #4]
ARM GAS  /tmp/ccYIACCT.s 			page 5


 223 009a 1268     		ldr	r2, [r2]
 224 009c 1A60     		str	r2, [r3]
 225              		.loc 3 638 0
 226 009e 019B     		ldr	r3, [sp, #4]
 227 00a0 1B68     		ldr	r3, [r3]
 228 00a2 019A     		ldr	r2, [sp, #4]
 229 00a4 5268     		ldr	r2, [r2, #4]
 230 00a6 5A60     		str	r2, [r3, #4]
 231              		.loc 3 640 0
 232 00a8 019B     		ldr	r3, [sp, #4]
 233              		.loc 3 641 0
 234 00aa 1846     		mov	r0, r3
 235 00ac 02B0     		add	sp, sp, #8
 236              		.cfi_def_cfa_offset 0
 237              		@ sp needed
 238 00ae 7047     		bx	lr
 239              		.cfi_endproc
 240              	.LFE159:
 241              		.size	queue_dequeue, .-queue_dequeue
 242              		.align	2
 243              		.p2align 4,,15
 244              		.thumb
 245              		.thumb_func
 246              		.type	chSchIsRescRequiredI, %function
 247              	chSchIsRescRequiredI:
 248              	.LFB160:
 249              		.loc 3 655 0
 250              		.cfi_startproc
 251              		@ args = 0, pretend = 0, frame = 0
 252              		@ frame_needed = 0, uses_anonymous_args = 0
 253              		@ link register save eliminated.
 254              		.loc 3 659 0
 255 00b0 064B     		ldr	r3, .L12
 256 00b2 1B68     		ldr	r3, [r3]
 257 00b4 9A68     		ldr	r2, [r3, #8]
 258 00b6 054B     		ldr	r3, .L12
 259 00b8 9B69     		ldr	r3, [r3, #24]
 260 00ba 9B68     		ldr	r3, [r3, #8]
 261 00bc 9A42     		cmp	r2, r3
 262 00be 8CBF     		ite	hi
 263 00c0 0123     		movhi	r3, #1
 264 00c2 0023     		movls	r3, #0
 265 00c4 DBB2     		uxtb	r3, r3
 266              		.loc 3 660 0
 267 00c6 1846     		mov	r0, r3
 268 00c8 7047     		bx	lr
 269              	.L13:
 270 00ca 00BF     		.align	2
 271              	.L12:
 272 00cc 00000000 		.word	ch
 273              		.cfi_endproc
 274              	.LFE160:
 275              		.size	chSchIsRescRequiredI, .-chSchIsRescRequiredI
 276              		.align	2
 277              		.p2align 4,,15
 278              		.thumb
 279              		.thumb_func
ARM GAS  /tmp/ccYIACCT.s 			page 6


 280              		.type	chSysLockFromISR, %function
 281              	chSysLockFromISR:
 282              	.LFB169:
 283              		.file 4 "../../../os/rt/include/chsys.h"
 284              		.loc 4 414 0
 285              		.cfi_startproc
 286              		@ args = 0, pretend = 0, frame = 0
 287              		@ frame_needed = 0, uses_anonymous_args = 0
 288 00d0 08B5     		push	{r3, lr}
 289              		.cfi_def_cfa_offset 8
 290              		.cfi_offset 3, -8
 291              		.cfi_offset 14, -4
 292              		.loc 4 416 0
 293 00d2 FFF7A5FF 		bl	port_lock_from_isr
 294              		.loc 4 419 0
 295 00d6 08BD     		pop	{r3, pc}
 296              		.cfi_endproc
 297              	.LFE169:
 298              		.size	chSysLockFromISR, .-chSysLockFromISR
 299              		.align	2
 300 00d8 AFF30080 		.p2align 4,,15
 300      AFF30080 
 301              		.thumb
 302              		.thumb_func
 303              		.type	chSysUnlockFromISR, %function
 304              	chSysUnlockFromISR:
 305              	.LFB170:
 306              		.loc 4 434 0
 307              		.cfi_startproc
 308              		@ args = 0, pretend = 0, frame = 0
 309              		@ frame_needed = 0, uses_anonymous_args = 0
 310 00e0 08B5     		push	{r3, lr}
 311              		.cfi_def_cfa_offset 8
 312              		.cfi_offset 3, -8
 313              		.cfi_offset 14, -4
 314              		.loc 4 438 0
 315 00e2 FFF7A5FF 		bl	port_unlock_from_isr
 316              		.loc 4 439 0
 317 00e6 08BD     		pop	{r3, pc}
 318              		.cfi_endproc
 319              	.LFE170:
 320              		.size	chSysUnlockFromISR, .-chSysUnlockFromISR
 321              		.align	2
 322 00e8 AFF30080 		.p2align 4,,15
 322      AFF30080 
 323              		.thumb
 324              		.thumb_func
 325              		.type	chVTIsArmedI, %function
 326              	chVTIsArmedI:
 327              	.LFB188:
 328              		.file 5 "../../../os/rt/include/chvt.h"
 329              		.loc 5 537 0
 330              		.cfi_startproc
 331              		@ args = 0, pretend = 0, frame = 8
 332              		@ frame_needed = 0, uses_anonymous_args = 0
 333              		@ link register save eliminated.
 334 00f0 82B0     		sub	sp, sp, #8
ARM GAS  /tmp/ccYIACCT.s 			page 7


 335              		.cfi_def_cfa_offset 8
 336 00f2 0190     		str	r0, [sp, #4]
 337              		.loc 5 541 0
 338 00f4 019B     		ldr	r3, [sp, #4]
 339 00f6 DB68     		ldr	r3, [r3, #12]
 340 00f8 002B     		cmp	r3, #0
 341 00fa 14BF     		ite	ne
 342 00fc 0123     		movne	r3, #1
 343 00fe 0023     		moveq	r3, #0
 344 0100 DBB2     		uxtb	r3, r3
 345              		.loc 5 542 0
 346 0102 1846     		mov	r0, r3
 347 0104 02B0     		add	sp, sp, #8
 348              		.cfi_def_cfa_offset 0
 349              		@ sp needed
 350 0106 7047     		bx	lr
 351              		.cfi_endproc
 352              	.LFE188:
 353              		.size	chVTIsArmedI, .-chVTIsArmedI
 354              		.align	2
 355 0108 AFF30080 		.p2align 4,,15
 355      AFF30080 
 356              		.thumb
 357              		.thumb_func
 358              		.type	chSemFastSignalI, %function
 359              	chSemFastSignalI:
 360              	.LFB209:
 361              		.file 6 "../../../os/rt/include/chsem.h"
 362              		.loc 6 134 0
 363              		.cfi_startproc
 364              		@ args = 0, pretend = 0, frame = 8
 365              		@ frame_needed = 0, uses_anonymous_args = 0
 366              		@ link register save eliminated.
 367 0110 82B0     		sub	sp, sp, #8
 368              		.cfi_def_cfa_offset 8
 369 0112 0190     		str	r0, [sp, #4]
 370              		.loc 6 138 0
 371 0114 019B     		ldr	r3, [sp, #4]
 372 0116 9B68     		ldr	r3, [r3, #8]
 373 0118 5A1C     		adds	r2, r3, #1
 374 011a 019B     		ldr	r3, [sp, #4]
 375 011c 9A60     		str	r2, [r3, #8]
 376              		.loc 6 139 0
 377 011e 02B0     		add	sp, sp, #8
 378              		.cfi_def_cfa_offset 0
 379              		@ sp needed
 380 0120 7047     		bx	lr
 381              		.cfi_endproc
 382              	.LFE209:
 383              		.size	chSemFastSignalI, .-chSemFastSignalI
 384              		.comm	ch,120,4
 385 0122 00BF     		.align	2
 386 0124 AFF30080 		.p2align 4,,15
 386      AFF30080 
 386      AFF30080 
 387              		.global	_scheduler_init
 388              		.thumb
ARM GAS  /tmp/ccYIACCT.s 			page 8


 389              		.thumb_func
 390              		.type	_scheduler_init, %function
 391              	_scheduler_init:
 392              	.LFB248:
 393              		.file 7 "../../../os/rt/src/chschd.c"
 394              		.loc 7 65 0
 395              		.cfi_startproc
 396              		@ args = 0, pretend = 0, frame = 0
 397              		@ frame_needed = 0, uses_anonymous_args = 0
 398 0130 08B5     		push	{r3, lr}
 399              		.cfi_def_cfa_offset 8
 400              		.cfi_offset 3, -8
 401              		.cfi_offset 14, -4
 402              		.loc 7 67 0
 403 0132 0648     		ldr	r0, .L20
 404 0134 FFF784FF 		bl	queue_init
 405              		.loc 7 68 0
 406 0138 044B     		ldr	r3, .L20
 407 013a 0022     		movs	r2, #0
 408 013c 9A60     		str	r2, [r3, #8]
 409              		.loc 7 70 0
 410 013e 034B     		ldr	r3, .L20
 411 0140 024A     		ldr	r2, .L20
 412 0142 1A61     		str	r2, [r3, #16]
 413              		.loc 7 71 0
 414 0144 014B     		ldr	r3, .L20
 415 0146 014A     		ldr	r2, .L20
 416 0148 5A61     		str	r2, [r3, #20]
 417              		.loc 7 73 0
 418 014a 08BD     		pop	{r3, pc}
 419              	.L21:
 420              		.align	2
 421              	.L20:
 422 014c 00000000 		.word	ch
 423              		.cfi_endproc
 424              	.LFE248:
 425              		.size	_scheduler_init, .-_scheduler_init
 426              		.align	2
 427              		.p2align 4,,15
 428              		.global	chSchReadyI
 429              		.thumb
 430              		.thumb_func
 431              		.type	chSchReadyI, %function
 432              	chSchReadyI:
 433              	.LFB249:
 434              		.loc 7 218 0
 435              		.cfi_startproc
 436              		@ args = 0, pretend = 0, frame = 16
 437              		@ frame_needed = 0, uses_anonymous_args = 0
 438              		@ link register save eliminated.
 439 0150 84B0     		sub	sp, sp, #16
 440              		.cfi_def_cfa_offset 16
 441 0152 0190     		str	r0, [sp, #4]
 442              		.loc 7 227 0
 443 0154 019B     		ldr	r3, [sp, #4]
 444 0156 0022     		movs	r2, #0
 445 0158 83F82020 		strb	r2, [r3, #32]
ARM GAS  /tmp/ccYIACCT.s 			page 9


 446              		.loc 7 228 0
 447 015c 0E4B     		ldr	r3, .L25
 448 015e 0393     		str	r3, [sp, #12]
 449              	.L23:
 450              		.loc 7 230 0 discriminator 1
 451 0160 039B     		ldr	r3, [sp, #12]
 452 0162 1B68     		ldr	r3, [r3]
 453 0164 0393     		str	r3, [sp, #12]
 454              		.loc 7 231 0 discriminator 1
 455 0166 039B     		ldr	r3, [sp, #12]
 456 0168 9A68     		ldr	r2, [r3, #8]
 457 016a 019B     		ldr	r3, [sp, #4]
 458 016c 9B68     		ldr	r3, [r3, #8]
 459 016e 9A42     		cmp	r2, r3
 460 0170 F6D2     		bcs	.L23
 461              		.loc 7 233 0
 462 0172 019B     		ldr	r3, [sp, #4]
 463 0174 039A     		ldr	r2, [sp, #12]
 464 0176 1A60     		str	r2, [r3]
 465              		.loc 7 234 0
 466 0178 039B     		ldr	r3, [sp, #12]
 467 017a 5A68     		ldr	r2, [r3, #4]
 468 017c 019B     		ldr	r3, [sp, #4]
 469 017e 5A60     		str	r2, [r3, #4]
 470              		.loc 7 235 0
 471 0180 019B     		ldr	r3, [sp, #4]
 472 0182 5B68     		ldr	r3, [r3, #4]
 473 0184 019A     		ldr	r2, [sp, #4]
 474 0186 1A60     		str	r2, [r3]
 475              		.loc 7 236 0
 476 0188 039B     		ldr	r3, [sp, #12]
 477 018a 019A     		ldr	r2, [sp, #4]
 478 018c 5A60     		str	r2, [r3, #4]
 479              		.loc 7 238 0
 480 018e 019B     		ldr	r3, [sp, #4]
 481              		.loc 7 239 0
 482 0190 1846     		mov	r0, r3
 483 0192 04B0     		add	sp, sp, #16
 484              		.cfi_def_cfa_offset 0
 485              		@ sp needed
 486 0194 7047     		bx	lr
 487              	.L26:
 488 0196 00BF     		.align	2
 489              	.L25:
 490 0198 00000000 		.word	ch
 491              		.cfi_endproc
 492              	.LFE249:
 493              		.size	chSchReadyI, .-chSchReadyI
 494              		.align	2
 495 019c AFF30080 		.p2align 4,,15
 496              		.global	chSchReadyAheadI
 497              		.thumb
 498              		.thumb_func
 499              		.type	chSchReadyAheadI, %function
 500              	chSchReadyAheadI:
 501              	.LFB250:
 502              		.loc 7 257 0
ARM GAS  /tmp/ccYIACCT.s 			page 10


 503              		.cfi_startproc
 504              		@ args = 0, pretend = 0, frame = 16
 505              		@ frame_needed = 0, uses_anonymous_args = 0
 506              		@ link register save eliminated.
 507 01a0 84B0     		sub	sp, sp, #16
 508              		.cfi_def_cfa_offset 16
 509 01a2 0190     		str	r0, [sp, #4]
 510              		.loc 7 266 0
 511 01a4 019B     		ldr	r3, [sp, #4]
 512 01a6 0022     		movs	r2, #0
 513 01a8 83F82020 		strb	r2, [r3, #32]
 514              		.loc 7 267 0
 515 01ac 0E4B     		ldr	r3, .L30
 516 01ae 0393     		str	r3, [sp, #12]
 517              	.L28:
 518              		.loc 7 269 0 discriminator 1
 519 01b0 039B     		ldr	r3, [sp, #12]
 520 01b2 1B68     		ldr	r3, [r3]
 521 01b4 0393     		str	r3, [sp, #12]
 522              		.loc 7 270 0 discriminator 1
 523 01b6 039B     		ldr	r3, [sp, #12]
 524 01b8 9A68     		ldr	r2, [r3, #8]
 525 01ba 019B     		ldr	r3, [sp, #4]
 526 01bc 9B68     		ldr	r3, [r3, #8]
 527 01be 9A42     		cmp	r2, r3
 528 01c0 F6D8     		bhi	.L28
 529              		.loc 7 272 0
 530 01c2 019B     		ldr	r3, [sp, #4]
 531 01c4 039A     		ldr	r2, [sp, #12]
 532 01c6 1A60     		str	r2, [r3]
 533              		.loc 7 273 0
 534 01c8 039B     		ldr	r3, [sp, #12]
 535 01ca 5A68     		ldr	r2, [r3, #4]
 536 01cc 019B     		ldr	r3, [sp, #4]
 537 01ce 5A60     		str	r2, [r3, #4]
 538              		.loc 7 274 0
 539 01d0 019B     		ldr	r3, [sp, #4]
 540 01d2 5B68     		ldr	r3, [r3, #4]
 541 01d4 019A     		ldr	r2, [sp, #4]
 542 01d6 1A60     		str	r2, [r3]
 543              		.loc 7 275 0
 544 01d8 039B     		ldr	r3, [sp, #12]
 545 01da 019A     		ldr	r2, [sp, #4]
 546 01dc 5A60     		str	r2, [r3, #4]
 547              		.loc 7 277 0
 548 01de 019B     		ldr	r3, [sp, #4]
 549              		.loc 7 278 0
 550 01e0 1846     		mov	r0, r3
 551 01e2 04B0     		add	sp, sp, #16
 552              		.cfi_def_cfa_offset 0
 553              		@ sp needed
 554 01e4 7047     		bx	lr
 555              	.L31:
 556 01e6 00BF     		.align	2
 557              	.L30:
 558 01e8 00000000 		.word	ch
 559              		.cfi_endproc
ARM GAS  /tmp/ccYIACCT.s 			page 11


 560              	.LFE250:
 561              		.size	chSchReadyAheadI, .-chSchReadyAheadI
 562              		.align	2
 563 01ec AFF30080 		.p2align 4,,15
 564              		.global	chSchGoSleepS
 565              		.thumb
 566              		.thumb_func
 567              		.type	chSchGoSleepS, %function
 568              	chSchGoSleepS:
 569              	.LFB251:
 570              		.loc 7 289 0
 571              		.cfi_startproc
 572              		@ args = 0, pretend = 0, frame = 16
 573              		@ frame_needed = 0, uses_anonymous_args = 0
 574 01f0 00B5     		push	{lr}
 575              		.cfi_def_cfa_offset 4
 576              		.cfi_offset 14, -4
 577 01f2 85B0     		sub	sp, sp, #20
 578              		.cfi_def_cfa_offset 24
 579 01f4 0346     		mov	r3, r0
 580 01f6 8DF80730 		strb	r3, [sp, #7]
 581              		.loc 7 290 0
 582 01fa 0E4B     		ldr	r3, .L33
 583 01fc 9B69     		ldr	r3, [r3, #24]
 584 01fe 0393     		str	r3, [sp, #12]
 585              		.loc 7 295 0
 586 0200 039B     		ldr	r3, [sp, #12]
 587 0202 9DF80720 		ldrb	r2, [sp, #7]
 588 0206 83F82020 		strb	r2, [r3, #32]
 589              		.loc 7 304 0
 590 020a 0A48     		ldr	r0, .L33
 591 020c FFF728FF 		bl	queue_fifo_remove
 592 0210 0246     		mov	r2, r0
 593 0212 084B     		ldr	r3, .L33
 594 0214 9A61     		str	r2, [r3, #24]
 595              		.loc 7 305 0
 596 0216 074B     		ldr	r3, .L33
 597 0218 9B69     		ldr	r3, [r3, #24]
 598 021a 0122     		movs	r2, #1
 599 021c 83F82020 		strb	r2, [r3, #32]
 600              		.loc 7 313 0
 601 0220 044B     		ldr	r3, .L33
 602 0222 9B69     		ldr	r3, [r3, #24]
 603 0224 1846     		mov	r0, r3
 604 0226 0399     		ldr	r1, [sp, #12]
 605 0228 FFF7FEFF 		bl	_port_switch
 606              		.loc 7 314 0
 607 022c 05B0     		add	sp, sp, #20
 608              		.cfi_def_cfa_offset 4
 609              		@ sp needed
 610 022e 5DF804FB 		ldr	pc, [sp], #4
 611              	.L34:
 612 0232 00BF     		.align	2
 613              	.L33:
 614 0234 00000000 		.word	ch
 615              		.cfi_endproc
 616              	.LFE251:
ARM GAS  /tmp/ccYIACCT.s 			page 12


 617              		.size	chSchGoSleepS, .-chSchGoSleepS
 618              		.align	2
 619 0238 AFF30080 		.p2align 4,,15
 619      AFF30080 
 620              		.thumb
 621              		.thumb_func
 622              		.type	wakeup, %function
 623              	wakeup:
 624              	.LFB252:
 625              		.loc 7 319 0
 626              		.cfi_startproc
 627              		@ args = 0, pretend = 0, frame = 16
 628              		@ frame_needed = 0, uses_anonymous_args = 0
 629 0240 00B5     		push	{lr}
 630              		.cfi_def_cfa_offset 4
 631              		.cfi_offset 14, -4
 632 0242 85B0     		sub	sp, sp, #20
 633              		.cfi_def_cfa_offset 24
 634 0244 0190     		str	r0, [sp, #4]
 635              		.loc 7 320 0
 636 0246 019B     		ldr	r3, [sp, #4]
 637 0248 0393     		str	r3, [sp, #12]
 638              		.loc 7 322 0
 639 024a FFF741FF 		bl	chSysLockFromISR
 640              		.loc 7 323 0
 641 024e 039B     		ldr	r3, [sp, #12]
 642 0250 93F82030 		ldrb	r3, [r3, #32]	@ zero_extendqisi2
 643 0254 072B     		cmp	r3, #7
 644 0256 24D8     		bhi	.L44
 645 0258 01A2     		adr	r2, .L38
 646 025a 52F823F0 		ldr	pc, [r2, r3, lsl #2]
 647 025e 00BF     		.p2align 2
 648              	.L38:
 649 0260 81020000 		.word	.L37+1
 650 0264 A3020000 		.word	.L44+1
 651 0268 A3020000 		.word	.L44+1
 652 026c 87020000 		.word	.L39+1
 653 0270 9B020000 		.word	.L40+1
 654 0274 91020000 		.word	.L41+1
 655 0278 A3020000 		.word	.L44+1
 656 027c 9B020000 		.word	.L40+1
 657              		.p2align 1
 658              	.L37:
 659              		.loc 7 327 0
 660 0280 FFF72EFF 		bl	chSysUnlockFromISR
 661              		.loc 7 328 0
 662 0284 17E0     		b	.L35
 663              	.L39:
 664              		.loc 7 330 0
 665 0286 039B     		ldr	r3, [sp, #12]
 666 0288 5B6A     		ldr	r3, [r3, #36]
 667 028a 0022     		movs	r2, #0
 668 028c 1A60     		str	r2, [r3]
 669              		.loc 7 331 0
 670 028e 09E0     		b	.L43
 671              	.L41:
 672              		.loc 7 334 0
ARM GAS  /tmp/ccYIACCT.s 			page 13


 673 0290 039B     		ldr	r3, [sp, #12]
 674 0292 5B6A     		ldr	r3, [r3, #36]
 675 0294 1846     		mov	r0, r3
 676 0296 FFF73BFF 		bl	chSemFastSignalI
 677              	.L40:
 678              		.loc 7 342 0
 679 029a 0398     		ldr	r0, [sp, #12]
 680 029c FFF7F8FE 		bl	queue_dequeue
 681              		.loc 7 343 0
 682 02a0 00E0     		b	.L43
 683              	.L44:
 684              		.loc 7 346 0
 685 02a2 00BF     		nop
 686              	.L43:
 687              		.loc 7 348 0
 688 02a4 039B     		ldr	r3, [sp, #12]
 689 02a6 4FF0FF32 		mov	r2, #-1
 690 02aa 5A62     		str	r2, [r3, #36]
 691              		.loc 7 349 0
 692 02ac 0398     		ldr	r0, [sp, #12]
 693 02ae FFF7FEFF 		bl	chSchReadyI
 694              		.loc 7 350 0
 695 02b2 FFF715FF 		bl	chSysUnlockFromISR
 696              	.L35:
 697              		.loc 7 351 0
 698 02b6 05B0     		add	sp, sp, #20
 699              		.cfi_def_cfa_offset 4
 700              		@ sp needed
 701 02b8 5DF804FB 		ldr	pc, [sp], #4
 702              		.cfi_endproc
 703              	.LFE252:
 704              		.size	wakeup, .-wakeup
 705              		.align	2
 706 02bc AFF30080 		.p2align 4,,15
 707              		.global	chSchGoSleepTimeoutS
 708              		.thumb
 709              		.thumb_func
 710              		.type	chSchGoSleepTimeoutS, %function
 711              	chSchGoSleepTimeoutS:
 712              	.LFB253:
 713              		.loc 7 374 0
 714              		.cfi_startproc
 715              		@ args = 0, pretend = 0, frame = 32
 716              		@ frame_needed = 0, uses_anonymous_args = 0
 717 02c0 00B5     		push	{lr}
 718              		.cfi_def_cfa_offset 4
 719              		.cfi_offset 14, -4
 720 02c2 89B0     		sub	sp, sp, #36
 721              		.cfi_def_cfa_offset 40
 722 02c4 0346     		mov	r3, r0
 723 02c6 0091     		str	r1, [sp]
 724 02c8 8DF80730 		strb	r3, [sp, #7]
 725              		.loc 7 378 0
 726 02cc 009B     		ldr	r3, [sp]
 727 02ce B3F1FF3F 		cmp	r3, #-1
 728 02d2 19D0     		beq	.L46
 729              	.LBB10:
ARM GAS  /tmp/ccYIACCT.s 			page 14


 730              		.loc 7 381 0
 731 02d4 124B     		ldr	r3, .L50
 732 02d6 9B69     		ldr	r3, [r3, #24]
 733 02d8 03AA     		add	r2, sp, #12
 734 02da 1046     		mov	r0, r2
 735 02dc 0099     		ldr	r1, [sp]
 736 02de 114A     		ldr	r2, .L50+4
 737 02e0 FFF7FEFF 		bl	chVTDoSetI
 738              		.loc 7 382 0
 739 02e4 9DF80730 		ldrb	r3, [sp, #7]	@ zero_extendqisi2
 740 02e8 1846     		mov	r0, r3
 741 02ea FFF7FEFF 		bl	chSchGoSleepS
 742              		.loc 7 383 0
 743 02ee 03AB     		add	r3, sp, #12
 744 02f0 1846     		mov	r0, r3
 745 02f2 FFF7FDFE 		bl	chVTIsArmedI
 746 02f6 0346     		mov	r3, r0
 747 02f8 002B     		cmp	r3, #0
 748 02fa 04D0     		beq	.L47
 749              		.loc 7 384 0
 750 02fc 03AB     		add	r3, sp, #12
 751 02fe 1846     		mov	r0, r3
 752 0300 FFF7FEFF 		bl	chVTDoResetI
 753              	.LBE10:
 754 0304 05E0     		b	.L48
 755              	.L47:
 756 0306 04E0     		b	.L48
 757              	.L46:
 758              		.loc 7 388 0
 759 0308 9DF80730 		ldrb	r3, [sp, #7]	@ zero_extendqisi2
 760 030c 1846     		mov	r0, r3
 761 030e FFF7FEFF 		bl	chSchGoSleepS
 762              	.L48:
 763              		.loc 7 391 0
 764 0312 034B     		ldr	r3, .L50
 765 0314 9B69     		ldr	r3, [r3, #24]
 766 0316 5B6A     		ldr	r3, [r3, #36]
 767              		.loc 7 392 0
 768 0318 1846     		mov	r0, r3
 769 031a 09B0     		add	sp, sp, #36
 770              		.cfi_def_cfa_offset 4
 771              		@ sp needed
 772 031c 5DF804FB 		ldr	pc, [sp], #4
 773              	.L51:
 774              		.align	2
 775              	.L50:
 776 0320 00000000 		.word	ch
 777 0324 00000000 		.word	wakeup
 778              		.cfi_endproc
 779              	.LFE253:
 780              		.size	chSchGoSleepTimeoutS, .-chSchGoSleepTimeoutS
 781              		.align	2
 782 0328 AFF30080 		.p2align 4,,15
 782      AFF30080 
 783              		.global	chSchWakeupS
 784              		.thumb
 785              		.thumb_func
ARM GAS  /tmp/ccYIACCT.s 			page 15


 786              		.type	chSchWakeupS, %function
 787              	chSchWakeupS:
 788              	.LFB254:
 789              		.loc 7 411 0
 790              		.cfi_startproc
 791              		@ args = 0, pretend = 0, frame = 16
 792              		@ frame_needed = 0, uses_anonymous_args = 0
 793 0330 00B5     		push	{lr}
 794              		.cfi_def_cfa_offset 4
 795              		.cfi_offset 14, -4
 796 0332 85B0     		sub	sp, sp, #20
 797              		.cfi_def_cfa_offset 24
 798 0334 0190     		str	r0, [sp, #4]
 799 0336 0091     		str	r1, [sp]
 800              		.loc 7 412 0
 801 0338 104B     		ldr	r3, .L55
 802 033a 9B69     		ldr	r3, [r3, #24]
 803 033c 0393     		str	r3, [sp, #12]
 804              		.loc 7 422 0
 805 033e 019B     		ldr	r3, [sp, #4]
 806 0340 009A     		ldr	r2, [sp]
 807 0342 5A62     		str	r2, [r3, #36]
 808              		.loc 7 428 0
 809 0344 019B     		ldr	r3, [sp, #4]
 810 0346 9A68     		ldr	r2, [r3, #8]
 811 0348 039B     		ldr	r3, [sp, #12]
 812 034a 9B68     		ldr	r3, [r3, #8]
 813 034c 9A42     		cmp	r2, r3
 814 034e 03D8     		bhi	.L53
 815              		.loc 7 429 0
 816 0350 0198     		ldr	r0, [sp, #4]
 817 0352 FFF7FEFF 		bl	chSchReadyI
 818 0356 0EE0     		b	.L52
 819              	.L53:
 820              		.loc 7 432 0
 821 0358 0398     		ldr	r0, [sp, #12]
 822 035a FFF7FEFF 		bl	chSchReadyI
 823 035e 0390     		str	r0, [sp, #12]
 824              		.loc 7 440 0
 825 0360 064A     		ldr	r2, .L55
 826 0362 019B     		ldr	r3, [sp, #4]
 827 0364 9361     		str	r3, [r2, #24]
 828              		.loc 7 441 0
 829 0366 019B     		ldr	r3, [sp, #4]
 830 0368 0122     		movs	r2, #1
 831 036a 83F82020 		strb	r2, [r3, #32]
 832              		.loc 7 444 0
 833 036e 0198     		ldr	r0, [sp, #4]
 834 0370 0399     		ldr	r1, [sp, #12]
 835 0372 FFF7FEFF 		bl	_port_switch
 836              	.L52:
 837              		.loc 7 446 0
 838 0376 05B0     		add	sp, sp, #20
 839              		.cfi_def_cfa_offset 4
 840              		@ sp needed
 841 0378 5DF804FB 		ldr	pc, [sp], #4
 842              	.L56:
ARM GAS  /tmp/ccYIACCT.s 			page 16


 843              		.align	2
 844              	.L55:
 845 037c 00000000 		.word	ch
 846              		.cfi_endproc
 847              	.LFE254:
 848              		.size	chSchWakeupS, .-chSchWakeupS
 849              		.align	2
 850              		.p2align 4,,15
 851              		.global	chSchRescheduleS
 852              		.thumb
 853              		.thumb_func
 854              		.type	chSchRescheduleS, %function
 855              	chSchRescheduleS:
 856              	.LFB255:
 857              		.loc 7 455 0
 858              		.cfi_startproc
 859              		@ args = 0, pretend = 0, frame = 0
 860              		@ frame_needed = 0, uses_anonymous_args = 0
 861 0380 08B5     		push	{r3, lr}
 862              		.cfi_def_cfa_offset 8
 863              		.cfi_offset 3, -8
 864              		.cfi_offset 14, -4
 865              		.loc 7 459 0
 866 0382 FFF795FE 		bl	chSchIsRescRequiredI
 867 0386 0346     		mov	r3, r0
 868 0388 002B     		cmp	r3, #0
 869 038a 01D0     		beq	.L57
 870              		.loc 7 460 0
 871 038c FFF7FEFF 		bl	chSchDoRescheduleAhead
 872              	.L57:
 873              		.loc 7 462 0
 874 0390 08BD     		pop	{r3, pc}
 875              		.cfi_endproc
 876              	.LFE255:
 877              		.size	chSchRescheduleS, .-chSchRescheduleS
 878 0392 00BF     		.align	2
 879 0394 AFF30080 		.p2align 4,,15
 879      AFF30080 
 879      AFF30080 
 880              		.global	chSchIsPreemptionRequired
 881              		.thumb
 882              		.thumb_func
 883              		.type	chSchIsPreemptionRequired, %function
 884              	chSchIsPreemptionRequired:
 885              	.LFB256:
 886              		.loc 7 477 0
 887              		.cfi_startproc
 888              		@ args = 0, pretend = 0, frame = 8
 889              		@ frame_needed = 0, uses_anonymous_args = 0
 890              		@ link register save eliminated.
 891 03a0 82B0     		sub	sp, sp, #8
 892              		.cfi_def_cfa_offset 8
 893              		.loc 7 478 0
 894 03a2 094B     		ldr	r3, .L61
 895 03a4 1B68     		ldr	r3, [r3]
 896 03a6 9B68     		ldr	r3, [r3, #8]
 897 03a8 0193     		str	r3, [sp, #4]
ARM GAS  /tmp/ccYIACCT.s 			page 17


 898              		.loc 7 479 0
 899 03aa 074B     		ldr	r3, .L61
 900 03ac 9B69     		ldr	r3, [r3, #24]
 901 03ae 9B68     		ldr	r3, [r3, #8]
 902 03b0 0093     		str	r3, [sp]
 903              		.loc 7 490 0
 904 03b2 019A     		ldr	r2, [sp, #4]
 905 03b4 009B     		ldr	r3, [sp]
 906 03b6 9A42     		cmp	r2, r3
 907 03b8 8CBF     		ite	hi
 908 03ba 0123     		movhi	r3, #1
 909 03bc 0023     		movls	r3, #0
 910 03be DBB2     		uxtb	r3, r3
 911              		.loc 7 492 0
 912 03c0 1846     		mov	r0, r3
 913 03c2 02B0     		add	sp, sp, #8
 914              		.cfi_def_cfa_offset 0
 915              		@ sp needed
 916 03c4 7047     		bx	lr
 917              	.L62:
 918 03c6 00BF     		.align	2
 919              	.L61:
 920 03c8 00000000 		.word	ch
 921              		.cfi_endproc
 922              	.LFE256:
 923              		.size	chSchIsPreemptionRequired, .-chSchIsPreemptionRequired
 924              		.align	2
 925 03cc AFF30080 		.p2align 4,,15
 926              		.global	chSchDoRescheduleBehind
 927              		.thumb
 928              		.thumb_func
 929              		.type	chSchDoRescheduleBehind, %function
 930              	chSchDoRescheduleBehind:
 931              	.LFB257:
 932              		.loc 7 504 0
 933              		.cfi_startproc
 934              		@ args = 0, pretend = 0, frame = 8
 935              		@ frame_needed = 0, uses_anonymous_args = 0
 936 03d0 00B5     		push	{lr}
 937              		.cfi_def_cfa_offset 4
 938              		.cfi_offset 14, -4
 939 03d2 83B0     		sub	sp, sp, #12
 940              		.cfi_def_cfa_offset 16
 941              		.loc 7 505 0
 942 03d4 0D4B     		ldr	r3, .L64
 943 03d6 9B69     		ldr	r3, [r3, #24]
 944 03d8 0193     		str	r3, [sp, #4]
 945              		.loc 7 508 0
 946 03da 0C48     		ldr	r0, .L64
 947 03dc FFF740FE 		bl	queue_fifo_remove
 948 03e0 0246     		mov	r2, r0
 949 03e2 0A4B     		ldr	r3, .L64
 950 03e4 9A61     		str	r2, [r3, #24]
 951              		.loc 7 509 0
 952 03e6 094B     		ldr	r3, .L64
 953 03e8 9B69     		ldr	r3, [r3, #24]
 954 03ea 0122     		movs	r2, #1
ARM GAS  /tmp/ccYIACCT.s 			page 18


 955 03ec 83F82020 		strb	r2, [r3, #32]
 956              		.loc 7 522 0
 957 03f0 0198     		ldr	r0, [sp, #4]
 958 03f2 FFF7FEFF 		bl	chSchReadyI
 959 03f6 0190     		str	r0, [sp, #4]
 960              		.loc 7 525 0
 961 03f8 044B     		ldr	r3, .L64
 962 03fa 9B69     		ldr	r3, [r3, #24]
 963 03fc 1846     		mov	r0, r3
 964 03fe 0199     		ldr	r1, [sp, #4]
 965 0400 FFF7FEFF 		bl	_port_switch
 966              		.loc 7 526 0
 967 0404 03B0     		add	sp, sp, #12
 968              		.cfi_def_cfa_offset 4
 969              		@ sp needed
 970 0406 5DF804FB 		ldr	pc, [sp], #4
 971              	.L65:
 972 040a 00BF     		.align	2
 973              	.L64:
 974 040c 00000000 		.word	ch
 975              		.cfi_endproc
 976              	.LFE257:
 977              		.size	chSchDoRescheduleBehind, .-chSchDoRescheduleBehind
 978              		.align	2
 979              		.p2align 4,,15
 980              		.global	chSchDoRescheduleAhead
 981              		.thumb
 982              		.thumb_func
 983              		.type	chSchDoRescheduleAhead, %function
 984              	chSchDoRescheduleAhead:
 985              	.LFB258:
 986              		.loc 7 537 0
 987              		.cfi_startproc
 988              		@ args = 0, pretend = 0, frame = 8
 989              		@ frame_needed = 0, uses_anonymous_args = 0
 990 0410 00B5     		push	{lr}
 991              		.cfi_def_cfa_offset 4
 992              		.cfi_offset 14, -4
 993 0412 83B0     		sub	sp, sp, #12
 994              		.cfi_def_cfa_offset 16
 995              		.loc 7 538 0
 996 0414 0D4B     		ldr	r3, .L67
 997 0416 9B69     		ldr	r3, [r3, #24]
 998 0418 0193     		str	r3, [sp, #4]
 999              		.loc 7 541 0
 1000 041a 0C48     		ldr	r0, .L67
 1001 041c FFF720FE 		bl	queue_fifo_remove
 1002 0420 0246     		mov	r2, r0
 1003 0422 0A4B     		ldr	r3, .L67
 1004 0424 9A61     		str	r2, [r3, #24]
 1005              		.loc 7 542 0
 1006 0426 094B     		ldr	r3, .L67
 1007 0428 9B69     		ldr	r3, [r3, #24]
 1008 042a 0122     		movs	r2, #1
 1009 042c 83F82020 		strb	r2, [r3, #32]
 1010              		.loc 7 550 0
 1011 0430 0198     		ldr	r0, [sp, #4]
ARM GAS  /tmp/ccYIACCT.s 			page 19


 1012 0432 FFF7FEFF 		bl	chSchReadyAheadI
 1013 0436 0190     		str	r0, [sp, #4]
 1014              		.loc 7 553 0
 1015 0438 044B     		ldr	r3, .L67
 1016 043a 9B69     		ldr	r3, [r3, #24]
 1017 043c 1846     		mov	r0, r3
 1018 043e 0199     		ldr	r1, [sp, #4]
 1019 0440 FFF7FEFF 		bl	_port_switch
 1020              		.loc 7 554 0
 1021 0444 03B0     		add	sp, sp, #12
 1022              		.cfi_def_cfa_offset 4
 1023              		@ sp needed
 1024 0446 5DF804FB 		ldr	pc, [sp], #4
 1025              	.L68:
 1026 044a 00BF     		.align	2
 1027              	.L67:
 1028 044c 00000000 		.word	ch
 1029              		.cfi_endproc
 1030              	.LFE258:
 1031              		.size	chSchDoRescheduleAhead, .-chSchDoRescheduleAhead
 1032              		.align	2
 1033              		.p2align 4,,15
 1034              		.global	chSchDoReschedule
 1035              		.thumb
 1036              		.thumb_func
 1037              		.type	chSchDoReschedule, %function
 1038              	chSchDoReschedule:
 1039              	.LFB259:
 1040              		.loc 7 566 0
 1041              		.cfi_startproc
 1042              		@ args = 0, pretend = 0, frame = 8
 1043              		@ frame_needed = 0, uses_anonymous_args = 0
 1044 0450 00B5     		push	{lr}
 1045              		.cfi_def_cfa_offset 4
 1046              		.cfi_offset 14, -4
 1047 0452 83B0     		sub	sp, sp, #12
 1048              		.cfi_def_cfa_offset 16
 1049              		.loc 7 567 0
 1050 0454 0D4B     		ldr	r3, .L70
 1051 0456 9B69     		ldr	r3, [r3, #24]
 1052 0458 0193     		str	r3, [sp, #4]
 1053              		.loc 7 570 0
 1054 045a 0C48     		ldr	r0, .L70
 1055 045c FFF700FE 		bl	queue_fifo_remove
 1056 0460 0246     		mov	r2, r0
 1057 0462 0A4B     		ldr	r3, .L70
 1058 0464 9A61     		str	r2, [r3, #24]
 1059              		.loc 7 571 0
 1060 0466 094B     		ldr	r3, .L70
 1061 0468 9B69     		ldr	r3, [r3, #24]
 1062 046a 0122     		movs	r2, #1
 1063 046c 83F82020 		strb	r2, [r3, #32]
 1064              		.loc 7 598 0
 1065 0470 0198     		ldr	r0, [sp, #4]
 1066 0472 FFF7FEFF 		bl	chSchReadyAheadI
 1067 0476 0190     		str	r0, [sp, #4]
 1068              		.loc 7 602 0
ARM GAS  /tmp/ccYIACCT.s 			page 20


 1069 0478 044B     		ldr	r3, .L70
 1070 047a 9B69     		ldr	r3, [r3, #24]
 1071 047c 1846     		mov	r0, r3
 1072 047e 0199     		ldr	r1, [sp, #4]
 1073 0480 FFF7FEFF 		bl	_port_switch
 1074              		.loc 7 603 0
 1075 0484 03B0     		add	sp, sp, #12
 1076              		.cfi_def_cfa_offset 4
 1077              		@ sp needed
 1078 0486 5DF804FB 		ldr	pc, [sp], #4
 1079              	.L71:
 1080 048a 00BF     		.align	2
 1081              	.L70:
 1082 048c 00000000 		.word	ch
 1083              		.cfi_endproc
 1084              	.LFE259:
 1085              		.size	chSchDoReschedule, .-chSchDoReschedule
 1086              	.Letext0:
 1087              		.file 8 "/usr/include/newlib/machine/_default_types.h"
 1088              		.file 9 "/usr/include/newlib/sys/_stdint.h"
 1089              		.file 10 "../../../os/common/ports/ARMCMx/compilers/GCC/chtypes.h"
 1090              		.file 11 "../../../os/rt/include/chsystypes.h"
 1091              		.file 12 "../../../os/common/ports/ARMCMx/chcore.h"
 1092              		.file 13 "../../../os/rt/include/chtm.h"
 1093              		.file 14 "../../../os/rt/include/chmtx.h"
 1094              		.file 15 "../../../os/common/ext/CMSIS/include/core_cm4.h"
 1095              		.section	.debug_info,"",%progbits
 1096              	.Ldebug_info0:
 1097 0000 6A0A0000 		.4byte	0xa6a
 1098 0004 0400     		.2byte	0x4
 1099 0006 00000000 		.4byte	.Ldebug_abbrev0
 1100 000a 04       		.byte	0x4
 1101 000b 01       		.uleb128 0x1
 1102 000c 83040000 		.4byte	.LASF118
 1103 0010 01       		.byte	0x1
 1104 0011 76050000 		.4byte	.LASF119
 1105 0015 03020000 		.4byte	.LASF120
 1106 0019 00000000 		.4byte	.Ltext0
 1107 001d 90040000 		.4byte	.Letext0-.Ltext0
 1108 0021 00000000 		.4byte	.Ldebug_line0
 1109 0025 02       		.uleb128 0x2
 1110 0026 04       		.byte	0x4
 1111 0027 05       		.byte	0x5
 1112 0028 696E7400 		.ascii	"int\000"
 1113 002c 03       		.uleb128 0x3
 1114 002d 04       		.byte	0x4
 1115 002e 07       		.byte	0x7
 1116 002f D6010000 		.4byte	.LASF0
 1117 0033 03       		.uleb128 0x3
 1118 0034 01       		.byte	0x1
 1119 0035 06       		.byte	0x6
 1120 0036 09010000 		.4byte	.LASF1
 1121 003a 04       		.uleb128 0x4
 1122 003b 40000000 		.4byte	.LASF5
 1123 003f 08       		.byte	0x8
 1124 0040 1D       		.byte	0x1d
 1125 0041 45000000 		.4byte	0x45
ARM GAS  /tmp/ccYIACCT.s 			page 21


 1126 0045 03       		.uleb128 0x3
 1127 0046 01       		.byte	0x1
 1128 0047 08       		.byte	0x8
 1129 0048 9E030000 		.4byte	.LASF2
 1130 004c 03       		.uleb128 0x3
 1131 004d 02       		.byte	0x2
 1132 004e 05       		.byte	0x5
 1133 004f B5030000 		.4byte	.LASF3
 1134 0053 03       		.uleb128 0x3
 1135 0054 02       		.byte	0x2
 1136 0055 07       		.byte	0x7
 1137 0056 4F020000 		.4byte	.LASF4
 1138 005a 04       		.uleb128 0x4
 1139 005b 11050000 		.4byte	.LASF6
 1140 005f 08       		.byte	0x8
 1141 0060 3F       		.byte	0x3f
 1142 0061 65000000 		.4byte	0x65
 1143 0065 03       		.uleb128 0x3
 1144 0066 04       		.byte	0x4
 1145 0067 05       		.byte	0x5
 1146 0068 37010000 		.4byte	.LASF7
 1147 006c 04       		.uleb128 0x4
 1148 006d 94010000 		.4byte	.LASF8
 1149 0071 08       		.byte	0x8
 1150 0072 41       		.byte	0x41
 1151 0073 77000000 		.4byte	0x77
 1152 0077 03       		.uleb128 0x3
 1153 0078 04       		.byte	0x4
 1154 0079 07       		.byte	0x7
 1155 007a F1010000 		.4byte	.LASF9
 1156 007e 03       		.uleb128 0x3
 1157 007f 08       		.byte	0x8
 1158 0080 05       		.byte	0x5
 1159 0081 FB000000 		.4byte	.LASF10
 1160 0085 04       		.uleb128 0x4
 1161 0086 3D030000 		.4byte	.LASF11
 1162 008a 08       		.byte	0x8
 1163 008b 5B       		.byte	0x5b
 1164 008c 90000000 		.4byte	0x90
 1165 0090 03       		.uleb128 0x3
 1166 0091 08       		.byte	0x8
 1167 0092 07       		.byte	0x7
 1168 0093 7F000000 		.4byte	.LASF12
 1169 0097 04       		.uleb128 0x4
 1170 0098 E0050000 		.4byte	.LASF13
 1171 009c 09       		.byte	0x9
 1172 009d 14       		.byte	0x14
 1173 009e 3A000000 		.4byte	0x3a
 1174 00a2 04       		.uleb128 0x4
 1175 00a3 96030000 		.4byte	.LASF14
 1176 00a7 09       		.byte	0x9
 1177 00a8 1F       		.byte	0x1f
 1178 00a9 5A000000 		.4byte	0x5a
 1179 00ad 04       		.uleb128 0x4
 1180 00ae 51040000 		.4byte	.LASF15
 1181 00b2 09       		.byte	0x9
 1182 00b3 20       		.byte	0x20
ARM GAS  /tmp/ccYIACCT.s 			page 22


 1183 00b4 6C000000 		.4byte	0x6c
 1184 00b8 04       		.uleb128 0x4
 1185 00b9 20000000 		.4byte	.LASF16
 1186 00bd 09       		.byte	0x9
 1187 00be 26       		.byte	0x26
 1188 00bf 85000000 		.4byte	0x85
 1189 00c3 04       		.uleb128 0x4
 1190 00c4 99050000 		.4byte	.LASF17
 1191 00c8 0A       		.byte	0xa
 1192 00c9 39       		.byte	0x39
 1193 00ca AD000000 		.4byte	0xad
 1194 00ce 04       		.uleb128 0x4
 1195 00cf EA030000 		.4byte	.LASF18
 1196 00d3 0A       		.byte	0xa
 1197 00d4 3C       		.byte	0x3c
 1198 00d5 97000000 		.4byte	0x97
 1199 00d9 04       		.uleb128 0x4
 1200 00da 4E010000 		.4byte	.LASF19
 1201 00de 0A       		.byte	0xa
 1202 00df 3D       		.byte	0x3d
 1203 00e0 97000000 		.4byte	0x97
 1204 00e4 04       		.uleb128 0x4
 1205 00e5 48030000 		.4byte	.LASF20
 1206 00e9 0A       		.byte	0xa
 1207 00ea 3E       		.byte	0x3e
 1208 00eb 97000000 		.4byte	0x97
 1209 00ef 04       		.uleb128 0x4
 1210 00f0 65030000 		.4byte	.LASF21
 1211 00f4 0A       		.byte	0xa
 1212 00f5 40       		.byte	0x40
 1213 00f6 AD000000 		.4byte	0xad
 1214 00fa 04       		.uleb128 0x4
 1215 00fb 6C020000 		.4byte	.LASF22
 1216 00ff 0A       		.byte	0xa
 1217 0100 41       		.byte	0x41
 1218 0101 A2000000 		.4byte	0xa2
 1219 0105 04       		.uleb128 0x4
 1220 0106 9C020000 		.4byte	.LASF23
 1221 010a 0A       		.byte	0xa
 1222 010b 43       		.byte	0x43
 1223 010c AD000000 		.4byte	0xad
 1224 0110 04       		.uleb128 0x4
 1225 0111 D0010000 		.4byte	.LASF24
 1226 0115 0A       		.byte	0xa
 1227 0116 45       		.byte	0x45
 1228 0117 A2000000 		.4byte	0xa2
 1229 011b 04       		.uleb128 0x4
 1230 011c 4B050000 		.4byte	.LASF25
 1231 0120 0B       		.byte	0xb
 1232 0121 33       		.byte	0x33
 1233 0122 AD000000 		.4byte	0xad
 1234 0126 04       		.uleb128 0x4
 1235 0127 30050000 		.4byte	.LASF26
 1236 012b 0B       		.byte	0xb
 1237 012c 3F       		.byte	0x3f
 1238 012d 31010000 		.4byte	0x131
 1239 0131 05       		.uleb128 0x5
ARM GAS  /tmp/ccYIACCT.s 			page 23


 1240 0132 62020000 		.4byte	.LASF44
 1241 0136 44       		.byte	0x44
 1242 0137 03       		.byte	0x3
 1243 0138 9A       		.byte	0x9a
 1244 0139 0F020000 		.4byte	0x20f
 1245 013d 06       		.uleb128 0x6
 1246 013e 5C010000 		.4byte	.LASF27
 1247 0142 03       		.byte	0x3
 1248 0143 9B       		.byte	0x9b
 1249 0144 44020000 		.4byte	0x244
 1250 0148 00       		.byte	0
 1251 0149 06       		.uleb128 0x6
 1252 014a 30030000 		.4byte	.LASF28
 1253 014e 03       		.byte	0x3
 1254 014f 9C       		.byte	0x9c
 1255 0150 EF000000 		.4byte	0xef
 1256 0154 08       		.byte	0x8
 1257 0155 07       		.uleb128 0x7
 1258 0156 63747800 		.ascii	"ctx\000"
 1259 015a 03       		.byte	0x3
 1260 015b 9D       		.byte	0x9d
 1261 015c 3C040000 		.4byte	0x43c
 1262 0160 0C       		.byte	0xc
 1263 0161 06       		.uleb128 0x6
 1264 0162 B3020000 		.4byte	.LASF29
 1265 0166 03       		.byte	0x3
 1266 0167 9F       		.byte	0x9f
 1267 0168 1A020000 		.4byte	0x21a
 1268 016c 10       		.byte	0x10
 1269 016d 06       		.uleb128 0x6
 1270 016e 0B050000 		.4byte	.LASF30
 1271 0172 03       		.byte	0x3
 1272 0173 A0       		.byte	0xa0
 1273 0174 1A020000 		.4byte	0x21a
 1274 0178 14       		.byte	0x14
 1275 0179 06       		.uleb128 0x6
 1276 017a 44020000 		.4byte	.LASF31
 1277 017e 03       		.byte	0x3
 1278 017f A7       		.byte	0xa7
 1279 0180 C1050000 		.4byte	0x5c1
 1280 0184 18       		.byte	0x18
 1281 0185 06       		.uleb128 0x6
 1282 0186 62010000 		.4byte	.LASF32
 1283 018a 03       		.byte	0x3
 1284 018b B0       		.byte	0xb0
 1285 018c D3050000 		.4byte	0x5d3
 1286 0190 1C       		.byte	0x1c
 1287 0191 06       		.uleb128 0x6
 1288 0192 31010000 		.4byte	.LASF33
 1289 0196 03       		.byte	0x3
 1290 0197 B5       		.byte	0xb5
 1291 0198 D9000000 		.4byte	0xd9
 1292 019c 20       		.byte	0x20
 1293 019d 06       		.uleb128 0x6
 1294 019e E8050000 		.4byte	.LASF34
 1295 01a2 03       		.byte	0x3
 1296 01a3 B9       		.byte	0xb9
ARM GAS  /tmp/ccYIACCT.s 			page 24


 1297 01a4 CE000000 		.4byte	0xce
 1298 01a8 21       		.byte	0x21
 1299 01a9 06       		.uleb128 0x6
 1300 01aa 50030000 		.4byte	.LASF35
 1301 01ae 03       		.byte	0x3
 1302 01af BE       		.byte	0xbe
 1303 01b0 E4000000 		.4byte	0xe4
 1304 01b4 22       		.byte	0x22
 1305 01b5 08       		.uleb128 0x8
 1306 01b6 7500     		.ascii	"u\000"
 1307 01b8 03       		.byte	0x3
 1308 01b9 0F01     		.2byte	0x10f
 1309 01bb F6040000 		.4byte	0x4f6
 1310 01bf 24       		.byte	0x24
 1311 01c0 09       		.uleb128 0x9
 1312 01c1 BA010000 		.4byte	.LASF36
 1313 01c5 03       		.byte	0x3
 1314 01c6 1401     		.2byte	0x114
 1315 01c8 20020000 		.4byte	0x220
 1316 01cc 28       		.byte	0x28
 1317 01cd 09       		.uleb128 0x9
 1318 01ce 28010000 		.4byte	.LASF37
 1319 01d2 03       		.byte	0x3
 1320 01d3 1A01     		.2byte	0x11a
 1321 01d5 44020000 		.4byte	0x244
 1322 01d9 2C       		.byte	0x2c
 1323 01da 09       		.uleb128 0x9
 1324 01db 72020000 		.4byte	.LASF38
 1325 01df 03       		.byte	0x3
 1326 01e0 2001     		.2byte	0x120
 1327 01e2 05010000 		.4byte	0x105
 1328 01e6 34       		.byte	0x34
 1329 01e7 09       		.uleb128 0x9
 1330 01e8 38060000 		.4byte	.LASF39
 1331 01ec 03       		.byte	0x3
 1332 01ed 2701     		.2byte	0x127
 1333 01ef BB050000 		.4byte	0x5bb
 1334 01f3 38       		.byte	0x38
 1335 01f4 09       		.uleb128 0x9
 1336 01f5 B9020000 		.4byte	.LASF40
 1337 01f9 03       		.byte	0x3
 1338 01fa 2B01     		.2byte	0x12b
 1339 01fc EF000000 		.4byte	0xef
 1340 0200 3C       		.byte	0x3c
 1341 0201 09       		.uleb128 0x9
 1342 0202 49020000 		.4byte	.LASF41
 1343 0206 03       		.byte	0x3
 1344 0207 3201     		.2byte	0x132
 1345 0209 F7020000 		.4byte	0x2f7
 1346 020d 40       		.byte	0x40
 1347 020e 00       		.byte	0
 1348 020f 04       		.uleb128 0x4
 1349 0210 CB020000 		.4byte	.LASF42
 1350 0214 0B       		.byte	0xb
 1351 0215 44       		.byte	0x44
 1352 0216 1A020000 		.4byte	0x21a
 1353 021a 0A       		.uleb128 0xa
ARM GAS  /tmp/ccYIACCT.s 			page 25


 1354 021b 04       		.byte	0x4
 1355 021c 26010000 		.4byte	0x126
 1356 0220 04       		.uleb128 0x4
 1357 0221 FF050000 		.4byte	.LASF43
 1358 0225 0B       		.byte	0xb
 1359 0226 49       		.byte	0x49
 1360 0227 2B020000 		.4byte	0x22b
 1361 022b 05       		.uleb128 0x5
 1362 022c 6D040000 		.4byte	.LASF45
 1363 0230 04       		.byte	0x4
 1364 0231 03       		.byte	0x3
 1365 0232 88       		.byte	0x88
 1366 0233 44020000 		.4byte	0x244
 1367 0237 06       		.uleb128 0x6
 1368 0238 D5000000 		.4byte	.LASF46
 1369 023c 03       		.byte	0x3
 1370 023d 89       		.byte	0x89
 1371 023e 1A020000 		.4byte	0x21a
 1372 0242 00       		.byte	0
 1373 0243 00       		.byte	0
 1374 0244 04       		.uleb128 0x4
 1375 0245 C1050000 		.4byte	.LASF47
 1376 0249 0B       		.byte	0xb
 1377 024a 50       		.byte	0x50
 1378 024b 4F020000 		.4byte	0x24f
 1379 024f 05       		.uleb128 0x5
 1380 0250 DA000000 		.4byte	.LASF48
 1381 0254 08       		.byte	0x8
 1382 0255 03       		.byte	0x3
 1383 0256 8F       		.byte	0x8f
 1384 0257 74020000 		.4byte	0x274
 1385 025b 06       		.uleb128 0x6
 1386 025c D5000000 		.4byte	.LASF46
 1387 0260 03       		.byte	0x3
 1388 0261 90       		.byte	0x90
 1389 0262 1A020000 		.4byte	0x21a
 1390 0266 00       		.byte	0
 1391 0267 06       		.uleb128 0x6
 1392 0268 4A000000 		.4byte	.LASF49
 1393 026c 03       		.byte	0x3
 1394 026d 91       		.byte	0x91
 1395 026e 1A020000 		.4byte	0x21a
 1396 0272 04       		.byte	0x4
 1397 0273 00       		.byte	0
 1398 0274 04       		.uleb128 0x4
 1399 0275 00000000 		.4byte	.LASF50
 1400 0279 0B       		.byte	0xb
 1401 027a 57       		.byte	0x57
 1402 027b 7F020000 		.4byte	0x27f
 1403 027f 0B       		.uleb128 0xb
 1404 0280 8E020000 		.4byte	.LASF51
 1405 0284 1C       		.byte	0x1c
 1406 0285 03       		.byte	0x3
 1407 0286 6A01     		.2byte	0x16a
 1408 0288 DB020000 		.4byte	0x2db
 1409 028c 09       		.uleb128 0x9
 1410 028d 5C010000 		.4byte	.LASF27
ARM GAS  /tmp/ccYIACCT.s 			page 26


 1411 0291 03       		.byte	0x3
 1412 0292 6B01     		.2byte	0x16b
 1413 0294 44020000 		.4byte	0x244
 1414 0298 00       		.byte	0
 1415 0299 09       		.uleb128 0x9
 1416 029a 30030000 		.4byte	.LASF28
 1417 029e 03       		.byte	0x3
 1418 029f 6C01     		.2byte	0x16c
 1419 02a1 EF000000 		.4byte	0xef
 1420 02a5 08       		.byte	0x8
 1421 02a6 08       		.uleb128 0x8
 1422 02a7 63747800 		.ascii	"ctx\000"
 1423 02ab 03       		.byte	0x3
 1424 02ac 6E01     		.2byte	0x16e
 1425 02ae 3C040000 		.4byte	0x43c
 1426 02b2 0C       		.byte	0xc
 1427 02b3 09       		.uleb128 0x9
 1428 02b4 B3020000 		.4byte	.LASF29
 1429 02b8 03       		.byte	0x3
 1430 02b9 7101     		.2byte	0x171
 1431 02bb 1A020000 		.4byte	0x21a
 1432 02bf 10       		.byte	0x10
 1433 02c0 09       		.uleb128 0x9
 1434 02c1 0B050000 		.4byte	.LASF30
 1435 02c5 03       		.byte	0x3
 1436 02c6 7201     		.2byte	0x172
 1437 02c8 1A020000 		.4byte	0x21a
 1438 02cc 14       		.byte	0x14
 1439 02cd 09       		.uleb128 0x9
 1440 02ce 35030000 		.4byte	.LASF52
 1441 02d2 03       		.byte	0x3
 1442 02d3 7501     		.2byte	0x175
 1443 02d5 1A020000 		.4byte	0x21a
 1444 02d9 18       		.byte	0x18
 1445 02da 00       		.byte	0
 1446 02db 04       		.uleb128 0x4
 1447 02dc 55050000 		.4byte	.LASF53
 1448 02e0 0B       		.byte	0xb
 1449 02e1 5C       		.byte	0x5c
 1450 02e2 E6020000 		.4byte	0x2e6
 1451 02e6 0A       		.uleb128 0xa
 1452 02e7 04       		.byte	0x4
 1453 02e8 EC020000 		.4byte	0x2ec
 1454 02ec 0C       		.uleb128 0xc
 1455 02ed F7020000 		.4byte	0x2f7
 1456 02f1 0D       		.uleb128 0xd
 1457 02f2 F7020000 		.4byte	0x2f7
 1458 02f6 00       		.byte	0
 1459 02f7 0E       		.uleb128 0xe
 1460 02f8 04       		.byte	0x4
 1461 02f9 04       		.uleb128 0x4
 1462 02fa 55030000 		.4byte	.LASF54
 1463 02fe 0B       		.byte	0xb
 1464 02ff 61       		.byte	0x61
 1465 0300 04030000 		.4byte	0x304
 1466 0304 0B       		.uleb128 0xb
 1467 0305 14040000 		.4byte	.LASF55
ARM GAS  /tmp/ccYIACCT.s 			page 27


 1468 0309 14       		.byte	0x14
 1469 030a 03       		.byte	0x3
 1470 030b 4501     		.2byte	0x145
 1471 030d 53030000 		.4byte	0x353
 1472 0311 09       		.uleb128 0x9
 1473 0312 D5000000 		.4byte	.LASF46
 1474 0316 03       		.byte	0x3
 1475 0317 4601     		.2byte	0x146
 1476 0319 D9050000 		.4byte	0x5d9
 1477 031d 00       		.byte	0
 1478 031e 09       		.uleb128 0x9
 1479 031f 4A000000 		.4byte	.LASF49
 1480 0323 03       		.byte	0x3
 1481 0324 4701     		.2byte	0x147
 1482 0326 D9050000 		.4byte	0x5d9
 1483 032a 04       		.byte	0x4
 1484 032b 09       		.uleb128 0x9
 1485 032c 13000000 		.4byte	.LASF56
 1486 0330 03       		.byte	0x3
 1487 0331 4801     		.2byte	0x148
 1488 0333 1B010000 		.4byte	0x11b
 1489 0337 08       		.byte	0x8
 1490 0338 09       		.uleb128 0x9
 1491 0339 57010000 		.4byte	.LASF57
 1492 033d 03       		.byte	0x3
 1493 033e 4901     		.2byte	0x149
 1494 0340 DB020000 		.4byte	0x2db
 1495 0344 0C       		.byte	0xc
 1496 0345 08       		.uleb128 0x8
 1497 0346 70617200 		.ascii	"par\000"
 1498 034a 03       		.byte	0x3
 1499 034b 4B01     		.2byte	0x14b
 1500 034d F7020000 		.4byte	0x2f7
 1501 0351 10       		.byte	0x10
 1502 0352 00       		.byte	0
 1503 0353 04       		.uleb128 0x4
 1504 0354 B2000000 		.4byte	.LASF58
 1505 0358 0B       		.byte	0xb
 1506 0359 66       		.byte	0x66
 1507 035a 5E030000 		.4byte	0x35e
 1508 035e 0B       		.uleb128 0xb
 1509 035f DE020000 		.4byte	.LASF59
 1510 0363 10       		.byte	0x10
 1511 0364 03       		.byte	0x3
 1512 0365 5501     		.2byte	0x155
 1513 0367 A0030000 		.4byte	0x3a0
 1514 036b 09       		.uleb128 0x9
 1515 036c D5000000 		.4byte	.LASF46
 1516 0370 03       		.byte	0x3
 1517 0371 5601     		.2byte	0x156
 1518 0373 D9050000 		.4byte	0x5d9
 1519 0377 00       		.byte	0
 1520 0378 09       		.uleb128 0x9
 1521 0379 4A000000 		.4byte	.LASF49
 1522 037d 03       		.byte	0x3
 1523 037e 5801     		.2byte	0x158
 1524 0380 D9050000 		.4byte	0x5d9
ARM GAS  /tmp/ccYIACCT.s 			page 28


 1525 0384 04       		.byte	0x4
 1526 0385 09       		.uleb128 0x9
 1527 0386 13000000 		.4byte	.LASF56
 1528 038a 03       		.byte	0x3
 1529 038b 5A01     		.2byte	0x15a
 1530 038d 1B010000 		.4byte	0x11b
 1531 0391 08       		.byte	0x8
 1532 0392 09       		.uleb128 0x9
 1533 0393 BF030000 		.4byte	.LASF60
 1534 0397 03       		.byte	0x3
 1535 0398 6201     		.2byte	0x162
 1536 039a 1B010000 		.4byte	0x11b
 1537 039e 0C       		.byte	0xc
 1538 039f 00       		.byte	0
 1539 03a0 04       		.uleb128 0x4
 1540 03a1 5B000000 		.4byte	.LASF61
 1541 03a5 0B       		.byte	0xb
 1542 03a6 6B       		.byte	0x6b
 1543 03a7 AB030000 		.4byte	0x3ab
 1544 03ab 0B       		.uleb128 0xb
 1545 03ac 80030000 		.4byte	.LASF62
 1546 03b0 04       		.byte	0x4
 1547 03b1 03       		.byte	0x3
 1548 03b2 7C01     		.2byte	0x17c
 1549 03b4 C6030000 		.4byte	0x3c6
 1550 03b8 09       		.uleb128 0x9
 1551 03b9 6C050000 		.4byte	.LASF63
 1552 03bd 03       		.byte	0x3
 1553 03be 8401     		.2byte	0x184
 1554 03c0 DF050000 		.4byte	0x5df
 1555 03c4 00       		.byte	0
 1556 03c5 00       		.byte	0
 1557 03c6 04       		.uleb128 0x4
 1558 03c7 7B020000 		.4byte	.LASF64
 1559 03cb 0B       		.byte	0xb
 1560 03cc 70       		.byte	0x70
 1561 03cd D1030000 		.4byte	0x3d1
 1562 03d1 0B       		.uleb128 0xb
 1563 03d2 E0030000 		.4byte	.LASF65
 1564 03d6 78       		.byte	0x78
 1565 03d7 03       		.byte	0x3
 1566 03d8 9C01     		.2byte	0x19c
 1567 03da 1F040000 		.4byte	0x41f
 1568 03de 09       		.uleb128 0x9
 1569 03df DA050000 		.4byte	.LASF66
 1570 03e3 03       		.byte	0x3
 1571 03e4 A001     		.2byte	0x1a0
 1572 03e6 74020000 		.4byte	0x274
 1573 03ea 00       		.byte	0
 1574 03eb 09       		.uleb128 0x9
 1575 03ec 15010000 		.4byte	.LASF67
 1576 03f0 03       		.byte	0x3
 1577 03f1 A401     		.2byte	0x1a4
 1578 03f3 53030000 		.4byte	0x353
 1579 03f7 1C       		.byte	0x1c
 1580 03f8 08       		.uleb128 0x8
 1581 03f9 64626700 		.ascii	"dbg\000"
ARM GAS  /tmp/ccYIACCT.s 			page 29


 1582 03fd 03       		.byte	0x3
 1583 03fe A801     		.2byte	0x1a8
 1584 0400 A0030000 		.4byte	0x3a0
 1585 0404 2C       		.byte	0x2c
 1586 0405 09       		.uleb128 0x9
 1587 0406 9F000000 		.4byte	.LASF68
 1588 040a 03       		.byte	0x3
 1589 040b AC01     		.2byte	0x1ac
 1590 040d 26010000 		.4byte	0x126
 1591 0411 30       		.byte	0x30
 1592 0412 08       		.uleb128 0x8
 1593 0413 746D00   		.ascii	"tm\000"
 1594 0416 03       		.byte	0x3
 1595 0417 B101     		.2byte	0x1b1
 1596 0419 EB040000 		.4byte	0x4eb
 1597 041d 74       		.byte	0x74
 1598 041e 00       		.byte	0
 1599 041f 03       		.uleb128 0x3
 1600 0420 04       		.byte	0x4
 1601 0421 07       		.byte	0x7
 1602 0422 C2020000 		.4byte	.LASF69
 1603 0426 04       		.uleb128 0x4
 1604 0427 9F010000 		.4byte	.LASF70
 1605 042b 0C       		.byte	0xc
 1606 042c 65       		.byte	0x65
 1607 042d F7020000 		.4byte	0x2f7
 1608 0431 04       		.uleb128 0x4
 1609 0432 A8020000 		.4byte	.LASF71
 1610 0436 0C       		.byte	0xc
 1611 0437 6D       		.byte	0x6d
 1612 0438 B8000000 		.4byte	0xb8
 1613 043c 05       		.uleb128 0x5
 1614 043d 0D030000 		.4byte	.LASF72
 1615 0441 04       		.byte	0x4
 1616 0442 0C       		.byte	0xc
 1617 0443 89       		.byte	0x89
 1618 0444 54040000 		.4byte	0x454
 1619 0448 07       		.uleb128 0x7
 1620 0449 737000   		.ascii	"sp\000"
 1621 044c 0C       		.byte	0xc
 1622 044d 8A       		.byte	0x8a
 1623 044e D0040000 		.4byte	0x4d0
 1624 0452 00       		.byte	0
 1625 0453 00       		.byte	0
 1626 0454 0B       		.uleb128 0xb
 1627 0455 4F000000 		.4byte	.LASF73
 1628 0459 24       		.byte	0x24
 1629 045a 01       		.byte	0x1
 1630 045b 5901     		.2byte	0x159
 1631 045d D0040000 		.4byte	0x4d0
 1632 0461 08       		.uleb128 0x8
 1633 0462 723400   		.ascii	"r4\000"
 1634 0465 01       		.byte	0x1
 1635 0466 6C01     		.2byte	0x16c
 1636 0468 26040000 		.4byte	0x426
 1637 046c 00       		.byte	0
 1638 046d 08       		.uleb128 0x8
ARM GAS  /tmp/ccYIACCT.s 			page 30


 1639 046e 723500   		.ascii	"r5\000"
 1640 0471 01       		.byte	0x1
 1641 0472 6D01     		.2byte	0x16d
 1642 0474 26040000 		.4byte	0x426
 1643 0478 04       		.byte	0x4
 1644 0479 08       		.uleb128 0x8
 1645 047a 723600   		.ascii	"r6\000"
 1646 047d 01       		.byte	0x1
 1647 047e 6E01     		.2byte	0x16e
 1648 0480 26040000 		.4byte	0x426
 1649 0484 08       		.byte	0x8
 1650 0485 08       		.uleb128 0x8
 1651 0486 723700   		.ascii	"r7\000"
 1652 0489 01       		.byte	0x1
 1653 048a 6F01     		.2byte	0x16f
 1654 048c 26040000 		.4byte	0x426
 1655 0490 0C       		.byte	0xc
 1656 0491 08       		.uleb128 0x8
 1657 0492 723800   		.ascii	"r8\000"
 1658 0495 01       		.byte	0x1
 1659 0496 7001     		.2byte	0x170
 1660 0498 26040000 		.4byte	0x426
 1661 049c 10       		.byte	0x10
 1662 049d 08       		.uleb128 0x8
 1663 049e 723900   		.ascii	"r9\000"
 1664 04a1 01       		.byte	0x1
 1665 04a2 7101     		.2byte	0x171
 1666 04a4 26040000 		.4byte	0x426
 1667 04a8 14       		.byte	0x14
 1668 04a9 08       		.uleb128 0x8
 1669 04aa 72313000 		.ascii	"r10\000"
 1670 04ae 01       		.byte	0x1
 1671 04af 7201     		.2byte	0x172
 1672 04b1 26040000 		.4byte	0x426
 1673 04b5 18       		.byte	0x18
 1674 04b6 08       		.uleb128 0x8
 1675 04b7 72313100 		.ascii	"r11\000"
 1676 04bb 01       		.byte	0x1
 1677 04bc 7301     		.2byte	0x173
 1678 04be 26040000 		.4byte	0x426
 1679 04c2 1C       		.byte	0x1c
 1680 04c3 08       		.uleb128 0x8
 1681 04c4 6C7200   		.ascii	"lr\000"
 1682 04c7 01       		.byte	0x1
 1683 04c8 7401     		.2byte	0x174
 1684 04ca 26040000 		.4byte	0x426
 1685 04ce 20       		.byte	0x20
 1686 04cf 00       		.byte	0
 1687 04d0 0A       		.uleb128 0xa
 1688 04d1 04       		.byte	0x4
 1689 04d2 54040000 		.4byte	0x454
 1690 04d6 0F       		.uleb128 0xf
 1691 04d7 04       		.byte	0x4
 1692 04d8 0D       		.byte	0xd
 1693 04d9 38       		.byte	0x38
 1694 04da EB040000 		.4byte	0x4eb
 1695 04de 06       		.uleb128 0x6
ARM GAS  /tmp/ccYIACCT.s 			page 31


 1696 04df 92050000 		.4byte	.LASF74
 1697 04e3 0D       		.byte	0xd
 1698 04e4 3C       		.byte	0x3c
 1699 04e5 C3000000 		.4byte	0xc3
 1700 04e9 00       		.byte	0
 1701 04ea 00       		.byte	0
 1702 04eb 04       		.uleb128 0x4
 1703 04ec 1A030000 		.4byte	.LASF75
 1704 04f0 0D       		.byte	0xd
 1705 04f1 3D       		.byte	0x3d
 1706 04f2 D6040000 		.4byte	0x4d6
 1707 04f6 10       		.uleb128 0x10
 1708 04f7 04       		.byte	0x4
 1709 04f8 03       		.byte	0x3
 1710 04f9 D2       		.byte	0xd2
 1711 04fa 59050000 		.4byte	0x559
 1712 04fe 11       		.uleb128 0x11
 1713 04ff 19000000 		.4byte	.LASF76
 1714 0503 03       		.byte	0x3
 1715 0504 D9       		.byte	0xd9
 1716 0505 FA000000 		.4byte	0xfa
 1717 0509 11       		.uleb128 0x11
 1718 050a 96000000 		.4byte	.LASF77
 1719 050e 03       		.byte	0x3
 1720 050f E0       		.byte	0xe0
 1721 0510 FA000000 		.4byte	0xfa
 1722 0514 11       		.uleb128 0x11
 1723 0515 87020000 		.4byte	.LASF78
 1724 0519 03       		.byte	0x3
 1725 051a E7       		.byte	0xe7
 1726 051b F7020000 		.4byte	0x2f7
 1727 051f 11       		.uleb128 0x11
 1728 0520 0D000000 		.4byte	.LASF79
 1729 0524 03       		.byte	0x3
 1730 0525 EE       		.byte	0xee
 1731 0526 59050000 		.4byte	0x559
 1732 052a 11       		.uleb128 0x11
 1733 052b AA000000 		.4byte	.LASF80
 1734 052f 03       		.byte	0x3
 1735 0530 F3       		.byte	0xf3
 1736 0531 FA000000 		.4byte	0xfa
 1737 0535 11       		.uleb128 0x11
 1738 0536 EA010000 		.4byte	.LASF81
 1739 053a 03       		.byte	0x3
 1740 053b FC       		.byte	0xfc
 1741 053c 84050000 		.4byte	0x584
 1742 0540 12       		.uleb128 0x12
 1743 0541 5A040000 		.4byte	.LASF82
 1744 0545 03       		.byte	0x3
 1745 0546 0501     		.2byte	0x105
 1746 0548 BB050000 		.4byte	0x5bb
 1747 054c 12       		.uleb128 0x12
 1748 054d D9030000 		.4byte	.LASF83
 1749 0551 03       		.byte	0x3
 1750 0552 0D01     		.2byte	0x10d
 1751 0554 05010000 		.4byte	0x105
 1752 0558 00       		.byte	0
ARM GAS  /tmp/ccYIACCT.s 			page 32


 1753 0559 0A       		.uleb128 0xa
 1754 055a 04       		.byte	0x4
 1755 055b 0F020000 		.4byte	0x20f
 1756 055f 05       		.uleb128 0x5
 1757 0560 25040000 		.4byte	.LASF84
 1758 0564 0C       		.byte	0xc
 1759 0565 06       		.byte	0x6
 1760 0566 34       		.byte	0x34
 1761 0567 84050000 		.4byte	0x584
 1762 056b 06       		.uleb128 0x6
 1763 056c 5C010000 		.4byte	.LASF27
 1764 0570 06       		.byte	0x6
 1765 0571 35       		.byte	0x35
 1766 0572 44020000 		.4byte	0x244
 1767 0576 00       		.byte	0
 1768 0577 07       		.uleb128 0x7
 1769 0578 636E7400 		.ascii	"cnt\000"
 1770 057c 06       		.byte	0x6
 1771 057d 37       		.byte	0x37
 1772 057e 10010000 		.4byte	0x110
 1773 0582 08       		.byte	0x8
 1774 0583 00       		.byte	0
 1775 0584 0A       		.uleb128 0xa
 1776 0585 04       		.byte	0x4
 1777 0586 5F050000 		.4byte	0x55f
 1778 058a 05       		.uleb128 0x5
 1779 058b D1050000 		.4byte	.LASF85
 1780 058f 10       		.byte	0x10
 1781 0590 0E       		.byte	0xe
 1782 0591 39       		.byte	0x39
 1783 0592 BB050000 		.4byte	0x5bb
 1784 0596 06       		.uleb128 0x6
 1785 0597 5C010000 		.4byte	.LASF27
 1786 059b 0E       		.byte	0xe
 1787 059c 3A       		.byte	0x3a
 1788 059d 44020000 		.4byte	0x244
 1789 05a1 00       		.byte	0
 1790 05a2 06       		.uleb128 0x6
 1791 05a3 7D040000 		.4byte	.LASF86
 1792 05a7 0E       		.byte	0xe
 1793 05a8 3C       		.byte	0x3c
 1794 05a9 1A020000 		.4byte	0x21a
 1795 05ad 08       		.byte	0x8
 1796 05ae 06       		.uleb128 0x6
 1797 05af D5000000 		.4byte	.LASF46
 1798 05b3 0E       		.byte	0xe
 1799 05b4 3E       		.byte	0x3e
 1800 05b5 FA050000 		.4byte	0x5fa
 1801 05b9 0C       		.byte	0xc
 1802 05ba 00       		.byte	0
 1803 05bb 0A       		.uleb128 0xa
 1804 05bc 04       		.byte	0x4
 1805 05bd 8A050000 		.4byte	0x58a
 1806 05c1 0A       		.uleb128 0xa
 1807 05c2 04       		.byte	0x4
 1808 05c3 C7050000 		.4byte	0x5c7
 1809 05c7 13       		.uleb128 0x13
ARM GAS  /tmp/ccYIACCT.s 			page 33


 1810 05c8 CC050000 		.4byte	0x5cc
 1811 05cc 03       		.uleb128 0x3
 1812 05cd 01       		.byte	0x1
 1813 05ce 08       		.byte	0x8
 1814 05cf 06050000 		.4byte	.LASF87
 1815 05d3 0A       		.uleb128 0xa
 1816 05d4 04       		.byte	0x4
 1817 05d5 31040000 		.4byte	0x431
 1818 05d9 0A       		.uleb128 0xa
 1819 05da 04       		.byte	0x4
 1820 05db F9020000 		.4byte	0x2f9
 1821 05df 14       		.uleb128 0x14
 1822 05e0 C1050000 		.4byte	0x5c1
 1823 05e4 04       		.uleb128 0x4
 1824 05e5 08040000 		.4byte	.LASF88
 1825 05e9 06       		.byte	0x6
 1826 05ea 38       		.byte	0x38
 1827 05eb 5F050000 		.4byte	0x55f
 1828 05ef 04       		.uleb128 0x4
 1829 05f0 C2010000 		.4byte	.LASF89
 1830 05f4 0E       		.byte	0xe
 1831 05f5 34       		.byte	0x34
 1832 05f6 8A050000 		.4byte	0x58a
 1833 05fa 0A       		.uleb128 0xa
 1834 05fb 04       		.byte	0x4
 1835 05fc EF050000 		.4byte	0x5ef
 1836 0600 03       		.uleb128 0x3
 1837 0601 01       		.byte	0x1
 1838 0602 02       		.byte	0x2
 1839 0603 90030000 		.4byte	.LASF90
 1840 0607 15       		.uleb128 0x15
 1841 0608 5E050000 		.4byte	.LASF121
 1842 060c 02       		.byte	0x2
 1843 060d 0601     		.2byte	0x106
 1844 060f 03       		.byte	0x3
 1845 0610 21060000 		.4byte	0x621
 1846 0614 16       		.uleb128 0x16
 1847 0615 CA010000 		.4byte	.LASF122
 1848 0619 02       		.byte	0x2
 1849 061a 0601     		.2byte	0x106
 1850 061c AD000000 		.4byte	0xad
 1851 0620 00       		.byte	0
 1852 0621 17       		.uleb128 0x17
 1853 0622 75000000 		.4byte	.LASF91
 1854 0626 01       		.byte	0x1
 1855 0627 5202     		.2byte	0x252
 1856 0629 00000000 		.4byte	.LFB127
 1857 062d 10000000 		.4byte	.LFE127-.LFB127
 1858 0631 01       		.uleb128 0x1
 1859 0632 9C       		.byte	0x9c
 1860 0633 51060000 		.4byte	0x651
 1861 0637 18       		.uleb128 0x18
 1862 0638 07060000 		.4byte	0x607
 1863 063c 06000000 		.4byte	.LBB6
 1864 0640 06000000 		.4byte	.LBE6-.LBB6
 1865 0644 01       		.byte	0x1
 1866 0645 5A02     		.2byte	0x25a
ARM GAS  /tmp/ccYIACCT.s 			page 34


 1867 0647 19       		.uleb128 0x19
 1868 0648 14060000 		.4byte	0x614
 1869 064c 02       		.uleb128 0x2
 1870 064d 91       		.byte	0x91
 1871 064e 7C       		.sleb128 -4
 1872 064f 00       		.byte	0
 1873 0650 00       		.byte	0
 1874 0651 17       		.uleb128 0x17
 1875 0652 1C010000 		.4byte	.LASF92
 1876 0656 01       		.byte	0x1
 1877 0657 6A02     		.2byte	0x26a
 1878 0659 10000000 		.4byte	.LFB128
 1879 065d 10000000 		.4byte	.LFE128-.LFB128
 1880 0661 01       		.uleb128 0x1
 1881 0662 9C       		.byte	0x9c
 1882 0663 81060000 		.4byte	0x681
 1883 0667 18       		.uleb128 0x18
 1884 0668 07060000 		.4byte	0x607
 1885 066c 16000000 		.4byte	.LBB8
 1886 0670 06000000 		.4byte	.LBE8-.LBB8
 1887 0674 01       		.byte	0x1
 1888 0675 6D02     		.2byte	0x26d
 1889 0677 19       		.uleb128 0x19
 1890 0678 14060000 		.4byte	0x614
 1891 067c 02       		.uleb128 0x2
 1892 067d 91       		.byte	0x91
 1893 067e 7C       		.sleb128 -4
 1894 067f 00       		.byte	0
 1895 0680 00       		.byte	0
 1896 0681 1A       		.uleb128 0x1a
 1897 0682 A1050000 		.4byte	.LASF93
 1898 0686 01       		.byte	0x1
 1899 0687 7902     		.2byte	0x279
 1900 0689 20000000 		.4byte	.LFB129
 1901 068d 08000000 		.4byte	.LFE129-.LFB129
 1902 0691 01       		.uleb128 0x1
 1903 0692 9C       		.byte	0x9c
 1904 0693 1A       		.uleb128 0x1a
 1905 0694 1B050000 		.4byte	.LASF94
 1906 0698 01       		.byte	0x1
 1907 0699 8402     		.2byte	0x284
 1908 069b 30000000 		.4byte	.LFB130
 1909 069f 08000000 		.4byte	.LFE130-.LFB130
 1910 06a3 01       		.uleb128 0x1
 1911 06a4 9C       		.byte	0x9c
 1912 06a5 17       		.uleb128 0x17
 1913 06a6 6A000000 		.4byte	.LASF95
 1914 06aa 03       		.byte	0x3
 1915 06ab 2402     		.2byte	0x224
 1916 06ad 40000000 		.4byte	.LFB150
 1917 06b1 14000000 		.4byte	.LFE150-.LFB150
 1918 06b5 01       		.uleb128 0x1
 1919 06b6 9C       		.byte	0x9c
 1920 06b7 CB060000 		.4byte	0x6cb
 1921 06bb 1B       		.uleb128 0x1b
 1922 06bc 74717000 		.ascii	"tqp\000"
 1923 06c0 03       		.byte	0x3
ARM GAS  /tmp/ccYIACCT.s 			page 35


 1924 06c1 2402     		.2byte	0x224
 1925 06c3 CB060000 		.4byte	0x6cb
 1926 06c7 02       		.uleb128 0x2
 1927 06c8 91       		.byte	0x91
 1928 06c9 7C       		.sleb128 -4
 1929 06ca 00       		.byte	0
 1930 06cb 0A       		.uleb128 0xa
 1931 06cc 04       		.byte	0x4
 1932 06cd 44020000 		.4byte	0x244
 1933 06d1 1C       		.uleb128 0x1c
 1934 06d2 39050000 		.4byte	.LASF96
 1935 06d6 03       		.byte	0x3
 1936 06d7 6902     		.2byte	0x269
 1937 06d9 1A020000 		.4byte	0x21a
 1938 06dd 60000000 		.4byte	.LFB157
 1939 06e1 22000000 		.4byte	.LFE157-.LFB157
 1940 06e5 01       		.uleb128 0x1
 1941 06e6 9C       		.byte	0x9c
 1942 06e7 09070000 		.4byte	0x709
 1943 06eb 1B       		.uleb128 0x1b
 1944 06ec 74717000 		.ascii	"tqp\000"
 1945 06f0 03       		.byte	0x3
 1946 06f1 6902     		.2byte	0x269
 1947 06f3 CB060000 		.4byte	0x6cb
 1948 06f7 02       		.uleb128 0x2
 1949 06f8 91       		.byte	0x91
 1950 06f9 74       		.sleb128 -12
 1951 06fa 1D       		.uleb128 0x1d
 1952 06fb 747000   		.ascii	"tp\000"
 1953 06fe 03       		.byte	0x3
 1954 06ff 6A02     		.2byte	0x26a
 1955 0701 1A020000 		.4byte	0x21a
 1956 0705 02       		.uleb128 0x2
 1957 0706 91       		.byte	0x91
 1958 0707 7C       		.sleb128 -4
 1959 0708 00       		.byte	0
 1960 0709 1C       		.uleb128 0x1c
 1961 070a 40010000 		.4byte	.LASF97
 1962 070e 03       		.byte	0x3
 1963 070f 7B02     		.2byte	0x27b
 1964 0711 1A020000 		.4byte	0x21a
 1965 0715 90000000 		.4byte	.LFB159
 1966 0719 20000000 		.4byte	.LFE159-.LFB159
 1967 071d 01       		.uleb128 0x1
 1968 071e 9C       		.byte	0x9c
 1969 071f 32070000 		.4byte	0x732
 1970 0723 1B       		.uleb128 0x1b
 1971 0724 747000   		.ascii	"tp\000"
 1972 0727 03       		.byte	0x3
 1973 0728 7B02     		.2byte	0x27b
 1974 072a 1A020000 		.4byte	0x21a
 1975 072e 02       		.uleb128 0x2
 1976 072f 91       		.byte	0x91
 1977 0730 7C       		.sleb128 -4
 1978 0731 00       		.byte	0
 1979 0732 1E       		.uleb128 0x1e
 1980 0733 23060000 		.4byte	.LASF123
ARM GAS  /tmp/ccYIACCT.s 			page 36


 1981 0737 03       		.byte	0x3
 1982 0738 8F02     		.2byte	0x28f
 1983 073a 00060000 		.4byte	0x600
 1984 073e B0000000 		.4byte	.LFB160
 1985 0742 20000000 		.4byte	.LFE160-.LFB160
 1986 0746 01       		.uleb128 0x1
 1987 0747 9C       		.byte	0x9c
 1988 0748 1A       		.uleb128 0x1a
 1989 0749 EE050000 		.4byte	.LASF98
 1990 074d 04       		.byte	0x4
 1991 074e 9E01     		.2byte	0x19e
 1992 0750 D0000000 		.4byte	.LFB169
 1993 0754 08000000 		.4byte	.LFE169-.LFB169
 1994 0758 01       		.uleb128 0x1
 1995 0759 9C       		.byte	0x9c
 1996 075a 1A       		.uleb128 0x1a
 1997 075b 6D030000 		.4byte	.LASF99
 1998 075f 04       		.byte	0x4
 1999 0760 B201     		.2byte	0x1b2
 2000 0762 E0000000 		.4byte	.LFB170
 2001 0766 08000000 		.4byte	.LFE170-.LFB170
 2002 076a 01       		.uleb128 0x1
 2003 076b 9C       		.byte	0x9c
 2004 076c 1C       		.uleb128 0x1c
 2005 076d FB030000 		.4byte	.LASF100
 2006 0771 05       		.byte	0x5
 2007 0772 1902     		.2byte	0x219
 2008 0774 00060000 		.4byte	0x600
 2009 0778 F0000000 		.4byte	.LFB188
 2010 077c 18000000 		.4byte	.LFE188-.LFB188
 2011 0780 01       		.uleb128 0x1
 2012 0781 9C       		.byte	0x9c
 2013 0782 96070000 		.4byte	0x796
 2014 0786 1B       		.uleb128 0x1b
 2015 0787 76747000 		.ascii	"vtp\000"
 2016 078b 05       		.byte	0x5
 2017 078c 1902     		.2byte	0x219
 2018 078e D9050000 		.4byte	0x5d9
 2019 0792 02       		.uleb128 0x2
 2020 0793 91       		.byte	0x91
 2021 0794 7C       		.sleb128 -4
 2022 0795 00       		.byte	0
 2023 0796 1F       		.uleb128 0x1f
 2024 0797 C8030000 		.4byte	.LASF101
 2025 079b 06       		.byte	0x6
 2026 079c 86       		.byte	0x86
 2027 079d 10010000 		.4byte	.LFB209
 2028 07a1 12000000 		.4byte	.LFE209-.LFB209
 2029 07a5 01       		.uleb128 0x1
 2030 07a6 9C       		.byte	0x9c
 2031 07a7 B9070000 		.4byte	0x7b9
 2032 07ab 20       		.uleb128 0x20
 2033 07ac 737000   		.ascii	"sp\000"
 2034 07af 06       		.byte	0x6
 2035 07b0 86       		.byte	0x86
 2036 07b1 B9070000 		.4byte	0x7b9
 2037 07b5 02       		.uleb128 0x2
ARM GAS  /tmp/ccYIACCT.s 			page 37


 2038 07b6 91       		.byte	0x91
 2039 07b7 7C       		.sleb128 -4
 2040 07b8 00       		.byte	0
 2041 07b9 0A       		.uleb128 0xa
 2042 07ba 04       		.byte	0x4
 2043 07bb E4050000 		.4byte	0x5e4
 2044 07bf 21       		.uleb128 0x21
 2045 07c0 EB000000 		.4byte	.LASF111
 2046 07c4 07       		.byte	0x7
 2047 07c5 41       		.byte	0x41
 2048 07c6 30010000 		.4byte	.LFB248
 2049 07ca 20000000 		.4byte	.LFE248-.LFB248
 2050 07ce 01       		.uleb128 0x1
 2051 07cf 9C       		.byte	0x9c
 2052 07d0 22       		.uleb128 0x22
 2053 07d1 61040000 		.4byte	.LASF102
 2054 07d5 07       		.byte	0x7
 2055 07d6 DA       		.byte	0xda
 2056 07d7 1A020000 		.4byte	0x21a
 2057 07db 50010000 		.4byte	.LFB249
 2058 07df 4C000000 		.4byte	.LFE249-.LFB249
 2059 07e3 01       		.uleb128 0x1
 2060 07e4 9C       		.byte	0x9c
 2061 07e5 0D080000 		.4byte	0x80d
 2062 07e9 20       		.uleb128 0x20
 2063 07ea 747000   		.ascii	"tp\000"
 2064 07ed 07       		.byte	0x7
 2065 07ee DA       		.byte	0xda
 2066 07ef 1A020000 		.4byte	0x21a
 2067 07f3 02       		.uleb128 0x2
 2068 07f4 91       		.byte	0x91
 2069 07f5 74       		.sleb128 -12
 2070 07f6 23       		.uleb128 0x23
 2071 07f7 637000   		.ascii	"cp\000"
 2072 07fa 07       		.byte	0x7
 2073 07fb DB       		.byte	0xdb
 2074 07fc 1A020000 		.4byte	0x21a
 2075 0800 02       		.uleb128 0x2
 2076 0801 91       		.byte	0x91
 2077 0802 7C       		.sleb128 -4
 2078 0803 24       		.uleb128 0x24
 2079 0804 F2030000 		.4byte	.LASF104
 2080 0808 1D080000 		.4byte	0x81d
 2081 080c 00       		.byte	0
 2082 080d 25       		.uleb128 0x25
 2083 080e CC050000 		.4byte	0x5cc
 2084 0812 1D080000 		.4byte	0x81d
 2085 0816 26       		.uleb128 0x26
 2086 0817 1F040000 		.4byte	0x41f
 2087 081b 0B       		.byte	0xb
 2088 081c 00       		.byte	0
 2089 081d 13       		.uleb128 0x13
 2090 081e 0D080000 		.4byte	0x80d
 2091 0822 27       		.uleb128 0x27
 2092 0823 40040000 		.4byte	.LASF103
 2093 0827 07       		.byte	0x7
 2094 0828 0101     		.2byte	0x101
ARM GAS  /tmp/ccYIACCT.s 			page 38


 2095 082a 1A020000 		.4byte	0x21a
 2096 082e A0010000 		.4byte	.LFB250
 2097 0832 4C000000 		.4byte	.LFE250-.LFB250
 2098 0836 01       		.uleb128 0x1
 2099 0837 9C       		.byte	0x9c
 2100 0838 62080000 		.4byte	0x862
 2101 083c 1B       		.uleb128 0x1b
 2102 083d 747000   		.ascii	"tp\000"
 2103 0840 07       		.byte	0x7
 2104 0841 0101     		.2byte	0x101
 2105 0843 1A020000 		.4byte	0x21a
 2106 0847 02       		.uleb128 0x2
 2107 0848 91       		.byte	0x91
 2108 0849 74       		.sleb128 -12
 2109 084a 1D       		.uleb128 0x1d
 2110 084b 637000   		.ascii	"cp\000"
 2111 084e 07       		.byte	0x7
 2112 084f 0201     		.2byte	0x102
 2113 0851 1A020000 		.4byte	0x21a
 2114 0855 02       		.uleb128 0x2
 2115 0856 91       		.byte	0x91
 2116 0857 7C       		.sleb128 -4
 2117 0858 24       		.uleb128 0x24
 2118 0859 F2030000 		.4byte	.LASF104
 2119 085d 72080000 		.4byte	0x872
 2120 0861 00       		.byte	0
 2121 0862 25       		.uleb128 0x25
 2122 0863 CC050000 		.4byte	0x5cc
 2123 0867 72080000 		.4byte	0x872
 2124 086b 26       		.uleb128 0x26
 2125 086c 1F040000 		.4byte	0x41f
 2126 0870 10       		.byte	0x10
 2127 0871 00       		.byte	0
 2128 0872 13       		.uleb128 0x13
 2129 0873 62080000 		.4byte	0x862
 2130 0877 28       		.uleb128 0x28
 2131 0878 32040000 		.4byte	.LASF109
 2132 087c 07       		.byte	0x7
 2133 087d 2101     		.2byte	0x121
 2134 087f F0010000 		.4byte	.LFB251
 2135 0883 48000000 		.4byte	.LFE251-.LFB251
 2136 0887 01       		.uleb128 0x1
 2137 0888 9C       		.byte	0x9c
 2138 0889 AC080000 		.4byte	0x8ac
 2139 088d 29       		.uleb128 0x29
 2140 088e AC030000 		.4byte	.LASF105
 2141 0892 07       		.byte	0x7
 2142 0893 2101     		.2byte	0x121
 2143 0895 D9000000 		.4byte	0xd9
 2144 0899 02       		.uleb128 0x2
 2145 089a 91       		.byte	0x91
 2146 089b 6F       		.sleb128 -17
 2147 089c 1D       		.uleb128 0x1d
 2148 089d 6F747000 		.ascii	"otp\000"
 2149 08a1 07       		.byte	0x7
 2150 08a2 2201     		.2byte	0x122
 2151 08a4 1A020000 		.4byte	0x21a
ARM GAS  /tmp/ccYIACCT.s 			page 39


 2152 08a8 02       		.uleb128 0x2
 2153 08a9 91       		.byte	0x91
 2154 08aa 74       		.sleb128 -12
 2155 08ab 00       		.byte	0
 2156 08ac 2A       		.uleb128 0x2a
 2157 08ad E3010000 		.4byte	.LASF106
 2158 08b1 07       		.byte	0x7
 2159 08b2 3F01     		.2byte	0x13f
 2160 08b4 40020000 		.4byte	.LFB252
 2161 08b8 7C000000 		.4byte	.LFE252-.LFB252
 2162 08bc 01       		.uleb128 0x1
 2163 08bd 9C       		.byte	0x9c
 2164 08be DE080000 		.4byte	0x8de
 2165 08c2 1B       		.uleb128 0x1b
 2166 08c3 7000     		.ascii	"p\000"
 2167 08c5 07       		.byte	0x7
 2168 08c6 3F01     		.2byte	0x13f
 2169 08c8 F7020000 		.4byte	0x2f7
 2170 08cc 02       		.uleb128 0x2
 2171 08cd 91       		.byte	0x91
 2172 08ce 6C       		.sleb128 -20
 2173 08cf 1D       		.uleb128 0x1d
 2174 08d0 747000   		.ascii	"tp\000"
 2175 08d3 07       		.byte	0x7
 2176 08d4 4001     		.2byte	0x140
 2177 08d6 1A020000 		.4byte	0x21a
 2178 08da 02       		.uleb128 0x2
 2179 08db 91       		.byte	0x91
 2180 08dc 74       		.sleb128 -12
 2181 08dd 00       		.byte	0
 2182 08de 2B       		.uleb128 0x2b
 2183 08df 0E060000 		.4byte	.LASF107
 2184 08e3 07       		.byte	0x7
 2185 08e4 7601     		.2byte	0x176
 2186 08e6 FA000000 		.4byte	0xfa
 2187 08ea C0020000 		.4byte	.LFB253
 2188 08ee 68000000 		.4byte	.LFE253-.LFB253
 2189 08f2 01       		.uleb128 0x1
 2190 08f3 9C       		.byte	0x9c
 2191 08f4 2F090000 		.4byte	0x92f
 2192 08f8 29       		.uleb128 0x29
 2193 08f9 AC030000 		.4byte	.LASF105
 2194 08fd 07       		.byte	0x7
 2195 08fe 7601     		.2byte	0x176
 2196 0900 D9000000 		.4byte	0xd9
 2197 0904 02       		.uleb128 0x2
 2198 0905 91       		.byte	0x91
 2199 0906 5F       		.sleb128 -33
 2200 0907 29       		.uleb128 0x29
 2201 0908 2B030000 		.4byte	.LASF108
 2202 090c 07       		.byte	0x7
 2203 090d 7601     		.2byte	0x176
 2204 090f 1B010000 		.4byte	0x11b
 2205 0913 02       		.uleb128 0x2
 2206 0914 91       		.byte	0x91
 2207 0915 58       		.sleb128 -40
 2208 0916 2C       		.uleb128 0x2c
ARM GAS  /tmp/ccYIACCT.s 			page 40


 2209 0917 D4020000 		.4byte	.LBB10
 2210 091b 30000000 		.4byte	.LBE10-.LBB10
 2211 091f 1D       		.uleb128 0x1d
 2212 0920 767400   		.ascii	"vt\000"
 2213 0923 07       		.byte	0x7
 2214 0924 7B01     		.2byte	0x17b
 2215 0926 F9020000 		.4byte	0x2f9
 2216 092a 02       		.uleb128 0x2
 2217 092b 91       		.byte	0x91
 2218 092c 64       		.sleb128 -28
 2219 092d 00       		.byte	0
 2220 092e 00       		.byte	0
 2221 092f 28       		.uleb128 0x28
 2222 0930 B4050000 		.4byte	.LASF110
 2223 0934 07       		.byte	0x7
 2224 0935 9B01     		.2byte	0x19b
 2225 0937 30030000 		.4byte	.LFB254
 2226 093b 50000000 		.4byte	.LFE254-.LFB254
 2227 093f 01       		.uleb128 0x1
 2228 0940 9C       		.byte	0x9c
 2229 0941 7C090000 		.4byte	0x97c
 2230 0945 1B       		.uleb128 0x1b
 2231 0946 6E747000 		.ascii	"ntp\000"
 2232 094a 07       		.byte	0x7
 2233 094b 9B01     		.2byte	0x19b
 2234 094d 1A020000 		.4byte	0x21a
 2235 0951 02       		.uleb128 0x2
 2236 0952 91       		.byte	0x91
 2237 0953 6C       		.sleb128 -20
 2238 0954 1B       		.uleb128 0x1b
 2239 0955 6D736700 		.ascii	"msg\000"
 2240 0959 07       		.byte	0x7
 2241 095a 9B01     		.2byte	0x19b
 2242 095c FA000000 		.4byte	0xfa
 2243 0960 02       		.uleb128 0x2
 2244 0961 91       		.byte	0x91
 2245 0962 68       		.sleb128 -24
 2246 0963 1D       		.uleb128 0x1d
 2247 0964 6F747000 		.ascii	"otp\000"
 2248 0968 07       		.byte	0x7
 2249 0969 9C01     		.2byte	0x19c
 2250 096b 1A020000 		.4byte	0x21a
 2251 096f 02       		.uleb128 0x2
 2252 0970 91       		.byte	0x91
 2253 0971 74       		.sleb128 -12
 2254 0972 24       		.uleb128 0x24
 2255 0973 F2030000 		.4byte	.LASF104
 2256 0977 8C090000 		.4byte	0x98c
 2257 097b 00       		.byte	0
 2258 097c 25       		.uleb128 0x25
 2259 097d CC050000 		.4byte	0x5cc
 2260 0981 8C090000 		.4byte	0x98c
 2261 0985 26       		.uleb128 0x26
 2262 0986 1F040000 		.4byte	0x41f
 2263 098a 0C       		.byte	0xc
 2264 098b 00       		.byte	0
 2265 098c 13       		.uleb128 0x13
ARM GAS  /tmp/ccYIACCT.s 			page 41


 2266 098d 7C090000 		.4byte	0x97c
 2267 0991 2D       		.uleb128 0x2d
 2268 0992 83010000 		.4byte	.LASF112
 2269 0996 07       		.byte	0x7
 2270 0997 C701     		.2byte	0x1c7
 2271 0999 80030000 		.4byte	.LFB255
 2272 099d 12000000 		.4byte	.LFE255-.LFB255
 2273 09a1 01       		.uleb128 0x1
 2274 09a2 9C       		.byte	0x9c
 2275 09a3 27       		.uleb128 0x27
 2276 09a4 69010000 		.4byte	.LASF113
 2277 09a8 07       		.byte	0x7
 2278 09a9 DD01     		.2byte	0x1dd
 2279 09ab 00060000 		.4byte	0x600
 2280 09af A0030000 		.4byte	.LFB256
 2281 09b3 2C000000 		.4byte	.LFE256-.LFB256
 2282 09b7 01       		.uleb128 0x1
 2283 09b8 9C       		.byte	0x9c
 2284 09b9 DA090000 		.4byte	0x9da
 2285 09bd 1D       		.uleb128 0x1d
 2286 09be 703100   		.ascii	"p1\000"
 2287 09c1 07       		.byte	0x7
 2288 09c2 DE01     		.2byte	0x1de
 2289 09c4 EF000000 		.4byte	0xef
 2290 09c8 02       		.uleb128 0x2
 2291 09c9 91       		.byte	0x91
 2292 09ca 7C       		.sleb128 -4
 2293 09cb 1D       		.uleb128 0x1d
 2294 09cc 703200   		.ascii	"p2\000"
 2295 09cf 07       		.byte	0x7
 2296 09d0 DF01     		.2byte	0x1df
 2297 09d2 EF000000 		.4byte	0xef
 2298 09d6 02       		.uleb128 0x2
 2299 09d7 91       		.byte	0x91
 2300 09d8 78       		.sleb128 -8
 2301 09d9 00       		.byte	0
 2302 09da 28       		.uleb128 0x28
 2303 09db F5020000 		.4byte	.LASF114
 2304 09df 07       		.byte	0x7
 2305 09e0 F801     		.2byte	0x1f8
 2306 09e2 D0030000 		.4byte	.LFB257
 2307 09e6 40000000 		.4byte	.LFE257-.LFB257
 2308 09ea 01       		.uleb128 0x1
 2309 09eb 9C       		.byte	0x9c
 2310 09ec 000A0000 		.4byte	0xa00
 2311 09f0 1D       		.uleb128 0x1d
 2312 09f1 6F747000 		.ascii	"otp\000"
 2313 09f5 07       		.byte	0x7
 2314 09f6 F901     		.2byte	0x1f9
 2315 09f8 1A020000 		.4byte	0x21a
 2316 09fc 02       		.uleb128 0x2
 2317 09fd 91       		.byte	0x91
 2318 09fe 74       		.sleb128 -12
 2319 09ff 00       		.byte	0
 2320 0a00 28       		.uleb128 0x28
 2321 0a01 29000000 		.4byte	.LASF115
 2322 0a05 07       		.byte	0x7
ARM GAS  /tmp/ccYIACCT.s 			page 42


 2323 0a06 1902     		.2byte	0x219
 2324 0a08 10040000 		.4byte	.LFB258
 2325 0a0c 40000000 		.4byte	.LFE258-.LFB258
 2326 0a10 01       		.uleb128 0x1
 2327 0a11 9C       		.byte	0x9c
 2328 0a12 260A0000 		.4byte	0xa26
 2329 0a16 1D       		.uleb128 0x1d
 2330 0a17 6F747000 		.ascii	"otp\000"
 2331 0a1b 07       		.byte	0x7
 2332 0a1c 1A02     		.2byte	0x21a
 2333 0a1e 1A020000 		.4byte	0x21a
 2334 0a22 02       		.uleb128 0x2
 2335 0a23 91       		.byte	0x91
 2336 0a24 74       		.sleb128 -12
 2337 0a25 00       		.byte	0
 2338 0a26 28       		.uleb128 0x28
 2339 0a27 A8010000 		.4byte	.LASF116
 2340 0a2b 07       		.byte	0x7
 2341 0a2c 3602     		.2byte	0x236
 2342 0a2e 50040000 		.4byte	.LFB259
 2343 0a32 40000000 		.4byte	.LFE259-.LFB259
 2344 0a36 01       		.uleb128 0x1
 2345 0a37 9C       		.byte	0x9c
 2346 0a38 4C0A0000 		.4byte	0xa4c
 2347 0a3c 1D       		.uleb128 0x1d
 2348 0a3d 6F747000 		.ascii	"otp\000"
 2349 0a41 07       		.byte	0x7
 2350 0a42 3702     		.2byte	0x237
 2351 0a44 1A020000 		.4byte	0x21a
 2352 0a48 02       		.uleb128 0x2
 2353 0a49 91       		.byte	0x91
 2354 0a4a 74       		.sleb128 -12
 2355 0a4b 00       		.byte	0
 2356 0a4c 2E       		.uleb128 0x2e
 2357 0a4d C8000000 		.4byte	.LASF117
 2358 0a51 0F       		.byte	0xf
 2359 0a52 4407     		.2byte	0x744
 2360 0a54 580A0000 		.4byte	0xa58
 2361 0a58 14       		.uleb128 0x14
 2362 0a59 A2000000 		.4byte	0xa2
 2363 0a5d 2F       		.uleb128 0x2f
 2364 0a5e 636800   		.ascii	"ch\000"
 2365 0a61 07       		.byte	0x7
 2366 0a62 2A       		.byte	0x2a
 2367 0a63 C6030000 		.4byte	0x3c6
 2368 0a67 05       		.uleb128 0x5
 2369 0a68 03       		.byte	0x3
 2370 0a69 00000000 		.4byte	ch
 2371 0a6d 00       		.byte	0
 2372              		.section	.debug_abbrev,"",%progbits
 2373              	.Ldebug_abbrev0:
 2374 0000 01       		.uleb128 0x1
 2375 0001 11       		.uleb128 0x11
 2376 0002 01       		.byte	0x1
 2377 0003 25       		.uleb128 0x25
 2378 0004 0E       		.uleb128 0xe
 2379 0005 13       		.uleb128 0x13
ARM GAS  /tmp/ccYIACCT.s 			page 43


 2380 0006 0B       		.uleb128 0xb
 2381 0007 03       		.uleb128 0x3
 2382 0008 0E       		.uleb128 0xe
 2383 0009 1B       		.uleb128 0x1b
 2384 000a 0E       		.uleb128 0xe
 2385 000b 11       		.uleb128 0x11
 2386 000c 01       		.uleb128 0x1
 2387 000d 12       		.uleb128 0x12
 2388 000e 06       		.uleb128 0x6
 2389 000f 10       		.uleb128 0x10
 2390 0010 17       		.uleb128 0x17
 2391 0011 00       		.byte	0
 2392 0012 00       		.byte	0
 2393 0013 02       		.uleb128 0x2
 2394 0014 24       		.uleb128 0x24
 2395 0015 00       		.byte	0
 2396 0016 0B       		.uleb128 0xb
 2397 0017 0B       		.uleb128 0xb
 2398 0018 3E       		.uleb128 0x3e
 2399 0019 0B       		.uleb128 0xb
 2400 001a 03       		.uleb128 0x3
 2401 001b 08       		.uleb128 0x8
 2402 001c 00       		.byte	0
 2403 001d 00       		.byte	0
 2404 001e 03       		.uleb128 0x3
 2405 001f 24       		.uleb128 0x24
 2406 0020 00       		.byte	0
 2407 0021 0B       		.uleb128 0xb
 2408 0022 0B       		.uleb128 0xb
 2409 0023 3E       		.uleb128 0x3e
 2410 0024 0B       		.uleb128 0xb
 2411 0025 03       		.uleb128 0x3
 2412 0026 0E       		.uleb128 0xe
 2413 0027 00       		.byte	0
 2414 0028 00       		.byte	0
 2415 0029 04       		.uleb128 0x4
 2416 002a 16       		.uleb128 0x16
 2417 002b 00       		.byte	0
 2418 002c 03       		.uleb128 0x3
 2419 002d 0E       		.uleb128 0xe
 2420 002e 3A       		.uleb128 0x3a
 2421 002f 0B       		.uleb128 0xb
 2422 0030 3B       		.uleb128 0x3b
 2423 0031 0B       		.uleb128 0xb
 2424 0032 49       		.uleb128 0x49
 2425 0033 13       		.uleb128 0x13
 2426 0034 00       		.byte	0
 2427 0035 00       		.byte	0
 2428 0036 05       		.uleb128 0x5
 2429 0037 13       		.uleb128 0x13
 2430 0038 01       		.byte	0x1
 2431 0039 03       		.uleb128 0x3
 2432 003a 0E       		.uleb128 0xe
 2433 003b 0B       		.uleb128 0xb
 2434 003c 0B       		.uleb128 0xb
 2435 003d 3A       		.uleb128 0x3a
 2436 003e 0B       		.uleb128 0xb
ARM GAS  /tmp/ccYIACCT.s 			page 44


 2437 003f 3B       		.uleb128 0x3b
 2438 0040 0B       		.uleb128 0xb
 2439 0041 01       		.uleb128 0x1
 2440 0042 13       		.uleb128 0x13
 2441 0043 00       		.byte	0
 2442 0044 00       		.byte	0
 2443 0045 06       		.uleb128 0x6
 2444 0046 0D       		.uleb128 0xd
 2445 0047 00       		.byte	0
 2446 0048 03       		.uleb128 0x3
 2447 0049 0E       		.uleb128 0xe
 2448 004a 3A       		.uleb128 0x3a
 2449 004b 0B       		.uleb128 0xb
 2450 004c 3B       		.uleb128 0x3b
 2451 004d 0B       		.uleb128 0xb
 2452 004e 49       		.uleb128 0x49
 2453 004f 13       		.uleb128 0x13
 2454 0050 38       		.uleb128 0x38
 2455 0051 0B       		.uleb128 0xb
 2456 0052 00       		.byte	0
 2457 0053 00       		.byte	0
 2458 0054 07       		.uleb128 0x7
 2459 0055 0D       		.uleb128 0xd
 2460 0056 00       		.byte	0
 2461 0057 03       		.uleb128 0x3
 2462 0058 08       		.uleb128 0x8
 2463 0059 3A       		.uleb128 0x3a
 2464 005a 0B       		.uleb128 0xb
 2465 005b 3B       		.uleb128 0x3b
 2466 005c 0B       		.uleb128 0xb
 2467 005d 49       		.uleb128 0x49
 2468 005e 13       		.uleb128 0x13
 2469 005f 38       		.uleb128 0x38
 2470 0060 0B       		.uleb128 0xb
 2471 0061 00       		.byte	0
 2472 0062 00       		.byte	0
 2473 0063 08       		.uleb128 0x8
 2474 0064 0D       		.uleb128 0xd
 2475 0065 00       		.byte	0
 2476 0066 03       		.uleb128 0x3
 2477 0067 08       		.uleb128 0x8
 2478 0068 3A       		.uleb128 0x3a
 2479 0069 0B       		.uleb128 0xb
 2480 006a 3B       		.uleb128 0x3b
 2481 006b 05       		.uleb128 0x5
 2482 006c 49       		.uleb128 0x49
 2483 006d 13       		.uleb128 0x13
 2484 006e 38       		.uleb128 0x38
 2485 006f 0B       		.uleb128 0xb
 2486 0070 00       		.byte	0
 2487 0071 00       		.byte	0
 2488 0072 09       		.uleb128 0x9
 2489 0073 0D       		.uleb128 0xd
 2490 0074 00       		.byte	0
 2491 0075 03       		.uleb128 0x3
 2492 0076 0E       		.uleb128 0xe
 2493 0077 3A       		.uleb128 0x3a
ARM GAS  /tmp/ccYIACCT.s 			page 45


 2494 0078 0B       		.uleb128 0xb
 2495 0079 3B       		.uleb128 0x3b
 2496 007a 05       		.uleb128 0x5
 2497 007b 49       		.uleb128 0x49
 2498 007c 13       		.uleb128 0x13
 2499 007d 38       		.uleb128 0x38
 2500 007e 0B       		.uleb128 0xb
 2501 007f 00       		.byte	0
 2502 0080 00       		.byte	0
 2503 0081 0A       		.uleb128 0xa
 2504 0082 0F       		.uleb128 0xf
 2505 0083 00       		.byte	0
 2506 0084 0B       		.uleb128 0xb
 2507 0085 0B       		.uleb128 0xb
 2508 0086 49       		.uleb128 0x49
 2509 0087 13       		.uleb128 0x13
 2510 0088 00       		.byte	0
 2511 0089 00       		.byte	0
 2512 008a 0B       		.uleb128 0xb
 2513 008b 13       		.uleb128 0x13
 2514 008c 01       		.byte	0x1
 2515 008d 03       		.uleb128 0x3
 2516 008e 0E       		.uleb128 0xe
 2517 008f 0B       		.uleb128 0xb
 2518 0090 0B       		.uleb128 0xb
 2519 0091 3A       		.uleb128 0x3a
 2520 0092 0B       		.uleb128 0xb
 2521 0093 3B       		.uleb128 0x3b
 2522 0094 05       		.uleb128 0x5
 2523 0095 01       		.uleb128 0x1
 2524 0096 13       		.uleb128 0x13
 2525 0097 00       		.byte	0
 2526 0098 00       		.byte	0
 2527 0099 0C       		.uleb128 0xc
 2528 009a 15       		.uleb128 0x15
 2529 009b 01       		.byte	0x1
 2530 009c 27       		.uleb128 0x27
 2531 009d 19       		.uleb128 0x19
 2532 009e 01       		.uleb128 0x1
 2533 009f 13       		.uleb128 0x13
 2534 00a0 00       		.byte	0
 2535 00a1 00       		.byte	0
 2536 00a2 0D       		.uleb128 0xd
 2537 00a3 05       		.uleb128 0x5
 2538 00a4 00       		.byte	0
 2539 00a5 49       		.uleb128 0x49
 2540 00a6 13       		.uleb128 0x13
 2541 00a7 00       		.byte	0
 2542 00a8 00       		.byte	0
 2543 00a9 0E       		.uleb128 0xe
 2544 00aa 0F       		.uleb128 0xf
 2545 00ab 00       		.byte	0
 2546 00ac 0B       		.uleb128 0xb
 2547 00ad 0B       		.uleb128 0xb
 2548 00ae 00       		.byte	0
 2549 00af 00       		.byte	0
 2550 00b0 0F       		.uleb128 0xf
ARM GAS  /tmp/ccYIACCT.s 			page 46


 2551 00b1 13       		.uleb128 0x13
 2552 00b2 01       		.byte	0x1
 2553 00b3 0B       		.uleb128 0xb
 2554 00b4 0B       		.uleb128 0xb
 2555 00b5 3A       		.uleb128 0x3a
 2556 00b6 0B       		.uleb128 0xb
 2557 00b7 3B       		.uleb128 0x3b
 2558 00b8 0B       		.uleb128 0xb
 2559 00b9 01       		.uleb128 0x1
 2560 00ba 13       		.uleb128 0x13
 2561 00bb 00       		.byte	0
 2562 00bc 00       		.byte	0
 2563 00bd 10       		.uleb128 0x10
 2564 00be 17       		.uleb128 0x17
 2565 00bf 01       		.byte	0x1
 2566 00c0 0B       		.uleb128 0xb
 2567 00c1 0B       		.uleb128 0xb
 2568 00c2 3A       		.uleb128 0x3a
 2569 00c3 0B       		.uleb128 0xb
 2570 00c4 3B       		.uleb128 0x3b
 2571 00c5 0B       		.uleb128 0xb
 2572 00c6 01       		.uleb128 0x1
 2573 00c7 13       		.uleb128 0x13
 2574 00c8 00       		.byte	0
 2575 00c9 00       		.byte	0
 2576 00ca 11       		.uleb128 0x11
 2577 00cb 0D       		.uleb128 0xd
 2578 00cc 00       		.byte	0
 2579 00cd 03       		.uleb128 0x3
 2580 00ce 0E       		.uleb128 0xe
 2581 00cf 3A       		.uleb128 0x3a
 2582 00d0 0B       		.uleb128 0xb
 2583 00d1 3B       		.uleb128 0x3b
 2584 00d2 0B       		.uleb128 0xb
 2585 00d3 49       		.uleb128 0x49
 2586 00d4 13       		.uleb128 0x13
 2587 00d5 00       		.byte	0
 2588 00d6 00       		.byte	0
 2589 00d7 12       		.uleb128 0x12
 2590 00d8 0D       		.uleb128 0xd
 2591 00d9 00       		.byte	0
 2592 00da 03       		.uleb128 0x3
 2593 00db 0E       		.uleb128 0xe
 2594 00dc 3A       		.uleb128 0x3a
 2595 00dd 0B       		.uleb128 0xb
 2596 00de 3B       		.uleb128 0x3b
 2597 00df 05       		.uleb128 0x5
 2598 00e0 49       		.uleb128 0x49
 2599 00e1 13       		.uleb128 0x13
 2600 00e2 00       		.byte	0
 2601 00e3 00       		.byte	0
 2602 00e4 13       		.uleb128 0x13
 2603 00e5 26       		.uleb128 0x26
 2604 00e6 00       		.byte	0
 2605 00e7 49       		.uleb128 0x49
 2606 00e8 13       		.uleb128 0x13
 2607 00e9 00       		.byte	0
ARM GAS  /tmp/ccYIACCT.s 			page 47


 2608 00ea 00       		.byte	0
 2609 00eb 14       		.uleb128 0x14
 2610 00ec 35       		.uleb128 0x35
 2611 00ed 00       		.byte	0
 2612 00ee 49       		.uleb128 0x49
 2613 00ef 13       		.uleb128 0x13
 2614 00f0 00       		.byte	0
 2615 00f1 00       		.byte	0
 2616 00f2 15       		.uleb128 0x15
 2617 00f3 2E       		.uleb128 0x2e
 2618 00f4 01       		.byte	0x1
 2619 00f5 03       		.uleb128 0x3
 2620 00f6 0E       		.uleb128 0xe
 2621 00f7 3A       		.uleb128 0x3a
 2622 00f8 0B       		.uleb128 0xb
 2623 00f9 3B       		.uleb128 0x3b
 2624 00fa 05       		.uleb128 0x5
 2625 00fb 27       		.uleb128 0x27
 2626 00fc 19       		.uleb128 0x19
 2627 00fd 20       		.uleb128 0x20
 2628 00fe 0B       		.uleb128 0xb
 2629 00ff 01       		.uleb128 0x1
 2630 0100 13       		.uleb128 0x13
 2631 0101 00       		.byte	0
 2632 0102 00       		.byte	0
 2633 0103 16       		.uleb128 0x16
 2634 0104 05       		.uleb128 0x5
 2635 0105 00       		.byte	0
 2636 0106 03       		.uleb128 0x3
 2637 0107 0E       		.uleb128 0xe
 2638 0108 3A       		.uleb128 0x3a
 2639 0109 0B       		.uleb128 0xb
 2640 010a 3B       		.uleb128 0x3b
 2641 010b 05       		.uleb128 0x5
 2642 010c 49       		.uleb128 0x49
 2643 010d 13       		.uleb128 0x13
 2644 010e 00       		.byte	0
 2645 010f 00       		.byte	0
 2646 0110 17       		.uleb128 0x17
 2647 0111 2E       		.uleb128 0x2e
 2648 0112 01       		.byte	0x1
 2649 0113 03       		.uleb128 0x3
 2650 0114 0E       		.uleb128 0xe
 2651 0115 3A       		.uleb128 0x3a
 2652 0116 0B       		.uleb128 0xb
 2653 0117 3B       		.uleb128 0x3b
 2654 0118 05       		.uleb128 0x5
 2655 0119 27       		.uleb128 0x27
 2656 011a 19       		.uleb128 0x19
 2657 011b 11       		.uleb128 0x11
 2658 011c 01       		.uleb128 0x1
 2659 011d 12       		.uleb128 0x12
 2660 011e 06       		.uleb128 0x6
 2661 011f 40       		.uleb128 0x40
 2662 0120 18       		.uleb128 0x18
 2663 0121 9742     		.uleb128 0x2117
 2664 0123 19       		.uleb128 0x19
ARM GAS  /tmp/ccYIACCT.s 			page 48


 2665 0124 01       		.uleb128 0x1
 2666 0125 13       		.uleb128 0x13
 2667 0126 00       		.byte	0
 2668 0127 00       		.byte	0
 2669 0128 18       		.uleb128 0x18
 2670 0129 1D       		.uleb128 0x1d
 2671 012a 01       		.byte	0x1
 2672 012b 31       		.uleb128 0x31
 2673 012c 13       		.uleb128 0x13
 2674 012d 11       		.uleb128 0x11
 2675 012e 01       		.uleb128 0x1
 2676 012f 12       		.uleb128 0x12
 2677 0130 06       		.uleb128 0x6
 2678 0131 58       		.uleb128 0x58
 2679 0132 0B       		.uleb128 0xb
 2680 0133 59       		.uleb128 0x59
 2681 0134 05       		.uleb128 0x5
 2682 0135 00       		.byte	0
 2683 0136 00       		.byte	0
 2684 0137 19       		.uleb128 0x19
 2685 0138 05       		.uleb128 0x5
 2686 0139 00       		.byte	0
 2687 013a 31       		.uleb128 0x31
 2688 013b 13       		.uleb128 0x13
 2689 013c 02       		.uleb128 0x2
 2690 013d 18       		.uleb128 0x18
 2691 013e 00       		.byte	0
 2692 013f 00       		.byte	0
 2693 0140 1A       		.uleb128 0x1a
 2694 0141 2E       		.uleb128 0x2e
 2695 0142 00       		.byte	0
 2696 0143 03       		.uleb128 0x3
 2697 0144 0E       		.uleb128 0xe
 2698 0145 3A       		.uleb128 0x3a
 2699 0146 0B       		.uleb128 0xb
 2700 0147 3B       		.uleb128 0x3b
 2701 0148 05       		.uleb128 0x5
 2702 0149 27       		.uleb128 0x27
 2703 014a 19       		.uleb128 0x19
 2704 014b 11       		.uleb128 0x11
 2705 014c 01       		.uleb128 0x1
 2706 014d 12       		.uleb128 0x12
 2707 014e 06       		.uleb128 0x6
 2708 014f 40       		.uleb128 0x40
 2709 0150 18       		.uleb128 0x18
 2710 0151 9642     		.uleb128 0x2116
 2711 0153 19       		.uleb128 0x19
 2712 0154 00       		.byte	0
 2713 0155 00       		.byte	0
 2714 0156 1B       		.uleb128 0x1b
 2715 0157 05       		.uleb128 0x5
 2716 0158 00       		.byte	0
 2717 0159 03       		.uleb128 0x3
 2718 015a 08       		.uleb128 0x8
 2719 015b 3A       		.uleb128 0x3a
 2720 015c 0B       		.uleb128 0xb
 2721 015d 3B       		.uleb128 0x3b
ARM GAS  /tmp/ccYIACCT.s 			page 49


 2722 015e 05       		.uleb128 0x5
 2723 015f 49       		.uleb128 0x49
 2724 0160 13       		.uleb128 0x13
 2725 0161 02       		.uleb128 0x2
 2726 0162 18       		.uleb128 0x18
 2727 0163 00       		.byte	0
 2728 0164 00       		.byte	0
 2729 0165 1C       		.uleb128 0x1c
 2730 0166 2E       		.uleb128 0x2e
 2731 0167 01       		.byte	0x1
 2732 0168 03       		.uleb128 0x3
 2733 0169 0E       		.uleb128 0xe
 2734 016a 3A       		.uleb128 0x3a
 2735 016b 0B       		.uleb128 0xb
 2736 016c 3B       		.uleb128 0x3b
 2737 016d 05       		.uleb128 0x5
 2738 016e 27       		.uleb128 0x27
 2739 016f 19       		.uleb128 0x19
 2740 0170 49       		.uleb128 0x49
 2741 0171 13       		.uleb128 0x13
 2742 0172 11       		.uleb128 0x11
 2743 0173 01       		.uleb128 0x1
 2744 0174 12       		.uleb128 0x12
 2745 0175 06       		.uleb128 0x6
 2746 0176 40       		.uleb128 0x40
 2747 0177 18       		.uleb128 0x18
 2748 0178 9742     		.uleb128 0x2117
 2749 017a 19       		.uleb128 0x19
 2750 017b 01       		.uleb128 0x1
 2751 017c 13       		.uleb128 0x13
 2752 017d 00       		.byte	0
 2753 017e 00       		.byte	0
 2754 017f 1D       		.uleb128 0x1d
 2755 0180 34       		.uleb128 0x34
 2756 0181 00       		.byte	0
 2757 0182 03       		.uleb128 0x3
 2758 0183 08       		.uleb128 0x8
 2759 0184 3A       		.uleb128 0x3a
 2760 0185 0B       		.uleb128 0xb
 2761 0186 3B       		.uleb128 0x3b
 2762 0187 05       		.uleb128 0x5
 2763 0188 49       		.uleb128 0x49
 2764 0189 13       		.uleb128 0x13
 2765 018a 02       		.uleb128 0x2
 2766 018b 18       		.uleb128 0x18
 2767 018c 00       		.byte	0
 2768 018d 00       		.byte	0
 2769 018e 1E       		.uleb128 0x1e
 2770 018f 2E       		.uleb128 0x2e
 2771 0190 00       		.byte	0
 2772 0191 03       		.uleb128 0x3
 2773 0192 0E       		.uleb128 0xe
 2774 0193 3A       		.uleb128 0x3a
 2775 0194 0B       		.uleb128 0xb
 2776 0195 3B       		.uleb128 0x3b
 2777 0196 05       		.uleb128 0x5
 2778 0197 27       		.uleb128 0x27
ARM GAS  /tmp/ccYIACCT.s 			page 50


 2779 0198 19       		.uleb128 0x19
 2780 0199 49       		.uleb128 0x49
 2781 019a 13       		.uleb128 0x13
 2782 019b 11       		.uleb128 0x11
 2783 019c 01       		.uleb128 0x1
 2784 019d 12       		.uleb128 0x12
 2785 019e 06       		.uleb128 0x6
 2786 019f 40       		.uleb128 0x40
 2787 01a0 18       		.uleb128 0x18
 2788 01a1 9742     		.uleb128 0x2117
 2789 01a3 19       		.uleb128 0x19
 2790 01a4 00       		.byte	0
 2791 01a5 00       		.byte	0
 2792 01a6 1F       		.uleb128 0x1f
 2793 01a7 2E       		.uleb128 0x2e
 2794 01a8 01       		.byte	0x1
 2795 01a9 03       		.uleb128 0x3
 2796 01aa 0E       		.uleb128 0xe
 2797 01ab 3A       		.uleb128 0x3a
 2798 01ac 0B       		.uleb128 0xb
 2799 01ad 3B       		.uleb128 0x3b
 2800 01ae 0B       		.uleb128 0xb
 2801 01af 27       		.uleb128 0x27
 2802 01b0 19       		.uleb128 0x19
 2803 01b1 11       		.uleb128 0x11
 2804 01b2 01       		.uleb128 0x1
 2805 01b3 12       		.uleb128 0x12
 2806 01b4 06       		.uleb128 0x6
 2807 01b5 40       		.uleb128 0x40
 2808 01b6 18       		.uleb128 0x18
 2809 01b7 9742     		.uleb128 0x2117
 2810 01b9 19       		.uleb128 0x19
 2811 01ba 01       		.uleb128 0x1
 2812 01bb 13       		.uleb128 0x13
 2813 01bc 00       		.byte	0
 2814 01bd 00       		.byte	0
 2815 01be 20       		.uleb128 0x20
 2816 01bf 05       		.uleb128 0x5
 2817 01c0 00       		.byte	0
 2818 01c1 03       		.uleb128 0x3
 2819 01c2 08       		.uleb128 0x8
 2820 01c3 3A       		.uleb128 0x3a
 2821 01c4 0B       		.uleb128 0xb
 2822 01c5 3B       		.uleb128 0x3b
 2823 01c6 0B       		.uleb128 0xb
 2824 01c7 49       		.uleb128 0x49
 2825 01c8 13       		.uleb128 0x13
 2826 01c9 02       		.uleb128 0x2
 2827 01ca 18       		.uleb128 0x18
 2828 01cb 00       		.byte	0
 2829 01cc 00       		.byte	0
 2830 01cd 21       		.uleb128 0x21
 2831 01ce 2E       		.uleb128 0x2e
 2832 01cf 00       		.byte	0
 2833 01d0 3F       		.uleb128 0x3f
 2834 01d1 19       		.uleb128 0x19
 2835 01d2 03       		.uleb128 0x3
ARM GAS  /tmp/ccYIACCT.s 			page 51


 2836 01d3 0E       		.uleb128 0xe
 2837 01d4 3A       		.uleb128 0x3a
 2838 01d5 0B       		.uleb128 0xb
 2839 01d6 3B       		.uleb128 0x3b
 2840 01d7 0B       		.uleb128 0xb
 2841 01d8 27       		.uleb128 0x27
 2842 01d9 19       		.uleb128 0x19
 2843 01da 11       		.uleb128 0x11
 2844 01db 01       		.uleb128 0x1
 2845 01dc 12       		.uleb128 0x12
 2846 01dd 06       		.uleb128 0x6
 2847 01de 40       		.uleb128 0x40
 2848 01df 18       		.uleb128 0x18
 2849 01e0 9642     		.uleb128 0x2116
 2850 01e2 19       		.uleb128 0x19
 2851 01e3 00       		.byte	0
 2852 01e4 00       		.byte	0
 2853 01e5 22       		.uleb128 0x22
 2854 01e6 2E       		.uleb128 0x2e
 2855 01e7 01       		.byte	0x1
 2856 01e8 3F       		.uleb128 0x3f
 2857 01e9 19       		.uleb128 0x19
 2858 01ea 03       		.uleb128 0x3
 2859 01eb 0E       		.uleb128 0xe
 2860 01ec 3A       		.uleb128 0x3a
 2861 01ed 0B       		.uleb128 0xb
 2862 01ee 3B       		.uleb128 0x3b
 2863 01ef 0B       		.uleb128 0xb
 2864 01f0 27       		.uleb128 0x27
 2865 01f1 19       		.uleb128 0x19
 2866 01f2 49       		.uleb128 0x49
 2867 01f3 13       		.uleb128 0x13
 2868 01f4 11       		.uleb128 0x11
 2869 01f5 01       		.uleb128 0x1
 2870 01f6 12       		.uleb128 0x12
 2871 01f7 06       		.uleb128 0x6
 2872 01f8 40       		.uleb128 0x40
 2873 01f9 18       		.uleb128 0x18
 2874 01fa 9742     		.uleb128 0x2117
 2875 01fc 19       		.uleb128 0x19
 2876 01fd 01       		.uleb128 0x1
 2877 01fe 13       		.uleb128 0x13
 2878 01ff 00       		.byte	0
 2879 0200 00       		.byte	0
 2880 0201 23       		.uleb128 0x23
 2881 0202 34       		.uleb128 0x34
 2882 0203 00       		.byte	0
 2883 0204 03       		.uleb128 0x3
 2884 0205 08       		.uleb128 0x8
 2885 0206 3A       		.uleb128 0x3a
 2886 0207 0B       		.uleb128 0xb
 2887 0208 3B       		.uleb128 0x3b
 2888 0209 0B       		.uleb128 0xb
 2889 020a 49       		.uleb128 0x49
 2890 020b 13       		.uleb128 0x13
 2891 020c 02       		.uleb128 0x2
 2892 020d 18       		.uleb128 0x18
ARM GAS  /tmp/ccYIACCT.s 			page 52


 2893 020e 00       		.byte	0
 2894 020f 00       		.byte	0
 2895 0210 24       		.uleb128 0x24
 2896 0211 34       		.uleb128 0x34
 2897 0212 00       		.byte	0
 2898 0213 03       		.uleb128 0x3
 2899 0214 0E       		.uleb128 0xe
 2900 0215 49       		.uleb128 0x49
 2901 0216 13       		.uleb128 0x13
 2902 0217 34       		.uleb128 0x34
 2903 0218 19       		.uleb128 0x19
 2904 0219 00       		.byte	0
 2905 021a 00       		.byte	0
 2906 021b 25       		.uleb128 0x25
 2907 021c 01       		.uleb128 0x1
 2908 021d 01       		.byte	0x1
 2909 021e 49       		.uleb128 0x49
 2910 021f 13       		.uleb128 0x13
 2911 0220 01       		.uleb128 0x1
 2912 0221 13       		.uleb128 0x13
 2913 0222 00       		.byte	0
 2914 0223 00       		.byte	0
 2915 0224 26       		.uleb128 0x26
 2916 0225 21       		.uleb128 0x21
 2917 0226 00       		.byte	0
 2918 0227 49       		.uleb128 0x49
 2919 0228 13       		.uleb128 0x13
 2920 0229 2F       		.uleb128 0x2f
 2921 022a 0B       		.uleb128 0xb
 2922 022b 00       		.byte	0
 2923 022c 00       		.byte	0
 2924 022d 27       		.uleb128 0x27
 2925 022e 2E       		.uleb128 0x2e
 2926 022f 01       		.byte	0x1
 2927 0230 3F       		.uleb128 0x3f
 2928 0231 19       		.uleb128 0x19
 2929 0232 03       		.uleb128 0x3
 2930 0233 0E       		.uleb128 0xe
 2931 0234 3A       		.uleb128 0x3a
 2932 0235 0B       		.uleb128 0xb
 2933 0236 3B       		.uleb128 0x3b
 2934 0237 05       		.uleb128 0x5
 2935 0238 27       		.uleb128 0x27
 2936 0239 19       		.uleb128 0x19
 2937 023a 49       		.uleb128 0x49
 2938 023b 13       		.uleb128 0x13
 2939 023c 11       		.uleb128 0x11
 2940 023d 01       		.uleb128 0x1
 2941 023e 12       		.uleb128 0x12
 2942 023f 06       		.uleb128 0x6
 2943 0240 40       		.uleb128 0x40
 2944 0241 18       		.uleb128 0x18
 2945 0242 9742     		.uleb128 0x2117
 2946 0244 19       		.uleb128 0x19
 2947 0245 01       		.uleb128 0x1
 2948 0246 13       		.uleb128 0x13
 2949 0247 00       		.byte	0
ARM GAS  /tmp/ccYIACCT.s 			page 53


 2950 0248 00       		.byte	0
 2951 0249 28       		.uleb128 0x28
 2952 024a 2E       		.uleb128 0x2e
 2953 024b 01       		.byte	0x1
 2954 024c 3F       		.uleb128 0x3f
 2955 024d 19       		.uleb128 0x19
 2956 024e 03       		.uleb128 0x3
 2957 024f 0E       		.uleb128 0xe
 2958 0250 3A       		.uleb128 0x3a
 2959 0251 0B       		.uleb128 0xb
 2960 0252 3B       		.uleb128 0x3b
 2961 0253 05       		.uleb128 0x5
 2962 0254 27       		.uleb128 0x27
 2963 0255 19       		.uleb128 0x19
 2964 0256 11       		.uleb128 0x11
 2965 0257 01       		.uleb128 0x1
 2966 0258 12       		.uleb128 0x12
 2967 0259 06       		.uleb128 0x6
 2968 025a 40       		.uleb128 0x40
 2969 025b 18       		.uleb128 0x18
 2970 025c 9642     		.uleb128 0x2116
 2971 025e 19       		.uleb128 0x19
 2972 025f 01       		.uleb128 0x1
 2973 0260 13       		.uleb128 0x13
 2974 0261 00       		.byte	0
 2975 0262 00       		.byte	0
 2976 0263 29       		.uleb128 0x29
 2977 0264 05       		.uleb128 0x5
 2978 0265 00       		.byte	0
 2979 0266 03       		.uleb128 0x3
 2980 0267 0E       		.uleb128 0xe
 2981 0268 3A       		.uleb128 0x3a
 2982 0269 0B       		.uleb128 0xb
 2983 026a 3B       		.uleb128 0x3b
 2984 026b 05       		.uleb128 0x5
 2985 026c 49       		.uleb128 0x49
 2986 026d 13       		.uleb128 0x13
 2987 026e 02       		.uleb128 0x2
 2988 026f 18       		.uleb128 0x18
 2989 0270 00       		.byte	0
 2990 0271 00       		.byte	0
 2991 0272 2A       		.uleb128 0x2a
 2992 0273 2E       		.uleb128 0x2e
 2993 0274 01       		.byte	0x1
 2994 0275 03       		.uleb128 0x3
 2995 0276 0E       		.uleb128 0xe
 2996 0277 3A       		.uleb128 0x3a
 2997 0278 0B       		.uleb128 0xb
 2998 0279 3B       		.uleb128 0x3b
 2999 027a 05       		.uleb128 0x5
 3000 027b 27       		.uleb128 0x27
 3001 027c 19       		.uleb128 0x19
 3002 027d 11       		.uleb128 0x11
 3003 027e 01       		.uleb128 0x1
 3004 027f 12       		.uleb128 0x12
 3005 0280 06       		.uleb128 0x6
 3006 0281 40       		.uleb128 0x40
ARM GAS  /tmp/ccYIACCT.s 			page 54


 3007 0282 18       		.uleb128 0x18
 3008 0283 9642     		.uleb128 0x2116
 3009 0285 19       		.uleb128 0x19
 3010 0286 01       		.uleb128 0x1
 3011 0287 13       		.uleb128 0x13
 3012 0288 00       		.byte	0
 3013 0289 00       		.byte	0
 3014 028a 2B       		.uleb128 0x2b
 3015 028b 2E       		.uleb128 0x2e
 3016 028c 01       		.byte	0x1
 3017 028d 3F       		.uleb128 0x3f
 3018 028e 19       		.uleb128 0x19
 3019 028f 03       		.uleb128 0x3
 3020 0290 0E       		.uleb128 0xe
 3021 0291 3A       		.uleb128 0x3a
 3022 0292 0B       		.uleb128 0xb
 3023 0293 3B       		.uleb128 0x3b
 3024 0294 05       		.uleb128 0x5
 3025 0295 27       		.uleb128 0x27
 3026 0296 19       		.uleb128 0x19
 3027 0297 49       		.uleb128 0x49
 3028 0298 13       		.uleb128 0x13
 3029 0299 11       		.uleb128 0x11
 3030 029a 01       		.uleb128 0x1
 3031 029b 12       		.uleb128 0x12
 3032 029c 06       		.uleb128 0x6
 3033 029d 40       		.uleb128 0x40
 3034 029e 18       		.uleb128 0x18
 3035 029f 9642     		.uleb128 0x2116
 3036 02a1 19       		.uleb128 0x19
 3037 02a2 01       		.uleb128 0x1
 3038 02a3 13       		.uleb128 0x13
 3039 02a4 00       		.byte	0
 3040 02a5 00       		.byte	0
 3041 02a6 2C       		.uleb128 0x2c
 3042 02a7 0B       		.uleb128 0xb
 3043 02a8 01       		.byte	0x1
 3044 02a9 11       		.uleb128 0x11
 3045 02aa 01       		.uleb128 0x1
 3046 02ab 12       		.uleb128 0x12
 3047 02ac 06       		.uleb128 0x6
 3048 02ad 00       		.byte	0
 3049 02ae 00       		.byte	0
 3050 02af 2D       		.uleb128 0x2d
 3051 02b0 2E       		.uleb128 0x2e
 3052 02b1 00       		.byte	0
 3053 02b2 3F       		.uleb128 0x3f
 3054 02b3 19       		.uleb128 0x19
 3055 02b4 03       		.uleb128 0x3
 3056 02b5 0E       		.uleb128 0xe
 3057 02b6 3A       		.uleb128 0x3a
 3058 02b7 0B       		.uleb128 0xb
 3059 02b8 3B       		.uleb128 0x3b
 3060 02b9 05       		.uleb128 0x5
 3061 02ba 27       		.uleb128 0x27
 3062 02bb 19       		.uleb128 0x19
 3063 02bc 11       		.uleb128 0x11
ARM GAS  /tmp/ccYIACCT.s 			page 55


 3064 02bd 01       		.uleb128 0x1
 3065 02be 12       		.uleb128 0x12
 3066 02bf 06       		.uleb128 0x6
 3067 02c0 40       		.uleb128 0x40
 3068 02c1 18       		.uleb128 0x18
 3069 02c2 9642     		.uleb128 0x2116
 3070 02c4 19       		.uleb128 0x19
 3071 02c5 00       		.byte	0
 3072 02c6 00       		.byte	0
 3073 02c7 2E       		.uleb128 0x2e
 3074 02c8 34       		.uleb128 0x34
 3075 02c9 00       		.byte	0
 3076 02ca 03       		.uleb128 0x3
 3077 02cb 0E       		.uleb128 0xe
 3078 02cc 3A       		.uleb128 0x3a
 3079 02cd 0B       		.uleb128 0xb
 3080 02ce 3B       		.uleb128 0x3b
 3081 02cf 05       		.uleb128 0x5
 3082 02d0 49       		.uleb128 0x49
 3083 02d1 13       		.uleb128 0x13
 3084 02d2 3F       		.uleb128 0x3f
 3085 02d3 19       		.uleb128 0x19
 3086 02d4 3C       		.uleb128 0x3c
 3087 02d5 19       		.uleb128 0x19
 3088 02d6 00       		.byte	0
 3089 02d7 00       		.byte	0
 3090 02d8 2F       		.uleb128 0x2f
 3091 02d9 34       		.uleb128 0x34
 3092 02da 00       		.byte	0
 3093 02db 03       		.uleb128 0x3
 3094 02dc 08       		.uleb128 0x8
 3095 02dd 3A       		.uleb128 0x3a
 3096 02de 0B       		.uleb128 0xb
 3097 02df 3B       		.uleb128 0x3b
 3098 02e0 0B       		.uleb128 0xb
 3099 02e1 49       		.uleb128 0x49
 3100 02e2 13       		.uleb128 0x13
 3101 02e3 3F       		.uleb128 0x3f
 3102 02e4 19       		.uleb128 0x19
 3103 02e5 02       		.uleb128 0x2
 3104 02e6 18       		.uleb128 0x18
 3105 02e7 00       		.byte	0
 3106 02e8 00       		.byte	0
 3107 02e9 00       		.byte	0
 3108              		.section	.debug_aranges,"",%progbits
 3109 0000 1C000000 		.4byte	0x1c
 3110 0004 0200     		.2byte	0x2
 3111 0006 00000000 		.4byte	.Ldebug_info0
 3112 000a 04       		.byte	0x4
 3113 000b 00       		.byte	0
 3114 000c 0000     		.2byte	0
 3115 000e 0000     		.2byte	0
 3116 0010 00000000 		.4byte	.Ltext0
 3117 0014 90040000 		.4byte	.Letext0-.Ltext0
 3118 0018 00000000 		.4byte	0
 3119 001c 00000000 		.4byte	0
 3120              		.section	.debug_line,"",%progbits
ARM GAS  /tmp/ccYIACCT.s 			page 56


 3121              	.Ldebug_line0:
 3122 0000 B5020000 		.section	.debug_str,"MS",%progbits,1
 3122      0200A801 
 3122      00000201 
 3122      FB0E0D00 
 3122      01010101 
 3123              	.LASF50:
 3124 0000 72656164 		.ascii	"ready_list_t\000"
 3124      795F6C69 
 3124      73745F74 
 3124      00
 3125              	.LASF79:
 3126 000d 77747472 		.ascii	"wttrp\000"
 3126      7000
 3127              	.LASF56:
 3128 0013 64656C74 		.ascii	"delta\000"
 3128      6100
 3129              	.LASF76:
 3130 0019 7264796D 		.ascii	"rdymsg\000"
 3130      736700
 3131              	.LASF16:
 3132 0020 75696E74 		.ascii	"uint64_t\000"
 3132      36345F74 
 3132      00
 3133              	.LASF115:
 3134 0029 63685363 		.ascii	"chSchDoRescheduleAhead\000"
 3134      68446F52 
 3134      65736368 
 3134      6564756C 
 3134      65416865 
 3135              	.LASF5:
 3136 0040 5F5F7569 		.ascii	"__uint8_t\000"
 3136      6E74385F 
 3136      7400
 3137              	.LASF49:
 3138 004a 70726576 		.ascii	"prev\000"
 3138      00
 3139              	.LASF73:
 3140 004f 706F7274 		.ascii	"port_intctx\000"
 3140      5F696E74 
 3140      63747800 
 3141              	.LASF61:
 3142 005b 73797374 		.ascii	"system_debug_t\000"
 3142      656D5F64 
 3142      65627567 
 3142      5F7400
 3143              	.LASF95:
 3144 006a 71756575 		.ascii	"queue_init\000"
 3144      655F696E 
 3144      697400
 3145              	.LASF91:
 3146 0075 706F7274 		.ascii	"port_lock\000"
 3146      5F6C6F63 
 3146      6B00
 3147              	.LASF12:
 3148 007f 6C6F6E67 		.ascii	"long long unsigned int\000"
 3148      206C6F6E 
ARM GAS  /tmp/ccYIACCT.s 			page 57


 3148      6720756E 
 3148      7369676E 
 3148      65642069 
 3149              	.LASF77:
 3150 0096 65786974 		.ascii	"exitcode\000"
 3150      636F6465 
 3150      00
 3151              	.LASF68:
 3152 009f 6D61696E 		.ascii	"mainthread\000"
 3152      74687265 
 3152      616400
 3153              	.LASF80:
 3154 00aa 73656E74 		.ascii	"sentmsg\000"
 3154      6D736700 
 3155              	.LASF58:
 3156 00b2 76697274 		.ascii	"virtual_timers_list_t\000"
 3156      75616C5F 
 3156      74696D65 
 3156      72735F6C 
 3156      6973745F 
 3157              	.LASF117:
 3158 00c8 49544D5F 		.ascii	"ITM_RxBuffer\000"
 3158      52784275 
 3158      66666572 
 3158      00
 3159              	.LASF46:
 3160 00d5 6E657874 		.ascii	"next\000"
 3160      00
 3161              	.LASF48:
 3162 00da 63685F74 		.ascii	"ch_threads_queue\000"
 3162      68726561 
 3162      64735F71 
 3162      75657565 
 3162      00
 3163              	.LASF111:
 3164 00eb 5F736368 		.ascii	"_scheduler_init\000"
 3164      6564756C 
 3164      65725F69 
 3164      6E697400 
 3165              	.LASF10:
 3166 00fb 6C6F6E67 		.ascii	"long long int\000"
 3166      206C6F6E 
 3166      6720696E 
 3166      7400
 3167              	.LASF1:
 3168 0109 7369676E 		.ascii	"signed char\000"
 3168      65642063 
 3168      68617200 
 3169              	.LASF67:
 3170 0115 76746C69 		.ascii	"vtlist\000"
 3170      737400
 3171              	.LASF92:
 3172 011c 706F7274 		.ascii	"port_unlock\000"
 3172      5F756E6C 
 3172      6F636B00 
 3173              	.LASF37:
 3174 0128 6D736771 		.ascii	"msgqueue\000"
ARM GAS  /tmp/ccYIACCT.s 			page 58


 3174      75657565 
 3174      00
 3175              	.LASF33:
 3176 0131 73746174 		.ascii	"state\000"
 3176      6500
 3177              	.LASF7:
 3178 0137 6C6F6E67 		.ascii	"long int\000"
 3178      20696E74 
 3178      00
 3179              	.LASF97:
 3180 0140 71756575 		.ascii	"queue_dequeue\000"
 3180      655F6465 
 3180      71756575 
 3180      6500
 3181              	.LASF19:
 3182 014e 74737461 		.ascii	"tstate_t\000"
 3182      74655F74 
 3182      00
 3183              	.LASF57:
 3184 0157 66756E63 		.ascii	"func\000"
 3184      00
 3185              	.LASF27:
 3186 015c 71756575 		.ascii	"queue\000"
 3186      6500
 3187              	.LASF32:
 3188 0162 77616261 		.ascii	"wabase\000"
 3188      736500
 3189              	.LASF113:
 3190 0169 63685363 		.ascii	"chSchIsPreemptionRequired\000"
 3190      68497350 
 3190      7265656D 
 3190      7074696F 
 3190      6E526571 
 3191              	.LASF112:
 3192 0183 63685363 		.ascii	"chSchRescheduleS\000"
 3192      68526573 
 3192      63686564 
 3192      756C6553 
 3192      00
 3193              	.LASF8:
 3194 0194 5F5F7569 		.ascii	"__uint32_t\000"
 3194      6E743332 
 3194      5F7400
 3195              	.LASF70:
 3196 019f 72656761 		.ascii	"regarm_t\000"
 3196      726D5F74 
 3196      00
 3197              	.LASF116:
 3198 01a8 63685363 		.ascii	"chSchDoReschedule\000"
 3198      68446F52 
 3198      65736368 
 3198      6564756C 
 3198      6500
 3199              	.LASF36:
 3200 01ba 77616974 		.ascii	"waiting\000"
 3200      696E6700 
 3201              	.LASF89:
ARM GAS  /tmp/ccYIACCT.s 			page 59


 3202 01c2 6D757465 		.ascii	"mutex_t\000"
 3202      785F7400 
 3203              	.LASF122:
 3204 01ca 76616C75 		.ascii	"value\000"
 3204      6500
 3205              	.LASF24:
 3206 01d0 636E745F 		.ascii	"cnt_t\000"
 3206      7400
 3207              	.LASF0:
 3208 01d6 756E7369 		.ascii	"unsigned int\000"
 3208      676E6564 
 3208      20696E74 
 3208      00
 3209              	.LASF106:
 3210 01e3 77616B65 		.ascii	"wakeup\000"
 3210      757000
 3211              	.LASF81:
 3212 01ea 77747365 		.ascii	"wtsemp\000"
 3212      6D7000
 3213              	.LASF9:
 3214 01f1 6C6F6E67 		.ascii	"long unsigned int\000"
 3214      20756E73 
 3214      69676E65 
 3214      6420696E 
 3214      7400
 3215              	.LASF120:
 3216 0203 2F686F6D 		.ascii	"/home/declan/ChibiOS2/ChibiOS/demos/STM32/RT-STM32F"
 3216      652F6465 
 3216      636C616E 
 3216      2F436869 
 3216      62694F53 
 3217 0236 3430372D 		.ascii	"407-DISCOVERY\000"
 3217      44495343 
 3217      4F564552 
 3217      5900
 3218              	.LASF31:
 3219 0244 6E616D65 		.ascii	"name\000"
 3219      00
 3220              	.LASF41:
 3221 0249 6D706F6F 		.ascii	"mpool\000"
 3221      6C00
 3222              	.LASF4:
 3223 024f 73686F72 		.ascii	"short unsigned int\000"
 3223      7420756E 
 3223      7369676E 
 3223      65642069 
 3223      6E7400
 3224              	.LASF44:
 3225 0262 63685F74 		.ascii	"ch_thread\000"
 3225      68726561 
 3225      6400
 3226              	.LASF22:
 3227 026c 6D73675F 		.ascii	"msg_t\000"
 3227      7400
 3228              	.LASF38:
 3229 0272 6570656E 		.ascii	"epending\000"
 3229      64696E67 
ARM GAS  /tmp/ccYIACCT.s 			page 60


 3229      00
 3230              	.LASF64:
 3231 027b 63685F73 		.ascii	"ch_system_t\000"
 3231      79737465 
 3231      6D5F7400 
 3232              	.LASF78:
 3233 0287 77746F62 		.ascii	"wtobjp\000"
 3233      6A7000
 3234              	.LASF51:
 3235 028e 63685F72 		.ascii	"ch_ready_list\000"
 3235      65616479 
 3235      5F6C6973 
 3235      7400
 3236              	.LASF23:
 3237 029c 6576656E 		.ascii	"eventmask_t\000"
 3237      746D6173 
 3237      6B5F7400 
 3238              	.LASF71:
 3239 02a8 73746B61 		.ascii	"stkalign_t\000"
 3239      6C69676E 
 3239      5F7400
 3240              	.LASF29:
 3241 02b3 6E657765 		.ascii	"newer\000"
 3241      7200
 3242              	.LASF40:
 3243 02b9 7265616C 		.ascii	"realprio\000"
 3243      7072696F 
 3243      00
 3244              	.LASF69:
 3245 02c2 73697A65 		.ascii	"sizetype\000"
 3245      74797065 
 3245      00
 3246              	.LASF42:
 3247 02cb 74687265 		.ascii	"thread_reference_t\000"
 3247      61645F72 
 3247      65666572 
 3247      656E6365 
 3247      5F7400
 3248              	.LASF59:
 3249 02de 63685F76 		.ascii	"ch_virtual_timers_list\000"
 3249      69727475 
 3249      616C5F74 
 3249      696D6572 
 3249      735F6C69 
 3250              	.LASF114:
 3251 02f5 63685363 		.ascii	"chSchDoRescheduleBehind\000"
 3251      68446F52 
 3251      65736368 
 3251      6564756C 
 3251      65426568 
 3252              	.LASF72:
 3253 030d 706F7274 		.ascii	"port_context\000"
 3253      5F636F6E 
 3253      74657874 
 3253      00
 3254              	.LASF75:
 3255 031a 746D5F63 		.ascii	"tm_calibration_t\000"
ARM GAS  /tmp/ccYIACCT.s 			page 61


 3255      616C6962 
 3255      72617469 
 3255      6F6E5F74 
 3255      00
 3256              	.LASF108:
 3257 032b 74696D65 		.ascii	"time\000"
 3257      00
 3258              	.LASF28:
 3259 0330 7072696F 		.ascii	"prio\000"
 3259      00
 3260              	.LASF52:
 3261 0335 63757272 		.ascii	"current\000"
 3261      656E7400 
 3262              	.LASF11:
 3263 033d 5F5F7569 		.ascii	"__uint64_t\000"
 3263      6E743634 
 3263      5F7400
 3264              	.LASF20:
 3265 0348 74726566 		.ascii	"trefs_t\000"
 3265      735F7400 
 3266              	.LASF35:
 3267 0350 72656673 		.ascii	"refs\000"
 3267      00
 3268              	.LASF54:
 3269 0355 76697274 		.ascii	"virtual_timer_t\000"
 3269      75616C5F 
 3269      74696D65 
 3269      725F7400 
 3270              	.LASF21:
 3271 0365 74707269 		.ascii	"tprio_t\000"
 3271      6F5F7400 
 3272              	.LASF99:
 3273 036d 63685379 		.ascii	"chSysUnlockFromISR\000"
 3273      73556E6C 
 3273      6F636B46 
 3273      726F6D49 
 3273      535200
 3274              	.LASF62:
 3275 0380 63685F73 		.ascii	"ch_system_debug\000"
 3275      79737465 
 3275      6D5F6465 
 3275      62756700 
 3276              	.LASF90:
 3277 0390 5F426F6F 		.ascii	"_Bool\000"
 3277      6C00
 3278              	.LASF14:
 3279 0396 696E7433 		.ascii	"int32_t\000"
 3279      325F7400 
 3280              	.LASF2:
 3281 039e 756E7369 		.ascii	"unsigned char\000"
 3281      676E6564 
 3281      20636861 
 3281      7200
 3282              	.LASF105:
 3283 03ac 6E657773 		.ascii	"newstate\000"
 3283      74617465 
 3283      00
ARM GAS  /tmp/ccYIACCT.s 			page 62


 3284              	.LASF3:
 3285 03b5 73686F72 		.ascii	"short int\000"
 3285      7420696E 
 3285      7400
 3286              	.LASF60:
 3287 03bf 6C617374 		.ascii	"lasttime\000"
 3287      74696D65 
 3287      00
 3288              	.LASF101:
 3289 03c8 63685365 		.ascii	"chSemFastSignalI\000"
 3289      6D466173 
 3289      74536967 
 3289      6E616C49 
 3289      00
 3290              	.LASF83:
 3291 03d9 65776D61 		.ascii	"ewmask\000"
 3291      736B00
 3292              	.LASF65:
 3293 03e0 63685F73 		.ascii	"ch_system\000"
 3293      79737465 
 3293      6D00
 3294              	.LASF18:
 3295 03ea 746D6F64 		.ascii	"tmode_t\000"
 3295      655F7400 
 3296              	.LASF104:
 3297 03f2 5F5F6675 		.ascii	"__func__\000"
 3297      6E635F5F 
 3297      00
 3298              	.LASF100:
 3299 03fb 63685654 		.ascii	"chVTIsArmedI\000"
 3299      49734172 
 3299      6D656449 
 3299      00
 3300              	.LASF88:
 3301 0408 73656D61 		.ascii	"semaphore_t\000"
 3301      70686F72 
 3301      655F7400 
 3302              	.LASF55:
 3303 0414 63685F76 		.ascii	"ch_virtual_timer\000"
 3303      69727475 
 3303      616C5F74 
 3303      696D6572 
 3303      00
 3304              	.LASF84:
 3305 0425 63685F73 		.ascii	"ch_semaphore\000"
 3305      656D6170 
 3305      686F7265 
 3305      00
 3306              	.LASF109:
 3307 0432 63685363 		.ascii	"chSchGoSleepS\000"
 3307      68476F53 
 3307      6C656570 
 3307      5300
 3308              	.LASF103:
 3309 0440 63685363 		.ascii	"chSchReadyAheadI\000"
 3309      68526561 
 3309      64794168 
ARM GAS  /tmp/ccYIACCT.s 			page 63


 3309      65616449 
 3309      00
 3310              	.LASF15:
 3311 0451 75696E74 		.ascii	"uint32_t\000"
 3311      33325F74 
 3311      00
 3312              	.LASF82:
 3313 045a 77746D74 		.ascii	"wtmtxp\000"
 3313      787000
 3314              	.LASF102:
 3315 0461 63685363 		.ascii	"chSchReadyI\000"
 3315      68526561 
 3315      64794900 
 3316              	.LASF45:
 3317 046d 63685F74 		.ascii	"ch_threads_list\000"
 3317      68726561 
 3317      64735F6C 
 3317      69737400 
 3318              	.LASF86:
 3319 047d 6F776E65 		.ascii	"owner\000"
 3319      7200
 3320              	.LASF118:
 3321 0483 474E5520 		.ascii	"GNU C 4.9.3 20150529 (prerelease) -mcpu=cortex-m4 -"
 3321      4320342E 
 3321      392E3320 
 3321      32303135 
 3321      30353239 
 3322 04b6 6D6E6F2D 		.ascii	"mno-thumb-interwork -mthumb -ggdb -O0 -fomit-frame-"
 3322      7468756D 
 3322      622D696E 
 3322      74657277 
 3322      6F726B20 
 3323 04e9 706F696E 		.ascii	"pointer -falign-functions=16\000"
 3323      74657220 
 3323      2D66616C 
 3323      69676E2D 
 3323      66756E63 
 3324              	.LASF87:
 3325 0506 63686172 		.ascii	"char\000"
 3325      00
 3326              	.LASF30:
 3327 050b 6F6C6465 		.ascii	"older\000"
 3327      7200
 3328              	.LASF6:
 3329 0511 5F5F696E 		.ascii	"__int32_t\000"
 3329      7433325F 
 3329      7400
 3330              	.LASF94:
 3331 051b 706F7274 		.ascii	"port_unlock_from_isr\000"
 3331      5F756E6C 
 3331      6F636B5F 
 3331      66726F6D 
 3331      5F697372 
 3332              	.LASF26:
 3333 0530 74687265 		.ascii	"thread_t\000"
 3333      61645F74 
 3333      00
ARM GAS  /tmp/ccYIACCT.s 			page 64


 3334              	.LASF96:
 3335 0539 71756575 		.ascii	"queue_fifo_remove\000"
 3335      655F6669 
 3335      666F5F72 
 3335      656D6F76 
 3335      6500
 3336              	.LASF25:
 3337 054b 73797374 		.ascii	"systime_t\000"
 3337      696D655F 
 3337      7400
 3338              	.LASF53:
 3339 0555 76746675 		.ascii	"vtfunc_t\000"
 3339      6E635F74 
 3339      00
 3340              	.LASF121:
 3341 055e 5F5F7365 		.ascii	"__set_BASEPRI\000"
 3341      745F4241 
 3341      53455052 
 3341      4900
 3342              	.LASF63:
 3343 056c 70616E69 		.ascii	"panic_msg\000"
 3343      635F6D73 
 3343      6700
 3344              	.LASF119:
 3345 0576 2E2E2F2E 		.ascii	"../../../os/rt/src/chschd.c\000"
 3345      2E2F2E2E 
 3345      2F6F732F 
 3345      72742F73 
 3345      72632F63 
 3346              	.LASF74:
 3347 0592 6F666673 		.ascii	"offset\000"
 3347      657400
 3348              	.LASF17:
 3349 0599 7274636E 		.ascii	"rtcnt_t\000"
 3349      745F7400 
 3350              	.LASF93:
 3351 05a1 706F7274 		.ascii	"port_lock_from_isr\000"
 3351      5F6C6F63 
 3351      6B5F6672 
 3351      6F6D5F69 
 3351      737200
 3352              	.LASF110:
 3353 05b4 63685363 		.ascii	"chSchWakeupS\000"
 3353      6857616B 
 3353      65757053 
 3353      00
 3354              	.LASF47:
 3355 05c1 74687265 		.ascii	"threads_queue_t\000"
 3355      6164735F 
 3355      71756575 
 3355      655F7400 
 3356              	.LASF85:
 3357 05d1 63685F6D 		.ascii	"ch_mutex\000"
 3357      75746578 
 3357      00
 3358              	.LASF66:
 3359 05da 726C6973 		.ascii	"rlist\000"
ARM GAS  /tmp/ccYIACCT.s 			page 65


 3359      7400
 3360              	.LASF13:
 3361 05e0 75696E74 		.ascii	"uint8_t\000"
 3361      385F7400 
 3362              	.LASF34:
 3363 05e8 666C6167 		.ascii	"flags\000"
 3363      7300
 3364              	.LASF98:
 3365 05ee 63685379 		.ascii	"chSysLockFromISR\000"
 3365      734C6F63 
 3365      6B46726F 
 3365      6D495352 
 3365      00
 3366              	.LASF43:
 3367 05ff 74687265 		.ascii	"threads_list_t\000"
 3367      6164735F 
 3367      6C697374 
 3367      5F7400
 3368              	.LASF107:
 3369 060e 63685363 		.ascii	"chSchGoSleepTimeoutS\000"
 3369      68476F53 
 3369      6C656570 
 3369      54696D65 
 3369      6F757453 
 3370              	.LASF123:
 3371 0623 63685363 		.ascii	"chSchIsRescRequiredI\000"
 3371      68497352 
 3371      65736352 
 3371      65717569 
 3371      72656449 
 3372              	.LASF39:
 3373 0638 6D74786C 		.ascii	"mtxlist\000"
 3373      69737400 
 3374              		.ident	"GCC: (15:4.9.3+svn231177-1) 4.9.3 20150529 (prerelease)"
ARM GAS  /tmp/ccYIACCT.s 			page 66


DEFINED SYMBOLS
                            *ABS*:0000000000000000 chschd.c
     /tmp/ccYIACCT.s:18     .text:0000000000000000 $t
     /tmp/ccYIACCT.s:23     .text:0000000000000000 port_lock
     /tmp/ccYIACCT.s:59     .text:0000000000000010 port_unlock
     /tmp/ccYIACCT.s:93     .text:0000000000000020 port_lock_from_isr
     /tmp/ccYIACCT.s:115    .text:0000000000000030 port_unlock_from_isr
     /tmp/ccYIACCT.s:137    .text:0000000000000040 queue_init
     /tmp/ccYIACCT.s:169    .text:0000000000000060 queue_fifo_remove
     /tmp/ccYIACCT.s:209    .text:0000000000000090 queue_dequeue
     /tmp/ccYIACCT.s:247    .text:00000000000000b0 chSchIsRescRequiredI
     /tmp/ccYIACCT.s:272    .text:00000000000000cc $d
                            *COM*:0000000000000078 ch
     /tmp/ccYIACCT.s:276    .text:00000000000000d0 $t
     /tmp/ccYIACCT.s:281    .text:00000000000000d0 chSysLockFromISR
     /tmp/ccYIACCT.s:304    .text:00000000000000e0 chSysUnlockFromISR
     /tmp/ccYIACCT.s:326    .text:00000000000000f0 chVTIsArmedI
     /tmp/ccYIACCT.s:359    .text:0000000000000110 chSemFastSignalI
     /tmp/ccYIACCT.s:391    .text:0000000000000130 _scheduler_init
     /tmp/ccYIACCT.s:422    .text:000000000000014c $d
     /tmp/ccYIACCT.s:426    .text:0000000000000150 $t
     /tmp/ccYIACCT.s:432    .text:0000000000000150 chSchReadyI
     /tmp/ccYIACCT.s:490    .text:0000000000000198 $d
     /tmp/ccYIACCT.s:494    .text:000000000000019c $t
     /tmp/ccYIACCT.s:500    .text:00000000000001a0 chSchReadyAheadI
     /tmp/ccYIACCT.s:558    .text:00000000000001e8 $d
     /tmp/ccYIACCT.s:562    .text:00000000000001ec $t
     /tmp/ccYIACCT.s:568    .text:00000000000001f0 chSchGoSleepS
     /tmp/ccYIACCT.s:614    .text:0000000000000234 $d
     /tmp/ccYIACCT.s:618    .text:0000000000000238 $t
     /tmp/ccYIACCT.s:623    .text:0000000000000240 wakeup
     /tmp/ccYIACCT.s:649    .text:0000000000000260 $d
     /tmp/ccYIACCT.s:657    .text:0000000000000280 $t
     /tmp/ccYIACCT.s:711    .text:00000000000002c0 chSchGoSleepTimeoutS
     /tmp/ccYIACCT.s:776    .text:0000000000000320 $d
     /tmp/ccYIACCT.s:781    .text:0000000000000328 $t
     /tmp/ccYIACCT.s:787    .text:0000000000000330 chSchWakeupS
     /tmp/ccYIACCT.s:845    .text:000000000000037c $d
     /tmp/ccYIACCT.s:849    .text:0000000000000380 $t
     /tmp/ccYIACCT.s:855    .text:0000000000000380 chSchRescheduleS
     /tmp/ccYIACCT.s:984    .text:0000000000000410 chSchDoRescheduleAhead
     /tmp/ccYIACCT.s:884    .text:00000000000003a0 chSchIsPreemptionRequired
     /tmp/ccYIACCT.s:920    .text:00000000000003c8 $d
     /tmp/ccYIACCT.s:924    .text:00000000000003cc $t
     /tmp/ccYIACCT.s:930    .text:00000000000003d0 chSchDoRescheduleBehind
     /tmp/ccYIACCT.s:974    .text:000000000000040c $d
     /tmp/ccYIACCT.s:978    .text:0000000000000410 $t
     /tmp/ccYIACCT.s:1028   .text:000000000000044c $d
     /tmp/ccYIACCT.s:1032   .text:0000000000000450 $t
     /tmp/ccYIACCT.s:1038   .text:0000000000000450 chSchDoReschedule
     /tmp/ccYIACCT.s:1082   .text:000000000000048c $d
                     .debug_frame:0000000000000010 $d

UNDEFINED SYMBOLS
_port_switch
chVTDoSetI
chVTDoResetI
ARM GAS  /tmp/ccYIACCT.s 			page 67


