ARM GAS  /tmp/ccjg5mk3.s 			page 1


   1              		.syntax unified
   2              		.cpu cortex-m4
   3              		.fpu softvfp
   4              		.eabi_attribute 20, 1
   5              		.eabi_attribute 21, 1
   6              		.eabi_attribute 23, 3
   7              		.eabi_attribute 24, 1
   8              		.eabi_attribute 25, 1
   9              		.eabi_attribute 26, 1
  10              		.eabi_attribute 30, 6
  11              		.eabi_attribute 34, 1
  12              		.eabi_attribute 18, 4
  13              		.thumb
  14              		.file	"chsem.c"
  15              		.text
  16              	.Ltext0:
  17              		.cfi_sections	.debug_frame
  18              		.align	2
  19              		.p2align 4,,15
  20              		.thumb
  21              		.thumb_func
  22              		.type	port_lock, %function
  23              	port_lock:
  24              	.LFB127:
  25              		.file 1 "../../../os/common/ports/ARMCMx/chcore_v7m.h"
  26              		.loc 1 594 0
  27              		.cfi_startproc
  28              		@ args = 0, pretend = 0, frame = 8
  29              		@ frame_needed = 0, uses_anonymous_args = 0
  30              		@ link register save eliminated.
  31 0000 82B0     		sub	sp, sp, #8
  32              		.cfi_def_cfa_offset 8
  33 0002 2023     		movs	r3, #32
  34 0004 0193     		str	r3, [sp, #4]
  35              	.LBB6:
  36              	.LBB7:
  37              		.file 2 "../../../os/common/ext/CMSIS/include/cmsis_gcc.h"
  38              		.loc 2 264 0
  39 0006 019B     		ldr	r3, [sp, #4]
  40              	@ 264 "../../../os/common/ext/CMSIS/include/cmsis_gcc.h" 1
  41 0008 83F31188 		MSR basepri, r3
  42              	@ 0 "" 2
  43              		.thumb
  44              	.LBE7:
  45              	.LBE6:
  46              		.loc 1 611 0
  47 000c 02B0     		add	sp, sp, #8
  48              		.cfi_def_cfa_offset 0
  49              		@ sp needed
  50 000e 7047     		bx	lr
  51              		.cfi_endproc
  52              	.LFE127:
  53              		.size	port_lock, .-port_lock
  54              		.align	2
  55              		.p2align 4,,15
  56              		.thumb
  57              		.thumb_func
ARM GAS  /tmp/ccjg5mk3.s 			page 2


  58              		.type	port_unlock, %function
  59              	port_unlock:
  60              	.LFB128:
  61              		.loc 1 618 0
  62              		.cfi_startproc
  63              		@ args = 0, pretend = 0, frame = 8
  64              		@ frame_needed = 0, uses_anonymous_args = 0
  65              		@ link register save eliminated.
  66 0010 82B0     		sub	sp, sp, #8
  67              		.cfi_def_cfa_offset 8
  68 0012 0023     		movs	r3, #0
  69 0014 0193     		str	r3, [sp, #4]
  70              	.LBB8:
  71              	.LBB9:
  72              		.loc 2 264 0
  73 0016 019B     		ldr	r3, [sp, #4]
  74              	@ 264 "../../../os/common/ext/CMSIS/include/cmsis_gcc.h" 1
  75 0018 83F31188 		MSR basepri, r3
  76              	@ 0 "" 2
  77              		.thumb
  78              	.LBE9:
  79              	.LBE8:
  80              		.loc 1 625 0
  81 001c 02B0     		add	sp, sp, #8
  82              		.cfi_def_cfa_offset 0
  83              		@ sp needed
  84 001e 7047     		bx	lr
  85              		.cfi_endproc
  86              	.LFE128:
  87              		.size	port_unlock, .-port_unlock
  88              		.align	2
  89              		.p2align 4,,15
  90              		.thumb
  91              		.thumb_func
  92              		.type	queue_init, %function
  93              	queue_init:
  94              	.LFB150:
  95              		.file 3 "../../../os/rt/include/chschd.h"
  96              		.loc 3 548 0
  97              		.cfi_startproc
  98              		@ args = 0, pretend = 0, frame = 8
  99              		@ frame_needed = 0, uses_anonymous_args = 0
 100              		@ link register save eliminated.
 101 0020 82B0     		sub	sp, sp, #8
 102              		.cfi_def_cfa_offset 8
 103 0022 0190     		str	r0, [sp, #4]
 104              		.loc 3 550 0
 105 0024 019B     		ldr	r3, [sp, #4]
 106 0026 019A     		ldr	r2, [sp, #4]
 107 0028 1A60     		str	r2, [r3]
 108              		.loc 3 551 0
 109 002a 019B     		ldr	r3, [sp, #4]
 110 002c 019A     		ldr	r2, [sp, #4]
 111 002e 5A60     		str	r2, [r3, #4]
 112              		.loc 3 552 0
 113 0030 02B0     		add	sp, sp, #8
 114              		.cfi_def_cfa_offset 0
ARM GAS  /tmp/ccjg5mk3.s 			page 3


 115              		@ sp needed
 116 0032 7047     		bx	lr
 117              		.cfi_endproc
 118              	.LFE150:
 119              		.size	queue_init, .-queue_init
 120              		.align	2
 121 0034 AFF30080 		.p2align 4,,15
 121      AFF30080 
 121      AFF30080 
 122              		.thumb
 123              		.thumb_func
 124              		.type	queue_insert, %function
 125              	queue_insert:
 126              	.LFB156:
 127              		.loc 3 609 0
 128              		.cfi_startproc
 129              		@ args = 0, pretend = 0, frame = 8
 130              		@ frame_needed = 0, uses_anonymous_args = 0
 131              		@ link register save eliminated.
 132 0040 82B0     		sub	sp, sp, #8
 133              		.cfi_def_cfa_offset 8
 134 0042 0190     		str	r0, [sp, #4]
 135 0044 0091     		str	r1, [sp]
 136              		.loc 3 611 0
 137 0046 019B     		ldr	r3, [sp, #4]
 138 0048 009A     		ldr	r2, [sp]
 139 004a 1A60     		str	r2, [r3]
 140              		.loc 3 612 0
 141 004c 009B     		ldr	r3, [sp]
 142 004e 5A68     		ldr	r2, [r3, #4]
 143 0050 019B     		ldr	r3, [sp, #4]
 144 0052 5A60     		str	r2, [r3, #4]
 145              		.loc 3 613 0
 146 0054 019B     		ldr	r3, [sp, #4]
 147 0056 5B68     		ldr	r3, [r3, #4]
 148 0058 019A     		ldr	r2, [sp, #4]
 149 005a 1A60     		str	r2, [r3]
 150              		.loc 3 614 0
 151 005c 009B     		ldr	r3, [sp]
 152 005e 019A     		ldr	r2, [sp, #4]
 153 0060 5A60     		str	r2, [r3, #4]
 154              		.loc 3 615 0
 155 0062 02B0     		add	sp, sp, #8
 156              		.cfi_def_cfa_offset 0
 157              		@ sp needed
 158 0064 7047     		bx	lr
 159              		.cfi_endproc
 160              	.LFE156:
 161              		.size	queue_insert, .-queue_insert
 162 0066 00BF     		.align	2
 163 0068 AFF30080 		.p2align 4,,15
 163      AFF30080 
 164              		.thumb
 165              		.thumb_func
 166              		.type	queue_fifo_remove, %function
 167              	queue_fifo_remove:
 168              	.LFB157:
ARM GAS  /tmp/ccjg5mk3.s 			page 4


 169              		.loc 3 617 0
 170              		.cfi_startproc
 171              		@ args = 0, pretend = 0, frame = 16
 172              		@ frame_needed = 0, uses_anonymous_args = 0
 173              		@ link register save eliminated.
 174 0070 84B0     		sub	sp, sp, #16
 175              		.cfi_def_cfa_offset 16
 176 0072 0190     		str	r0, [sp, #4]
 177              		.loc 3 618 0
 178 0074 019B     		ldr	r3, [sp, #4]
 179 0076 1B68     		ldr	r3, [r3]
 180 0078 0393     		str	r3, [sp, #12]
 181              		.loc 3 620 0
 182 007a 039B     		ldr	r3, [sp, #12]
 183 007c 1A68     		ldr	r2, [r3]
 184 007e 019B     		ldr	r3, [sp, #4]
 185 0080 1A60     		str	r2, [r3]
 186              		.loc 3 621 0
 187 0082 019B     		ldr	r3, [sp, #4]
 188 0084 1B68     		ldr	r3, [r3]
 189 0086 019A     		ldr	r2, [sp, #4]
 190 0088 5A60     		str	r2, [r3, #4]
 191              		.loc 3 623 0
 192 008a 039B     		ldr	r3, [sp, #12]
 193              		.loc 3 624 0
 194 008c 1846     		mov	r0, r3
 195 008e 04B0     		add	sp, sp, #16
 196              		.cfi_def_cfa_offset 0
 197              		@ sp needed
 198 0090 7047     		bx	lr
 199              		.cfi_endproc
 200              	.LFE157:
 201              		.size	queue_fifo_remove, .-queue_fifo_remove
 202 0092 00BF     		.align	2
 203 0094 AFF30080 		.p2align 4,,15
 203      AFF30080 
 203      AFF30080 
 204              		.thumb
 205              		.thumb_func
 206              		.type	queue_lifo_remove, %function
 207              	queue_lifo_remove:
 208              	.LFB158:
 209              		.loc 3 626 0
 210              		.cfi_startproc
 211              		@ args = 0, pretend = 0, frame = 16
 212              		@ frame_needed = 0, uses_anonymous_args = 0
 213              		@ link register save eliminated.
 214 00a0 84B0     		sub	sp, sp, #16
 215              		.cfi_def_cfa_offset 16
 216 00a2 0190     		str	r0, [sp, #4]
 217              		.loc 3 627 0
 218 00a4 019B     		ldr	r3, [sp, #4]
 219 00a6 5B68     		ldr	r3, [r3, #4]
 220 00a8 0393     		str	r3, [sp, #12]
 221              		.loc 3 629 0
 222 00aa 039B     		ldr	r3, [sp, #12]
 223 00ac 5A68     		ldr	r2, [r3, #4]
ARM GAS  /tmp/ccjg5mk3.s 			page 5


 224 00ae 019B     		ldr	r3, [sp, #4]
 225 00b0 5A60     		str	r2, [r3, #4]
 226              		.loc 3 630 0
 227 00b2 019B     		ldr	r3, [sp, #4]
 228 00b4 5B68     		ldr	r3, [r3, #4]
 229 00b6 019A     		ldr	r2, [sp, #4]
 230 00b8 1A60     		str	r2, [r3]
 231              		.loc 3 632 0
 232 00ba 039B     		ldr	r3, [sp, #12]
 233              		.loc 3 633 0
 234 00bc 1846     		mov	r0, r3
 235 00be 04B0     		add	sp, sp, #16
 236              		.cfi_def_cfa_offset 0
 237              		@ sp needed
 238 00c0 7047     		bx	lr
 239              		.cfi_endproc
 240              	.LFE158:
 241              		.size	queue_lifo_remove, .-queue_lifo_remove
 242 00c2 00BF     		.align	2
 243 00c4 AFF30080 		.p2align 4,,15
 243      AFF30080 
 243      AFF30080 
 244              		.thumb
 245              		.thumb_func
 246              		.type	chSysLock, %function
 247              	chSysLock:
 248              	.LFB167:
 249              		.file 4 "../../../os/rt/include/chsys.h"
 250              		.loc 4 374 0
 251              		.cfi_startproc
 252              		@ args = 0, pretend = 0, frame = 0
 253              		@ frame_needed = 0, uses_anonymous_args = 0
 254 00d0 08B5     		push	{r3, lr}
 255              		.cfi_def_cfa_offset 8
 256              		.cfi_offset 3, -8
 257              		.cfi_offset 14, -4
 258              		.loc 4 376 0
 259 00d2 FFF795FF 		bl	port_lock
 260              		.loc 4 379 0
 261 00d6 08BD     		pop	{r3, pc}
 262              		.cfi_endproc
 263              	.LFE167:
 264              		.size	chSysLock, .-chSysLock
 265              		.align	2
 266 00d8 AFF30080 		.p2align 4,,15
 266      AFF30080 
 267              		.thumb
 268              		.thumb_func
 269              		.type	chSysUnlock, %function
 270              	chSysUnlock:
 271              	.LFB168:
 272              		.loc 4 386 0
 273              		.cfi_startproc
 274              		@ args = 0, pretend = 0, frame = 0
 275              		@ frame_needed = 0, uses_anonymous_args = 0
 276 00e0 08B5     		push	{r3, lr}
 277              		.cfi_def_cfa_offset 8
ARM GAS  /tmp/ccjg5mk3.s 			page 6


 278              		.cfi_offset 3, -8
 279              		.cfi_offset 14, -4
 280              		.loc 4 399 0
 281 00e2 FFF795FF 		bl	port_unlock
 282              		.loc 4 400 0
 283 00e6 08BD     		pop	{r3, pc}
 284              		.cfi_endproc
 285              	.LFE168:
 286              		.size	chSysUnlock, .-chSysUnlock
 287              		.align	2
 288 00e8 AFF30080 		.p2align 4,,15
 288      AFF30080 
 289              		.global	chSemObjectInit
 290              		.thumb
 291              		.thumb_func
 292              		.type	chSemObjectInit, %function
 293              	chSemObjectInit:
 294              	.LFB248:
 295              		.file 5 "../../../os/rt/src/chsem.c"
 296              		.loc 5 97 0
 297              		.cfi_startproc
 298              		@ args = 0, pretend = 0, frame = 8
 299              		@ frame_needed = 0, uses_anonymous_args = 0
 300 00f0 00B5     		push	{lr}
 301              		.cfi_def_cfa_offset 4
 302              		.cfi_offset 14, -4
 303 00f2 83B0     		sub	sp, sp, #12
 304              		.cfi_def_cfa_offset 16
 305 00f4 0190     		str	r0, [sp, #4]
 306 00f6 0091     		str	r1, [sp]
 307              		.loc 5 101 0
 308 00f8 019B     		ldr	r3, [sp, #4]
 309 00fa 1846     		mov	r0, r3
 310 00fc FFF790FF 		bl	queue_init
 311              		.loc 5 102 0
 312 0100 019B     		ldr	r3, [sp, #4]
 313 0102 009A     		ldr	r2, [sp]
 314 0104 9A60     		str	r2, [r3, #8]
 315              		.loc 5 103 0
 316 0106 03B0     		add	sp, sp, #12
 317              		.cfi_def_cfa_offset 4
 318              		@ sp needed
 319 0108 5DF804FB 		ldr	pc, [sp], #4
 320              		.cfi_endproc
 321              	.LFE248:
 322              		.size	chSemObjectInit, .-chSemObjectInit
 323              		.align	2
 324 010c AFF30080 		.p2align 4,,15
 325              		.global	chSemReset
 326              		.thumb
 327              		.thumb_func
 328              		.type	chSemReset, %function
 329              	chSemReset:
 330              	.LFB249:
 331              		.loc 5 120 0
 332              		.cfi_startproc
 333              		@ args = 0, pretend = 0, frame = 8
ARM GAS  /tmp/ccjg5mk3.s 			page 7


 334              		@ frame_needed = 0, uses_anonymous_args = 0
 335 0110 00B5     		push	{lr}
 336              		.cfi_def_cfa_offset 4
 337              		.cfi_offset 14, -4
 338 0112 83B0     		sub	sp, sp, #12
 339              		.cfi_def_cfa_offset 16
 340 0114 0190     		str	r0, [sp, #4]
 341 0116 0091     		str	r1, [sp]
 342              		.loc 5 122 0
 343 0118 FFF7DAFF 		bl	chSysLock
 344              		.loc 5 123 0
 345 011c 0198     		ldr	r0, [sp, #4]
 346 011e 0099     		ldr	r1, [sp]
 347 0120 FFF7FEFF 		bl	chSemResetI
 348              		.loc 5 124 0
 349 0124 FFF7FEFF 		bl	chSchRescheduleS
 350              		.loc 5 125 0
 351 0128 FFF7DAFF 		bl	chSysUnlock
 352              		.loc 5 126 0
 353 012c 03B0     		add	sp, sp, #12
 354              		.cfi_def_cfa_offset 4
 355              		@ sp needed
 356 012e 5DF804FB 		ldr	pc, [sp], #4
 357              		.cfi_endproc
 358              	.LFE249:
 359              		.size	chSemReset, .-chSemReset
 360 0132 00BF     		.align	2
 361 0134 AFF30080 		.p2align 4,,15
 361      AFF30080 
 361      AFF30080 
 362              		.global	chSemResetI
 363              		.thumb
 364              		.thumb_func
 365              		.type	chSemResetI, %function
 366              	chSemResetI:
 367              	.LFB250:
 368              		.loc 5 147 0
 369              		.cfi_startproc
 370              		@ args = 0, pretend = 0, frame = 16
 371              		@ frame_needed = 0, uses_anonymous_args = 0
 372 0140 00B5     		push	{lr}
 373              		.cfi_def_cfa_offset 4
 374              		.cfi_offset 14, -4
 375 0142 85B0     		sub	sp, sp, #20
 376              		.cfi_def_cfa_offset 24
 377 0144 0190     		str	r0, [sp, #4]
 378 0146 0091     		str	r1, [sp]
 379              		.loc 5 156 0
 380 0148 019B     		ldr	r3, [sp, #4]
 381 014a 9B68     		ldr	r3, [r3, #8]
 382 014c 0393     		str	r3, [sp, #12]
 383              		.loc 5 157 0
 384 014e 019B     		ldr	r3, [sp, #4]
 385 0150 009A     		ldr	r2, [sp]
 386 0152 9A60     		str	r2, [r3, #8]
 387              		.loc 5 158 0
 388 0154 0BE0     		b	.L14
ARM GAS  /tmp/ccjg5mk3.s 			page 8


 389              	.L15:
 390              		.loc 5 159 0
 391 0156 019B     		ldr	r3, [sp, #4]
 392 0158 1846     		mov	r0, r3
 393 015a FFF7A1FF 		bl	queue_lifo_remove
 394 015e 0346     		mov	r3, r0
 395 0160 1846     		mov	r0, r3
 396 0162 FFF7FEFF 		bl	chSchReadyI
 397 0166 0246     		mov	r2, r0
 398 0168 6FF00103 		mvn	r3, #1
 399 016c 5362     		str	r3, [r2, #36]
 400              	.L14:
 401              		.loc 5 158 0
 402 016e 039B     		ldr	r3, [sp, #12]
 403 0170 0133     		adds	r3, r3, #1
 404 0172 0393     		str	r3, [sp, #12]
 405 0174 039B     		ldr	r3, [sp, #12]
 406 0176 002B     		cmp	r3, #0
 407 0178 EDDD     		ble	.L15
 408              		.loc 5 161 0
 409 017a 05B0     		add	sp, sp, #20
 410              		.cfi_def_cfa_offset 4
 411              		@ sp needed
 412 017c 5DF804FB 		ldr	pc, [sp], #4
 413              		.cfi_endproc
 414              	.LFE250:
 415              		.size	chSemResetI, .-chSemResetI
 416              		.align	2
 417              		.p2align 4,,15
 418              		.global	chSemWait
 419              		.thumb
 420              		.thumb_func
 421              		.type	chSemWait, %function
 422              	chSemWait:
 423              	.LFB251:
 424              		.loc 5 175 0
 425              		.cfi_startproc
 426              		@ args = 0, pretend = 0, frame = 16
 427              		@ frame_needed = 0, uses_anonymous_args = 0
 428 0180 00B5     		push	{lr}
 429              		.cfi_def_cfa_offset 4
 430              		.cfi_offset 14, -4
 431 0182 85B0     		sub	sp, sp, #20
 432              		.cfi_def_cfa_offset 24
 433 0184 0190     		str	r0, [sp, #4]
 434              		.loc 5 178 0
 435 0186 FFF7A3FF 		bl	chSysLock
 436              		.loc 5 179 0
 437 018a 0198     		ldr	r0, [sp, #4]
 438 018c FFF7FEFF 		bl	chSemWaitS
 439 0190 0390     		str	r0, [sp, #12]
 440              		.loc 5 180 0
 441 0192 FFF7A5FF 		bl	chSysUnlock
 442              		.loc 5 182 0
 443 0196 039B     		ldr	r3, [sp, #12]
 444              		.loc 5 183 0
 445 0198 1846     		mov	r0, r3
ARM GAS  /tmp/ccjg5mk3.s 			page 9


 446 019a 05B0     		add	sp, sp, #20
 447              		.cfi_def_cfa_offset 4
 448              		@ sp needed
 449 019c 5DF804FB 		ldr	pc, [sp], #4
 450              		.cfi_endproc
 451              	.LFE251:
 452              		.size	chSemWait, .-chSemWait
 453              		.align	2
 454              		.p2align 4,,15
 455              		.global	chSemWaitS
 456              		.thumb
 457              		.thumb_func
 458              		.type	chSemWaitS, %function
 459              	chSemWaitS:
 460              	.LFB252:
 461              		.loc 5 197 0
 462              		.cfi_startproc
 463              		@ args = 0, pretend = 0, frame = 8
 464              		@ frame_needed = 0, uses_anonymous_args = 0
 465 01a0 00B5     		push	{lr}
 466              		.cfi_def_cfa_offset 4
 467              		.cfi_offset 14, -4
 468 01a2 83B0     		sub	sp, sp, #12
 469              		.cfi_def_cfa_offset 16
 470 01a4 0190     		str	r0, [sp, #4]
 471              		.loc 5 205 0
 472 01a6 019B     		ldr	r3, [sp, #4]
 473 01a8 9B68     		ldr	r3, [r3, #8]
 474 01aa 5A1E     		subs	r2, r3, #1
 475 01ac 019B     		ldr	r3, [sp, #4]
 476 01ae 9A60     		str	r2, [r3, #8]
 477 01b0 019B     		ldr	r3, [sp, #4]
 478 01b2 9B68     		ldr	r3, [r3, #8]
 479 01b4 002B     		cmp	r3, #0
 480 01b6 11DA     		bge	.L19
 481              		.loc 5 206 0
 482 01b8 0B4B     		ldr	r3, .L21
 483 01ba 9B69     		ldr	r3, [r3, #24]
 484 01bc 019A     		ldr	r2, [sp, #4]
 485 01be 5A62     		str	r2, [r3, #36]
 486              		.loc 5 207 0
 487 01c0 094B     		ldr	r3, .L21
 488 01c2 9A69     		ldr	r2, [r3, #24]
 489 01c4 019B     		ldr	r3, [sp, #4]
 490 01c6 1046     		mov	r0, r2
 491 01c8 1946     		mov	r1, r3
 492 01ca FFF739FF 		bl	queue_insert
 493              		.loc 5 208 0
 494 01ce 0520     		movs	r0, #5
 495 01d0 FFF7FEFF 		bl	chSchGoSleepS
 496              		.loc 5 210 0
 497 01d4 044B     		ldr	r3, .L21
 498 01d6 9B69     		ldr	r3, [r3, #24]
 499 01d8 5B6A     		ldr	r3, [r3, #36]
 500 01da 00E0     		b	.L20
 501              	.L19:
 502              		.loc 5 213 0
ARM GAS  /tmp/ccjg5mk3.s 			page 10


 503 01dc 0023     		movs	r3, #0
 504              	.L20:
 505              		.loc 5 214 0
 506 01de 1846     		mov	r0, r3
 507 01e0 03B0     		add	sp, sp, #12
 508              		.cfi_def_cfa_offset 4
 509              		@ sp needed
 510 01e2 5DF804FB 		ldr	pc, [sp], #4
 511              	.L22:
 512 01e6 00BF     		.align	2
 513              	.L21:
 514 01e8 00000000 		.word	ch
 515              		.cfi_endproc
 516              	.LFE252:
 517              		.size	chSemWaitS, .-chSemWaitS
 518              		.align	2
 519 01ec AFF30080 		.p2align 4,,15
 520              		.global	chSemWaitTimeout
 521              		.thumb
 522              		.thumb_func
 523              		.type	chSemWaitTimeout, %function
 524              	chSemWaitTimeout:
 525              	.LFB253:
 526              		.loc 5 235 0
 527              		.cfi_startproc
 528              		@ args = 0, pretend = 0, frame = 16
 529              		@ frame_needed = 0, uses_anonymous_args = 0
 530 01f0 00B5     		push	{lr}
 531              		.cfi_def_cfa_offset 4
 532              		.cfi_offset 14, -4
 533 01f2 85B0     		sub	sp, sp, #20
 534              		.cfi_def_cfa_offset 24
 535 01f4 0190     		str	r0, [sp, #4]
 536 01f6 0091     		str	r1, [sp]
 537              		.loc 5 238 0
 538 01f8 FFF76AFF 		bl	chSysLock
 539              		.loc 5 239 0
 540 01fc 0198     		ldr	r0, [sp, #4]
 541 01fe 0099     		ldr	r1, [sp]
 542 0200 FFF7FEFF 		bl	chSemWaitTimeoutS
 543 0204 0390     		str	r0, [sp, #12]
 544              		.loc 5 240 0
 545 0206 FFF76BFF 		bl	chSysUnlock
 546              		.loc 5 242 0
 547 020a 039B     		ldr	r3, [sp, #12]
 548              		.loc 5 243 0
 549 020c 1846     		mov	r0, r3
 550 020e 05B0     		add	sp, sp, #20
 551              		.cfi_def_cfa_offset 4
 552              		@ sp needed
 553 0210 5DF804FB 		ldr	pc, [sp], #4
 554              		.cfi_endproc
 555              	.LFE253:
 556              		.size	chSemWaitTimeout, .-chSemWaitTimeout
 557              		.align	2
 558 0214 AFF30080 		.p2align 4,,15
 558      AFF30080 
ARM GAS  /tmp/ccjg5mk3.s 			page 11


 558      AFF30080 
 559              		.global	chSemWaitTimeoutS
 560              		.thumb
 561              		.thumb_func
 562              		.type	chSemWaitTimeoutS, %function
 563              	chSemWaitTimeoutS:
 564              	.LFB254:
 565              		.loc 5 264 0
 566              		.cfi_startproc
 567              		@ args = 0, pretend = 0, frame = 8
 568              		@ frame_needed = 0, uses_anonymous_args = 0
 569 0220 00B5     		push	{lr}
 570              		.cfi_def_cfa_offset 4
 571              		.cfi_offset 14, -4
 572 0222 83B0     		sub	sp, sp, #12
 573              		.cfi_def_cfa_offset 16
 574 0224 0190     		str	r0, [sp, #4]
 575 0226 0091     		str	r1, [sp]
 576              		.loc 5 272 0
 577 0228 019B     		ldr	r3, [sp, #4]
 578 022a 9B68     		ldr	r3, [r3, #8]
 579 022c 5A1E     		subs	r2, r3, #1
 580 022e 019B     		ldr	r3, [sp, #4]
 581 0230 9A60     		str	r2, [r3, #8]
 582 0232 019B     		ldr	r3, [sp, #4]
 583 0234 9B68     		ldr	r3, [r3, #8]
 584 0236 002B     		cmp	r3, #0
 585 0238 1BDA     		bge	.L26
 586              		.loc 5 273 0
 587 023a 009B     		ldr	r3, [sp]
 588 023c 002B     		cmp	r3, #0
 589 023e 07D1     		bne	.L27
 590              		.loc 5 274 0
 591 0240 019B     		ldr	r3, [sp, #4]
 592 0242 9B68     		ldr	r3, [r3, #8]
 593 0244 5A1C     		adds	r2, r3, #1
 594 0246 019B     		ldr	r3, [sp, #4]
 595 0248 9A60     		str	r2, [r3, #8]
 596              		.loc 5 276 0
 597 024a 4FF0FF33 		mov	r3, #-1
 598 024e 11E0     		b	.L28
 599              	.L27:
 600              		.loc 5 278 0
 601 0250 0A4B     		ldr	r3, .L29
 602 0252 9B69     		ldr	r3, [r3, #24]
 603 0254 019A     		ldr	r2, [sp, #4]
 604 0256 5A62     		str	r2, [r3, #36]
 605              		.loc 5 279 0
 606 0258 084B     		ldr	r3, .L29
 607 025a 9A69     		ldr	r2, [r3, #24]
 608 025c 019B     		ldr	r3, [sp, #4]
 609 025e 1046     		mov	r0, r2
 610 0260 1946     		mov	r1, r3
 611 0262 FFF7EDFE 		bl	queue_insert
 612              		.loc 5 281 0
 613 0266 0520     		movs	r0, #5
 614 0268 0099     		ldr	r1, [sp]
ARM GAS  /tmp/ccjg5mk3.s 			page 12


 615 026a FFF7FEFF 		bl	chSchGoSleepTimeoutS
 616 026e 0346     		mov	r3, r0
 617 0270 00E0     		b	.L28
 618              	.L26:
 619              		.loc 5 284 0
 620 0272 0023     		movs	r3, #0
 621              	.L28:
 622              		.loc 5 285 0
 623 0274 1846     		mov	r0, r3
 624 0276 03B0     		add	sp, sp, #12
 625              		.cfi_def_cfa_offset 4
 626              		@ sp needed
 627 0278 5DF804FB 		ldr	pc, [sp], #4
 628              	.L30:
 629              		.align	2
 630              	.L29:
 631 027c 00000000 		.word	ch
 632              		.cfi_endproc
 633              	.LFE254:
 634              		.size	chSemWaitTimeoutS, .-chSemWaitTimeoutS
 635              		.align	2
 636              		.p2align 4,,15
 637              		.global	chSemSignal
 638              		.thumb
 639              		.thumb_func
 640              		.type	chSemSignal, %function
 641              	chSemSignal:
 642              	.LFB255:
 643              		.loc 5 294 0
 644              		.cfi_startproc
 645              		@ args = 0, pretend = 0, frame = 8
 646              		@ frame_needed = 0, uses_anonymous_args = 0
 647 0280 00B5     		push	{lr}
 648              		.cfi_def_cfa_offset 4
 649              		.cfi_offset 14, -4
 650 0282 83B0     		sub	sp, sp, #12
 651              		.cfi_def_cfa_offset 16
 652 0284 0190     		str	r0, [sp, #4]
 653              		.loc 5 298 0
 654 0286 FFF723FF 		bl	chSysLock
 655              		.loc 5 302 0
 656 028a 019B     		ldr	r3, [sp, #4]
 657 028c 9B68     		ldr	r3, [r3, #8]
 658 028e 5A1C     		adds	r2, r3, #1
 659 0290 019B     		ldr	r3, [sp, #4]
 660 0292 9A60     		str	r2, [r3, #8]
 661 0294 019B     		ldr	r3, [sp, #4]
 662 0296 9B68     		ldr	r3, [r3, #8]
 663 0298 002B     		cmp	r3, #0
 664 029a 08DC     		bgt	.L32
 665              		.loc 5 303 0
 666 029c 019B     		ldr	r3, [sp, #4]
 667 029e 1846     		mov	r0, r3
 668 02a0 FFF7E6FE 		bl	queue_fifo_remove
 669 02a4 0346     		mov	r3, r0
 670 02a6 1846     		mov	r0, r3
 671 02a8 0021     		movs	r1, #0
ARM GAS  /tmp/ccjg5mk3.s 			page 13


 672 02aa FFF7FEFF 		bl	chSchWakeupS
 673              	.L32:
 674              		.loc 5 305 0
 675 02ae FFF717FF 		bl	chSysUnlock
 676              		.loc 5 306 0
 677 02b2 03B0     		add	sp, sp, #12
 678              		.cfi_def_cfa_offset 4
 679              		@ sp needed
 680 02b4 5DF804FB 		ldr	pc, [sp], #4
 681              		.cfi_endproc
 682              	.LFE255:
 683              		.size	chSemSignal, .-chSemSignal
 684              		.align	2
 685 02b8 AFF30080 		.p2align 4,,15
 685      AFF30080 
 686              		.global	chSemSignalI
 687              		.thumb
 688              		.thumb_func
 689              		.type	chSemSignalI, %function
 690              	chSemSignalI:
 691              	.LFB256:
 692              		.loc 5 319 0
 693              		.cfi_startproc
 694              		@ args = 0, pretend = 0, frame = 16
 695              		@ frame_needed = 0, uses_anonymous_args = 0
 696 02c0 00B5     		push	{lr}
 697              		.cfi_def_cfa_offset 4
 698              		.cfi_offset 14, -4
 699 02c2 85B0     		sub	sp, sp, #20
 700              		.cfi_def_cfa_offset 24
 701 02c4 0190     		str	r0, [sp, #4]
 702              		.loc 5 327 0
 703 02c6 019B     		ldr	r3, [sp, #4]
 704 02c8 9B68     		ldr	r3, [r3, #8]
 705 02ca 5A1C     		adds	r2, r3, #1
 706 02cc 019B     		ldr	r3, [sp, #4]
 707 02ce 9A60     		str	r2, [r3, #8]
 708 02d0 019B     		ldr	r3, [sp, #4]
 709 02d2 9B68     		ldr	r3, [r3, #8]
 710 02d4 002B     		cmp	r3, #0
 711 02d6 0ADC     		bgt	.L33
 712              	.LBB10:
 713              		.loc 5 330 0
 714 02d8 019B     		ldr	r3, [sp, #4]
 715 02da 1846     		mov	r0, r3
 716 02dc FFF7C8FE 		bl	queue_fifo_remove
 717 02e0 0390     		str	r0, [sp, #12]
 718              		.loc 5 331 0
 719 02e2 039B     		ldr	r3, [sp, #12]
 720 02e4 0022     		movs	r2, #0
 721 02e6 5A62     		str	r2, [r3, #36]
 722              		.loc 5 332 0
 723 02e8 0398     		ldr	r0, [sp, #12]
 724 02ea FFF7FEFF 		bl	chSchReadyI
 725              	.L33:
 726              	.LBE10:
 727              		.loc 5 334 0
ARM GAS  /tmp/ccjg5mk3.s 			page 14


 728 02ee 05B0     		add	sp, sp, #20
 729              		.cfi_def_cfa_offset 4
 730              		@ sp needed
 731 02f0 5DF804FB 		ldr	pc, [sp], #4
 732              		.cfi_endproc
 733              	.LFE256:
 734              		.size	chSemSignalI, .-chSemSignalI
 735              		.align	2
 736 02f4 AFF30080 		.p2align 4,,15
 736      AFF30080 
 736      AFF30080 
 737              		.global	chSemAddCounterI
 738              		.thumb
 739              		.thumb_func
 740              		.type	chSemAddCounterI, %function
 741              	chSemAddCounterI:
 742              	.LFB257:
 743              		.loc 5 349 0
 744              		.cfi_startproc
 745              		@ args = 0, pretend = 0, frame = 8
 746              		@ frame_needed = 0, uses_anonymous_args = 0
 747 0300 00B5     		push	{lr}
 748              		.cfi_def_cfa_offset 4
 749              		.cfi_offset 14, -4
 750 0302 83B0     		sub	sp, sp, #12
 751              		.cfi_def_cfa_offset 16
 752 0304 0190     		str	r0, [sp, #4]
 753 0306 0091     		str	r1, [sp]
 754              		.loc 5 357 0
 755 0308 16E0     		b	.L36
 756              	.L38:
 757              		.loc 5 358 0
 758 030a 019B     		ldr	r3, [sp, #4]
 759 030c 9B68     		ldr	r3, [r3, #8]
 760 030e 5A1C     		adds	r2, r3, #1
 761 0310 019B     		ldr	r3, [sp, #4]
 762 0312 9A60     		str	r2, [r3, #8]
 763 0314 019B     		ldr	r3, [sp, #4]
 764 0316 9B68     		ldr	r3, [r3, #8]
 765 0318 002B     		cmp	r3, #0
 766 031a 0ADC     		bgt	.L37
 767              		.loc 5 359 0
 768 031c 019B     		ldr	r3, [sp, #4]
 769 031e 1846     		mov	r0, r3
 770 0320 FFF7A6FE 		bl	queue_fifo_remove
 771 0324 0346     		mov	r3, r0
 772 0326 1846     		mov	r0, r3
 773 0328 FFF7FEFF 		bl	chSchReadyI
 774 032c 0246     		mov	r2, r0
 775 032e 0023     		movs	r3, #0
 776 0330 5362     		str	r3, [r2, #36]
 777              	.L37:
 778              		.loc 5 361 0
 779 0332 009B     		ldr	r3, [sp]
 780 0334 013B     		subs	r3, r3, #1
 781 0336 0093     		str	r3, [sp]
 782              	.L36:
ARM GAS  /tmp/ccjg5mk3.s 			page 15


 783              		.loc 5 357 0
 784 0338 009B     		ldr	r3, [sp]
 785 033a 002B     		cmp	r3, #0
 786 033c E5DC     		bgt	.L38
 787              		.loc 5 363 0
 788 033e 03B0     		add	sp, sp, #12
 789              		.cfi_def_cfa_offset 4
 790              		@ sp needed
 791 0340 5DF804FB 		ldr	pc, [sp], #4
 792              		.cfi_endproc
 793              	.LFE257:
 794              		.size	chSemAddCounterI, .-chSemAddCounterI
 795              		.align	2
 796 0344 AFF30080 		.p2align 4,,15
 796      AFF30080 
 796      AFF30080 
 797              		.global	chSemSignalWait
 798              		.thumb
 799              		.thumb_func
 800              		.type	chSemSignalWait, %function
 801              	chSemSignalWait:
 802              	.LFB258:
 803              		.loc 5 378 0
 804              		.cfi_startproc
 805              		@ args = 0, pretend = 0, frame = 16
 806              		@ frame_needed = 0, uses_anonymous_args = 0
 807 0350 00B5     		push	{lr}
 808              		.cfi_def_cfa_offset 4
 809              		.cfi_offset 14, -4
 810 0352 85B0     		sub	sp, sp, #20
 811              		.cfi_def_cfa_offset 24
 812 0354 0190     		str	r0, [sp, #4]
 813 0356 0091     		str	r1, [sp]
 814              		.loc 5 383 0
 815 0358 FFF7BAFE 		bl	chSysLock
 816              		.loc 5 390 0
 817 035c 019B     		ldr	r3, [sp, #4]
 818 035e 9B68     		ldr	r3, [r3, #8]
 819 0360 5A1C     		adds	r2, r3, #1
 820 0362 019B     		ldr	r3, [sp, #4]
 821 0364 9A60     		str	r2, [r3, #8]
 822 0366 019B     		ldr	r3, [sp, #4]
 823 0368 9B68     		ldr	r3, [r3, #8]
 824 036a 002B     		cmp	r3, #0
 825 036c 0ADC     		bgt	.L40
 826              		.loc 5 391 0
 827 036e 019B     		ldr	r3, [sp, #4]
 828 0370 1846     		mov	r0, r3
 829 0372 FFF77DFE 		bl	queue_fifo_remove
 830 0376 0346     		mov	r3, r0
 831 0378 1846     		mov	r0, r3
 832 037a FFF7FEFF 		bl	chSchReadyI
 833 037e 0246     		mov	r2, r0
 834 0380 0023     		movs	r3, #0
 835 0382 5362     		str	r3, [r2, #36]
 836              	.L40:
 837              		.loc 5 393 0
ARM GAS  /tmp/ccjg5mk3.s 			page 16


 838 0384 009B     		ldr	r3, [sp]
 839 0386 9B68     		ldr	r3, [r3, #8]
 840 0388 5A1E     		subs	r2, r3, #1
 841 038a 009B     		ldr	r3, [sp]
 842 038c 9A60     		str	r2, [r3, #8]
 843 038e 009B     		ldr	r3, [sp]
 844 0390 9B68     		ldr	r3, [r3, #8]
 845 0392 002B     		cmp	r3, #0
 846 0394 11DA     		bge	.L41
 847              	.LBB11:
 848              		.loc 5 394 0
 849 0396 0E4B     		ldr	r3, .L44
 850 0398 9B69     		ldr	r3, [r3, #24]
 851 039a 0293     		str	r3, [sp, #8]
 852              		.loc 5 395 0
 853 039c 009B     		ldr	r3, [sp]
 854 039e 0298     		ldr	r0, [sp, #8]
 855 03a0 1946     		mov	r1, r3
 856 03a2 FFF74DFE 		bl	queue_insert
 857              		.loc 5 396 0
 858 03a6 029B     		ldr	r3, [sp, #8]
 859 03a8 009A     		ldr	r2, [sp]
 860 03aa 5A62     		str	r2, [r3, #36]
 861              		.loc 5 397 0
 862 03ac 0520     		movs	r0, #5
 863 03ae FFF7FEFF 		bl	chSchGoSleepS
 864              		.loc 5 398 0
 865 03b2 029B     		ldr	r3, [sp, #8]
 866 03b4 5B6A     		ldr	r3, [r3, #36]
 867 03b6 0393     		str	r3, [sp, #12]
 868              	.LBE11:
 869 03b8 03E0     		b	.L42
 870              	.L41:
 871              		.loc 5 401 0
 872 03ba FFF7FEFF 		bl	chSchRescheduleS
 873              		.loc 5 402 0
 874 03be 0023     		movs	r3, #0
 875 03c0 0393     		str	r3, [sp, #12]
 876              	.L42:
 877              		.loc 5 404 0
 878 03c2 FFF78DFE 		bl	chSysUnlock
 879              		.loc 5 406 0
 880 03c6 039B     		ldr	r3, [sp, #12]
 881              		.loc 5 407 0
 882 03c8 1846     		mov	r0, r3
 883 03ca 05B0     		add	sp, sp, #20
 884              		.cfi_def_cfa_offset 4
 885              		@ sp needed
 886 03cc 5DF804FB 		ldr	pc, [sp], #4
 887              	.L45:
 888              		.align	2
 889              	.L44:
 890 03d0 00000000 		.word	ch
 891              		.cfi_endproc
 892              	.LFE258:
 893              		.size	chSemSignalWait, .-chSemSignalWait
 894              	.Letext0:
ARM GAS  /tmp/ccjg5mk3.s 			page 17


 895              		.file 6 "/usr/include/newlib/machine/_default_types.h"
 896              		.file 7 "/usr/include/newlib/sys/_stdint.h"
 897              		.file 8 "../../../os/common/ports/ARMCMx/compilers/GCC/chtypes.h"
 898              		.file 9 "../../../os/rt/include/chsystypes.h"
 899              		.file 10 "../../../os/common/ports/ARMCMx/chcore.h"
 900              		.file 11 "../../../os/rt/include/chtm.h"
 901              		.file 12 "../../../os/rt/include/chsem.h"
 902              		.file 13 "../../../os/rt/include/chmtx.h"
 903              		.file 14 "../../../os/common/ext/CMSIS/include/core_cm4.h"