ARM GAS  /tmp/cc3lirnD.s 			page 1


   1              		.syntax unified
   2              		.cpu cortex-m4
   3              		.fpu softvfp
   4              		.eabi_attribute 20, 1
   5              		.eabi_attribute 21, 1
   6              		.eabi_attribute 23, 3
   7              		.eabi_attribute 24, 1
   8              		.eabi_attribute 25, 1
   9              		.eabi_attribute 26, 1
  10              		.eabi_attribute 30, 6
  11              		.eabi_attribute 34, 1
  12              		.eabi_attribute 18, 4
  13              		.thumb
  14              		.file	"chsys.c"
  15              		.text
  16              	.Ltext0:
  17              		.cfi_sections	.debug_frame
  18              		.align	2
  19              		.p2align 4,,15
  20              		.thumb
  21              		.thumb_func
  22              		.type	NVIC_SetPriorityGrouping, %function
  23              	NVIC_SetPriorityGrouping:
  24              	.LFB106:
  25              		.file 1 "../../../os/common/ext/CMSIS/include/core_cm4.h"
  26              		.loc 1 1597 0
  27              		.cfi_startproc
  28              		@ args = 0, pretend = 0, frame = 16
  29              		@ frame_needed = 0, uses_anonymous_args = 0
  30              		@ link register save eliminated.
  31 0000 84B0     		sub	sp, sp, #16
  32              		.cfi_def_cfa_offset 16
  33 0002 0190     		str	r0, [sp, #4]
  34              		.loc 1 1599 0
  35 0004 019B     		ldr	r3, [sp, #4]
  36 0006 03F00703 		and	r3, r3, #7
  37 000a 0393     		str	r3, [sp, #12]
  38              		.loc 1 1601 0
  39 000c 0A4B     		ldr	r3, .L2
  40 000e DB68     		ldr	r3, [r3, #12]
  41 0010 0293     		str	r3, [sp, #8]
  42              		.loc 1 1602 0
  43 0012 029A     		ldr	r2, [sp, #8]
  44 0014 4FF6FF03 		movw	r3, #63743
  45 0018 1340     		ands	r3, r3, r2
  46 001a 0293     		str	r3, [sp, #8]
  47              		.loc 1 1605 0
  48 001c 039B     		ldr	r3, [sp, #12]
  49 001e 1A02     		lsls	r2, r3, #8
  50              		.loc 1 1604 0
  51 0020 029B     		ldr	r3, [sp, #8]
  52 0022 1343     		orrs	r3, r3, r2
  53              		.loc 1 1603 0
  54 0024 43F0BF63 		orr	r3, r3, #100139008
  55 0028 43F40033 		orr	r3, r3, #131072
  56 002c 0293     		str	r3, [sp, #8]
  57              		.loc 1 1606 0
ARM GAS  /tmp/cc3lirnD.s 			page 2


  58 002e 024A     		ldr	r2, .L2
  59 0030 029B     		ldr	r3, [sp, #8]
  60 0032 D360     		str	r3, [r2, #12]
  61              		.loc 1 1607 0
  62 0034 04B0     		add	sp, sp, #16
  63              		.cfi_def_cfa_offset 0
  64              		@ sp needed
  65 0036 7047     		bx	lr
  66              	.L3:
  67              		.align	2
  68              	.L2:
  69 0038 00ED00E0 		.word	-536810240
  70              		.cfi_endproc
  71              	.LFE106:
  72              		.size	NVIC_SetPriorityGrouping, .-NVIC_SetPriorityGrouping
  73              		.align	2
  74 003c AFF30080 		.p2align 4,,15
  75              		.thumb
  76              		.thumb_func
  77              		.type	NVIC_SetPriority, %function
  78              	NVIC_SetPriority:
  79              	.LFB114:
  80              		.loc 1 1699 0
  81              		.cfi_startproc
  82              		@ args = 0, pretend = 0, frame = 8
  83              		@ frame_needed = 0, uses_anonymous_args = 0
  84              		@ link register save eliminated.
  85 0040 82B0     		sub	sp, sp, #8
  86              		.cfi_def_cfa_offset 8
  87 0042 0346     		mov	r3, r0
  88 0044 0091     		str	r1, [sp]
  89 0046 8DF80730 		strb	r3, [sp, #7]
  90              		.loc 1 1700 0
  91 004a 9DF90730 		ldrsb	r3, [sp, #7]
  92 004e 002B     		cmp	r3, #0
  93 0050 0CDA     		bge	.L5
  94              		.loc 1 1702 0
  95 0052 0C49     		ldr	r1, .L7
  96 0054 9DF80730 		ldrb	r3, [sp, #7]	@ zero_extendqisi2
  97 0058 03F00F03 		and	r3, r3, #15
  98 005c 043B     		subs	r3, r3, #4
  99 005e 009A     		ldr	r2, [sp]
 100 0060 D2B2     		uxtb	r2, r2
 101 0062 1201     		lsls	r2, r2, #4
 102 0064 D2B2     		uxtb	r2, r2
 103 0066 0B44     		add	r3, r3, r1
 104 0068 1A76     		strb	r2, [r3, #24]
 105 006a 09E0     		b	.L4
 106              	.L5:
 107              		.loc 1 1706 0
 108 006c 0649     		ldr	r1, .L7+4
 109 006e 9DF90730 		ldrsb	r3, [sp, #7]
 110 0072 009A     		ldr	r2, [sp]
 111 0074 D2B2     		uxtb	r2, r2
 112 0076 1201     		lsls	r2, r2, #4
 113 0078 D2B2     		uxtb	r2, r2
 114 007a 0B44     		add	r3, r3, r1
ARM GAS  /tmp/cc3lirnD.s 			page 3


 115 007c 83F80023 		strb	r2, [r3, #768]
 116              	.L4:
 117              		.loc 1 1708 0
 118 0080 02B0     		add	sp, sp, #8
 119              		.cfi_def_cfa_offset 0
 120              		@ sp needed
 121 0082 7047     		bx	lr
 122              	.L8:
 123              		.align	2
 124              	.L7:
 125 0084 00ED00E0 		.word	-536810240
 126 0088 00E100E0 		.word	-536813312
 127              		.cfi_endproc
 128              	.LFE114:
 129              		.size	NVIC_SetPriority, .-NVIC_SetPriority
 130              		.align	2
 131 008c AFF30080 		.p2align 4,,15
 132              		.thumb
 133              		.thumb_func
 134              		.type	port_init, %function
 135              	port_init:
 136              	.LFB123:
 137              		.file 2 "../../../os/common/ports/ARMCMx/chcore_v7m.h"
 138              		.loc 2 506 0
 139              		.cfi_startproc
 140              		@ args = 0, pretend = 0, frame = 0
 141              		@ frame_needed = 0, uses_anonymous_args = 0
 142 0090 08B5     		push	{r3, lr}
 143              		.cfi_def_cfa_offset 8
 144              		.cfi_offset 3, -8
 145              		.cfi_offset 14, -4
 146              		.loc 2 509 0
 147 0092 0320     		movs	r0, #3
 148 0094 FFF7B4FF 		bl	NVIC_SetPriorityGrouping
 149              		.loc 2 512 0
 150 0098 0B4A     		ldr	r2, .L10
 151 009a 0B4B     		ldr	r3, .L10
 152 009c DB68     		ldr	r3, [r3, #12]
 153 009e 43F08073 		orr	r3, r3, #16777216
 154 00a2 D360     		str	r3, [r2, #12]
 155              		.loc 2 516 0
 156 00a4 094A     		ldr	r2, .L10+4
 157 00a6 094B     		ldr	r3, .L10+4
 158 00a8 1B68     		ldr	r3, [r3]
 159 00aa 43F00103 		orr	r3, r3, #1
 160 00ae 1360     		str	r3, [r2]
 161              		.loc 2 520 0
 162 00b0 6FF00400 		mvn	r0, #4
 163 00b4 0121     		movs	r1, #1
 164 00b6 FFF7C3FF 		bl	NVIC_SetPriority
 165              		.loc 2 522 0
 166 00ba 6FF00100 		mvn	r0, #1
 167 00be 0221     		movs	r1, #2
 168 00c0 FFF7BEFF 		bl	NVIC_SetPriority
 169              		.loc 2 541 0
 170 00c4 08BD     		pop	{r3, pc}
 171              	.L11:
ARM GAS  /tmp/cc3lirnD.s 			page 4


 172 00c6 00BF     		.align	2
 173              	.L10:
 174 00c8 F0ED00E0 		.word	-536810000
 175 00cc 001000E0 		.word	-536866816
 176              		.cfi_endproc
 177              	.LFE123:
 178              		.size	port_init, .-port_init
 179              		.align	2
 180              		.p2align 4,,15
 181              		.thumb
 182              		.thumb_func
 183              		.type	port_get_irq_status, %function
 184              	port_get_irq_status:
 185              	.LFB124:
 186              		.loc 2 548 0
 187              		.cfi_startproc
 188              		@ args = 0, pretend = 0, frame = 8
 189              		@ frame_needed = 0, uses_anonymous_args = 0
 190              		@ link register save eliminated.
 191 00d0 82B0     		sub	sp, sp, #8
 192              		.cfi_def_cfa_offset 8
 193              	.LBB16:
 194              	.LBB17:
 195              		.file 3 "../../../os/common/ext/CMSIS/include/cmsis_gcc.h"
 196              		.loc 3 252 0
 197              	@ 252 "../../../os/common/ext/CMSIS/include/cmsis_gcc.h" 1
 198 00d2 EFF31183 		MRS r3, basepri
 199              	@ 0 "" 2
 200              		.thumb
 201 00d6 0093     		str	r3, [sp]
 202              		.loc 3 253 0
 203 00d8 009B     		ldr	r3, [sp]
 204              	.LBE17:
 205              	.LBE16:
 206              		.loc 2 552 0
 207 00da 0193     		str	r3, [sp, #4]
 208              		.loc 2 556 0
 209 00dc 019B     		ldr	r3, [sp, #4]
 210              		.loc 2 557 0
 211 00de 1846     		mov	r0, r3
 212 00e0 02B0     		add	sp, sp, #8
 213              		.cfi_def_cfa_offset 0
 214              		@ sp needed
 215 00e2 7047     		bx	lr
 216              		.cfi_endproc
 217              	.LFE124:
 218              		.size	port_get_irq_status, .-port_get_irq_status
 219              		.align	2
 220 00e4 AFF30080 		.p2align 4,,15
 220      AFF30080 
 220      AFF30080 
 221              		.thumb
 222              		.thumb_func
 223              		.type	port_irq_enabled, %function
 224              	port_irq_enabled:
 225              	.LFB125:
 226              		.loc 2 568 0
ARM GAS  /tmp/cc3lirnD.s 			page 5


 227              		.cfi_startproc
 228              		@ args = 0, pretend = 0, frame = 8
 229              		@ frame_needed = 0, uses_anonymous_args = 0
 230              		@ link register save eliminated.
 231 00f0 82B0     		sub	sp, sp, #8
 232              		.cfi_def_cfa_offset 8
 233 00f2 0190     		str	r0, [sp, #4]
 234              		.loc 2 571 0
 235 00f4 019B     		ldr	r3, [sp, #4]
 236 00f6 002B     		cmp	r3, #0
 237 00f8 0CBF     		ite	eq
 238 00fa 0123     		moveq	r3, #1
 239 00fc 0023     		movne	r3, #0
 240 00fe DBB2     		uxtb	r3, r3
 241              		.loc 2 575 0
 242 0100 1846     		mov	r0, r3
 243 0102 02B0     		add	sp, sp, #8
 244              		.cfi_def_cfa_offset 0
 245              		@ sp needed
 246 0104 7047     		bx	lr
 247              		.cfi_endproc
 248              	.LFE125:
 249              		.size	port_irq_enabled, .-port_irq_enabled
 250 0106 00BF     		.align	2
 251 0108 AFF30080 		.p2align 4,,15
 251      AFF30080 
 252              		.thumb
 253              		.thumb_func
 254              		.type	port_is_isr_context, %function
 255              	port_is_isr_context:
 256              	.LFB126:
 257              		.loc 2 584 0
 258              		.cfi_startproc
 259              		@ args = 0, pretend = 0, frame = 8
 260              		@ frame_needed = 0, uses_anonymous_args = 0
 261              		@ link register save eliminated.
 262 0110 82B0     		sub	sp, sp, #8
 263              		.cfi_def_cfa_offset 8
 264              	.LBB18:
 265              	.LBB19:
 266              		.loc 3 109 0
 267              	@ 109 "../../../os/common/ext/CMSIS/include/cmsis_gcc.h" 1
 268 0112 EFF30583 		MRS r3, ipsr
 269              	@ 0 "" 2
 270              		.thumb
 271 0116 0193     		str	r3, [sp, #4]
 272              		.loc 3 110 0
 273 0118 019B     		ldr	r3, [sp, #4]
 274              	.LBE19:
 275              	.LBE18:
 276              		.loc 2 586 0
 277 011a C3F30803 		ubfx	r3, r3, #0, #9
 278 011e 002B     		cmp	r3, #0
 279 0120 14BF     		ite	ne
 280 0122 0123     		movne	r3, #1
 281 0124 0023     		moveq	r3, #0
 282 0126 DBB2     		uxtb	r3, r3
ARM GAS  /tmp/cc3lirnD.s 			page 6


 283              		.loc 2 587 0
 284 0128 1846     		mov	r0, r3
 285 012a 02B0     		add	sp, sp, #8
 286              		.cfi_def_cfa_offset 0
 287              		@ sp needed
 288 012c 7047     		bx	lr
 289              		.cfi_endproc
 290              	.LFE126:
 291              		.size	port_is_isr_context, .-port_is_isr_context
 292 012e 00BF     		.align	2
 293              		.p2align 4,,15
 294              		.thumb
 295              		.thumb_func
 296              		.type	port_lock, %function
 297              	port_lock:
 298              	.LFB127:
 299              		.loc 2 594 0
 300              		.cfi_startproc
 301              		@ args = 0, pretend = 0, frame = 8
 302              		@ frame_needed = 0, uses_anonymous_args = 0
 303              		@ link register save eliminated.
 304 0130 82B0     		sub	sp, sp, #8
 305              		.cfi_def_cfa_offset 8
 306 0132 2023     		movs	r3, #32
 307 0134 0193     		str	r3, [sp, #4]
 308              	.LBB20:
 309              	.LBB21:
 310              		.loc 3 264 0
 311 0136 019B     		ldr	r3, [sp, #4]
 312              	@ 264 "../../../os/common/ext/CMSIS/include/cmsis_gcc.h" 1
 313 0138 83F31188 		MSR basepri, r3
 314              	@ 0 "" 2
 315              		.thumb
 316              	.LBE21:
 317              	.LBE20:
 318              		.loc 2 611 0
 319 013c 02B0     		add	sp, sp, #8
 320              		.cfi_def_cfa_offset 0
 321              		@ sp needed
 322 013e 7047     		bx	lr
 323              		.cfi_endproc
 324              	.LFE127:
 325              		.size	port_lock, .-port_lock
 326              		.align	2
 327              		.p2align 4,,15
 328              		.thumb
 329              		.thumb_func
 330              		.type	port_unlock, %function
 331              	port_unlock:
 332              	.LFB128:
 333              		.loc 2 618 0
 334              		.cfi_startproc
 335              		@ args = 0, pretend = 0, frame = 8
 336              		@ frame_needed = 0, uses_anonymous_args = 0
 337              		@ link register save eliminated.
 338 0140 82B0     		sub	sp, sp, #8
 339              		.cfi_def_cfa_offset 8
ARM GAS  /tmp/cc3lirnD.s 			page 7


 340 0142 0023     		movs	r3, #0
 341 0144 0193     		str	r3, [sp, #4]
 342              	.LBB22:
 343              	.LBB23:
 344              		.loc 3 264 0
 345 0146 019B     		ldr	r3, [sp, #4]
 346              	@ 264 "../../../os/common/ext/CMSIS/include/cmsis_gcc.h" 1
 347 0148 83F31188 		MSR basepri, r3
 348              	@ 0 "" 2
 349              		.thumb
 350              	.LBE23:
 351              	.LBE22:
 352              		.loc 2 625 0
 353 014c 02B0     		add	sp, sp, #8
 354              		.cfi_def_cfa_offset 0
 355              		@ sp needed
 356 014e 7047     		bx	lr
 357              		.cfi_endproc
 358              	.LFE128:
 359              		.size	port_unlock, .-port_unlock
 360              		.align	2
 361              		.p2align 4,,15
 362              		.thumb
 363              		.thumb_func
 364              		.type	port_lock_from_isr, %function
 365              	port_lock_from_isr:
 366              	.LFB129:
 367              		.loc 2 633 0
 368              		.cfi_startproc
 369              		@ args = 0, pretend = 0, frame = 0
 370              		@ frame_needed = 0, uses_anonymous_args = 0
 371 0150 08B5     		push	{r3, lr}
 372              		.cfi_def_cfa_offset 8
 373              		.cfi_offset 3, -8
 374              		.cfi_offset 14, -4
 375              		.loc 2 635 0
 376 0152 FFF7EDFF 		bl	port_lock
 377              		.loc 2 636 0
 378 0156 08BD     		pop	{r3, pc}
 379              		.cfi_endproc
 380              	.LFE129:
 381              		.size	port_lock_from_isr, .-port_lock_from_isr
 382              		.align	2
 383 0158 AFF30080 		.p2align 4,,15
 383      AFF30080 
 384              		.thumb
 385              		.thumb_func
 386              		.type	port_unlock_from_isr, %function
 387              	port_unlock_from_isr:
 388              	.LFB130:
 389              		.loc 2 644 0
 390              		.cfi_startproc
 391              		@ args = 0, pretend = 0, frame = 0
 392              		@ frame_needed = 0, uses_anonymous_args = 0
 393 0160 08B5     		push	{r3, lr}
 394              		.cfi_def_cfa_offset 8
 395              		.cfi_offset 3, -8
ARM GAS  /tmp/cc3lirnD.s 			page 8


 396              		.cfi_offset 14, -4
 397              		.loc 2 646 0
 398 0162 FFF7EDFF 		bl	port_unlock
 399              		.loc 2 647 0
 400 0166 08BD     		pop	{r3, pc}
 401              		.cfi_endproc
 402              	.LFE130:
 403              		.size	port_unlock_from_isr, .-port_unlock_from_isr
 404              		.align	2
 405 0168 AFF30080 		.p2align 4,,15
 405      AFF30080 
 406              		.thumb
 407              		.thumb_func
 408              		.type	port_disable, %function
 409              	port_disable:
 410              	.LFB131:
 411              		.loc 2 654 0
 412              		.cfi_startproc
 413              		@ args = 0, pretend = 0, frame = 0
 414              		@ frame_needed = 0, uses_anonymous_args = 0
 415              		@ link register save eliminated.
 416              	.LBB24:
 417              	.LBB25:
 418              		.loc 3 71 0
 419              	@ 71 "../../../os/common/ext/CMSIS/include/cmsis_gcc.h" 1
 420 0170 72B6     		cpsid i
 421              	@ 0 "" 2
 422              		.thumb
 423              	.LBE25:
 424              	.LBE24:
 425              		.loc 2 657 0
 426 0172 7047     		bx	lr
 427              		.cfi_endproc
 428              	.LFE131:
 429              		.size	port_disable, .-port_disable
 430              		.align	2
 431 0174 AFF30080 		.p2align 4,,15
 431      AFF30080 
 431      AFF30080 
 432              		.thumb
 433              		.thumb_func
 434              		.type	port_enable, %function
 435              	port_enable:
 436              	.LFB133:
 437              		.loc 2 678 0
 438              		.cfi_startproc
 439              		@ args = 0, pretend = 0, frame = 8
 440              		@ frame_needed = 0, uses_anonymous_args = 0
 441              		@ link register save eliminated.
 442 0180 82B0     		sub	sp, sp, #8
 443              		.cfi_def_cfa_offset 8
 444 0182 0023     		movs	r3, #0
 445 0184 0193     		str	r3, [sp, #4]
 446              	.LBB26:
 447              	.LBB27:
 448              		.loc 3 264 0
 449 0186 019B     		ldr	r3, [sp, #4]
ARM GAS  /tmp/cc3lirnD.s 			page 9


 450              	@ 264 "../../../os/common/ext/CMSIS/include/cmsis_gcc.h" 1
 451 0188 83F31188 		MSR basepri, r3
 452              	@ 0 "" 2
 453              		.thumb
 454              	.LBE27:
 455              	.LBE26:
 456              	.LBB28:
 457              	.LBB29:
 458              		.loc 3 60 0
 459              	@ 60 "../../../os/common/ext/CMSIS/include/cmsis_gcc.h" 1
 460 018c 62B6     		cpsie i
 461              	@ 0 "" 2
 462              		.thumb
 463              	.LBE29:
 464              	.LBE28:
 465              		.loc 2 684 0
 466 018e 02B0     		add	sp, sp, #8
 467              		.cfi_def_cfa_offset 0
 468              		@ sp needed
 469 0190 7047     		bx	lr
 470              		.cfi_endproc
 471              	.LFE133:
 472              		.size	port_enable, .-port_enable
 473 0192 00BF     		.align	2
 474 0194 AFF30080 		.p2align 4,,15
 474      AFF30080 
 474      AFF30080 
 475              		.thumb
 476              		.thumb_func
 477              		.type	port_wait_for_interrupt, %function
 478              	port_wait_for_interrupt:
 479              	.LFB134:
 480              		.loc 2 694 0
 481              		.cfi_startproc
 482              		@ args = 0, pretend = 0, frame = 0
 483              		@ frame_needed = 0, uses_anonymous_args = 0
 484              		@ link register save eliminated.
 485              		.loc 2 699 0
 486 01a0 7047     		bx	lr
 487              		.cfi_endproc
 488              	.LFE134:
 489              		.size	port_wait_for_interrupt, .-port_wait_for_interrupt
 490 01a2 00BF     		.align	2
 491 01a4 AFF30080 		.p2align 4,,15
 491      AFF30080 
 491      AFF30080 
 492              		.thumb
 493              		.thumb_func
 494              		.type	port_rt_get_counter_value, %function
 495              	port_rt_get_counter_value:
 496              	.LFB135:
 497              		.loc 2 706 0
 498              		.cfi_startproc
 499              		@ args = 0, pretend = 0, frame = 0
 500              		@ frame_needed = 0, uses_anonymous_args = 0
 501              		@ link register save eliminated.
 502              		.loc 2 708 0
ARM GAS  /tmp/cc3lirnD.s 			page 10


 503 01b0 014B     		ldr	r3, .L29
 504 01b2 5B68     		ldr	r3, [r3, #4]
 505              		.loc 2 709 0
 506 01b4 1846     		mov	r0, r3
 507 01b6 7047     		bx	lr
 508              	.L30:
 509              		.align	2
 510              	.L29:
 511 01b8 001000E0 		.word	-536866816
 512              		.cfi_endproc
 513              	.LFE135:
 514              		.size	port_rt_get_counter_value, .-port_rt_get_counter_value
 515              		.align	2
 516 01bc AFF30080 		.p2align 4,,15
 517              		.thumb
 518              		.thumb_func
 519              		.type	st_lld_get_counter, %function
 520              	st_lld_get_counter:
 521              	.LFB136:
 522              		.file 4 "../../../os/hal/ports/STM32/LLD/TIMv1/hal_st_lld.h"
 523              		.loc 4 139 0
 524              		.cfi_startproc
 525              		@ args = 0, pretend = 0, frame = 0
 526              		@ frame_needed = 0, uses_anonymous_args = 0
 527              		@ link register save eliminated.
 528              		.loc 4 141 0
 529 01c0 4FF08043 		mov	r3, #1073741824
 530 01c4 5B6A     		ldr	r3, [r3, #36]
 531              		.loc 4 142 0
 532 01c6 1846     		mov	r0, r3
 533 01c8 7047     		bx	lr
 534              		.cfi_endproc
 535              	.LFE136:
 536              		.size	st_lld_get_counter, .-st_lld_get_counter
 537 01ca 00BF     		.align	2
 538 01cc AFF30080 		.p2align 4,,15
 539              		.thumb
 540              		.thumb_func
 541              		.type	port_timer_stop_alarm, %function
 542              	port_timer_stop_alarm:
 543              	.LFB143:
 544              		.file 5 "../../../os/common/ports/ARMCMx/chcore_timer.h"
 545              		.loc 5 81 0
 546              		.cfi_startproc
 547              		@ args = 0, pretend = 0, frame = 0
 548              		@ frame_needed = 0, uses_anonymous_args = 0
 549 01d0 08B5     		push	{r3, lr}
 550              		.cfi_def_cfa_offset 8
 551              		.cfi_offset 3, -8
 552              		.cfi_offset 14, -4
 553              		.loc 5 83 0
 554 01d2 FFF7FEFF 		bl	stStopAlarm
 555              		.loc 5 84 0
 556 01d6 08BD     		pop	{r3, pc}
 557              		.cfi_endproc
 558              	.LFE143:
 559              		.size	port_timer_stop_alarm, .-port_timer_stop_alarm
ARM GAS  /tmp/cc3lirnD.s 			page 11


 560              		.align	2
 561 01d8 AFF30080 		.p2align 4,,15
 561      AFF30080 
 562              		.thumb
 563              		.thumb_func
 564              		.type	port_timer_set_alarm, %function
 565              	port_timer_set_alarm:
 566              	.LFB144:
 567              		.loc 5 93 0
 568              		.cfi_startproc
 569              		@ args = 0, pretend = 0, frame = 8
 570              		@ frame_needed = 0, uses_anonymous_args = 0
 571 01e0 00B5     		push	{lr}
 572              		.cfi_def_cfa_offset 4
 573              		.cfi_offset 14, -4
 574 01e2 83B0     		sub	sp, sp, #12
 575              		.cfi_def_cfa_offset 16
 576 01e4 0190     		str	r0, [sp, #4]
 577              		.loc 5 95 0
 578 01e6 0198     		ldr	r0, [sp, #4]
 579 01e8 FFF7FEFF 		bl	stSetAlarm
 580              		.loc 5 96 0
 581 01ec 03B0     		add	sp, sp, #12
 582              		.cfi_def_cfa_offset 4
 583              		@ sp needed
 584 01ee 5DF804FB 		ldr	pc, [sp], #4
 585              		.cfi_endproc
 586              	.LFE144:
 587              		.size	port_timer_set_alarm, .-port_timer_set_alarm
 588 01f2 00BF     		.align	2
 589 01f4 AFF30080 		.p2align 4,,15
 589      AFF30080 
 589      AFF30080 
 590              		.thumb
 591              		.thumb_func
 592              		.type	port_timer_get_time, %function
 593              	port_timer_get_time:
 594              	.LFB145:
 595              		.loc 5 105 0
 596              		.cfi_startproc
 597              		@ args = 0, pretend = 0, frame = 0
 598              		@ frame_needed = 0, uses_anonymous_args = 0
 599 0200 08B5     		push	{r3, lr}
 600              		.cfi_def_cfa_offset 8
 601              		.cfi_offset 3, -8
 602              		.cfi_offset 14, -4
 603              		.loc 5 107 0
 604 0202 FFF7DDFF 		bl	st_lld_get_counter
 605 0206 0346     		mov	r3, r0
 606              		.loc 5 108 0
 607 0208 1846     		mov	r0, r3
 608 020a 08BD     		pop	{r3, pc}
 609              		.cfi_endproc
 610              	.LFE145:
 611              		.size	port_timer_get_time, .-port_timer_get_time
 612              		.align	2
 613 020c AFF30080 		.p2align 4,,15
ARM GAS  /tmp/cc3lirnD.s 			page 12


 614              		.thumb
 615              		.thumb_func
 616              		.type	chSysEnable, %function
 617              	chSysEnable:
 618              	.LFB166:
 619              		.file 6 "../../../os/rt/include/chsys.h"
 620              		.loc 6 363 0
 621              		.cfi_startproc
 622              		@ args = 0, pretend = 0, frame = 0
 623              		@ frame_needed = 0, uses_anonymous_args = 0
 624 0210 08B5     		push	{r3, lr}
 625              		.cfi_def_cfa_offset 8
 626              		.cfi_offset 3, -8
 627              		.cfi_offset 14, -4
 628              		.loc 6 366 0
 629 0212 FFF7B5FF 		bl	port_enable
 630              		.loc 6 367 0
 631 0216 08BD     		pop	{r3, pc}
 632              		.cfi_endproc
 633              	.LFE166:
 634              		.size	chSysEnable, .-chSysEnable
 635              		.align	2
 636 0218 AFF30080 		.p2align 4,,15
 636      AFF30080 
 637              		.thumb
 638              		.thumb_func
 639              		.type	chSysLock, %function
 640              	chSysLock:
 641              	.LFB167:
 642              		.loc 6 374 0
 643              		.cfi_startproc
 644              		@ args = 0, pretend = 0, frame = 0
 645              		@ frame_needed = 0, uses_anonymous_args = 0
 646 0220 08B5     		push	{r3, lr}
 647              		.cfi_def_cfa_offset 8
 648              		.cfi_offset 3, -8
 649              		.cfi_offset 14, -4
 650              		.loc 6 376 0
 651 0222 FFF785FF 		bl	port_lock
 652              		.loc 6 379 0
 653 0226 08BD     		pop	{r3, pc}
 654              		.cfi_endproc
 655              	.LFE167:
 656              		.size	chSysLock, .-chSysLock
 657              		.align	2
 658 0228 AFF30080 		.p2align 4,,15
 658      AFF30080 
 659              		.thumb
 660              		.thumb_func
 661              		.type	chSysUnlock, %function
 662              	chSysUnlock:
 663              	.LFB168:
 664              		.loc 6 386 0
 665              		.cfi_startproc
 666              		@ args = 0, pretend = 0, frame = 0
 667              		@ frame_needed = 0, uses_anonymous_args = 0
 668 0230 08B5     		push	{r3, lr}
ARM GAS  /tmp/cc3lirnD.s 			page 13


 669              		.cfi_def_cfa_offset 8
 670              		.cfi_offset 3, -8
 671              		.cfi_offset 14, -4
 672              		.loc 6 399 0
 673 0232 FFF785FF 		bl	port_unlock
 674              		.loc 6 400 0
 675 0236 08BD     		pop	{r3, pc}
 676              		.cfi_endproc
 677              	.LFE168:
 678              		.size	chSysUnlock, .-chSysUnlock
 679              		.align	2
 680 0238 AFF30080 		.p2align 4,,15
 680      AFF30080 
 681              		.thumb
 682              		.thumb_func
 683              		.type	chSysLockFromISR, %function
 684              	chSysLockFromISR:
 685              	.LFB169:
 686              		.loc 6 414 0
 687              		.cfi_startproc
 688              		@ args = 0, pretend = 0, frame = 0
 689              		@ frame_needed = 0, uses_anonymous_args = 0
 690 0240 08B5     		push	{r3, lr}
 691              		.cfi_def_cfa_offset 8
 692              		.cfi_offset 3, -8
 693              		.cfi_offset 14, -4
 694              		.loc 6 416 0
 695 0242 FFF785FF 		bl	port_lock_from_isr
 696              		.loc 6 419 0
 697 0246 08BD     		pop	{r3, pc}
 698              		.cfi_endproc
 699              	.LFE169:
 700              		.size	chSysLockFromISR, .-chSysLockFromISR
 701              		.align	2
 702 0248 AFF30080 		.p2align 4,,15
 702      AFF30080 
 703              		.thumb
 704              		.thumb_func
 705              		.type	chSysUnlockFromISR, %function
 706              	chSysUnlockFromISR:
 707              	.LFB170:
 708              		.loc 6 434 0
 709              		.cfi_startproc
 710              		@ args = 0, pretend = 0, frame = 0
 711              		@ frame_needed = 0, uses_anonymous_args = 0
 712 0250 08B5     		push	{r3, lr}
 713              		.cfi_def_cfa_offset 8
 714              		.cfi_offset 3, -8
 715              		.cfi_offset 14, -4
 716              		.loc 6 438 0
 717 0252 FFF785FF 		bl	port_unlock_from_isr
 718              		.loc 6 439 0
 719 0256 08BD     		pop	{r3, pc}
 720              		.cfi_endproc
 721              	.LFE170:
 722              		.size	chSysUnlockFromISR, .-chSysUnlockFromISR
 723              		.align	2
ARM GAS  /tmp/cc3lirnD.s 			page 14


 724 0258 AFF30080 		.p2align 4,,15
 724      AFF30080 
 725              		.thumb
 726              		.thumb_func
 727              		.type	chVTGetSystemTimeX, %function
 728              	chVTGetSystemTimeX:
 729              	.LFB181:
 730              		.file 7 "../../../os/rt/include/chvt.h"
 731              		.loc 7 392 0
 732              		.cfi_startproc
 733              		@ args = 0, pretend = 0, frame = 0
 734              		@ frame_needed = 0, uses_anonymous_args = 0
 735 0260 08B5     		push	{r3, lr}
 736              		.cfi_def_cfa_offset 8
 737              		.cfi_offset 3, -8
 738              		.cfi_offset 14, -4
 739              		.loc 7 397 0
 740 0262 FFF7CDFF 		bl	port_timer_get_time
 741 0266 0346     		mov	r3, r0
 742              		.loc 7 399 0
 743 0268 1846     		mov	r0, r3
 744 026a 08BD     		pop	{r3, pc}
 745              		.cfi_endproc
 746              	.LFE181:
 747              		.size	chVTGetSystemTimeX, .-chVTGetSystemTimeX
 748              		.align	2
 749 026c AFF30080 		.p2align 4,,15
 750              		.thumb
 751              		.thumb_func
 752              		.type	chVTDoTickI, %function
 753              	chVTDoTickI:
 754              	.LFB194:
 755              		.loc 7 666 0
 756              		.cfi_startproc
 757              		@ args = 0, pretend = 0, frame = 16
 758              		@ frame_needed = 0, uses_anonymous_args = 0
 759 0270 00B5     		push	{lr}
 760              		.cfi_def_cfa_offset 4
 761              		.cfi_offset 14, -4
 762 0272 85B0     		sub	sp, sp, #20
 763              		.cfi_def_cfa_offset 24
 764              		.loc 7 694 0
 765 0274 2A4B     		ldr	r3, .L51
 766 0276 DB69     		ldr	r3, [r3, #28]
 767 0278 0393     		str	r3, [sp, #12]
 768              		.loc 7 695 0
 769 027a FFF7F1FF 		bl	chVTGetSystemTimeX
 770 027e 0290     		str	r0, [sp, #8]
 771              		.loc 7 701 0
 772 0280 2AE0     		b	.L45
 773              	.L47:
 774              	.LBB30:
 775              		.loc 7 705 0
 776 0282 274B     		ldr	r3, .L51
 777 0284 9A6A     		ldr	r2, [r3, #40]
 778 0286 039B     		ldr	r3, [sp, #12]
 779 0288 9B68     		ldr	r3, [r3, #8]
ARM GAS  /tmp/cc3lirnD.s 			page 15


 780 028a 1344     		add	r3, r3, r2
 781 028c 244A     		ldr	r2, .L51
 782 028e 9362     		str	r3, [r2, #40]
 783              		.loc 7 707 0
 784 0290 039B     		ldr	r3, [sp, #12]
 785 0292 1B68     		ldr	r3, [r3]
 786 0294 234A     		ldr	r2, .L51+4
 787 0296 5A60     		str	r2, [r3, #4]
 788              		.loc 7 708 0
 789 0298 039B     		ldr	r3, [sp, #12]
 790 029a 1B68     		ldr	r3, [r3]
 791 029c 204A     		ldr	r2, .L51
 792 029e D361     		str	r3, [r2, #28]
 793              		.loc 7 709 0
 794 02a0 039B     		ldr	r3, [sp, #12]
 795 02a2 DB68     		ldr	r3, [r3, #12]
 796 02a4 0093     		str	r3, [sp]
 797              		.loc 7 710 0
 798 02a6 039B     		ldr	r3, [sp, #12]
 799 02a8 0022     		movs	r2, #0
 800 02aa DA60     		str	r2, [r3, #12]
 801              		.loc 7 713 0
 802 02ac 1C4B     		ldr	r3, .L51
 803 02ae DB69     		ldr	r3, [r3, #28]
 804 02b0 1C4A     		ldr	r2, .L51+4
 805 02b2 9342     		cmp	r3, r2
 806 02b4 01D1     		bne	.L46
 807              		.loc 7 714 0
 808 02b6 FFF78BFF 		bl	port_timer_stop_alarm
 809              	.L46:
 810              		.loc 7 720 0
 811 02ba FFF7C9FF 		bl	chSysUnlockFromISR
 812              		.loc 7 723 0
 813 02be 039B     		ldr	r3, [sp, #12]
 814 02c0 1A69     		ldr	r2, [r3, #16]
 815 02c2 009B     		ldr	r3, [sp]
 816 02c4 1046     		mov	r0, r2
 817 02c6 9847     		blx	r3
 818              		.loc 7 727 0
 819 02c8 FFF7BAFF 		bl	chSysLockFromISR
 820              		.loc 7 731 0
 821 02cc 144B     		ldr	r3, .L51
 822 02ce DB69     		ldr	r3, [r3, #28]
 823 02d0 0393     		str	r3, [sp, #12]
 824              		.loc 7 732 0
 825 02d2 FFF7C5FF 		bl	chVTGetSystemTimeX
 826 02d6 0290     		str	r0, [sp, #8]
 827              	.L45:
 828              	.LBE30:
 829              		.loc 7 701 0
 830 02d8 039B     		ldr	r3, [sp, #12]
 831 02da 9A68     		ldr	r2, [r3, #8]
 832 02dc 104B     		ldr	r3, .L51
 833 02de 9B6A     		ldr	r3, [r3, #40]
 834 02e0 0299     		ldr	r1, [sp, #8]
 835 02e2 CB1A     		subs	r3, r1, r3
 836 02e4 9A42     		cmp	r2, r3
ARM GAS  /tmp/cc3lirnD.s 			page 16


 837 02e6 CCD9     		bls	.L47
 838              		.loc 7 736 0
 839 02e8 0D4B     		ldr	r3, .L51
 840 02ea DB69     		ldr	r3, [r3, #28]
 841 02ec 0D4A     		ldr	r2, .L51+4
 842 02ee 9342     		cmp	r3, r2
 843 02f0 00D1     		bne	.L48
 844              		.loc 7 737 0
 845 02f2 12E0     		b	.L44
 846              	.L48:
 847              		.loc 7 741 0
 848 02f4 0A4B     		ldr	r3, .L51
 849 02f6 9A6A     		ldr	r2, [r3, #40]
 850 02f8 039B     		ldr	r3, [sp, #12]
 851 02fa 9B68     		ldr	r3, [r3, #8]
 852 02fc 1A44     		add	r2, r2, r3
 853 02fe 029B     		ldr	r3, [sp, #8]
 854 0300 D31A     		subs	r3, r2, r3
 855 0302 0193     		str	r3, [sp, #4]
 856              		.loc 7 742 0
 857 0304 019B     		ldr	r3, [sp, #4]
 858 0306 012B     		cmp	r3, #1
 859 0308 01D8     		bhi	.L50
 860              		.loc 7 743 0
 861 030a 0223     		movs	r3, #2
 862 030c 0193     		str	r3, [sp, #4]
 863              	.L50:
 864              		.loc 7 745 0
 865 030e 029A     		ldr	r2, [sp, #8]
 866 0310 019B     		ldr	r3, [sp, #4]
 867 0312 1344     		add	r3, r3, r2
 868 0314 1846     		mov	r0, r3
 869 0316 FFF763FF 		bl	port_timer_set_alarm
 870              	.L44:
 871              		.loc 7 751 0
 872 031a 05B0     		add	sp, sp, #20
 873              		.cfi_def_cfa_offset 4
 874              		@ sp needed
 875 031c 5DF804FB 		ldr	pc, [sp], #4
 876              	.L52:
 877              		.align	2
 878              	.L51:
 879 0320 00000000 		.word	ch
 880 0324 1C000000 		.word	ch+28
 881              		.cfi_endproc
 882              	.LFE194:
 883              		.size	chVTDoTickI, .-chVTDoTickI
 884              		.comm	ch_idle_thread_wa,216,8
 885              		.align	2
 886 0328 AFF30080 		.p2align 4,,15
 886      AFF30080 
 887              		.thumb
 888              		.thumb_func
 889              		.type	_idle_thread, %function
 890              	_idle_thread:
 891              	.LFB248:
 892              		.file 8 "../../../os/rt/src/chsys.c"
ARM GAS  /tmp/cc3lirnD.s 			page 17


 893              		.loc 8 72 0
 894              		.cfi_startproc
 895              		@ args = 0, pretend = 0, frame = 8
 896              		@ frame_needed = 0, uses_anonymous_args = 0
 897 0330 00B5     		push	{lr}
 898              		.cfi_def_cfa_offset 4
 899              		.cfi_offset 14, -4
 900 0332 83B0     		sub	sp, sp, #12
 901              		.cfi_def_cfa_offset 16
 902 0334 0190     		str	r0, [sp, #4]
 903              	.L54:
 904              		.loc 8 79 0 discriminator 1
 905 0336 FFF733FF 		bl	port_wait_for_interrupt
 906              		.loc 8 82 0 discriminator 1
 907 033a FCE7     		b	.L54
 908              		.cfi_endproc
 909              	.LFE248:
 910              		.size	_idle_thread, .-_idle_thread
 911              		.align	2
 912 033c AFF30080 		.p2align 4,,15
 913              		.global	chSysInit
 914              		.thumb
 915              		.thumb_func
 916              		.type	chSysInit, %function
 917              	chSysInit:
 918              	.LFB249:
 919              		.loc 8 100 0
 920              		.cfi_startproc
 921              		@ args = 0, pretend = 0, frame = 0
 922              		@ frame_needed = 0, uses_anonymous_args = 0
 923 0340 08B5     		push	{r3, lr}
 924              		.cfi_def_cfa_offset 8
 925              		.cfi_offset 3, -8
 926              		.cfi_offset 14, -4
 927              		.loc 8 102 0
 928 0342 FFF7FEFF 		bl	_scheduler_init
 929              		.loc 8 103 0
 930 0346 FFF7FEFF 		bl	_vt_init
 931              		.loc 8 111 0
 932 034a FFF7FEFF 		bl	_tm_init
 933              		.loc 8 114 0
 934 034e FFF7FEFF 		bl	_core_init
 935              		.loc 8 117 0
 936 0352 FFF7FEFF 		bl	_heap_init
 937              		.loc 8 126 0
 938 0356 0C48     		ldr	r0, .L56
 939 0358 0C49     		ldr	r1, .L56+4
 940 035a 8022     		movs	r2, #128
 941 035c FFF7FEFF 		bl	_thread_init
 942 0360 0246     		mov	r2, r0
 943 0362 0B4B     		ldr	r3, .L56+8
 944 0364 9A61     		str	r2, [r3, #24]
 945              		.loc 8 143 0
 946 0366 0A4B     		ldr	r3, .L56+8
 947 0368 9B69     		ldr	r3, [r3, #24]
 948 036a 0022     		movs	r2, #0
 949 036c DA61     		str	r2, [r3, #28]
ARM GAS  /tmp/cc3lirnD.s 			page 18


 950              		.loc 8 147 0
 951 036e 084B     		ldr	r3, .L56+8
 952 0370 9B69     		ldr	r3, [r3, #24]
 953 0372 0122     		movs	r2, #1
 954 0374 83F82020 		strb	r2, [r3, #32]
 955              		.loc 8 151 0
 956 0378 FFF78AFE 		bl	port_init
 957              		.loc 8 159 0
 958 037c FFF748FF 		bl	chSysEnable
 959              	.LBB31:
 960              		.loc 8 175 0
 961 0380 0448     		ldr	r0, .L56+12
 962 0382 FFF7FEFF 		bl	chThdCreate
 963              	.LBE31:
 964              		.loc 8 178 0
 965 0386 08BD     		pop	{r3, pc}
 966              	.L57:
 967              		.align	2
 968              	.L56:
 969 0388 30000000 		.word	ch+48
 970 038c 00000000 		.word	ch_debug
 971 0390 00000000 		.word	ch
 972 0394 08000000 		.word	idle_descriptor.6604
 973              		.cfi_endproc
 974              	.LFE249:
 975              		.size	chSysInit, .-chSysInit
 976              		.align	2
 977 0398 AFF30080 		.p2align 4,,15
 977      AFF30080 
 978              		.global	chSysHalt
 979              		.thumb
 980              		.thumb_func
 981              		.type	chSysHalt, %function
 982              	chSysHalt:
 983              	.LFB250:
 984              		.loc 8 192 0
 985              		.cfi_startproc
 986              		@ args = 0, pretend = 0, frame = 8
 987              		@ frame_needed = 0, uses_anonymous_args = 0
 988 03a0 00B5     		push	{lr}
 989              		.cfi_def_cfa_offset 4
 990              		.cfi_offset 14, -4
 991 03a2 83B0     		sub	sp, sp, #12
 992              		.cfi_def_cfa_offset 16
 993 03a4 0190     		str	r0, [sp, #4]
 994              		.loc 8 194 0
 995 03a6 FFF7E3FE 		bl	port_disable
 996              		.loc 8 200 0
 997 03aa 024A     		ldr	r2, .L60
 998 03ac 019B     		ldr	r3, [sp, #4]
 999 03ae D362     		str	r3, [r2, #44]
 1000              	.L59:
 1001              		.loc 8 207 0 discriminator 1
 1002 03b0 FEE7     		b	.L59
 1003              	.L61:
 1004 03b2 00BF     		.align	2
 1005              	.L60:
ARM GAS  /tmp/cc3lirnD.s 			page 19


 1006 03b4 00000000 		.word	ch
 1007              		.cfi_endproc
 1008              	.LFE250:
 1009              		.size	chSysHalt, .-chSysHalt
 1010              		.align	2
 1011 03b8 AFF30080 		.p2align 4,,15
 1011      AFF30080 
 1012              		.global	chSysIntegrityCheckI
 1013              		.thumb
 1014              		.thumb_func
 1015              		.type	chSysIntegrityCheckI, %function
 1016              	chSysIntegrityCheckI:
 1017              	.LFB251:
 1018              		.loc 8 234 0
 1019              		.cfi_startproc
 1020              		@ args = 0, pretend = 0, frame = 24
 1021              		@ frame_needed = 0, uses_anonymous_args = 0
 1022              		@ link register save eliminated.
 1023 03c0 86B0     		sub	sp, sp, #24
 1024              		.cfi_def_cfa_offset 24
 1025 03c2 0190     		str	r0, [sp, #4]
 1026              		.loc 8 240 0
 1027 03c4 019B     		ldr	r3, [sp, #4]
 1028 03c6 03F00103 		and	r3, r3, #1
 1029 03ca 002B     		cmp	r3, #0
 1030 03cc 22D0     		beq	.L63
 1031              	.LBB32:
 1032              		.loc 8 244 0
 1033 03ce 0023     		movs	r3, #0
 1034 03d0 0593     		str	r3, [sp, #20]
 1035              		.loc 8 245 0
 1036 03d2 3A4B     		ldr	r3, .L79
 1037 03d4 1B68     		ldr	r3, [r3]
 1038 03d6 0493     		str	r3, [sp, #16]
 1039              		.loc 8 246 0
 1040 03d8 05E0     		b	.L64
 1041              	.L65:
 1042              		.loc 8 247 0
 1043 03da 059B     		ldr	r3, [sp, #20]
 1044 03dc 0133     		adds	r3, r3, #1
 1045 03de 0593     		str	r3, [sp, #20]
 1046              		.loc 8 248 0
 1047 03e0 049B     		ldr	r3, [sp, #16]
 1048 03e2 1B68     		ldr	r3, [r3]
 1049 03e4 0493     		str	r3, [sp, #16]
 1050              	.L64:
 1051              		.loc 8 246 0
 1052 03e6 049B     		ldr	r3, [sp, #16]
 1053 03e8 344A     		ldr	r2, .L79
 1054 03ea 9342     		cmp	r3, r2
 1055 03ec F5D1     		bne	.L65
 1056              		.loc 8 252 0
 1057 03ee 334B     		ldr	r3, .L79
 1058 03f0 5B68     		ldr	r3, [r3, #4]
 1059 03f2 0493     		str	r3, [sp, #16]
 1060              		.loc 8 253 0
 1061 03f4 05E0     		b	.L66
ARM GAS  /tmp/cc3lirnD.s 			page 20


 1062              	.L67:
 1063              		.loc 8 254 0
 1064 03f6 059B     		ldr	r3, [sp, #20]
 1065 03f8 013B     		subs	r3, r3, #1
 1066 03fa 0593     		str	r3, [sp, #20]
 1067              		.loc 8 255 0
 1068 03fc 049B     		ldr	r3, [sp, #16]
 1069 03fe 5B68     		ldr	r3, [r3, #4]
 1070 0400 0493     		str	r3, [sp, #16]
 1071              	.L66:
 1072              		.loc 8 253 0
 1073 0402 049B     		ldr	r3, [sp, #16]
 1074 0404 2D4A     		ldr	r2, .L79
 1075 0406 9342     		cmp	r3, r2
 1076 0408 F5D1     		bne	.L67
 1077              		.loc 8 259 0
 1078 040a 059B     		ldr	r3, [sp, #20]
 1079 040c 002B     		cmp	r3, #0
 1080 040e 01D0     		beq	.L63
 1081              		.loc 8 260 0
 1082 0410 0123     		movs	r3, #1
 1083 0412 50E0     		b	.L68
 1084              	.L63:
 1085              	.LBE32:
 1086              		.loc 8 265 0
 1087 0414 019B     		ldr	r3, [sp, #4]
 1088 0416 03F00203 		and	r3, r3, #2
 1089 041a 002B     		cmp	r3, #0
 1090 041c 22D0     		beq	.L69
 1091              	.LBB33:
 1092              		.loc 8 269 0
 1093 041e 0023     		movs	r3, #0
 1094 0420 0593     		str	r3, [sp, #20]
 1095              		.loc 8 270 0
 1096 0422 264B     		ldr	r3, .L79
 1097 0424 DB69     		ldr	r3, [r3, #28]
 1098 0426 0393     		str	r3, [sp, #12]
 1099              		.loc 8 271 0
 1100 0428 05E0     		b	.L70
 1101              	.L71:
 1102              		.loc 8 272 0
 1103 042a 059B     		ldr	r3, [sp, #20]
 1104 042c 0133     		adds	r3, r3, #1
 1105 042e 0593     		str	r3, [sp, #20]
 1106              		.loc 8 273 0
 1107 0430 039B     		ldr	r3, [sp, #12]
 1108 0432 1B68     		ldr	r3, [r3]
 1109 0434 0393     		str	r3, [sp, #12]
 1110              	.L70:
 1111              		.loc 8 271 0
 1112 0436 039B     		ldr	r3, [sp, #12]
 1113 0438 214A     		ldr	r2, .L79+4
 1114 043a 9342     		cmp	r3, r2
 1115 043c F5D1     		bne	.L71
 1116              		.loc 8 277 0
 1117 043e 1F4B     		ldr	r3, .L79
 1118 0440 1B6A     		ldr	r3, [r3, #32]
ARM GAS  /tmp/cc3lirnD.s 			page 21


 1119 0442 0393     		str	r3, [sp, #12]
 1120              		.loc 8 278 0
 1121 0444 05E0     		b	.L72
 1122              	.L73:
 1123              		.loc 8 279 0
 1124 0446 059B     		ldr	r3, [sp, #20]
 1125 0448 013B     		subs	r3, r3, #1
 1126 044a 0593     		str	r3, [sp, #20]
 1127              		.loc 8 280 0
 1128 044c 039B     		ldr	r3, [sp, #12]
 1129 044e 5B68     		ldr	r3, [r3, #4]
 1130 0450 0393     		str	r3, [sp, #12]
 1131              	.L72:
 1132              		.loc 8 278 0
 1133 0452 039B     		ldr	r3, [sp, #12]
 1134 0454 1A4A     		ldr	r2, .L79+4
 1135 0456 9342     		cmp	r3, r2
 1136 0458 F5D1     		bne	.L73
 1137              		.loc 8 284 0
 1138 045a 059B     		ldr	r3, [sp, #20]
 1139 045c 002B     		cmp	r3, #0
 1140 045e 01D0     		beq	.L69
 1141              		.loc 8 285 0
 1142 0460 0123     		movs	r3, #1
 1143 0462 28E0     		b	.L68
 1144              	.L69:
 1145              	.LBE33:
 1146              		.loc 8 290 0
 1147 0464 019B     		ldr	r3, [sp, #4]
 1148 0466 03F00403 		and	r3, r3, #4
 1149 046a 002B     		cmp	r3, #0
 1150 046c 22D0     		beq	.L74
 1151              	.LBB34:
 1152              		.loc 8 294 0
 1153 046e 0023     		movs	r3, #0
 1154 0470 0593     		str	r3, [sp, #20]
 1155              		.loc 8 295 0
 1156 0472 124B     		ldr	r3, .L79
 1157 0474 1B69     		ldr	r3, [r3, #16]
 1158 0476 0293     		str	r3, [sp, #8]
 1159              		.loc 8 296 0
 1160 0478 05E0     		b	.L75
 1161              	.L76:
 1162              		.loc 8 297 0
 1163 047a 059B     		ldr	r3, [sp, #20]
 1164 047c 0133     		adds	r3, r3, #1
 1165 047e 0593     		str	r3, [sp, #20]
 1166              		.loc 8 298 0
 1167 0480 029B     		ldr	r3, [sp, #8]
 1168 0482 1B69     		ldr	r3, [r3, #16]
 1169 0484 0293     		str	r3, [sp, #8]
 1170              	.L75:
 1171              		.loc 8 296 0
 1172 0486 029B     		ldr	r3, [sp, #8]
 1173 0488 0C4A     		ldr	r2, .L79
 1174 048a 9342     		cmp	r3, r2
 1175 048c F5D1     		bne	.L76
ARM GAS  /tmp/cc3lirnD.s 			page 22


 1176              		.loc 8 302 0
 1177 048e 0B4B     		ldr	r3, .L79
 1178 0490 5B69     		ldr	r3, [r3, #20]
 1179 0492 0293     		str	r3, [sp, #8]
 1180              		.loc 8 303 0
 1181 0494 05E0     		b	.L77
 1182              	.L78:
 1183              		.loc 8 304 0
 1184 0496 059B     		ldr	r3, [sp, #20]
 1185 0498 013B     		subs	r3, r3, #1
 1186 049a 0593     		str	r3, [sp, #20]
 1187              		.loc 8 305 0
 1188 049c 029B     		ldr	r3, [sp, #8]
 1189 049e 5B69     		ldr	r3, [r3, #20]
 1190 04a0 0293     		str	r3, [sp, #8]
 1191              	.L77:
 1192              		.loc 8 303 0
 1193 04a2 029B     		ldr	r3, [sp, #8]
 1194 04a4 054A     		ldr	r2, .L79
 1195 04a6 9342     		cmp	r3, r2
 1196 04a8 F5D1     		bne	.L78
 1197              		.loc 8 309 0
 1198 04aa 059B     		ldr	r3, [sp, #20]
 1199 04ac 002B     		cmp	r3, #0
 1200 04ae 01D0     		beq	.L74
 1201              		.loc 8 310 0
 1202 04b0 0123     		movs	r3, #1
 1203 04b2 00E0     		b	.L68
 1204              	.L74:
 1205              	.LBE34:
 1206              		.loc 8 321 0
 1207 04b4 0023     		movs	r3, #0
 1208              	.L68:
 1209              		.loc 8 322 0
 1210 04b6 1846     		mov	r0, r3
 1211 04b8 06B0     		add	sp, sp, #24
 1212              		.cfi_def_cfa_offset 0
 1213              		@ sp needed
 1214 04ba 7047     		bx	lr
 1215              	.L80:
 1216              		.align	2
 1217              	.L79:
 1218 04bc 00000000 		.word	ch
 1219 04c0 1C000000 		.word	ch+28
 1220              		.cfi_endproc
 1221              	.LFE251:
 1222              		.size	chSysIntegrityCheckI, .-chSysIntegrityCheckI
 1223              		.align	2
 1224 04c4 AFF30080 		.p2align 4,,15
 1224      AFF30080 
 1224      AFF30080 
 1225              		.global	chSysTimerHandlerI
 1226              		.thumb
 1227              		.thumb_func
 1228              		.type	chSysTimerHandlerI, %function
 1229              	chSysTimerHandlerI:
 1230              	.LFB252:
ARM GAS  /tmp/cc3lirnD.s 			page 23


 1231              		.loc 8 335 0
 1232              		.cfi_startproc
 1233              		@ args = 0, pretend = 0, frame = 0
 1234              		@ frame_needed = 0, uses_anonymous_args = 0
 1235 04d0 08B5     		push	{r3, lr}
 1236              		.cfi_def_cfa_offset 8
 1237              		.cfi_offset 3, -8
 1238              		.cfi_offset 14, -4
 1239              		.loc 8 349 0
 1240 04d2 FFF7CDFE 		bl	chVTDoTickI
 1241              		.loc 8 351 0
 1242 04d6 08BD     		pop	{r3, pc}
 1243              		.cfi_endproc
 1244              	.LFE252:
 1245              		.size	chSysTimerHandlerI, .-chSysTimerHandlerI
 1246              		.align	2
 1247 04d8 AFF30080 		.p2align 4,,15
 1247      AFF30080 
 1248              		.global	chSysGetStatusAndLockX
 1249              		.thumb
 1250              		.thumb_func
 1251              		.type	chSysGetStatusAndLockX, %function
 1252              	chSysGetStatusAndLockX:
 1253              	.LFB253:
 1254              		.loc 8 366 0
 1255              		.cfi_startproc
 1256              		@ args = 0, pretend = 0, frame = 8
 1257              		@ frame_needed = 0, uses_anonymous_args = 0
 1258 04e0 00B5     		push	{lr}
 1259              		.cfi_def_cfa_offset 4
 1260              		.cfi_offset 14, -4
 1261 04e2 83B0     		sub	sp, sp, #12
 1262              		.cfi_def_cfa_offset 16
 1263              		.loc 8 368 0
 1264 04e4 FFF7F4FD 		bl	port_get_irq_status
 1265 04e8 0190     		str	r0, [sp, #4]
 1266              		.loc 8 369 0
 1267 04ea 0198     		ldr	r0, [sp, #4]
 1268 04ec FFF700FE 		bl	port_irq_enabled
 1269 04f0 0346     		mov	r3, r0
 1270 04f2 002B     		cmp	r3, #0
 1271 04f4 09D0     		beq	.L83
 1272              		.loc 8 370 0
 1273 04f6 FFF70BFE 		bl	port_is_isr_context
 1274 04fa 0346     		mov	r3, r0
 1275 04fc 002B     		cmp	r3, #0
 1276 04fe 02D0     		beq	.L84
 1277              		.loc 8 371 0
 1278 0500 FFF79EFE 		bl	chSysLockFromISR
 1279 0504 01E0     		b	.L83
 1280              	.L84:
 1281              		.loc 8 374 0
 1282 0506 FFF78BFE 		bl	chSysLock
 1283              	.L83:
 1284              		.loc 8 377 0
 1285 050a 019B     		ldr	r3, [sp, #4]
 1286              		.loc 8 378 0
ARM GAS  /tmp/cc3lirnD.s 			page 24


 1287 050c 1846     		mov	r0, r3
 1288 050e 03B0     		add	sp, sp, #12
 1289              		.cfi_def_cfa_offset 4
 1290              		@ sp needed
 1291 0510 5DF804FB 		ldr	pc, [sp], #4
 1292              		.cfi_endproc
 1293              	.LFE253:
 1294              		.size	chSysGetStatusAndLockX, .-chSysGetStatusAndLockX
 1295              		.align	2
 1296 0514 AFF30080 		.p2align 4,,15
 1296      AFF30080 
 1296      AFF30080 
 1297              		.global	chSysRestoreStatusX
 1298              		.thumb
 1299              		.thumb_func
 1300              		.type	chSysRestoreStatusX, %function
 1301              	chSysRestoreStatusX:
 1302              	.LFB254:
 1303              		.loc 8 389 0
 1304              		.cfi_startproc
 1305              		@ args = 0, pretend = 0, frame = 8
 1306              		@ frame_needed = 0, uses_anonymous_args = 0
 1307 0520 00B5     		push	{lr}
 1308              		.cfi_def_cfa_offset 4
 1309              		.cfi_offset 14, -4
 1310 0522 83B0     		sub	sp, sp, #12
 1311              		.cfi_def_cfa_offset 16
 1312 0524 0190     		str	r0, [sp, #4]
 1313              		.loc 8 391 0
 1314 0526 0198     		ldr	r0, [sp, #4]
 1315 0528 FFF7E2FD 		bl	port_irq_enabled
 1316 052c 0346     		mov	r3, r0
 1317 052e 002B     		cmp	r3, #0
 1318 0530 0BD0     		beq	.L86
 1319              		.loc 8 392 0
 1320 0532 FFF7EDFD 		bl	port_is_isr_context
 1321 0536 0346     		mov	r3, r0
 1322 0538 002B     		cmp	r3, #0
 1323 053a 02D0     		beq	.L88
 1324              		.loc 8 393 0
 1325 053c FFF788FE 		bl	chSysUnlockFromISR
 1326 0540 03E0     		b	.L86
 1327              	.L88:
 1328              		.loc 8 396 0
 1329 0542 FFF7FEFF 		bl	chSchRescheduleS
 1330              		.loc 8 397 0
 1331 0546 FFF773FE 		bl	chSysUnlock
 1332              	.L86:
 1333              		.loc 8 400 0
 1334 054a 03B0     		add	sp, sp, #12
 1335              		.cfi_def_cfa_offset 4
 1336              		@ sp needed
 1337 054c 5DF804FB 		ldr	pc, [sp], #4
 1338              		.cfi_endproc
 1339              	.LFE254:
 1340              		.size	chSysRestoreStatusX, .-chSysRestoreStatusX
 1341              		.align	2
ARM GAS  /tmp/cc3lirnD.s 			page 25


 1342              		.p2align 4,,15
 1343              		.global	chSysIsCounterWithinX
 1344              		.thumb
 1345              		.thumb_func
 1346              		.type	chSysIsCounterWithinX, %function
 1347              	chSysIsCounterWithinX:
 1348              	.LFB255:
 1349              		.loc 8 421 0
 1350              		.cfi_startproc
 1351              		@ args = 0, pretend = 0, frame = 16
 1352              		@ frame_needed = 0, uses_anonymous_args = 0
 1353              		@ link register save eliminated.
 1354 0550 84B0     		sub	sp, sp, #16
 1355              		.cfi_def_cfa_offset 16
 1356 0552 0390     		str	r0, [sp, #12]
 1357 0554 0291     		str	r1, [sp, #8]
 1358 0556 0192     		str	r2, [sp, #4]
 1359              		.loc 8 423 0
 1360 0558 039A     		ldr	r2, [sp, #12]
 1361 055a 029B     		ldr	r3, [sp, #8]
 1362 055c D21A     		subs	r2, r2, r3
 1363 055e 0199     		ldr	r1, [sp, #4]
 1364 0560 029B     		ldr	r3, [sp, #8]
 1365 0562 CB1A     		subs	r3, r1, r3
 1366 0564 9A42     		cmp	r2, r3
 1367 0566 34BF     		ite	cc
 1368 0568 0123     		movcc	r3, #1
 1369 056a 0023     		movcs	r3, #0
 1370 056c DBB2     		uxtb	r3, r3
 1371              		.loc 8 424 0
 1372 056e 1846     		mov	r0, r3
 1373 0570 04B0     		add	sp, sp, #16
 1374              		.cfi_def_cfa_offset 0
 1375              		@ sp needed
 1376 0572 7047     		bx	lr
 1377              		.cfi_endproc
 1378              	.LFE255:
 1379              		.size	chSysIsCounterWithinX, .-chSysIsCounterWithinX
 1380              		.align	2
 1381 0574 AFF30080 		.p2align 4,,15
 1381      AFF30080 
 1381      AFF30080 
 1382              		.global	chSysPolledDelayX
 1383              		.thumb
 1384              		.thumb_func
 1385              		.type	chSysPolledDelayX, %function
 1386              	chSysPolledDelayX:
 1387              	.LFB256:
 1388              		.loc 8 437 0
 1389              		.cfi_startproc
 1390              		@ args = 0, pretend = 0, frame = 16
 1391              		@ frame_needed = 0, uses_anonymous_args = 0
 1392 0580 00B5     		push	{lr}
 1393              		.cfi_def_cfa_offset 4
 1394              		.cfi_offset 14, -4
 1395 0582 85B0     		sub	sp, sp, #20
 1396              		.cfi_def_cfa_offset 24
ARM GAS  /tmp/cc3lirnD.s 			page 26


 1397 0584 0190     		str	r0, [sp, #4]
 1398              		.loc 8 438 0
 1399 0586 FFF713FE 		bl	port_rt_get_counter_value
 1400 058a 0390     		str	r0, [sp, #12]
 1401              		.loc 8 439 0
 1402 058c 039A     		ldr	r2, [sp, #12]
 1403 058e 019B     		ldr	r3, [sp, #4]
 1404 0590 1344     		add	r3, r3, r2
 1405 0592 0293     		str	r3, [sp, #8]
 1406              		.loc 8 441 0
 1407 0594 00BF     		nop
 1408              	.L92:
 1409              		.loc 8 441 0 is_stmt 0 discriminator 1
 1410 0596 FFF70BFE 		bl	port_rt_get_counter_value
 1411 059a 0346     		mov	r3, r0
 1412 059c 1846     		mov	r0, r3
 1413 059e 0399     		ldr	r1, [sp, #12]
 1414 05a0 029A     		ldr	r2, [sp, #8]
 1415 05a2 FFF7FEFF 		bl	chSysIsCounterWithinX
 1416 05a6 0346     		mov	r3, r0
 1417 05a8 002B     		cmp	r3, #0
 1418 05aa F4D1     		bne	.L92
 1419              		.loc 8 443 0 is_stmt 1
 1420 05ac 05B0     		add	sp, sp, #20
 1421              		.cfi_def_cfa_offset 4
 1422              		@ sp needed
 1423 05ae 5DF804FB 		ldr	pc, [sp], #4
 1424              		.cfi_endproc
 1425              	.LFE256:
 1426              		.size	chSysPolledDelayX, .-chSysPolledDelayX
 1427              		.section	.rodata
 1428              		.align	2
 1429              	.LC0:
 1430 0000 69646C65 		.ascii	"idle\000"
 1430      00
 1431 0005 000000   		.align	2
 1432              		.type	idle_descriptor.6604, %object
 1433              		.size	idle_descriptor.6604, 24
 1434              	idle_descriptor.6604:
 1435 0008 00000000 		.word	.LC0
 1436 000c 00000000 		.word	ch_idle_thread_wa
 1437 0010 D8000000 		.word	ch_idle_thread_wa+216
 1438 0014 01000000 		.word	1
 1439 0018 00000000 		.word	_idle_thread
 1440 001c 00000000 		.word	0
 1441              		.text
 1442              	.Letext0:
 1443              		.file 9 "/usr/lib/gcc/arm-none-eabi/4.9.3/include/stddef.h"
 1444              		.file 10 "/usr/include/newlib/machine/_default_types.h"
 1445              		.file 11 "/usr/include/newlib/sys/_stdint.h"
 1446              		.file 12 "../../../os/common/ports/ARMCMx/compilers/GCC/chtypes.h"
 1447              		.file 13 "../../../os/rt/include/chsystypes.h"
 1448              		.file 14 "../../../os/rt/include/chschd.h"
 1449              		.file 15 "../../../os/common/ext/CMSIS/ST/STM32F4xx/stm32f407xx.h"
 1450              		.file 16 "../../../os/common/ports/ARMCMx/chcore.h"
 1451              		.file 17 "../../../os/hal/ports/STM32/LLD/TIMv1/stm32_tim.h"
 1452              		.file 18 "../../../os/rt/include/chtm.h"
ARM GAS  /tmp/cc3lirnD.s 			page 27


 1453              		.file 19 "../../../os/rt/include/chsem.h"
 1454              		.file 20 "../../../os/rt/include/chmtx.h"
 1455              		.file 21 "../../../os/rt/include/chthreads.h"
 1456              		.file 22 "../../../os/rt/include/chregistry.h"