ARM GAS  /tmp/cc49pbTF.s 			page 1


   1              		.syntax unified
   2              		.cpu cortex-m4
   3              		.fpu softvfp
   4              		.eabi_attribute 20, 1
   5              		.eabi_attribute 21, 1
   6              		.eabi_attribute 23, 3
   7              		.eabi_attribute 24, 1
   8              		.eabi_attribute 25, 1
   9              		.eabi_attribute 26, 1
  10              		.eabi_attribute 30, 6
  11              		.eabi_attribute 34, 1
  12              		.eabi_attribute 18, 4
  13              		.thumb
  14              		.file	"chthreads.c"
  15              		.text
  16              	.Ltext0:
  17              		.cfi_sections	.debug_frame
  18              		.align	2
  19              		.p2align 4,,15
  20              		.thumb
  21              		.thumb_func
  22              		.type	port_lock, %function
  23              	port_lock:
  24              	.LFB127:
  25              		.file 1 "../../../os/common/ports/ARMCMx/chcore_v7m.h"
  26              		.loc 1 594 0
  27              		.cfi_startproc
  28              		@ args = 0, pretend = 0, frame = 8
  29              		@ frame_needed = 0, uses_anonymous_args = 0
  30              		@ link register save eliminated.
  31 0000 82B0     		sub	sp, sp, #8
  32              		.cfi_def_cfa_offset 8
  33 0002 2023     		movs	r3, #32
  34 0004 0193     		str	r3, [sp, #4]
  35              	.LBB6:
  36              	.LBB7:
  37              		.file 2 "../../../os/common/ext/CMSIS/include/cmsis_gcc.h"
  38              		.loc 2 264 0
  39 0006 019B     		ldr	r3, [sp, #4]
  40              	@ 264 "../../../os/common/ext/CMSIS/include/cmsis_gcc.h" 1
  41 0008 83F31188 		MSR basepri, r3
  42              	@ 0 "" 2
  43              		.thumb
  44              	.LBE7:
  45              	.LBE6:
  46              		.loc 1 611 0
  47 000c 02B0     		add	sp, sp, #8
  48              		.cfi_def_cfa_offset 0
  49              		@ sp needed
  50 000e 7047     		bx	lr
  51              		.cfi_endproc
  52              	.LFE127:
  53              		.size	port_lock, .-port_lock
  54              		.align	2
  55              		.p2align 4,,15
  56              		.thumb
  57              		.thumb_func
ARM GAS  /tmp/cc49pbTF.s 			page 2


  58              		.type	port_unlock, %function
  59              	port_unlock:
  60              	.LFB128:
  61              		.loc 1 618 0
  62              		.cfi_startproc
  63              		@ args = 0, pretend = 0, frame = 8
  64              		@ frame_needed = 0, uses_anonymous_args = 0
  65              		@ link register save eliminated.
  66 0010 82B0     		sub	sp, sp, #8
  67              		.cfi_def_cfa_offset 8
  68 0012 0023     		movs	r3, #0
  69 0014 0193     		str	r3, [sp, #4]
  70              	.LBB8:
  71              	.LBB9:
  72              		.loc 2 264 0
  73 0016 019B     		ldr	r3, [sp, #4]
  74              	@ 264 "../../../os/common/ext/CMSIS/include/cmsis_gcc.h" 1
  75 0018 83F31188 		MSR basepri, r3
  76              	@ 0 "" 2
  77              		.thumb
  78              	.LBE9:
  79              	.LBE8:
  80              		.loc 1 625 0
  81 001c 02B0     		add	sp, sp, #8
  82              		.cfi_def_cfa_offset 0
  83              		@ sp needed
  84 001e 7047     		bx	lr
  85              		.cfi_endproc
  86              	.LFE128:
  87              		.size	port_unlock, .-port_unlock
  88              		.align	2
  89              		.p2align 4,,15
  90              		.thumb
  91              		.thumb_func
  92              		.type	st_lld_get_counter, %function
  93              	st_lld_get_counter:
  94              	.LFB136:
  95              		.file 3 "../../../os/hal/ports/STM32/LLD/TIMv1/hal_st_lld.h"
  96              		.loc 3 139 0
  97              		.cfi_startproc
  98              		@ args = 0, pretend = 0, frame = 0
  99              		@ frame_needed = 0, uses_anonymous_args = 0
 100              		@ link register save eliminated.
 101              		.loc 3 141 0
 102 0020 4FF08043 		mov	r3, #1073741824
 103 0024 5B6A     		ldr	r3, [r3, #36]
 104              		.loc 3 142 0
 105 0026 1846     		mov	r0, r3
 106 0028 7047     		bx	lr
 107              		.cfi_endproc
 108              	.LFE136:
 109              		.size	st_lld_get_counter, .-st_lld_get_counter
 110 002a 00BF     		.align	2
 111 002c AFF30080 		.p2align 4,,15
 112              		.thumb
 113              		.thumb_func
 114              		.type	port_timer_get_time, %function
ARM GAS  /tmp/cc49pbTF.s 			page 3


 115              	port_timer_get_time:
 116              	.LFB145:
 117              		.file 4 "../../../os/common/ports/ARMCMx/chcore_timer.h"
 118              		.loc 4 105 0
 119              		.cfi_startproc
 120              		@ args = 0, pretend = 0, frame = 0
 121              		@ frame_needed = 0, uses_anonymous_args = 0
 122 0030 08B5     		push	{r3, lr}
 123              		.cfi_def_cfa_offset 8
 124              		.cfi_offset 3, -8
 125              		.cfi_offset 14, -4
 126              		.loc 4 107 0
 127 0032 FFF7F5FF 		bl	st_lld_get_counter
 128 0036 0346     		mov	r3, r0
 129              		.loc 4 108 0
 130 0038 1846     		mov	r0, r3
 131 003a 08BD     		pop	{r3, pc}
 132              		.cfi_endproc
 133              	.LFE145:
 134              		.size	port_timer_get_time, .-port_timer_get_time
 135              		.align	2
 136 003c AFF30080 		.p2align 4,,15
 137              		.thumb
 138              		.thumb_func
 139              		.type	list_init, %function
 140              	list_init:
 141              	.LFB147:
 142              		.file 5 "../../../os/rt/include/chschd.h"
 143              		.loc 5 510 0
 144              		.cfi_startproc
 145              		@ args = 0, pretend = 0, frame = 8
 146              		@ frame_needed = 0, uses_anonymous_args = 0
 147              		@ link register save eliminated.
 148 0040 82B0     		sub	sp, sp, #8
 149              		.cfi_def_cfa_offset 8
 150 0042 0190     		str	r0, [sp, #4]
 151              		.loc 5 512 0
 152 0044 019B     		ldr	r3, [sp, #4]
 153 0046 019A     		ldr	r2, [sp, #4]
 154 0048 1A60     		str	r2, [r3]
 155              		.loc 5 513 0
 156 004a 02B0     		add	sp, sp, #8
 157              		.cfi_def_cfa_offset 0
 158              		@ sp needed
 159 004c 7047     		bx	lr
 160              		.cfi_endproc
 161              	.LFE147:
 162              		.size	list_init, .-list_init
 163 004e 00BF     		.align	2
 164              		.p2align 4,,15
 165              		.thumb
 166              		.thumb_func
 167              		.type	list_notempty, %function
 168              	list_notempty:
 169              	.LFB149:
 170              		.loc 5 536 0
 171              		.cfi_startproc
ARM GAS  /tmp/cc49pbTF.s 			page 4


 172              		@ args = 0, pretend = 0, frame = 8
 173              		@ frame_needed = 0, uses_anonymous_args = 0
 174              		@ link register save eliminated.
 175 0050 82B0     		sub	sp, sp, #8
 176              		.cfi_def_cfa_offset 8
 177 0052 0190     		str	r0, [sp, #4]
 178              		.loc 5 538 0
 179 0054 019B     		ldr	r3, [sp, #4]
 180 0056 1A68     		ldr	r2, [r3]
 181 0058 019B     		ldr	r3, [sp, #4]
 182 005a 9A42     		cmp	r2, r3
 183 005c 14BF     		ite	ne
 184 005e 0123     		movne	r3, #1
 185 0060 0023     		moveq	r3, #0
 186 0062 DBB2     		uxtb	r3, r3
 187              		.loc 5 539 0
 188 0064 1846     		mov	r0, r3
 189 0066 02B0     		add	sp, sp, #8
 190              		.cfi_def_cfa_offset 0
 191              		@ sp needed
 192 0068 7047     		bx	lr
 193              		.cfi_endproc
 194              	.LFE149:
 195              		.size	list_notempty, .-list_notempty
 196 006a 00BF     		.align	2
 197 006c AFF30080 		.p2align 4,,15
 198              		.thumb
 199              		.thumb_func
 200              		.type	queue_init, %function
 201              	queue_init:
 202              	.LFB150:
 203              		.loc 5 548 0
 204              		.cfi_startproc
 205              		@ args = 0, pretend = 0, frame = 8
 206              		@ frame_needed = 0, uses_anonymous_args = 0
 207              		@ link register save eliminated.
 208 0070 82B0     		sub	sp, sp, #8
 209              		.cfi_def_cfa_offset 8
 210 0072 0190     		str	r0, [sp, #4]
 211              		.loc 5 550 0
 212 0074 019B     		ldr	r3, [sp, #4]
 213 0076 019A     		ldr	r2, [sp, #4]
 214 0078 1A60     		str	r2, [r3]
 215              		.loc 5 551 0
 216 007a 019B     		ldr	r3, [sp, #4]
 217 007c 019A     		ldr	r2, [sp, #4]
 218 007e 5A60     		str	r2, [r3, #4]
 219              		.loc 5 552 0
 220 0080 02B0     		add	sp, sp, #8
 221              		.cfi_def_cfa_offset 0
 222              		@ sp needed
 223 0082 7047     		bx	lr
 224              		.cfi_endproc
 225              	.LFE150:
 226              		.size	queue_init, .-queue_init
 227              		.align	2
 228 0084 AFF30080 		.p2align 4,,15
ARM GAS  /tmp/cc49pbTF.s 			page 5


 228      AFF30080 
 228      AFF30080 
 229              		.thumb
 230              		.thumb_func
 231              		.type	queue_notempty, %function
 232              	queue_notempty:
 233              	.LFB152:
 234              		.loc 5 575 0
 235              		.cfi_startproc
 236              		@ args = 0, pretend = 0, frame = 8
 237              		@ frame_needed = 0, uses_anonymous_args = 0
 238              		@ link register save eliminated.
 239 0090 82B0     		sub	sp, sp, #8
 240              		.cfi_def_cfa_offset 8
 241 0092 0190     		str	r0, [sp, #4]
 242              		.loc 5 577 0
 243 0094 019B     		ldr	r3, [sp, #4]
 244 0096 1A68     		ldr	r2, [r3]
 245 0098 019B     		ldr	r3, [sp, #4]
 246 009a 9A42     		cmp	r2, r3
 247 009c 14BF     		ite	ne
 248 009e 0123     		movne	r3, #1
 249 00a0 0023     		moveq	r3, #0
 250 00a2 DBB2     		uxtb	r3, r3
 251              		.loc 5 578 0
 252 00a4 1846     		mov	r0, r3
 253 00a6 02B0     		add	sp, sp, #8
 254              		.cfi_def_cfa_offset 0
 255              		@ sp needed
 256 00a8 7047     		bx	lr
 257              		.cfi_endproc
 258              	.LFE152:
 259              		.size	queue_notempty, .-queue_notempty
 260 00aa 00BF     		.align	2
 261 00ac AFF30080 		.p2align 4,,15
 262              		.thumb
 263              		.thumb_func
 264              		.type	list_insert, %function
 265              	list_insert:
 266              	.LFB153:
 267              		.loc 5 583 0
 268              		.cfi_startproc
 269              		@ args = 0, pretend = 0, frame = 8
 270              		@ frame_needed = 0, uses_anonymous_args = 0
 271              		@ link register save eliminated.
 272 00b0 82B0     		sub	sp, sp, #8
 273              		.cfi_def_cfa_offset 8
 274 00b2 0190     		str	r0, [sp, #4]
 275 00b4 0091     		str	r1, [sp]
 276              		.loc 5 585 0
 277 00b6 009B     		ldr	r3, [sp]
 278 00b8 1A68     		ldr	r2, [r3]
 279 00ba 019B     		ldr	r3, [sp, #4]
 280 00bc 1A60     		str	r2, [r3]
 281              		.loc 5 586 0
 282 00be 009B     		ldr	r3, [sp]
 283 00c0 019A     		ldr	r2, [sp, #4]
ARM GAS  /tmp/cc49pbTF.s 			page 6


 284 00c2 1A60     		str	r2, [r3]
 285              		.loc 5 587 0
 286 00c4 02B0     		add	sp, sp, #8
 287              		.cfi_def_cfa_offset 0
 288              		@ sp needed
 289 00c6 7047     		bx	lr
 290              		.cfi_endproc
 291              	.LFE153:
 292              		.size	list_insert, .-list_insert
 293              		.align	2
 294 00c8 AFF30080 		.p2align 4,,15
 294      AFF30080 
 295              		.thumb
 296              		.thumb_func
 297              		.type	list_remove, %function
 298              	list_remove:
 299              	.LFB154:
 300              		.loc 5 589 0
 301              		.cfi_startproc
 302              		@ args = 0, pretend = 0, frame = 16
 303              		@ frame_needed = 0, uses_anonymous_args = 0
 304              		@ link register save eliminated.
 305 00d0 84B0     		sub	sp, sp, #16
 306              		.cfi_def_cfa_offset 16
 307 00d2 0190     		str	r0, [sp, #4]
 308              		.loc 5 591 0
 309 00d4 019B     		ldr	r3, [sp, #4]
 310 00d6 1B68     		ldr	r3, [r3]
 311 00d8 0393     		str	r3, [sp, #12]
 312              		.loc 5 592 0
 313 00da 039B     		ldr	r3, [sp, #12]
 314 00dc 1A68     		ldr	r2, [r3]
 315 00de 019B     		ldr	r3, [sp, #4]
 316 00e0 1A60     		str	r2, [r3]
 317              		.loc 5 594 0
 318 00e2 039B     		ldr	r3, [sp, #12]
 319              		.loc 5 595 0
 320 00e4 1846     		mov	r0, r3
 321 00e6 04B0     		add	sp, sp, #16
 322              		.cfi_def_cfa_offset 0
 323              		@ sp needed
 324 00e8 7047     		bx	lr
 325              		.cfi_endproc
 326              	.LFE154:
 327              		.size	list_remove, .-list_remove
 328 00ea 00BF     		.align	2
 329 00ec AFF30080 		.p2align 4,,15
 330              		.thumb
 331              		.thumb_func
 332              		.type	queue_insert, %function
 333              	queue_insert:
 334              	.LFB156:
 335              		.loc 5 609 0
 336              		.cfi_startproc
 337              		@ args = 0, pretend = 0, frame = 8
 338              		@ frame_needed = 0, uses_anonymous_args = 0
 339              		@ link register save eliminated.
ARM GAS  /tmp/cc49pbTF.s 			page 7


 340 00f0 82B0     		sub	sp, sp, #8
 341              		.cfi_def_cfa_offset 8
 342 00f2 0190     		str	r0, [sp, #4]
 343 00f4 0091     		str	r1, [sp]
 344              		.loc 5 611 0
 345 00f6 019B     		ldr	r3, [sp, #4]
 346 00f8 009A     		ldr	r2, [sp]
 347 00fa 1A60     		str	r2, [r3]
 348              		.loc 5 612 0
 349 00fc 009B     		ldr	r3, [sp]
 350 00fe 5A68     		ldr	r2, [r3, #4]
 351 0100 019B     		ldr	r3, [sp, #4]
 352 0102 5A60     		str	r2, [r3, #4]
 353              		.loc 5 613 0
 354 0104 019B     		ldr	r3, [sp, #4]
 355 0106 5B68     		ldr	r3, [r3, #4]
 356 0108 019A     		ldr	r2, [sp, #4]
 357 010a 1A60     		str	r2, [r3]
 358              		.loc 5 614 0
 359 010c 009B     		ldr	r3, [sp]
 360 010e 019A     		ldr	r2, [sp, #4]
 361 0110 5A60     		str	r2, [r3, #4]
 362              		.loc 5 615 0
 363 0112 02B0     		add	sp, sp, #8
 364              		.cfi_def_cfa_offset 0
 365              		@ sp needed
 366 0114 7047     		bx	lr
 367              		.cfi_endproc
 368              	.LFE156:
 369              		.size	queue_insert, .-queue_insert
 370 0116 00BF     		.align	2
 371 0118 AFF30080 		.p2align 4,,15
 371      AFF30080 
 372              		.thumb
 373              		.thumb_func
 374              		.type	queue_fifo_remove, %function
 375              	queue_fifo_remove:
 376              	.LFB157:
 377              		.loc 5 617 0
 378              		.cfi_startproc
 379              		@ args = 0, pretend = 0, frame = 16
 380              		@ frame_needed = 0, uses_anonymous_args = 0
 381              		@ link register save eliminated.
 382 0120 84B0     		sub	sp, sp, #16
 383              		.cfi_def_cfa_offset 16
 384 0122 0190     		str	r0, [sp, #4]
 385              		.loc 5 618 0
 386 0124 019B     		ldr	r3, [sp, #4]
 387 0126 1B68     		ldr	r3, [r3]
 388 0128 0393     		str	r3, [sp, #12]
 389              		.loc 5 620 0
 390 012a 039B     		ldr	r3, [sp, #12]
 391 012c 1A68     		ldr	r2, [r3]
 392 012e 019B     		ldr	r3, [sp, #4]
 393 0130 1A60     		str	r2, [r3]
 394              		.loc 5 621 0
 395 0132 019B     		ldr	r3, [sp, #4]
ARM GAS  /tmp/cc49pbTF.s 			page 8


 396 0134 1B68     		ldr	r3, [r3]
 397 0136 019A     		ldr	r2, [sp, #4]
 398 0138 5A60     		str	r2, [r3, #4]
 399              		.loc 5 623 0
 400 013a 039B     		ldr	r3, [sp, #12]
 401              		.loc 5 624 0
 402 013c 1846     		mov	r0, r3
 403 013e 04B0     		add	sp, sp, #16
 404              		.cfi_def_cfa_offset 0
 405              		@ sp needed
 406 0140 7047     		bx	lr
 407              		.cfi_endproc
 408              	.LFE157:
 409              		.size	queue_fifo_remove, .-queue_fifo_remove
 410 0142 00BF     		.align	2
 411 0144 AFF30080 		.p2align 4,,15
 411      AFF30080 
 411      AFF30080 
 412              		.thumb
 413              		.thumb_func
 414              		.type	chSchCanYieldS, %function
 415              	chSchCanYieldS:
 416              	.LFB161:
 417              		.loc 5 673 0
 418              		.cfi_startproc
 419              		@ args = 0, pretend = 0, frame = 0
 420              		@ frame_needed = 0, uses_anonymous_args = 0
 421              		@ link register save eliminated.
 422              		.loc 5 677 0
 423 0150 064B     		ldr	r3, .L21
 424 0152 1B68     		ldr	r3, [r3]
 425 0154 9A68     		ldr	r2, [r3, #8]
 426 0156 054B     		ldr	r3, .L21
 427 0158 9B69     		ldr	r3, [r3, #24]
 428 015a 9B68     		ldr	r3, [r3, #8]
 429 015c 9A42     		cmp	r2, r3
 430 015e 2CBF     		ite	cs
 431 0160 0123     		movcs	r3, #1
 432 0162 0023     		movcc	r3, #0
 433 0164 DBB2     		uxtb	r3, r3
 434              		.loc 5 678 0
 435 0166 1846     		mov	r0, r3
 436 0168 7047     		bx	lr
 437              	.L22:
 438 016a 00BF     		.align	2
 439              	.L21:
 440 016c 00000000 		.word	ch
 441              		.cfi_endproc
 442              	.LFE161:
 443              		.size	chSchCanYieldS, .-chSchCanYieldS
 444              		.align	2
 445              		.p2align 4,,15
 446              		.thumb
 447              		.thumb_func
 448              		.type	chSchDoYieldS, %function
 449              	chSchDoYieldS:
 450              	.LFB162:
ARM GAS  /tmp/cc49pbTF.s 			page 9


 451              		.loc 5 687 0
 452              		.cfi_startproc
 453              		@ args = 0, pretend = 0, frame = 0
 454              		@ frame_needed = 0, uses_anonymous_args = 0
 455 0170 08B5     		push	{r3, lr}
 456              		.cfi_def_cfa_offset 8
 457              		.cfi_offset 3, -8
 458              		.cfi_offset 14, -4
 459              		.loc 5 691 0
 460 0172 FFF7EDFF 		bl	chSchCanYieldS
 461 0176 0346     		mov	r3, r0
 462 0178 002B     		cmp	r3, #0
 463 017a 01D0     		beq	.L23
 464              		.loc 5 692 0
 465 017c FFF7FEFF 		bl	chSchDoRescheduleBehind
 466              	.L23:
 467              		.loc 5 694 0
 468 0180 08BD     		pop	{r3, pc}
 469              		.cfi_endproc
 470              	.LFE162:
 471              		.size	chSchDoYieldS, .-chSchDoYieldS
 472 0182 00BF     		.align	2
 473 0184 AFF30080 		.p2align 4,,15
 473      AFF30080 
 473      AFF30080 
 474              		.thumb
 475              		.thumb_func
 476              		.type	chSysLock, %function
 477              	chSysLock:
 478              	.LFB167:
 479              		.file 6 "../../../os/rt/include/chsys.h"
 480              		.loc 6 374 0
 481              		.cfi_startproc
 482              		@ args = 0, pretend = 0, frame = 0
 483              		@ frame_needed = 0, uses_anonymous_args = 0
 484 0190 08B5     		push	{r3, lr}
 485              		.cfi_def_cfa_offset 8
 486              		.cfi_offset 3, -8
 487              		.cfi_offset 14, -4
 488              		.loc 6 376 0
 489 0192 FFF735FF 		bl	port_lock
 490              		.loc 6 379 0
 491 0196 08BD     		pop	{r3, pc}
 492              		.cfi_endproc
 493              	.LFE167:
 494              		.size	chSysLock, .-chSysLock
 495              		.align	2
 496 0198 AFF30080 		.p2align 4,,15
 496      AFF30080 
 497              		.thumb
 498              		.thumb_func
 499              		.type	chSysUnlock, %function
 500              	chSysUnlock:
 501              	.LFB168:
 502              		.loc 6 386 0
 503              		.cfi_startproc
 504              		@ args = 0, pretend = 0, frame = 0
ARM GAS  /tmp/cc49pbTF.s 			page 10


 505              		@ frame_needed = 0, uses_anonymous_args = 0
 506 01a0 08B5     		push	{r3, lr}
 507              		.cfi_def_cfa_offset 8
 508              		.cfi_offset 3, -8
 509              		.cfi_offset 14, -4
 510              		.loc 6 399 0
 511 01a2 FFF735FF 		bl	port_unlock
 512              		.loc 6 400 0
 513 01a6 08BD     		pop	{r3, pc}
 514              		.cfi_endproc
 515              	.LFE168:
 516              		.size	chSysUnlock, .-chSysUnlock
 517              		.align	2
 518 01a8 AFF30080 		.p2align 4,,15
 518      AFF30080 
 519              		.thumb
 520              		.thumb_func
 521              		.type	chVTGetSystemTimeX, %function
 522              	chVTGetSystemTimeX:
 523              	.LFB181:
 524              		.file 7 "../../../os/rt/include/chvt.h"
 525              		.loc 7 392 0
 526              		.cfi_startproc
 527              		@ args = 0, pretend = 0, frame = 0
 528              		@ frame_needed = 0, uses_anonymous_args = 0
 529 01b0 08B5     		push	{r3, lr}
 530              		.cfi_def_cfa_offset 8
 531              		.cfi_offset 3, -8
 532              		.cfi_offset 14, -4
 533              		.loc 7 397 0
 534 01b2 FFF73DFF 		bl	port_timer_get_time
 535 01b6 0346     		mov	r3, r0
 536              		.loc 7 399 0
 537 01b8 1846     		mov	r0, r3
 538 01ba 08BD     		pop	{r3, pc}
 539              		.cfi_endproc
 540              	.LFE181:
 541              		.size	chVTGetSystemTimeX, .-chVTGetSystemTimeX
 542              		.align	2
 543 01bc AFF30080 		.p2align 4,,15
 544              		.thumb
 545              		.thumb_func
 546              		.type	chVTIsTimeWithinX, %function
 547              	chVTIsTimeWithinX:
 548              	.LFB184:
 549              		.loc 7 450 0
 550              		.cfi_startproc
 551              		@ args = 0, pretend = 0, frame = 16
 552              		@ frame_needed = 0, uses_anonymous_args = 0
 553              		@ link register save eliminated.
 554 01c0 84B0     		sub	sp, sp, #16
 555              		.cfi_def_cfa_offset 16
 556 01c2 0390     		str	r0, [sp, #12]
 557 01c4 0291     		str	r1, [sp, #8]
 558 01c6 0192     		str	r2, [sp, #4]
 559              		.loc 7 452 0
 560 01c8 039A     		ldr	r2, [sp, #12]
ARM GAS  /tmp/cc49pbTF.s 			page 11


 561 01ca 029B     		ldr	r3, [sp, #8]
 562 01cc D21A     		subs	r2, r2, r3
 563 01ce 0199     		ldr	r1, [sp, #4]
 564 01d0 029B     		ldr	r3, [sp, #8]
 565 01d2 CB1A     		subs	r3, r1, r3
 566 01d4 9A42     		cmp	r2, r3
 567 01d6 34BF     		ite	cc
 568 01d8 0123     		movcc	r3, #1
 569 01da 0023     		movcs	r3, #0
 570 01dc DBB2     		uxtb	r3, r3
 571              		.loc 7 453 0
 572 01de 1846     		mov	r0, r3
 573 01e0 04B0     		add	sp, sp, #16
 574              		.cfi_def_cfa_offset 0
 575              		@ sp needed
 576 01e2 7047     		bx	lr
 577              		.cfi_endproc
 578              	.LFE184:
 579              		.size	chVTIsTimeWithinX, .-chVTIsTimeWithinX
 580              		.align	2
 581 01e4 AFF30080 		.p2align 4,,15
 581      AFF30080 
 581      AFF30080 
 582              		.thumb
 583              		.thumb_func
 584              		.type	chThdGetSelfX, %function
 585              	chThdGetSelfX:
 586              	.LFB195:
 587              		.file 8 "../../../os/rt/include/chthreads.h"
 588              		.loc 8 284 0
 589              		.cfi_startproc
 590              		@ args = 0, pretend = 0, frame = 0
 591              		@ frame_needed = 0, uses_anonymous_args = 0
 592              		@ link register save eliminated.
 593              		.loc 8 286 0
 594 01f0 014B     		ldr	r3, .L33
 595 01f2 9B69     		ldr	r3, [r3, #24]
 596              		.loc 8 287 0
 597 01f4 1846     		mov	r0, r3
 598 01f6 7047     		bx	lr
 599              	.L34:
 600              		.align	2
 601              	.L33:
 602 01f8 00000000 		.word	ch
 603              		.cfi_endproc
 604              	.LFE195:
 605              		.size	chThdGetSelfX, .-chThdGetSelfX
 606              		.align	2
 607 01fc AFF30080 		.p2align 4,,15
 608              		.thumb
 609              		.thumb_func
 610              		.type	chThdGetWorkingAreaX, %function
 611              	chThdGetWorkingAreaX:
 612              	.LFB197:
 613              		.loc 8 329 0
 614              		.cfi_startproc
 615              		@ args = 0, pretend = 0, frame = 8
ARM GAS  /tmp/cc49pbTF.s 			page 12


 616              		@ frame_needed = 0, uses_anonymous_args = 0
 617              		@ link register save eliminated.
 618 0200 82B0     		sub	sp, sp, #8
 619              		.cfi_def_cfa_offset 8
 620 0202 0190     		str	r0, [sp, #4]
 621              		.loc 8 331 0
 622 0204 019B     		ldr	r3, [sp, #4]
 623 0206 DB69     		ldr	r3, [r3, #28]
 624              		.loc 8 332 0
 625 0208 1846     		mov	r0, r3
 626 020a 02B0     		add	sp, sp, #8
 627              		.cfi_def_cfa_offset 0
 628              		@ sp needed
 629 020c 7047     		bx	lr
 630              		.cfi_endproc
 631              	.LFE197:
 632              		.size	chThdGetWorkingAreaX, .-chThdGetWorkingAreaX
 633 020e 00BF     		.align	2
 634              		.p2align 4,,15
 635              		.thumb
 636              		.thumb_func
 637              		.type	chThdSleepS, %function
 638              	chThdSleepS:
 639              	.LFB201:
 640              		.loc 8 390 0
 641              		.cfi_startproc
 642              		@ args = 0, pretend = 0, frame = 8
 643              		@ frame_needed = 0, uses_anonymous_args = 0
 644 0210 00B5     		push	{lr}
 645              		.cfi_def_cfa_offset 4
 646              		.cfi_offset 14, -4
 647 0212 83B0     		sub	sp, sp, #12
 648              		.cfi_def_cfa_offset 16
 649 0214 0190     		str	r0, [sp, #4]
 650              		.loc 8 394 0
 651 0216 0820     		movs	r0, #8
 652 0218 0199     		ldr	r1, [sp, #4]
 653 021a FFF7FEFF 		bl	chSchGoSleepTimeoutS
 654              		.loc 8 395 0
 655 021e 03B0     		add	sp, sp, #12
 656              		.cfi_def_cfa_offset 4
 657              		@ sp needed
 658 0220 5DF804FB 		ldr	pc, [sp], #4
 659              		.cfi_endproc
 660              	.LFE201:
 661              		.size	chThdSleepS, .-chThdSleepS
 662              		.align	2
 663 0224 AFF30080 		.p2align 4,,15
 663      AFF30080 
 663      AFF30080 
 664              		.thumb
 665              		.thumb_func
 666              		.type	chThdDoDequeueNextI, %function
 667              	chThdDoDequeueNextI:
 668              	.LFB204:
 669              		.loc 8 437 0
 670              		.cfi_startproc
ARM GAS  /tmp/cc49pbTF.s 			page 13


 671              		@ args = 0, pretend = 0, frame = 16
 672              		@ frame_needed = 0, uses_anonymous_args = 0
 673 0230 00B5     		push	{lr}
 674              		.cfi_def_cfa_offset 4
 675              		.cfi_offset 14, -4
 676 0232 85B0     		sub	sp, sp, #20
 677              		.cfi_def_cfa_offset 24
 678 0234 0190     		str	r0, [sp, #4]
 679 0236 0091     		str	r1, [sp]
 680              		.loc 8 442 0
 681 0238 0198     		ldr	r0, [sp, #4]
 682 023a FFF771FF 		bl	queue_fifo_remove
 683 023e 0390     		str	r0, [sp, #12]
 684              		.loc 8 446 0
 685 0240 039B     		ldr	r3, [sp, #12]
 686 0242 009A     		ldr	r2, [sp]
 687 0244 5A62     		str	r2, [r3, #36]
 688              		.loc 8 447 0
 689 0246 0398     		ldr	r0, [sp, #12]
 690 0248 FFF7FEFF 		bl	chSchReadyI
 691              		.loc 8 448 0
 692 024c 05B0     		add	sp, sp, #20
 693              		.cfi_def_cfa_offset 4
 694              		@ sp needed
 695 024e 5DF804FB 		ldr	pc, [sp], #4
 696              		.cfi_endproc
 697              	.LFE204:
 698              		.size	chThdDoDequeueNextI, .-chThdDoDequeueNextI
 699 0252 00BF     		.align	2
 700 0254 AFF30080 		.p2align 4,,15
 700      AFF30080 
 700      AFF30080 
 701              		.global	_thread_init
 702              		.thumb
 703              		.thumb_func
 704              		.type	_thread_init, %function
 705              	_thread_init:
 706              	.LFB248:
 707              		.file 9 "../../../os/rt/src/chthreads.c"
 708              		.loc 9 88 0
 709              		.cfi_startproc
 710              		@ args = 0, pretend = 0, frame = 16
 711              		@ frame_needed = 0, uses_anonymous_args = 0
 712 0260 00B5     		push	{lr}
 713              		.cfi_def_cfa_offset 4
 714              		.cfi_offset 14, -4
 715 0262 85B0     		sub	sp, sp, #20
 716              		.cfi_def_cfa_offset 24
 717 0264 0390     		str	r0, [sp, #12]
 718 0266 0291     		str	r1, [sp, #8]
 719 0268 0192     		str	r2, [sp, #4]
 720              		.loc 9 90 0
 721 026a 039B     		ldr	r3, [sp, #12]
 722 026c 019A     		ldr	r2, [sp, #4]
 723 026e 9A60     		str	r2, [r3, #8]
 724              		.loc 9 91 0
 725 0270 039B     		ldr	r3, [sp, #12]
ARM GAS  /tmp/cc49pbTF.s 			page 14


 726 0272 0222     		movs	r2, #2
 727 0274 83F82020 		strb	r2, [r3, #32]
 728              		.loc 9 92 0
 729 0278 039B     		ldr	r3, [sp, #12]
 730 027a 0022     		movs	r2, #0
 731 027c 83F82120 		strb	r2, [r3, #33]
 732              		.loc 9 97 0
 733 0280 039B     		ldr	r3, [sp, #12]
 734 0282 019A     		ldr	r2, [sp, #4]
 735 0284 DA63     		str	r2, [r3, #60]
 736              		.loc 9 98 0
 737 0286 039B     		ldr	r3, [sp, #12]
 738 0288 0022     		movs	r2, #0
 739 028a 9A63     		str	r2, [r3, #56]
 740              		.loc 9 101 0
 741 028c 039B     		ldr	r3, [sp, #12]
 742 028e 0022     		movs	r2, #0
 743 0290 5A63     		str	r2, [r3, #52]
 744              		.loc 9 107 0
 745 0292 039B     		ldr	r3, [sp, #12]
 746 0294 0122     		movs	r2, #1
 747 0296 83F82220 		strb	r2, [r3, #34]
 748              		.loc 9 108 0
 749 029a 039B     		ldr	r3, [sp, #12]
 750 029c 029A     		ldr	r2, [sp, #8]
 751 029e 9A61     		str	r2, [r3, #24]
 752              		.loc 9 109 0
 753 02a0 039B     		ldr	r3, [sp, #12]
 754 02a2 0E4A     		ldr	r2, .L41
 755 02a4 1A61     		str	r2, [r3, #16]
 756 02a6 0D4B     		ldr	r3, .L41
 757 02a8 5A69     		ldr	r2, [r3, #20]
 758 02aa 039B     		ldr	r3, [sp, #12]
 759 02ac 5A61     		str	r2, [r3, #20]
 760 02ae 039B     		ldr	r3, [sp, #12]
 761 02b0 5B69     		ldr	r3, [r3, #20]
 762 02b2 039A     		ldr	r2, [sp, #12]
 763 02b4 1A61     		str	r2, [r3, #16]
 764 02b6 094A     		ldr	r2, .L41
 765 02b8 039B     		ldr	r3, [sp, #12]
 766 02ba 5361     		str	r3, [r2, #20]
 767              		.loc 9 114 0
 768 02bc 039B     		ldr	r3, [sp, #12]
 769 02be 2833     		adds	r3, r3, #40
 770 02c0 1846     		mov	r0, r3
 771 02c2 FFF7BDFE 		bl	list_init
 772              		.loc 9 117 0
 773 02c6 039B     		ldr	r3, [sp, #12]
 774 02c8 2C33     		adds	r3, r3, #44
 775 02ca 1846     		mov	r0, r3
 776 02cc FFF7D0FE 		bl	queue_init
 777              		.loc 9 123 0
 778 02d0 039B     		ldr	r3, [sp, #12]
 779              		.loc 9 124 0
 780 02d2 1846     		mov	r0, r3
 781 02d4 05B0     		add	sp, sp, #20
 782              		.cfi_def_cfa_offset 4
ARM GAS  /tmp/cc49pbTF.s 			page 15


 783              		@ sp needed
 784 02d6 5DF804FB 		ldr	pc, [sp], #4
 785              	.L42:
 786 02da 00BF     		.align	2
 787              	.L41:
 788 02dc 00000000 		.word	ch
 789              		.cfi_endproc
 790              	.LFE248:
 791              		.size	_thread_init, .-_thread_init
 792              		.align	2
 793              		.p2align 4,,15
 794              		.global	chThdCreateSuspendedI
 795              		.thumb
 796              		.thumb_func
 797              		.type	chThdCreateSuspendedI, %function
 798              	chThdCreateSuspendedI:
 799              	.LFB249:
 800              		.loc 9 167 0
 801              		.cfi_startproc
 802              		@ args = 0, pretend = 0, frame = 16
 803              		@ frame_needed = 0, uses_anonymous_args = 0
 804 02e0 00B5     		push	{lr}
 805              		.cfi_def_cfa_offset 4
 806              		.cfi_offset 14, -4
 807 02e2 85B0     		sub	sp, sp, #20
 808              		.cfi_def_cfa_offset 24
 809 02e4 0190     		str	r0, [sp, #4]
 810              		.loc 9 181 0
 811 02e6 019B     		ldr	r3, [sp, #4]
 812 02e8 9B68     		ldr	r3, [r3, #8]
 813 02ea 483B     		subs	r3, r3, #72
 814 02ec 0393     		str	r3, [sp, #12]
 815              		.loc 9 186 0
 816 02ee 019B     		ldr	r3, [sp, #4]
 817 02f0 5A68     		ldr	r2, [r3, #4]
 818 02f2 039B     		ldr	r3, [sp, #12]
 819 02f4 DA61     		str	r2, [r3, #28]
 820              		.loc 9 190 0
 821 02f6 039B     		ldr	r3, [sp, #12]
 822 02f8 A3F12402 		sub	r2, r3, #36
 823 02fc 039B     		ldr	r3, [sp, #12]
 824 02fe DA60     		str	r2, [r3, #12]
 825 0300 039B     		ldr	r3, [sp, #12]
 826 0302 DB68     		ldr	r3, [r3, #12]
 827 0304 019A     		ldr	r2, [sp, #4]
 828 0306 1269     		ldr	r2, [r2, #16]
 829 0308 1A60     		str	r2, [r3]
 830 030a 039B     		ldr	r3, [sp, #12]
 831 030c DB68     		ldr	r3, [r3, #12]
 832 030e 019A     		ldr	r2, [sp, #4]
 833 0310 5269     		ldr	r2, [r2, #20]
 834 0312 5A60     		str	r2, [r3, #4]
 835 0314 039B     		ldr	r3, [sp, #12]
 836 0316 DB68     		ldr	r3, [r3, #12]
 837 0318 074A     		ldr	r2, .L45
 838 031a 1A62     		str	r2, [r3, #32]
 839              		.loc 9 193 0
ARM GAS  /tmp/cc49pbTF.s 			page 16


 840 031c 019B     		ldr	r3, [sp, #4]
 841 031e 1A68     		ldr	r2, [r3]
 842 0320 019B     		ldr	r3, [sp, #4]
 843 0322 DB68     		ldr	r3, [r3, #12]
 844 0324 0398     		ldr	r0, [sp, #12]
 845 0326 1146     		mov	r1, r2
 846 0328 1A46     		mov	r2, r3
 847 032a FFF7FEFF 		bl	_thread_init
 848 032e 0346     		mov	r3, r0
 849              		.loc 9 194 0
 850 0330 1846     		mov	r0, r3
 851 0332 05B0     		add	sp, sp, #20
 852              		.cfi_def_cfa_offset 4
 853              		@ sp needed
 854 0334 5DF804FB 		ldr	pc, [sp], #4
 855              	.L46:
 856              		.align	2
 857              	.L45:
 858 0338 00000000 		.word	_port_thread_start
 859              		.cfi_endproc
 860              	.LFE249:
 861              		.size	chThdCreateSuspendedI, .-chThdCreateSuspendedI
 862              		.align	2
 863 033c AFF30080 		.p2align 4,,15
 864              		.global	chThdCreateSuspended
 865              		.thumb
 866              		.thumb_func
 867              		.type	chThdCreateSuspended, %function
 868              	chThdCreateSuspended:
 869              	.LFB250:
 870              		.loc 9 216 0
 871              		.cfi_startproc
 872              		@ args = 0, pretend = 0, frame = 16
 873              		@ frame_needed = 0, uses_anonymous_args = 0
 874 0340 00B5     		push	{lr}
 875              		.cfi_def_cfa_offset 4
 876              		.cfi_offset 14, -4
 877 0342 85B0     		sub	sp, sp, #20
 878              		.cfi_def_cfa_offset 24
 879 0344 0190     		str	r0, [sp, #4]
 880              		.loc 9 230 0
 881 0346 FFF723FF 		bl	chSysLock
 882              		.loc 9 231 0
 883 034a 0198     		ldr	r0, [sp, #4]
 884 034c FFF7FEFF 		bl	chThdCreateSuspendedI
 885 0350 0390     		str	r0, [sp, #12]
 886              		.loc 9 232 0
 887 0352 FFF725FF 		bl	chSysUnlock
 888              		.loc 9 234 0
 889 0356 039B     		ldr	r3, [sp, #12]
 890              		.loc 9 235 0
 891 0358 1846     		mov	r0, r3
 892 035a 05B0     		add	sp, sp, #20
 893              		.cfi_def_cfa_offset 4
 894              		@ sp needed
 895 035c 5DF804FB 		ldr	pc, [sp], #4
 896              		.cfi_endproc
ARM GAS  /tmp/cc49pbTF.s 			page 17


 897              	.LFE250:
 898              		.size	chThdCreateSuspended, .-chThdCreateSuspended
 899              		.align	2
 900              		.p2align 4,,15
 901              		.global	chThdCreateI
 902              		.thumb
 903              		.thumb_func
 904              		.type	chThdCreateI, %function
 905              	chThdCreateI:
 906              	.LFB251:
 907              		.loc 9 259 0
 908              		.cfi_startproc
 909              		@ args = 0, pretend = 0, frame = 8
 910              		@ frame_needed = 0, uses_anonymous_args = 0
 911 0360 00B5     		push	{lr}
 912              		.cfi_def_cfa_offset 4
 913              		.cfi_offset 14, -4
 914 0362 83B0     		sub	sp, sp, #12
 915              		.cfi_def_cfa_offset 16
 916 0364 0190     		str	r0, [sp, #4]
 917              		.loc 9 261 0
 918 0366 0198     		ldr	r0, [sp, #4]
 919 0368 FFF7FEFF 		bl	chThdCreateSuspendedI
 920 036c 0346     		mov	r3, r0
 921 036e 1846     		mov	r0, r3
 922 0370 FFF7FEFF 		bl	chSchReadyI
 923 0374 0346     		mov	r3, r0
 924              		.loc 9 262 0
 925 0376 1846     		mov	r0, r3
 926 0378 03B0     		add	sp, sp, #12
 927              		.cfi_def_cfa_offset 4
 928              		@ sp needed
 929 037a 5DF804FB 		ldr	pc, [sp], #4
 930              		.cfi_endproc
 931              	.LFE251:
 932              		.size	chThdCreateI, .-chThdCreateI
 933 037e 00BF     		.align	2
 934              		.p2align 4,,15
 935              		.global	chThdCreate
 936              		.thumb
 937              		.thumb_func
 938              		.type	chThdCreate, %function
 939              	chThdCreate:
 940              	.LFB252:
 941              		.loc 9 280 0
 942              		.cfi_startproc
 943              		@ args = 0, pretend = 0, frame = 16
 944              		@ frame_needed = 0, uses_anonymous_args = 0
 945 0380 00B5     		push	{lr}
 946              		.cfi_def_cfa_offset 4
 947              		.cfi_offset 14, -4
 948 0382 85B0     		sub	sp, sp, #20
 949              		.cfi_def_cfa_offset 24
 950 0384 0190     		str	r0, [sp, #4]
 951              		.loc 9 294 0
 952 0386 FFF703FF 		bl	chSysLock
 953              		.loc 9 295 0
ARM GAS  /tmp/cc49pbTF.s 			page 18


 954 038a 0198     		ldr	r0, [sp, #4]
 955 038c FFF7FEFF 		bl	chThdCreateSuspendedI
 956 0390 0390     		str	r0, [sp, #12]
 957              		.loc 9 296 0
 958 0392 0398     		ldr	r0, [sp, #12]
 959 0394 0021     		movs	r1, #0
 960 0396 FFF7FEFF 		bl	chSchWakeupS
 961              		.loc 9 297 0
 962 039a FFF701FF 		bl	chSysUnlock
 963              		.loc 9 299 0
 964 039e 039B     		ldr	r3, [sp, #12]
 965              		.loc 9 300 0
 966 03a0 1846     		mov	r0, r3
 967 03a2 05B0     		add	sp, sp, #20
 968              		.cfi_def_cfa_offset 4
 969              		@ sp needed
 970 03a4 5DF804FB 		ldr	pc, [sp], #4
 971              		.cfi_endproc
 972              	.LFE252:
 973              		.size	chThdCreate, .-chThdCreate
 974              		.section	.rodata
 975              		.align	2
 976              	.LC0:
 977 0000 6E6F6E61 		.ascii	"noname\000"
 977      6D6500
 978              		.text
 979              		.align	2
 980 03a8 AFF30080 		.p2align 4,,15
 980      AFF30080 
 981              		.global	chThdCreateStatic
 982              		.thumb
 983              		.thumb_func
 984              		.type	chThdCreateStatic, %function
 985              	chThdCreateStatic:
 986              	.LFB253:
 987              		.loc 9 323 0
 988              		.cfi_startproc
 989              		@ args = 4, pretend = 0, frame = 24
 990              		@ frame_needed = 0, uses_anonymous_args = 0
 991 03b0 00B5     		push	{lr}
 992              		.cfi_def_cfa_offset 4
 993              		.cfi_offset 14, -4
 994 03b2 87B0     		sub	sp, sp, #28
 995              		.cfi_def_cfa_offset 32
 996 03b4 0390     		str	r0, [sp, #12]
 997 03b6 0291     		str	r1, [sp, #8]
 998 03b8 0192     		str	r2, [sp, #4]
 999 03ba 0093     		str	r3, [sp]
 1000              		.loc 9 343 0
 1001 03bc FFF7E8FE 		bl	chSysLock
 1002              		.loc 9 348 0
 1003 03c0 029B     		ldr	r3, [sp, #8]
 1004 03c2 483B     		subs	r3, r3, #72
 1005 03c4 039A     		ldr	r2, [sp, #12]
 1006 03c6 1344     		add	r3, r3, r2
 1007 03c8 0593     		str	r3, [sp, #20]
 1008              		.loc 9 353 0
ARM GAS  /tmp/cc49pbTF.s 			page 19


 1009 03ca 059B     		ldr	r3, [sp, #20]
 1010 03cc 039A     		ldr	r2, [sp, #12]
 1011 03ce DA61     		str	r2, [r3, #28]
 1012              		.loc 9 357 0
 1013 03d0 059B     		ldr	r3, [sp, #20]
 1014 03d2 A3F12402 		sub	r2, r3, #36
 1015 03d6 059B     		ldr	r3, [sp, #20]
 1016 03d8 DA60     		str	r2, [r3, #12]
 1017 03da 059B     		ldr	r3, [sp, #20]
 1018 03dc DB68     		ldr	r3, [r3, #12]
 1019 03de 009A     		ldr	r2, [sp]
 1020 03e0 1A60     		str	r2, [r3]
 1021 03e2 059B     		ldr	r3, [sp, #20]
 1022 03e4 DB68     		ldr	r3, [r3, #12]
 1023 03e6 089A     		ldr	r2, [sp, #32]
 1024 03e8 5A60     		str	r2, [r3, #4]
 1025 03ea 059B     		ldr	r3, [sp, #20]
 1026 03ec DB68     		ldr	r3, [r3, #12]
 1027 03ee 094A     		ldr	r2, .L55
 1028 03f0 1A62     		str	r2, [r3, #32]
 1029              		.loc 9 359 0
 1030 03f2 0598     		ldr	r0, [sp, #20]
 1031 03f4 0849     		ldr	r1, .L55+4
 1032 03f6 019A     		ldr	r2, [sp, #4]
 1033 03f8 FFF7FEFF 		bl	_thread_init
 1034 03fc 0590     		str	r0, [sp, #20]
 1035              		.loc 9 362 0
 1036 03fe 0598     		ldr	r0, [sp, #20]
 1037 0400 0021     		movs	r1, #0
 1038 0402 FFF7FEFF 		bl	chSchWakeupS
 1039              		.loc 9 363 0
 1040 0406 FFF7CBFE 		bl	chSysUnlock
 1041              		.loc 9 365 0
 1042 040a 059B     		ldr	r3, [sp, #20]
 1043              		.loc 9 366 0
 1044 040c 1846     		mov	r0, r3
 1045 040e 07B0     		add	sp, sp, #28
 1046              		.cfi_def_cfa_offset 4
 1047              		@ sp needed
 1048 0410 5DF804FB 		ldr	pc, [sp], #4
 1049              	.L56:
 1050              		.align	2
 1051              	.L55:
 1052 0414 00000000 		.word	_port_thread_start
 1053 0418 00000000 		.word	.LC0
 1054              		.cfi_endproc
 1055              	.LFE253:
 1056              		.size	chThdCreateStatic, .-chThdCreateStatic
 1057              		.align	2
 1058 041c AFF30080 		.p2align 4,,15
 1059              		.global	chThdStart
 1060              		.thumb
 1061              		.thumb_func
 1062              		.type	chThdStart, %function
 1063              	chThdStart:
 1064              	.LFB254:
 1065              		.loc 9 377 0
ARM GAS  /tmp/cc49pbTF.s 			page 20


 1066              		.cfi_startproc
 1067              		@ args = 0, pretend = 0, frame = 8
 1068              		@ frame_needed = 0, uses_anonymous_args = 0
 1069 0420 00B5     		push	{lr}
 1070              		.cfi_def_cfa_offset 4
 1071              		.cfi_offset 14, -4
 1072 0422 83B0     		sub	sp, sp, #12
 1073              		.cfi_def_cfa_offset 16
 1074 0424 0190     		str	r0, [sp, #4]
 1075              		.loc 9 379 0
 1076 0426 FFF7B3FE 		bl	chSysLock
 1077              		.loc 9 381 0
 1078 042a 0198     		ldr	r0, [sp, #4]
 1079 042c 0021     		movs	r1, #0
 1080 042e FFF7FEFF 		bl	chSchWakeupS
 1081              		.loc 9 382 0
 1082 0432 FFF7B5FE 		bl	chSysUnlock
 1083              		.loc 9 384 0
 1084 0436 019B     		ldr	r3, [sp, #4]
 1085              		.loc 9 385 0
 1086 0438 1846     		mov	r0, r3
 1087 043a 03B0     		add	sp, sp, #12
 1088              		.cfi_def_cfa_offset 4
 1089              		@ sp needed
 1090 043c 5DF804FB 		ldr	pc, [sp], #4
 1091              		.cfi_endproc
 1092              	.LFE254:
 1093              		.size	chThdStart, .-chThdStart
 1094              		.align	2
 1095              		.p2align 4,,15
 1096              		.global	chThdAddRef
 1097              		.thumb
 1098              		.thumb_func
 1099              		.type	chThdAddRef, %function
 1100              	chThdAddRef:
 1101              	.LFB255:
 1102              		.loc 9 399 0
 1103              		.cfi_startproc
 1104              		@ args = 0, pretend = 0, frame = 8
 1105              		@ frame_needed = 0, uses_anonymous_args = 0
 1106 0440 00B5     		push	{lr}
 1107              		.cfi_def_cfa_offset 4
 1108              		.cfi_offset 14, -4
 1109 0442 83B0     		sub	sp, sp, #12
 1110              		.cfi_def_cfa_offset 16
 1111 0444 0190     		str	r0, [sp, #4]
 1112              		.loc 9 401 0
 1113 0446 FFF7A3FE 		bl	chSysLock
 1114              		.loc 9 403 0
 1115 044a 019B     		ldr	r3, [sp, #4]
 1116 044c 93F82230 		ldrb	r3, [r3, #34]	@ zero_extendqisi2
 1117 0450 0133     		adds	r3, r3, #1
 1118 0452 DAB2     		uxtb	r2, r3
 1119 0454 019B     		ldr	r3, [sp, #4]
 1120 0456 83F82220 		strb	r2, [r3, #34]
 1121              		.loc 9 404 0
 1122 045a FFF7A1FE 		bl	chSysUnlock
ARM GAS  /tmp/cc49pbTF.s 			page 21


 1123              		.loc 9 406 0
 1124 045e 019B     		ldr	r3, [sp, #4]
 1125              		.loc 9 407 0
 1126 0460 1846     		mov	r0, r3
 1127 0462 03B0     		add	sp, sp, #12
 1128              		.cfi_def_cfa_offset 4
 1129              		@ sp needed
 1130 0464 5DF804FB 		ldr	pc, [sp], #4
 1131              		.cfi_endproc
 1132              	.LFE255:
 1133              		.size	chThdAddRef, .-chThdAddRef
 1134              		.align	2
 1135 0468 AFF30080 		.p2align 4,,15
 1135      AFF30080 
 1136              		.global	chThdRelease
 1137              		.thumb
 1138              		.thumb_func
 1139              		.type	chThdRelease, %function
 1140              	chThdRelease:
 1141              	.LFB256:
 1142              		.loc 9 425 0
 1143              		.cfi_startproc
 1144              		@ args = 0, pretend = 0, frame = 8
 1145              		@ frame_needed = 0, uses_anonymous_args = 0
 1146 0470 10B5     		push	{r4, lr}
 1147              		.cfi_def_cfa_offset 8
 1148              		.cfi_offset 4, -8
 1149              		.cfi_offset 14, -4
 1150 0472 82B0     		sub	sp, sp, #8
 1151              		.cfi_def_cfa_offset 16
 1152 0474 0190     		str	r0, [sp, #4]
 1153              		.loc 9 427 0
 1154 0476 FFF78BFE 		bl	chSysLock
 1155              		.loc 9 429 0
 1156 047a 019B     		ldr	r3, [sp, #4]
 1157 047c 93F82230 		ldrb	r3, [r3, #34]	@ zero_extendqisi2
 1158 0480 013B     		subs	r3, r3, #1
 1159 0482 DAB2     		uxtb	r2, r3
 1160 0484 019B     		ldr	r3, [sp, #4]
 1161 0486 83F82220 		strb	r2, [r3, #34]
 1162              		.loc 9 434 0
 1163 048a 019B     		ldr	r3, [sp, #4]
 1164 048c 93F82230 		ldrb	r3, [r3, #34]	@ zero_extendqisi2
 1165 0490 002B     		cmp	r3, #0
 1166 0492 2ED1     		bne	.L62
 1167              		.loc 9 434 0 is_stmt 0 discriminator 1
 1168 0494 019B     		ldr	r3, [sp, #4]
 1169 0496 93F82030 		ldrb	r3, [r3, #32]	@ zero_extendqisi2
 1170 049a 0F2B     		cmp	r3, #15
 1171 049c 29D1     		bne	.L62
 1172              		.loc 9 435 0 is_stmt 1
 1173 049e 019B     		ldr	r3, [sp, #4]
 1174 04a0 5B69     		ldr	r3, [r3, #20]
 1175 04a2 019A     		ldr	r2, [sp, #4]
 1176 04a4 1269     		ldr	r2, [r2, #16]
 1177 04a6 1A61     		str	r2, [r3, #16]
 1178 04a8 019B     		ldr	r3, [sp, #4]
ARM GAS  /tmp/cc49pbTF.s 			page 22


 1179 04aa 1B69     		ldr	r3, [r3, #16]
 1180 04ac 019A     		ldr	r2, [sp, #4]
 1181 04ae 5269     		ldr	r2, [r2, #20]
 1182 04b0 5A61     		str	r2, [r3, #20]
 1183              		.loc 9 436 0
 1184 04b2 FFF775FE 		bl	chSysUnlock
 1185              		.loc 9 439 0
 1186 04b6 019B     		ldr	r3, [sp, #4]
 1187 04b8 93F82130 		ldrb	r3, [r3, #33]	@ zero_extendqisi2
 1188 04bc 03F00303 		and	r3, r3, #3
 1189 04c0 012B     		cmp	r3, #1
 1190 04c2 02D0     		beq	.L64
 1191 04c4 022B     		cmp	r3, #2
 1192 04c6 08D0     		beq	.L65
 1193              		.loc 9 452 0
 1194 04c8 12E0     		b	.L66
 1195              	.L64:
 1196              		.loc 9 442 0
 1197 04ca 0198     		ldr	r0, [sp, #4]
 1198 04cc FFF798FE 		bl	chThdGetWorkingAreaX
 1199 04d0 0346     		mov	r3, r0
 1200 04d2 1846     		mov	r0, r3
 1201 04d4 FFF7FEFF 		bl	chHeapFree
 1202              		.loc 9 443 0
 1203 04d8 0AE0     		b	.L66
 1204              	.L65:
 1205              		.loc 9 447 0
 1206 04da 019B     		ldr	r3, [sp, #4]
 1207 04dc 1C6C     		ldr	r4, [r3, #64]
 1208 04de 0198     		ldr	r0, [sp, #4]
 1209 04e0 FFF78EFE 		bl	chThdGetWorkingAreaX
 1210 04e4 0346     		mov	r3, r0
 1211 04e6 2046     		mov	r0, r4
 1212 04e8 1946     		mov	r1, r3
 1213 04ea FFF7FEFF 		bl	chPoolFree
 1214              		.loc 9 448 0
 1215 04ee 00BF     		nop
 1216              	.L66:
 1217              		.loc 9 455 0 discriminator 1
 1218 04f0 01E0     		b	.L61
 1219              	.L62:
 1220              		.loc 9 457 0
 1221 04f2 FFF755FE 		bl	chSysUnlock
 1222              	.L61:
 1223              		.loc 9 458 0
 1224 04f6 02B0     		add	sp, sp, #8
 1225              		.cfi_def_cfa_offset 8
 1226              		@ sp needed
 1227 04f8 10BD     		pop	{r4, pc}
 1228              		.cfi_endproc
 1229              	.LFE256:
 1230              		.size	chThdRelease, .-chThdRelease
 1231 04fa 00BF     		.align	2
 1232 04fc AFF30080 		.p2align 4,,15
 1233              		.global	chThdExit
 1234              		.thumb
 1235              		.thumb_func
ARM GAS  /tmp/cc49pbTF.s 			page 23


 1236              		.type	chThdExit, %function
 1237              	chThdExit:
 1238              	.LFB257:
 1239              		.loc 9 475 0
 1240              		.cfi_startproc
 1241              		@ args = 0, pretend = 0, frame = 8
 1242              		@ frame_needed = 0, uses_anonymous_args = 0
 1243 0500 00B5     		push	{lr}
 1244              		.cfi_def_cfa_offset 4
 1245              		.cfi_offset 14, -4
 1246 0502 83B0     		sub	sp, sp, #12
 1247              		.cfi_def_cfa_offset 16
 1248 0504 0190     		str	r0, [sp, #4]
 1249              		.loc 9 477 0
 1250 0506 FFF743FE 		bl	chSysLock
 1251              		.loc 9 478 0
 1252 050a 0198     		ldr	r0, [sp, #4]
 1253 050c FFF7FEFF 		bl	chThdExitS
 1254              		.loc 9 480 0
 1255 0510 03B0     		add	sp, sp, #12
 1256              		.cfi_def_cfa_offset 4
 1257              		@ sp needed
 1258 0512 5DF804FB 		ldr	pc, [sp], #4
 1259              		.cfi_endproc
 1260              	.LFE257:
 1261              		.size	chThdExit, .-chThdExit
 1262 0516 00BF     		.align	2
 1263 0518 AFF30080 		.p2align 4,,15
 1263      AFF30080 
 1264              		.global	chThdExitS
 1265              		.thumb
 1266              		.thumb_func
 1267              		.type	chThdExitS, %function
 1268              	chThdExitS:
 1269              	.LFB258:
 1270              		.loc 9 499 0
 1271              		.cfi_startproc
 1272              		@ args = 0, pretend = 0, frame = 16
 1273              		@ frame_needed = 0, uses_anonymous_args = 0
 1274 0520 00B5     		push	{lr}
 1275              		.cfi_def_cfa_offset 4
 1276              		.cfi_offset 14, -4
 1277 0522 85B0     		sub	sp, sp, #20
 1278              		.cfi_def_cfa_offset 24
 1279 0524 0190     		str	r0, [sp, #4]
 1280              		.loc 9 500 0
 1281 0526 1A4B     		ldr	r3, .L73
 1282 0528 9B69     		ldr	r3, [r3, #24]
 1283 052a 0393     		str	r3, [sp, #12]
 1284              		.loc 9 503 0
 1285 052c 039B     		ldr	r3, [sp, #12]
 1286 052e 019A     		ldr	r2, [sp, #4]
 1287 0530 5A62     		str	r2, [r3, #36]
 1288              		.loc 9 510 0
 1289 0532 08E0     		b	.L70
 1290              	.L71:
 1291              		.loc 9 511 0
ARM GAS  /tmp/cc49pbTF.s 			page 24


 1292 0534 039B     		ldr	r3, [sp, #12]
 1293 0536 2833     		adds	r3, r3, #40
 1294 0538 1846     		mov	r0, r3
 1295 053a FFF7C9FD 		bl	list_remove
 1296 053e 0346     		mov	r3, r0
 1297 0540 1846     		mov	r0, r3
 1298 0542 FFF7FEFF 		bl	chSchReadyI
 1299              	.L70:
 1300              		.loc 9 510 0
 1301 0546 039B     		ldr	r3, [sp, #12]
 1302 0548 2833     		adds	r3, r3, #40
 1303 054a 1846     		mov	r0, r3
 1304 054c FFF780FD 		bl	list_notempty
 1305 0550 0346     		mov	r3, r0
 1306 0552 002B     		cmp	r3, #0
 1307 0554 EED1     		bne	.L71
 1308              		.loc 9 519 0
 1309 0556 039B     		ldr	r3, [sp, #12]
 1310 0558 93F82230 		ldrb	r3, [r3, #34]	@ zero_extendqisi2
 1311 055c 002B     		cmp	r3, #0
 1312 055e 10D1     		bne	.L72
 1313              		.loc 9 520 0 discriminator 1
 1314 0560 039B     		ldr	r3, [sp, #12]
 1315 0562 93F82130 		ldrb	r3, [r3, #33]	@ zero_extendqisi2
 1316 0566 03F00303 		and	r3, r3, #3
 1317              		.loc 9 519 0 discriminator 1
 1318 056a 002B     		cmp	r3, #0
 1319 056c 09D1     		bne	.L72
 1320              		.loc 9 521 0
 1321 056e 039B     		ldr	r3, [sp, #12]
 1322 0570 5B69     		ldr	r3, [r3, #20]
 1323 0572 039A     		ldr	r2, [sp, #12]
 1324 0574 1269     		ldr	r2, [r2, #16]
 1325 0576 1A61     		str	r2, [r3, #16]
 1326 0578 039B     		ldr	r3, [sp, #12]
 1327 057a 1B69     		ldr	r3, [r3, #16]
 1328 057c 039A     		ldr	r2, [sp, #12]
 1329 057e 5269     		ldr	r2, [r2, #20]
 1330 0580 5A61     		str	r2, [r3, #20]
 1331              	.L72:
 1332              		.loc 9 531 0
 1333 0582 0F20     		movs	r0, #15
 1334 0584 FFF7FEFF 		bl	chSchGoSleepS
 1335              		.loc 9 535 0
 1336 0588 05B0     		add	sp, sp, #20
 1337              		.cfi_def_cfa_offset 4
 1338              		@ sp needed
 1339 058a 5DF804FB 		ldr	pc, [sp], #4
 1340              	.L74:
 1341 058e 00BF     		.align	2
 1342              	.L73:
 1343 0590 00000000 		.word	ch
 1344              		.cfi_endproc
 1345              	.LFE258:
 1346              		.size	chThdExitS, .-chThdExitS
 1347              		.align	2
 1348 0594 AFF30080 		.p2align 4,,15
ARM GAS  /tmp/cc49pbTF.s 			page 25


 1348      AFF30080 
 1348      AFF30080 
 1349              		.global	chThdWait
 1350              		.thumb
 1351              		.thumb_func
 1352              		.type	chThdWait, %function
 1353              	chThdWait:
 1354              	.LFB259:
 1355              		.loc 9 557 0
 1356              		.cfi_startproc
 1357              		@ args = 0, pretend = 0, frame = 16
 1358              		@ frame_needed = 0, uses_anonymous_args = 0
 1359 05a0 00B5     		push	{lr}
 1360              		.cfi_def_cfa_offset 4
 1361              		.cfi_offset 14, -4
 1362 05a2 85B0     		sub	sp, sp, #20
 1363              		.cfi_def_cfa_offset 24
 1364 05a4 0190     		str	r0, [sp, #4]
 1365              		.loc 9 562 0
 1366 05a6 FFF7F3FD 		bl	chSysLock
 1367              		.loc 9 568 0
 1368 05aa 019B     		ldr	r3, [sp, #4]
 1369 05ac 93F82030 		ldrb	r3, [r3, #32]	@ zero_extendqisi2
 1370 05b0 0F2B     		cmp	r3, #15
 1371 05b2 0AD0     		beq	.L76
 1372              		.loc 9 569 0
 1373 05b4 0B4B     		ldr	r3, .L78
 1374 05b6 9A69     		ldr	r2, [r3, #24]
 1375 05b8 019B     		ldr	r3, [sp, #4]
 1376 05ba 2833     		adds	r3, r3, #40
 1377 05bc 1046     		mov	r0, r2
 1378 05be 1946     		mov	r1, r3
 1379 05c0 FFF776FD 		bl	list_insert
 1380              		.loc 9 570 0
 1381 05c4 0920     		movs	r0, #9
 1382 05c6 FFF7FEFF 		bl	chSchGoSleepS
 1383              	.L76:
 1384              		.loc 9 572 0
 1385 05ca 019B     		ldr	r3, [sp, #4]
 1386 05cc 5B6A     		ldr	r3, [r3, #36]
 1387 05ce 0393     		str	r3, [sp, #12]
 1388              		.loc 9 573 0
 1389 05d0 FFF7E6FD 		bl	chSysUnlock
 1390              		.loc 9 577 0
 1391 05d4 0198     		ldr	r0, [sp, #4]
 1392 05d6 FFF7FEFF 		bl	chThdRelease
 1393              		.loc 9 580 0
 1394 05da 039B     		ldr	r3, [sp, #12]
 1395              		.loc 9 581 0
 1396 05dc 1846     		mov	r0, r3
 1397 05de 05B0     		add	sp, sp, #20
 1398              		.cfi_def_cfa_offset 4
 1399              		@ sp needed
 1400 05e0 5DF804FB 		ldr	pc, [sp], #4
 1401              	.L79:
 1402              		.align	2
 1403              	.L78:
ARM GAS  /tmp/cc49pbTF.s 			page 26


 1404 05e4 00000000 		.word	ch
 1405              		.cfi_endproc
 1406              	.LFE259:
 1407              		.size	chThdWait, .-chThdWait
 1408              		.align	2
 1409 05e8 AFF30080 		.p2align 4,,15
 1409      AFF30080 
 1410              		.global	chThdSetPriority
 1411              		.thumb
 1412              		.thumb_func
 1413              		.type	chThdSetPriority, %function
 1414              	chThdSetPriority:
 1415              	.LFB260:
 1416              		.loc 9 596 0
 1417              		.cfi_startproc
 1418              		@ args = 0, pretend = 0, frame = 16
 1419              		@ frame_needed = 0, uses_anonymous_args = 0
 1420 05f0 00B5     		push	{lr}
 1421              		.cfi_def_cfa_offset 4
 1422              		.cfi_offset 14, -4
 1423 05f2 85B0     		sub	sp, sp, #20
 1424              		.cfi_def_cfa_offset 24
 1425 05f4 0190     		str	r0, [sp, #4]
 1426              		.loc 9 601 0
 1427 05f6 FFF7CBFD 		bl	chSysLock
 1428              		.loc 9 603 0
 1429 05fa 114B     		ldr	r3, .L84
 1430 05fc 9B69     		ldr	r3, [r3, #24]
 1431 05fe DB6B     		ldr	r3, [r3, #60]
 1432 0600 0393     		str	r3, [sp, #12]
 1433              		.loc 9 604 0
 1434 0602 0F4B     		ldr	r3, .L84
 1435 0604 9B69     		ldr	r3, [r3, #24]
 1436 0606 9A68     		ldr	r2, [r3, #8]
 1437 0608 0D4B     		ldr	r3, .L84
 1438 060a 9B69     		ldr	r3, [r3, #24]
 1439 060c DB6B     		ldr	r3, [r3, #60]
 1440 060e 9A42     		cmp	r2, r3
 1441 0610 05D0     		beq	.L81
 1442              		.loc 9 604 0 is_stmt 0 discriminator 1
 1443 0612 0B4B     		ldr	r3, .L84
 1444 0614 9B69     		ldr	r3, [r3, #24]
 1445 0616 9A68     		ldr	r2, [r3, #8]
 1446 0618 019B     		ldr	r3, [sp, #4]
 1447 061a 9A42     		cmp	r2, r3
 1448 061c 03D2     		bcs	.L82
 1449              	.L81:
 1450              		.loc 9 605 0 is_stmt 1
 1451 061e 084B     		ldr	r3, .L84
 1452 0620 9B69     		ldr	r3, [r3, #24]
 1453 0622 019A     		ldr	r2, [sp, #4]
 1454 0624 9A60     		str	r2, [r3, #8]
 1455              	.L82:
 1456              		.loc 9 607 0
 1457 0626 064B     		ldr	r3, .L84
 1458 0628 9B69     		ldr	r3, [r3, #24]
 1459 062a 019A     		ldr	r2, [sp, #4]
ARM GAS  /tmp/cc49pbTF.s 			page 27


 1460 062c DA63     		str	r2, [r3, #60]
 1461              		.loc 9 612 0
 1462 062e FFF7FEFF 		bl	chSchRescheduleS
 1463              		.loc 9 613 0
 1464 0632 FFF7B5FD 		bl	chSysUnlock
 1465              		.loc 9 615 0
 1466 0636 039B     		ldr	r3, [sp, #12]
 1467              		.loc 9 616 0
 1468 0638 1846     		mov	r0, r3
 1469 063a 05B0     		add	sp, sp, #20
 1470              		.cfi_def_cfa_offset 4
 1471              		@ sp needed
 1472 063c 5DF804FB 		ldr	pc, [sp], #4
 1473              	.L85:
 1474              		.align	2
 1475              	.L84:
 1476 0640 00000000 		.word	ch
 1477              		.cfi_endproc
 1478              	.LFE260:
 1479              		.size	chThdSetPriority, .-chThdSetPriority
 1480              		.align	2
 1481 0644 AFF30080 		.p2align 4,,15
 1481      AFF30080 
 1481      AFF30080 
 1482              		.global	chThdTerminate
 1483              		.thumb
 1484              		.thumb_func
 1485              		.type	chThdTerminate, %function
 1486              	chThdTerminate:
 1487              	.LFB261:
 1488              		.loc 9 630 0
 1489              		.cfi_startproc
 1490              		@ args = 0, pretend = 0, frame = 8
 1491              		@ frame_needed = 0, uses_anonymous_args = 0
 1492 0650 00B5     		push	{lr}
 1493              		.cfi_def_cfa_offset 4
 1494              		.cfi_offset 14, -4
 1495 0652 83B0     		sub	sp, sp, #12
 1496              		.cfi_def_cfa_offset 16
 1497 0654 0190     		str	r0, [sp, #4]
 1498              		.loc 9 632 0
 1499 0656 FFF79BFD 		bl	chSysLock
 1500              		.loc 9 633 0
 1501 065a 019B     		ldr	r3, [sp, #4]
 1502 065c 93F82130 		ldrb	r3, [r3, #33]	@ zero_extendqisi2
 1503 0660 43F00403 		orr	r3, r3, #4
 1504 0664 DAB2     		uxtb	r2, r3
 1505 0666 019B     		ldr	r3, [sp, #4]
 1506 0668 83F82120 		strb	r2, [r3, #33]
 1507              		.loc 9 634 0
 1508 066c FFF798FD 		bl	chSysUnlock
 1509              		.loc 9 635 0
 1510 0670 03B0     		add	sp, sp, #12
 1511              		.cfi_def_cfa_offset 4
 1512              		@ sp needed
 1513 0672 5DF804FB 		ldr	pc, [sp], #4
 1514              		.cfi_endproc
ARM GAS  /tmp/cc49pbTF.s 			page 28


 1515              	.LFE261:
 1516              		.size	chThdTerminate, .-chThdTerminate
 1517 0676 00BF     		.align	2
 1518 0678 AFF30080 		.p2align 4,,15
 1518      AFF30080 
 1519              		.global	chThdSleep
 1520              		.thumb
 1521              		.thumb_func
 1522              		.type	chThdSleep, %function
 1523              	chThdSleep:
 1524              	.LFB262:
 1525              		.loc 9 649 0
 1526              		.cfi_startproc
 1527              		@ args = 0, pretend = 0, frame = 8
 1528              		@ frame_needed = 0, uses_anonymous_args = 0
 1529 0680 00B5     		push	{lr}
 1530              		.cfi_def_cfa_offset 4
 1531              		.cfi_offset 14, -4
 1532 0682 83B0     		sub	sp, sp, #12
 1533              		.cfi_def_cfa_offset 16
 1534 0684 0190     		str	r0, [sp, #4]
 1535              		.loc 9 651 0
 1536 0686 FFF783FD 		bl	chSysLock
 1537              		.loc 9 652 0
 1538 068a 0198     		ldr	r0, [sp, #4]
 1539 068c FFF7C0FD 		bl	chThdSleepS
 1540              		.loc 9 653 0
 1541 0690 FFF786FD 		bl	chSysUnlock
 1542              		.loc 9 654 0
 1543 0694 03B0     		add	sp, sp, #12
 1544              		.cfi_def_cfa_offset 4
 1545              		@ sp needed
 1546 0696 5DF804FB 		ldr	pc, [sp], #4
 1547              		.cfi_endproc
 1548              	.LFE262:
 1549              		.size	chThdSleep, .-chThdSleep
 1550 069a 00BF     		.align	2
 1551 069c AFF30080 		.p2align 4,,15
 1552              		.global	chThdSleepUntil
 1553              		.thumb
 1554              		.thumb_func
 1555              		.type	chThdSleepUntil, %function
 1556              	chThdSleepUntil:
 1557              	.LFB263:
 1558              		.loc 9 669 0
 1559              		.cfi_startproc
 1560              		@ args = 0, pretend = 0, frame = 8
 1561              		@ frame_needed = 0, uses_anonymous_args = 0
 1562 06a0 00B5     		push	{lr}
 1563              		.cfi_def_cfa_offset 4
 1564              		.cfi_offset 14, -4
 1565 06a2 83B0     		sub	sp, sp, #12
 1566              		.cfi_def_cfa_offset 16
 1567 06a4 0190     		str	r0, [sp, #4]
 1568              		.loc 9 671 0
 1569 06a6 FFF773FD 		bl	chSysLock
 1570              		.loc 9 672 0
ARM GAS  /tmp/cc49pbTF.s 			page 29


 1571 06aa FFF781FD 		bl	chVTGetSystemTimeX
 1572 06ae 0246     		mov	r2, r0
 1573 06b0 019B     		ldr	r3, [sp, #4]
 1574 06b2 9B1A     		subs	r3, r3, r2
 1575 06b4 0193     		str	r3, [sp, #4]
 1576              		.loc 9 673 0
 1577 06b6 019B     		ldr	r3, [sp, #4]
 1578 06b8 002B     		cmp	r3, #0
 1579 06ba 02D0     		beq	.L89
 1580              		.loc 9 674 0
 1581 06bc 0198     		ldr	r0, [sp, #4]
 1582 06be FFF7A7FD 		bl	chThdSleepS
 1583              	.L89:
 1584              		.loc 9 676 0
 1585 06c2 FFF76DFD 		bl	chSysUnlock
 1586              		.loc 9 677 0
 1587 06c6 03B0     		add	sp, sp, #12
 1588              		.cfi_def_cfa_offset 4
 1589              		@ sp needed
 1590 06c8 5DF804FB 		ldr	pc, [sp], #4
 1591              		.cfi_endproc
 1592              	.LFE263:
 1593              		.size	chThdSleepUntil, .-chThdSleepUntil
 1594              		.align	2
 1595 06cc AFF30080 		.p2align 4,,15
 1596              		.global	chThdSleepUntilWindowed
 1597              		.thumb
 1598              		.thumb_func
 1599              		.type	chThdSleepUntilWindowed, %function
 1600              	chThdSleepUntilWindowed:
 1601              	.LFB264:
 1602              		.loc 9 693 0
 1603              		.cfi_startproc
 1604              		@ args = 0, pretend = 0, frame = 16
 1605              		@ frame_needed = 0, uses_anonymous_args = 0
 1606 06d0 00B5     		push	{lr}
 1607              		.cfi_def_cfa_offset 4
 1608              		.cfi_offset 14, -4
 1609 06d2 85B0     		sub	sp, sp, #20
 1610              		.cfi_def_cfa_offset 24
 1611 06d4 0190     		str	r0, [sp, #4]
 1612 06d6 0091     		str	r1, [sp]
 1613              		.loc 9 696 0
 1614 06d8 FFF75AFD 		bl	chSysLock
 1615              		.loc 9 697 0
 1616 06dc FFF768FD 		bl	chVTGetSystemTimeX
 1617 06e0 0390     		str	r0, [sp, #12]
 1618              		.loc 9 698 0
 1619 06e2 0398     		ldr	r0, [sp, #12]
 1620 06e4 0199     		ldr	r1, [sp, #4]
 1621 06e6 009A     		ldr	r2, [sp]
 1622 06e8 FFF76AFD 		bl	chVTIsTimeWithinX
 1623 06ec 0346     		mov	r3, r0
 1624 06ee 002B     		cmp	r3, #0
 1625 06f0 05D0     		beq	.L91
 1626              		.loc 9 699 0
 1627 06f2 009A     		ldr	r2, [sp]
ARM GAS  /tmp/cc49pbTF.s 			page 30


 1628 06f4 039B     		ldr	r3, [sp, #12]
 1629 06f6 D31A     		subs	r3, r2, r3
 1630 06f8 1846     		mov	r0, r3
 1631 06fa FFF789FD 		bl	chThdSleepS
 1632              	.L91:
 1633              		.loc 9 701 0
 1634 06fe FFF74FFD 		bl	chSysUnlock
 1635              		.loc 9 703 0
 1636 0702 009B     		ldr	r3, [sp]
 1637              		.loc 9 704 0
 1638 0704 1846     		mov	r0, r3
 1639 0706 05B0     		add	sp, sp, #20
 1640              		.cfi_def_cfa_offset 4
 1641              		@ sp needed
 1642 0708 5DF804FB 		ldr	pc, [sp], #4
 1643              		.cfi_endproc
 1644              	.LFE264:
 1645              		.size	chThdSleepUntilWindowed, .-chThdSleepUntilWindowed
 1646              		.align	2
 1647 070c AFF30080 		.p2align 4,,15
 1648              		.global	chThdYield
 1649              		.thumb
 1650              		.thumb_func
 1651              		.type	chThdYield, %function
 1652              	chThdYield:
 1653              	.LFB265:
 1654              		.loc 9 713 0
 1655              		.cfi_startproc
 1656              		@ args = 0, pretend = 0, frame = 0
 1657              		@ frame_needed = 0, uses_anonymous_args = 0
 1658 0710 08B5     		push	{r3, lr}
 1659              		.cfi_def_cfa_offset 8
 1660              		.cfi_offset 3, -8
 1661              		.cfi_offset 14, -4
 1662              		.loc 9 715 0
 1663 0712 FFF73DFD 		bl	chSysLock
 1664              		.loc 9 716 0
 1665 0716 FFF72BFD 		bl	chSchDoYieldS
 1666              		.loc 9 717 0
 1667 071a FFF741FD 		bl	chSysUnlock
 1668              		.loc 9 718 0
 1669 071e 08BD     		pop	{r3, pc}
 1670              		.cfi_endproc
 1671              	.LFE265:
 1672              		.size	chThdYield, .-chThdYield
 1673              		.align	2
 1674              		.p2align 4,,15
 1675              		.global	chThdSuspendS
 1676              		.thumb
 1677              		.thumb_func
 1678              		.type	chThdSuspendS, %function
 1679              	chThdSuspendS:
 1680              	.LFB266:
 1681              		.loc 9 730 0
 1682              		.cfi_startproc
 1683              		@ args = 0, pretend = 0, frame = 16
 1684              		@ frame_needed = 0, uses_anonymous_args = 0
ARM GAS  /tmp/cc49pbTF.s 			page 31


 1685 0720 00B5     		push	{lr}
 1686              		.cfi_def_cfa_offset 4
 1687              		.cfi_offset 14, -4
 1688 0722 85B0     		sub	sp, sp, #20
 1689              		.cfi_def_cfa_offset 24
 1690 0724 0190     		str	r0, [sp, #4]
 1691              		.loc 9 731 0
 1692 0726 FFF763FD 		bl	chThdGetSelfX
 1693 072a 0390     		str	r0, [sp, #12]
 1694              		.loc 9 735 0
 1695 072c 019B     		ldr	r3, [sp, #4]
 1696 072e 039A     		ldr	r2, [sp, #12]
 1697 0730 1A60     		str	r2, [r3]
 1698              		.loc 9 736 0
 1699 0732 039B     		ldr	r3, [sp, #12]
 1700 0734 019A     		ldr	r2, [sp, #4]
 1701 0736 5A62     		str	r2, [r3, #36]
 1702              		.loc 9 737 0
 1703 0738 0320     		movs	r0, #3
 1704 073a FFF7FEFF 		bl	chSchGoSleepS
 1705              		.loc 9 739 0
 1706 073e FFF757FD 		bl	chThdGetSelfX
 1707 0742 0346     		mov	r3, r0
 1708 0744 5B6A     		ldr	r3, [r3, #36]
 1709              		.loc 9 740 0
 1710 0746 1846     		mov	r0, r3
 1711 0748 05B0     		add	sp, sp, #20
 1712              		.cfi_def_cfa_offset 4
 1713              		@ sp needed
 1714 074a 5DF804FB 		ldr	pc, [sp], #4
 1715              		.cfi_endproc
 1716              	.LFE266:
 1717              		.size	chThdSuspendS, .-chThdSuspendS
 1718 074e 00BF     		.align	2
 1719              		.p2align 4,,15
 1720              		.global	chThdSuspendTimeoutS
 1721              		.thumb
 1722              		.thumb_func
 1723              		.type	chThdSuspendTimeoutS, %function
 1724              	chThdSuspendTimeoutS:
 1725              	.LFB267:
 1726              		.loc 9 761 0
 1727              		.cfi_startproc
 1728              		@ args = 0, pretend = 0, frame = 16
 1729              		@ frame_needed = 0, uses_anonymous_args = 0
 1730 0750 00B5     		push	{lr}
 1731              		.cfi_def_cfa_offset 4
 1732              		.cfi_offset 14, -4
 1733 0752 85B0     		sub	sp, sp, #20
 1734              		.cfi_def_cfa_offset 24
 1735 0754 0190     		str	r0, [sp, #4]
 1736 0756 0091     		str	r1, [sp]
 1737              		.loc 9 762 0
 1738 0758 FFF74AFD 		bl	chThdGetSelfX
 1739 075c 0390     		str	r0, [sp, #12]
 1740              		.loc 9 766 0
 1741 075e 009B     		ldr	r3, [sp]
ARM GAS  /tmp/cc49pbTF.s 			page 32


 1742 0760 002B     		cmp	r3, #0
 1743 0762 02D1     		bne	.L97
 1744              		.loc 9 767 0
 1745 0764 4FF0FF33 		mov	r3, #-1
 1746 0768 0AE0     		b	.L98
 1747              	.L97:
 1748              		.loc 9 770 0
 1749 076a 019B     		ldr	r3, [sp, #4]
 1750 076c 039A     		ldr	r2, [sp, #12]
 1751 076e 1A60     		str	r2, [r3]
 1752              		.loc 9 771 0
 1753 0770 039B     		ldr	r3, [sp, #12]
 1754 0772 019A     		ldr	r2, [sp, #4]
 1755 0774 5A62     		str	r2, [r3, #36]
 1756              		.loc 9 773 0
 1757 0776 0320     		movs	r0, #3
 1758 0778 0099     		ldr	r1, [sp]
 1759 077a FFF7FEFF 		bl	chSchGoSleepTimeoutS
 1760 077e 0346     		mov	r3, r0
 1761              	.L98:
 1762              		.loc 9 774 0
 1763 0780 1846     		mov	r0, r3
 1764 0782 05B0     		add	sp, sp, #20
 1765              		.cfi_def_cfa_offset 4
 1766              		@ sp needed
 1767 0784 5DF804FB 		ldr	pc, [sp], #4
 1768              		.cfi_endproc
 1769              	.LFE267:
 1770              		.size	chThdSuspendTimeoutS, .-chThdSuspendTimeoutS
 1771              		.align	2
 1772 0788 AFF30080 		.p2align 4,,15
 1772      AFF30080 
 1773              		.global	chThdResumeI
 1774              		.thumb
 1775              		.thumb_func
 1776              		.type	chThdResumeI, %function
 1777              	chThdResumeI:
 1778              	.LFB268:
 1779              		.loc 9 786 0
 1780              		.cfi_startproc
 1781              		@ args = 0, pretend = 0, frame = 16
 1782              		@ frame_needed = 0, uses_anonymous_args = 0
 1783 0790 00B5     		push	{lr}
 1784              		.cfi_def_cfa_offset 4
 1785              		.cfi_offset 14, -4
 1786 0792 85B0     		sub	sp, sp, #20
 1787              		.cfi_def_cfa_offset 24
 1788 0794 0190     		str	r0, [sp, #4]
 1789 0796 0091     		str	r1, [sp]
 1790              		.loc 9 788 0
 1791 0798 019B     		ldr	r3, [sp, #4]
 1792 079a 1B68     		ldr	r3, [r3]
 1793 079c 002B     		cmp	r3, #0
 1794 079e 0BD0     		beq	.L99
 1795              	.LBB10:
 1796              		.loc 9 789 0
 1797 07a0 019B     		ldr	r3, [sp, #4]
ARM GAS  /tmp/cc49pbTF.s 			page 33


 1798 07a2 1B68     		ldr	r3, [r3]
 1799 07a4 0393     		str	r3, [sp, #12]
 1800              		.loc 9 793 0
 1801 07a6 019B     		ldr	r3, [sp, #4]
 1802 07a8 0022     		movs	r2, #0
 1803 07aa 1A60     		str	r2, [r3]
 1804              		.loc 9 794 0
 1805 07ac 039B     		ldr	r3, [sp, #12]
 1806 07ae 009A     		ldr	r2, [sp]
 1807 07b0 5A62     		str	r2, [r3, #36]
 1808              		.loc 9 795 0
 1809 07b2 0398     		ldr	r0, [sp, #12]
 1810 07b4 FFF7FEFF 		bl	chSchReadyI
 1811              	.L99:
 1812              	.LBE10:
 1813              		.loc 9 797 0
 1814 07b8 05B0     		add	sp, sp, #20
 1815              		.cfi_def_cfa_offset 4
 1816              		@ sp needed
 1817 07ba 5DF804FB 		ldr	pc, [sp], #4
 1818              		.cfi_endproc
 1819              	.LFE268:
 1820              		.size	chThdResumeI, .-chThdResumeI
 1821 07be 00BF     		.align	2
 1822              		.p2align 4,,15
 1823              		.global	chThdResumeS
 1824              		.thumb
 1825              		.thumb_func
 1826              		.type	chThdResumeS, %function
 1827              	chThdResumeS:
 1828              	.LFB269:
 1829              		.loc 9 809 0
 1830              		.cfi_startproc
 1831              		@ args = 0, pretend = 0, frame = 16
 1832              		@ frame_needed = 0, uses_anonymous_args = 0
 1833 07c0 00B5     		push	{lr}
 1834              		.cfi_def_cfa_offset 4
 1835              		.cfi_offset 14, -4
 1836 07c2 85B0     		sub	sp, sp, #20
 1837              		.cfi_def_cfa_offset 24
 1838 07c4 0190     		str	r0, [sp, #4]
 1839 07c6 0091     		str	r1, [sp]
 1840              		.loc 9 811 0
 1841 07c8 019B     		ldr	r3, [sp, #4]
 1842 07ca 1B68     		ldr	r3, [r3]
 1843 07cc 002B     		cmp	r3, #0
 1844 07ce 09D0     		beq	.L101
 1845              	.LBB11:
 1846              		.loc 9 812 0
 1847 07d0 019B     		ldr	r3, [sp, #4]
 1848 07d2 1B68     		ldr	r3, [r3]
 1849 07d4 0393     		str	r3, [sp, #12]
 1850              		.loc 9 816 0
 1851 07d6 019B     		ldr	r3, [sp, #4]
 1852 07d8 0022     		movs	r2, #0
 1853 07da 1A60     		str	r2, [r3]
 1854              		.loc 9 817 0
ARM GAS  /tmp/cc49pbTF.s 			page 34


 1855 07dc 0398     		ldr	r0, [sp, #12]
 1856 07de 0099     		ldr	r1, [sp]
 1857 07e0 FFF7FEFF 		bl	chSchWakeupS
 1858              	.L101:
 1859              	.LBE11:
 1860              		.loc 9 819 0
 1861 07e4 05B0     		add	sp, sp, #20
 1862              		.cfi_def_cfa_offset 4
 1863              		@ sp needed
 1864 07e6 5DF804FB 		ldr	pc, [sp], #4
 1865              		.cfi_endproc
 1866              	.LFE269:
 1867              		.size	chThdResumeS, .-chThdResumeS
 1868 07ea 00BF     		.align	2
 1869 07ec AFF30080 		.p2align 4,,15
 1870              		.global	chThdResume
 1871              		.thumb
 1872              		.thumb_func
 1873              		.type	chThdResume, %function
 1874              	chThdResume:
 1875              	.LFB270:
 1876              		.loc 9 831 0
 1877              		.cfi_startproc
 1878              		@ args = 0, pretend = 0, frame = 8
 1879              		@ frame_needed = 0, uses_anonymous_args = 0
 1880 07f0 00B5     		push	{lr}
 1881              		.cfi_def_cfa_offset 4
 1882              		.cfi_offset 14, -4
 1883 07f2 83B0     		sub	sp, sp, #12
 1884              		.cfi_def_cfa_offset 16
 1885 07f4 0190     		str	r0, [sp, #4]
 1886 07f6 0091     		str	r1, [sp]
 1887              		.loc 9 833 0
 1888 07f8 FFF7CAFC 		bl	chSysLock
 1889              		.loc 9 834 0
 1890 07fc 0198     		ldr	r0, [sp, #4]
 1891 07fe 0099     		ldr	r1, [sp]
 1892 0800 FFF7FEFF 		bl	chThdResumeS
 1893              		.loc 9 835 0
 1894 0804 FFF7CCFC 		bl	chSysUnlock
 1895              		.loc 9 836 0
 1896 0808 03B0     		add	sp, sp, #12
 1897              		.cfi_def_cfa_offset 4
 1898              		@ sp needed
 1899 080a 5DF804FB 		ldr	pc, [sp], #4
 1900              		.cfi_endproc
 1901              	.LFE270:
 1902              		.size	chThdResume, .-chThdResume
 1903 080e 00BF     		.align	2
 1904              		.p2align 4,,15
 1905              		.global	chThdEnqueueTimeoutS
 1906              		.thumb
 1907              		.thumb_func
 1908              		.type	chThdEnqueueTimeoutS, %function
 1909              	chThdEnqueueTimeoutS:
 1910              	.LFB271:
 1911              		.loc 9 861 0
ARM GAS  /tmp/cc49pbTF.s 			page 35


 1912              		.cfi_startproc
 1913              		@ args = 0, pretend = 0, frame = 8
 1914              		@ frame_needed = 0, uses_anonymous_args = 0
 1915 0810 00B5     		push	{lr}
 1916              		.cfi_def_cfa_offset 4
 1917              		.cfi_offset 14, -4
 1918 0812 83B0     		sub	sp, sp, #12
 1919              		.cfi_def_cfa_offset 16
 1920 0814 0190     		str	r0, [sp, #4]
 1921 0816 0091     		str	r1, [sp]
 1922              		.loc 9 863 0
 1923 0818 009B     		ldr	r3, [sp]
 1924 081a 002B     		cmp	r3, #0
 1925 081c 02D1     		bne	.L105
 1926              		.loc 9 864 0
 1927 081e 4FF0FF33 		mov	r3, #-1
 1928 0822 0AE0     		b	.L106
 1929              	.L105:
 1930              		.loc 9 867 0
 1931 0824 074B     		ldr	r3, .L107
 1932 0826 9B69     		ldr	r3, [r3, #24]
 1933 0828 1846     		mov	r0, r3
 1934 082a 0199     		ldr	r1, [sp, #4]
 1935 082c FFF760FC 		bl	queue_insert
 1936              		.loc 9 869 0
 1937 0830 0420     		movs	r0, #4
 1938 0832 0099     		ldr	r1, [sp]
 1939 0834 FFF7FEFF 		bl	chSchGoSleepTimeoutS
 1940 0838 0346     		mov	r3, r0
 1941              	.L106:
 1942              		.loc 9 870 0
 1943 083a 1846     		mov	r0, r3
 1944 083c 03B0     		add	sp, sp, #12
 1945              		.cfi_def_cfa_offset 4
 1946              		@ sp needed
 1947 083e 5DF804FB 		ldr	pc, [sp], #4
 1948              	.L108:
 1949 0842 00BF     		.align	2
 1950              	.L107:
 1951 0844 00000000 		.word	ch
 1952              		.cfi_endproc
 1953              	.LFE271:
 1954              		.size	chThdEnqueueTimeoutS, .-chThdEnqueueTimeoutS
 1955              		.align	2
 1956 0848 AFF30080 		.p2align 4,,15
 1956      AFF30080 
 1957              		.global	chThdDequeueNextI
 1958              		.thumb
 1959              		.thumb_func
 1960              		.type	chThdDequeueNextI, %function
 1961              	chThdDequeueNextI:
 1962              	.LFB272:
 1963              		.loc 9 881 0
 1964              		.cfi_startproc
 1965              		@ args = 0, pretend = 0, frame = 8
 1966              		@ frame_needed = 0, uses_anonymous_args = 0
 1967 0850 00B5     		push	{lr}
ARM GAS  /tmp/cc49pbTF.s 			page 36


 1968              		.cfi_def_cfa_offset 4
 1969              		.cfi_offset 14, -4
 1970 0852 83B0     		sub	sp, sp, #12
 1971              		.cfi_def_cfa_offset 16
 1972 0854 0190     		str	r0, [sp, #4]
 1973 0856 0091     		str	r1, [sp]
 1974              		.loc 9 883 0
 1975 0858 0198     		ldr	r0, [sp, #4]
 1976 085a FFF719FC 		bl	queue_notempty
 1977 085e 0346     		mov	r3, r0
 1978 0860 002B     		cmp	r3, #0
 1979 0862 03D0     		beq	.L109
 1980              		.loc 9 884 0
 1981 0864 0198     		ldr	r0, [sp, #4]
 1982 0866 0099     		ldr	r1, [sp]
 1983 0868 FFF7E2FC 		bl	chThdDoDequeueNextI
 1984              	.L109:
 1985              		.loc 9 886 0
 1986 086c 03B0     		add	sp, sp, #12
 1987              		.cfi_def_cfa_offset 4
 1988              		@ sp needed
 1989 086e 5DF804FB 		ldr	pc, [sp], #4
 1990              		.cfi_endproc
 1991              	.LFE272:
 1992              		.size	chThdDequeueNextI, .-chThdDequeueNextI
 1993 0872 00BF     		.align	2
 1994 0874 AFF30080 		.p2align 4,,15
 1994      AFF30080 
 1994      AFF30080 
 1995              		.global	chThdDequeueAllI
 1996              		.thumb
 1997              		.thumb_func
 1998              		.type	chThdDequeueAllI, %function
 1999              	chThdDequeueAllI:
 2000              	.LFB273:
 2001              		.loc 9 896 0
 2002              		.cfi_startproc
 2003              		@ args = 0, pretend = 0, frame = 8
 2004              		@ frame_needed = 0, uses_anonymous_args = 0
 2005 0880 00B5     		push	{lr}
 2006              		.cfi_def_cfa_offset 4
 2007              		.cfi_offset 14, -4
 2008 0882 83B0     		sub	sp, sp, #12
 2009              		.cfi_def_cfa_offset 16
 2010 0884 0190     		str	r0, [sp, #4]
 2011 0886 0091     		str	r1, [sp]
 2012              		.loc 9 898 0
 2013 0888 03E0     		b	.L112
 2014              	.L113:
 2015              		.loc 9 899 0
 2016 088a 0198     		ldr	r0, [sp, #4]
 2017 088c 0099     		ldr	r1, [sp]
 2018 088e FFF7CFFC 		bl	chThdDoDequeueNextI
 2019              	.L112:
 2020              		.loc 9 898 0
 2021 0892 0198     		ldr	r0, [sp, #4]
 2022 0894 FFF7FCFB 		bl	queue_notempty
ARM GAS  /tmp/cc49pbTF.s 			page 37


 2023 0898 0346     		mov	r3, r0
 2024 089a 002B     		cmp	r3, #0
 2025 089c F5D1     		bne	.L113
 2026              		.loc 9 901 0
 2027 089e 03B0     		add	sp, sp, #12
 2028              		.cfi_def_cfa_offset 4
 2029              		@ sp needed
 2030 08a0 5DF804FB 		ldr	pc, [sp], #4
 2031              		.cfi_endproc
 2032              	.LFE273:
 2033              		.size	chThdDequeueAllI, .-chThdDequeueAllI
 2034              	.Letext0:
 2035              		.file 10 "/usr/lib/gcc/arm-none-eabi/4.9.3/include/stddef.h"
 2036              		.file 11 "/usr/include/newlib/machine/_default_types.h"
 2037              		.file 12 "/usr/include/newlib/sys/_stdint.h"
 2038              		.file 13 "../../../os/common/ports/ARMCMx/compilers/GCC/chtypes.h"
 2039              		.file 14 "../../../os/rt/include/chsystypes.h"
 2040              		.file 15 "../../../os/common/ports/ARMCMx/chcore.h"
 2041              		.file 16 "../../../os/hal/ports/STM32/LLD/TIMv1/stm32_tim.h"
 2042              		.file 17 "../../../os/rt/include/chtm.h"
 2043              		.file 18 "../../../os/rt/include/chsem.h"
 2044              		.file 19 "../../../os/rt/include/chmtx.h"
 2045              		.file 20 "../../../os/common/ext/CMSIS/include/core_cm4.h"