ARM GAS  /tmp/ccABWD4d.s 			page 1


   1              		.syntax unified
   2              		.cpu cortex-m4
   3              		.fpu softvfp
   4              		.eabi_attribute 20, 1
   5              		.eabi_attribute 21, 1
   6              		.eabi_attribute 23, 3
   7              		.eabi_attribute 24, 1
   8              		.eabi_attribute 25, 1
   9              		.eabi_attribute 26, 1
  10              		.eabi_attribute 30, 6
  11              		.eabi_attribute 34, 1
  12              		.eabi_attribute 18, 4
  13              		.thumb
  14              		.file	"chtm.c"
  15              		.text
  16              	.Ltext0:
  17              		.cfi_sections	.debug_frame
  18              		.align	2
  19              		.p2align 4,,15
  20              		.thumb
  21              		.thumb_func
  22              		.type	port_rt_get_counter_value, %function
  23              	port_rt_get_counter_value:
  24              	.LFB135:
  25              		.file 1 "../../../os/common/ports/ARMCMx/chcore_v7m.h"
  26              		.loc 1 706 0
  27              		.cfi_startproc
  28              		@ args = 0, pretend = 0, frame = 0
  29              		@ frame_needed = 0, uses_anonymous_args = 0
  30              		@ link register save eliminated.
  31              		.loc 1 708 0
  32 0000 014B     		ldr	r3, .L3
  33 0002 5B68     		ldr	r3, [r3, #4]
  34              		.loc 1 709 0
  35 0004 1846     		mov	r0, r3
  36 0006 7047     		bx	lr
  37              	.L4:
  38              		.align	2
  39              	.L3:
  40 0008 001000E0 		.word	-536866816
  41              		.cfi_endproc
  42              	.LFE135:
  43              		.size	port_rt_get_counter_value, .-port_rt_get_counter_value
  44              		.align	2
  45 000c AFF30080 		.p2align 4,,15
  46              		.thumb
  47              		.thumb_func
  48              		.type	tm_stop, %function
  49              	tm_stop:
  50              	.LFB248:
  51              		.file 2 "../../../os/rt/src/chtm.c"
  52              		.loc 2 55 0
  53              		.cfi_startproc
  54              		@ args = 0, pretend = 0, frame = 16
  55              		@ frame_needed = 0, uses_anonymous_args = 0
  56              		@ link register save eliminated.
  57 0010 84B0     		sub	sp, sp, #16
ARM GAS  /tmp/ccABWD4d.s 			page 2


  58              		.cfi_def_cfa_offset 16
  59 0012 0390     		str	r0, [sp, #12]
  60 0014 0291     		str	r1, [sp, #8]
  61 0016 0192     		str	r2, [sp, #4]
  62              		.loc 2 57 0
  63 0018 039B     		ldr	r3, [sp, #12]
  64 001a DB68     		ldr	r3, [r3, #12]
  65 001c 5A1C     		adds	r2, r3, #1
  66 001e 039B     		ldr	r3, [sp, #12]
  67 0020 DA60     		str	r2, [r3, #12]
  68              		.loc 2 58 0
  69 0022 039B     		ldr	r3, [sp, #12]
  70 0024 9B68     		ldr	r3, [r3, #8]
  71 0026 029A     		ldr	r2, [sp, #8]
  72 0028 D21A     		subs	r2, r2, r3
  73 002a 019B     		ldr	r3, [sp, #4]
  74 002c D21A     		subs	r2, r2, r3
  75 002e 039B     		ldr	r3, [sp, #12]
  76 0030 9A60     		str	r2, [r3, #8]
  77              		.loc 2 59 0
  78 0032 039B     		ldr	r3, [sp, #12]
  79 0034 D3E90401 		ldrd	r0, [r3, #16]
  80 0038 039B     		ldr	r3, [sp, #12]
  81 003a 9B68     		ldr	r3, [r3, #8]
  82 003c 1A46     		mov	r2, r3
  83 003e 4FF00003 		mov	r3, #0
  84 0042 1218     		adds	r2, r2, r0
  85 0044 43EB0103 		adc	r3, r3, r1
  86 0048 0399     		ldr	r1, [sp, #12]
  87 004a C1E90423 		strd	r2, [r1, #16]
  88              		.loc 2 60 0
  89 004e 039B     		ldr	r3, [sp, #12]
  90 0050 9A68     		ldr	r2, [r3, #8]
  91 0052 039B     		ldr	r3, [sp, #12]
  92 0054 5B68     		ldr	r3, [r3, #4]
  93 0056 9A42     		cmp	r2, r3
  94 0058 03D9     		bls	.L6
  95              		.loc 2 61 0
  96 005a 039B     		ldr	r3, [sp, #12]
  97 005c 9A68     		ldr	r2, [r3, #8]
  98 005e 039B     		ldr	r3, [sp, #12]
  99 0060 5A60     		str	r2, [r3, #4]
 100              	.L6:
 101              		.loc 2 63 0
 102 0062 039B     		ldr	r3, [sp, #12]
 103 0064 9A68     		ldr	r2, [r3, #8]
 104 0066 039B     		ldr	r3, [sp, #12]
 105 0068 1B68     		ldr	r3, [r3]
 106 006a 9A42     		cmp	r2, r3
 107 006c 03D2     		bcs	.L5
 108              		.loc 2 64 0
 109 006e 039B     		ldr	r3, [sp, #12]
 110 0070 9A68     		ldr	r2, [r3, #8]
 111 0072 039B     		ldr	r3, [sp, #12]
 112 0074 1A60     		str	r2, [r3]
 113              	.L5:
 114              		.loc 2 66 0
ARM GAS  /tmp/ccABWD4d.s 			page 3


 115 0076 04B0     		add	sp, sp, #16
 116              		.cfi_def_cfa_offset 0
 117              		@ sp needed
 118 0078 7047     		bx	lr
 119              		.cfi_endproc
 120              	.LFE248:
 121              		.size	tm_stop, .-tm_stop
 122 007a 00BF     		.align	2
 123 007c AFF30080 		.p2align 4,,15
 124              		.global	_tm_init
 125              		.thumb
 126              		.thumb_func
 127              		.type	_tm_init, %function
 128              	_tm_init:
 129              	.LFB249:
 130              		.loc 2 77 0
 131              		.cfi_startproc
 132              		@ args = 0, pretend = 0, frame = 24
 133              		@ frame_needed = 0, uses_anonymous_args = 0
 134 0080 00B5     		push	{lr}
 135              		.cfi_def_cfa_offset 4
 136              		.cfi_offset 14, -4
 137 0082 87B0     		sub	sp, sp, #28
 138              		.cfi_def_cfa_offset 32
 139              		.loc 2 83 0
 140 0084 0A4B     		ldr	r3, .L9
 141 0086 0022     		movs	r2, #0
 142 0088 5A67     		str	r2, [r3, #116]
 143              		.loc 2 84 0
 144 008a 6B46     		mov	r3, sp
 145 008c 1846     		mov	r0, r3
 146 008e FFF7FEFF 		bl	chTMObjectInit
 147              		.loc 2 85 0
 148 0092 6B46     		mov	r3, sp
 149 0094 1846     		mov	r0, r3
 150 0096 FFF7FEFF 		bl	chTMStartMeasurementX
 151              		.loc 2 86 0
 152 009a 6B46     		mov	r3, sp
 153 009c 1846     		mov	r0, r3
 154 009e FFF7FEFF 		bl	chTMStopMeasurementX
 155              		.loc 2 87 0
 156 00a2 029B     		ldr	r3, [sp, #8]
 157 00a4 024A     		ldr	r2, .L9
 158 00a6 5367     		str	r3, [r2, #116]
 159              		.loc 2 88 0
 160 00a8 07B0     		add	sp, sp, #28
 161              		.cfi_def_cfa_offset 4
 162              		@ sp needed
 163 00aa 5DF804FB 		ldr	pc, [sp], #4
 164              	.L10:
 165 00ae 00BF     		.align	2
 166              	.L9:
 167 00b0 00000000 		.word	ch
 168              		.cfi_endproc
 169              	.LFE249:
 170              		.size	_tm_init, .-_tm_init
 171              		.align	2
ARM GAS  /tmp/ccABWD4d.s 			page 4


 172 00b4 AFF30080 		.p2align 4,,15
 172      AFF30080 
 172      AFF30080 
 173              		.global	chTMObjectInit
 174              		.thumb
 175              		.thumb_func
 176              		.type	chTMObjectInit, %function
 177              	chTMObjectInit:
 178              	.LFB250:
 179              		.loc 2 97 0
 180              		.cfi_startproc
 181              		@ args = 0, pretend = 0, frame = 8
 182              		@ frame_needed = 0, uses_anonymous_args = 0
 183              		@ link register save eliminated.
 184 00c0 82B0     		sub	sp, sp, #8
 185              		.cfi_def_cfa_offset 8
 186 00c2 0190     		str	r0, [sp, #4]
 187              		.loc 2 99 0
 188 00c4 019B     		ldr	r3, [sp, #4]
 189 00c6 4FF0FF32 		mov	r2, #-1
 190 00ca 1A60     		str	r2, [r3]
 191              		.loc 2 100 0
 192 00cc 019B     		ldr	r3, [sp, #4]
 193 00ce 0022     		movs	r2, #0
 194 00d0 5A60     		str	r2, [r3, #4]
 195              		.loc 2 101 0
 196 00d2 019B     		ldr	r3, [sp, #4]
 197 00d4 0022     		movs	r2, #0
 198 00d6 9A60     		str	r2, [r3, #8]
 199              		.loc 2 102 0
 200 00d8 019B     		ldr	r3, [sp, #4]
 201 00da 0022     		movs	r2, #0
 202 00dc DA60     		str	r2, [r3, #12]
 203              		.loc 2 103 0
 204 00de 0199     		ldr	r1, [sp, #4]
 205 00e0 4FF00002 		mov	r2, #0
 206 00e4 4FF00003 		mov	r3, #0
 207 00e8 C1E90423 		strd	r2, [r1, #16]
 208              		.loc 2 104 0
 209 00ec 02B0     		add	sp, sp, #8
 210              		.cfi_def_cfa_offset 0
 211              		@ sp needed
 212 00ee 7047     		bx	lr
 213              		.cfi_endproc
 214              	.LFE250:
 215              		.size	chTMObjectInit, .-chTMObjectInit
 216              		.align	2
 217              		.p2align 4,,15
 218              		.global	chTMStartMeasurementX
 219              		.thumb
 220              		.thumb_func
 221              		.type	chTMStartMeasurementX, %function
 222              	chTMStartMeasurementX:
 223              	.LFB251:
 224              		.loc 2 114 0
 225              		.cfi_startproc
 226              		@ args = 0, pretend = 0, frame = 8
ARM GAS  /tmp/ccABWD4d.s 			page 5


 227              		@ frame_needed = 0, uses_anonymous_args = 0
 228 00f0 00B5     		push	{lr}
 229              		.cfi_def_cfa_offset 4
 230              		.cfi_offset 14, -4
 231 00f2 83B0     		sub	sp, sp, #12
 232              		.cfi_def_cfa_offset 16
 233 00f4 0190     		str	r0, [sp, #4]
 234              		.loc 2 116 0
 235 00f6 FFF783FF 		bl	port_rt_get_counter_value
 236 00fa 0246     		mov	r2, r0
 237 00fc 019B     		ldr	r3, [sp, #4]
 238 00fe 9A60     		str	r2, [r3, #8]
 239              		.loc 2 117 0
 240 0100 03B0     		add	sp, sp, #12
 241              		.cfi_def_cfa_offset 4
 242              		@ sp needed
 243 0102 5DF804FB 		ldr	pc, [sp], #4
 244              		.cfi_endproc
 245              	.LFE251:
 246              		.size	chTMStartMeasurementX, .-chTMStartMeasurementX
 247 0106 00BF     		.align	2
 248 0108 AFF30080 		.p2align 4,,15
 248      AFF30080 
 249              		.global	chTMStopMeasurementX
 250              		.thumb
 251              		.thumb_func
 252              		.type	chTMStopMeasurementX, %function
 253              	chTMStopMeasurementX:
 254              	.LFB252:
 255              		.loc 2 127 0
 256              		.cfi_startproc
 257              		@ args = 0, pretend = 0, frame = 8
 258              		@ frame_needed = 0, uses_anonymous_args = 0
 259 0110 00B5     		push	{lr}
 260              		.cfi_def_cfa_offset 4
 261              		.cfi_offset 14, -4
 262 0112 83B0     		sub	sp, sp, #12
 263              		.cfi_def_cfa_offset 16
 264 0114 0190     		str	r0, [sp, #4]
 265              		.loc 2 129 0
 266 0116 FFF773FF 		bl	port_rt_get_counter_value
 267 011a 0246     		mov	r2, r0
 268 011c 044B     		ldr	r3, .L14
 269 011e 5B6F     		ldr	r3, [r3, #116]
 270 0120 0198     		ldr	r0, [sp, #4]
 271 0122 1146     		mov	r1, r2
 272 0124 1A46     		mov	r2, r3
 273 0126 FFF773FF 		bl	tm_stop
 274              		.loc 2 130 0
 275 012a 03B0     		add	sp, sp, #12
 276              		.cfi_def_cfa_offset 4
 277              		@ sp needed
 278 012c 5DF804FB 		ldr	pc, [sp], #4
 279              	.L15:
 280              		.align	2
 281              	.L14:
 282 0130 00000000 		.word	ch
ARM GAS  /tmp/ccABWD4d.s 			page 6


 283              		.cfi_endproc
 284              	.LFE252:
 285              		.size	chTMStopMeasurementX, .-chTMStopMeasurementX
 286              		.align	2
 287 0134 AFF30080 		.p2align 4,,15
 287      AFF30080 
 287      AFF30080 
 288              		.global	chTMChainMeasurementToX
 289              		.thumb
 290              		.thumb_func
 291              		.type	chTMChainMeasurementToX, %function
 292              	chTMChainMeasurementToX:
 293              	.LFB253:
 294              		.loc 2 145 0
 295              		.cfi_startproc
 296              		@ args = 0, pretend = 0, frame = 8
 297              		@ frame_needed = 0, uses_anonymous_args = 0
 298 0140 00B5     		push	{lr}
 299              		.cfi_def_cfa_offset 4
 300              		.cfi_offset 14, -4
 301 0142 83B0     		sub	sp, sp, #12
 302              		.cfi_def_cfa_offset 16
 303 0144 0190     		str	r0, [sp, #4]
 304 0146 0091     		str	r1, [sp]
 305              		.loc 2 148 0
 306 0148 FFF75AFF 		bl	port_rt_get_counter_value
 307 014c 0246     		mov	r2, r0
 308 014e 009B     		ldr	r3, [sp]
 309 0150 9A60     		str	r2, [r3, #8]
 310              		.loc 2 151 0
 311 0152 009B     		ldr	r3, [sp]
 312 0154 9B68     		ldr	r3, [r3, #8]
 313 0156 0198     		ldr	r0, [sp, #4]
 314 0158 1946     		mov	r1, r3
 315 015a 0022     		movs	r2, #0
 316 015c FFF758FF 		bl	tm_stop
 317              		.loc 2 152 0
 318 0160 03B0     		add	sp, sp, #12
 319              		.cfi_def_cfa_offset 4
 320              		@ sp needed
 321 0162 5DF804FB 		ldr	pc, [sp], #4
 322              		.cfi_endproc
 323              	.LFE253:
 324              		.size	chTMChainMeasurementToX, .-chTMChainMeasurementToX
 325              	.Letext0:
 326              		.file 3 "/usr/include/newlib/machine/_default_types.h"
 327              		.file 4 "/usr/include/newlib/sys/_stdint.h"
 328              		.file 5 "../../../os/common/ports/ARMCMx/compilers/GCC/chtypes.h"
 329              		.file 6 "../../../os/rt/include/chsystypes.h"
 330              		.file 7 "../../../os/rt/include/chschd.h"
 331              		.file 8 "../../../os/common/ext/CMSIS/include/core_cm4.h"
 332              		.file 9 "../../../os/common/ports/ARMCMx/chcore.h"
 333              		.file 10 "../../../os/rt/include/chtm.h"
 334              		.file 11 "../../../os/rt/include/chsem.h"
 335              		.file 12 "../../../os/rt/include/chmtx.h"