ARM GAS  /tmp/cc3MZpdY.s 			page 1


   1              		.syntax unified
   2              		.cpu cortex-m4
   3              		.fpu softvfp
   4              		.eabi_attribute 20, 1
   5              		.eabi_attribute 21, 1
   6              		.eabi_attribute 23, 3
   7              		.eabi_attribute 24, 1
   8              		.eabi_attribute 25, 1
   9              		.eabi_attribute 26, 1
  10              		.eabi_attribute 30, 6
  11              		.eabi_attribute 34, 1
  12              		.eabi_attribute 18, 4
  13              		.thumb
  14              		.file	"hal_queues.c"
  15              		.text
  16              	.Ltext0:
  17              		.cfi_sections	.debug_frame
  18              		.align	2
  19              		.p2align 4,,15
  20              		.thumb
  21              		.thumb_func
  22              		.type	port_lock, %function
  23              	port_lock:
  24              	.LFB127:
  25              		.file 1 "../../../os/common/ports/ARMCMx/chcore_v7m.h"
  26              		.loc 1 594 0
  27              		.cfi_startproc
  28              		@ args = 0, pretend = 0, frame = 8
  29              		@ frame_needed = 0, uses_anonymous_args = 0
  30              		@ link register save eliminated.
  31 0000 82B0     		sub	sp, sp, #8
  32              		.cfi_def_cfa_offset 8
  33 0002 2023     		movs	r3, #32
  34 0004 0193     		str	r3, [sp, #4]
  35              	.LBB6:
  36              	.LBB7:
  37              		.file 2 "../../../os/common/ext/CMSIS/include/cmsis_gcc.h"
  38              		.loc 2 264 0
  39 0006 019B     		ldr	r3, [sp, #4]
  40              	@ 264 "../../../os/common/ext/CMSIS/include/cmsis_gcc.h" 1
  41 0008 83F31188 		MSR basepri, r3
  42              	@ 0 "" 2
  43              		.thumb
  44              	.LBE7:
  45              	.LBE6:
  46              		.loc 1 611 0
  47 000c 02B0     		add	sp, sp, #8
  48              		.cfi_def_cfa_offset 0
  49              		@ sp needed
  50 000e 7047     		bx	lr
  51              		.cfi_endproc
  52              	.LFE127:
  53              		.size	port_lock, .-port_lock
  54              		.align	2
  55              		.p2align 4,,15
  56              		.thumb
  57              		.thumb_func
ARM GAS  /tmp/cc3MZpdY.s 			page 2


  58              		.type	port_unlock, %function
  59              	port_unlock:
  60              	.LFB128:
  61              		.loc 1 618 0
  62              		.cfi_startproc
  63              		@ args = 0, pretend = 0, frame = 8
  64              		@ frame_needed = 0, uses_anonymous_args = 0
  65              		@ link register save eliminated.
  66 0010 82B0     		sub	sp, sp, #8
  67              		.cfi_def_cfa_offset 8
  68 0012 0023     		movs	r3, #0
  69 0014 0193     		str	r3, [sp, #4]
  70              	.LBB8:
  71              	.LBB9:
  72              		.loc 2 264 0
  73 0016 019B     		ldr	r3, [sp, #4]
  74              	@ 264 "../../../os/common/ext/CMSIS/include/cmsis_gcc.h" 1
  75 0018 83F31188 		MSR basepri, r3
  76              	@ 0 "" 2
  77              		.thumb
  78              	.LBE9:
  79              	.LBE8:
  80              		.loc 1 625 0
  81 001c 02B0     		add	sp, sp, #8
  82              		.cfi_def_cfa_offset 0
  83              		@ sp needed
  84 001e 7047     		bx	lr
  85              		.cfi_endproc
  86              	.LFE128:
  87              		.size	port_unlock, .-port_unlock
  88              		.align	2
  89              		.p2align 4,,15
  90              		.thumb
  91              		.thumb_func
  92              		.type	st_lld_get_counter, %function
  93              	st_lld_get_counter:
  94              	.LFB136:
  95              		.file 3 "../../../os/hal/ports/STM32/LLD/TIMv1/hal_st_lld.h"
  96              		.loc 3 139 0
  97              		.cfi_startproc
  98              		@ args = 0, pretend = 0, frame = 0
  99              		@ frame_needed = 0, uses_anonymous_args = 0
 100              		@ link register save eliminated.
 101              		.loc 3 141 0
 102 0020 4FF08043 		mov	r3, #1073741824
 103 0024 5B6A     		ldr	r3, [r3, #36]
 104              		.loc 3 142 0
 105 0026 1846     		mov	r0, r3
 106 0028 7047     		bx	lr
 107              		.cfi_endproc
 108              	.LFE136:
 109              		.size	st_lld_get_counter, .-st_lld_get_counter
 110 002a 00BF     		.align	2
 111 002c AFF30080 		.p2align 4,,15
 112              		.thumb
 113              		.thumb_func
 114              		.type	port_timer_get_time, %function
ARM GAS  /tmp/cc3MZpdY.s 			page 3


 115              	port_timer_get_time:
 116              	.LFB145:
 117              		.file 4 "../../../os/common/ports/ARMCMx/chcore_timer.h"
 118              		.loc 4 105 0
 119              		.cfi_startproc
 120              		@ args = 0, pretend = 0, frame = 0
 121              		@ frame_needed = 0, uses_anonymous_args = 0
 122 0030 08B5     		push	{r3, lr}
 123              		.cfi_def_cfa_offset 8
 124              		.cfi_offset 3, -8
 125              		.cfi_offset 14, -4
 126              		.loc 4 107 0
 127 0032 FFF7F5FF 		bl	st_lld_get_counter
 128 0036 0346     		mov	r3, r0
 129              		.loc 4 108 0
 130 0038 1846     		mov	r0, r3
 131 003a 08BD     		pop	{r3, pc}
 132              		.cfi_endproc
 133              	.LFE145:
 134              		.size	port_timer_get_time, .-port_timer_get_time
 135              		.align	2
 136 003c AFF30080 		.p2align 4,,15
 137              		.thumb
 138              		.thumb_func
 139              		.type	queue_init, %function
 140              	queue_init:
 141              	.LFB150:
 142              		.file 5 "../../../os/rt/include/chschd.h"
 143              		.loc 5 548 0
 144              		.cfi_startproc
 145              		@ args = 0, pretend = 0, frame = 8
 146              		@ frame_needed = 0, uses_anonymous_args = 0
 147              		@ link register save eliminated.
 148 0040 82B0     		sub	sp, sp, #8
 149              		.cfi_def_cfa_offset 8
 150 0042 0190     		str	r0, [sp, #4]
 151              		.loc 5 550 0
 152 0044 019B     		ldr	r3, [sp, #4]
 153 0046 019A     		ldr	r2, [sp, #4]
 154 0048 1A60     		str	r2, [r3]
 155              		.loc 5 551 0
 156 004a 019B     		ldr	r3, [sp, #4]
 157 004c 019A     		ldr	r2, [sp, #4]
 158 004e 5A60     		str	r2, [r3, #4]
 159              		.loc 5 552 0
 160 0050 02B0     		add	sp, sp, #8
 161              		.cfi_def_cfa_offset 0
 162              		@ sp needed
 163 0052 7047     		bx	lr
 164              		.cfi_endproc
 165              	.LFE150:
 166              		.size	queue_init, .-queue_init
 167              		.align	2
 168 0054 AFF30080 		.p2align 4,,15
 168      AFF30080 
 168      AFF30080 
 169              		.thumb
ARM GAS  /tmp/cc3MZpdY.s 			page 4


 170              		.thumb_func
 171              		.type	chSysLock, %function
 172              	chSysLock:
 173              	.LFB167:
 174              		.file 6 "../../../os/rt/include/chsys.h"
 175              		.loc 6 374 0
 176              		.cfi_startproc
 177              		@ args = 0, pretend = 0, frame = 0
 178              		@ frame_needed = 0, uses_anonymous_args = 0
 179 0060 08B5     		push	{r3, lr}
 180              		.cfi_def_cfa_offset 8
 181              		.cfi_offset 3, -8
 182              		.cfi_offset 14, -4
 183              		.loc 6 376 0
 184 0062 FFF7CDFF 		bl	port_lock
 185              		.loc 6 379 0
 186 0066 08BD     		pop	{r3, pc}
 187              		.cfi_endproc
 188              	.LFE167:
 189              		.size	chSysLock, .-chSysLock
 190              		.align	2
 191 0068 AFF30080 		.p2align 4,,15
 191      AFF30080 
 192              		.thumb
 193              		.thumb_func
 194              		.type	chSysUnlock, %function
 195              	chSysUnlock:
 196              	.LFB168:
 197              		.loc 6 386 0
 198              		.cfi_startproc
 199              		@ args = 0, pretend = 0, frame = 0
 200              		@ frame_needed = 0, uses_anonymous_args = 0
 201 0070 08B5     		push	{r3, lr}
 202              		.cfi_def_cfa_offset 8
 203              		.cfi_offset 3, -8
 204              		.cfi_offset 14, -4
 205              		.loc 6 399 0
 206 0072 FFF7CDFF 		bl	port_unlock
 207              		.loc 6 400 0
 208 0076 08BD     		pop	{r3, pc}
 209              		.cfi_endproc
 210              	.LFE168:
 211              		.size	chSysUnlock, .-chSysUnlock
 212              		.align	2
 213 0078 AFF30080 		.p2align 4,,15
 213      AFF30080 
 214              		.thumb
 215              		.thumb_func
 216              		.type	chVTGetSystemTimeX, %function
 217              	chVTGetSystemTimeX:
 218              	.LFB181:
 219              		.file 7 "../../../os/rt/include/chvt.h"
 220              		.loc 7 392 0
 221              		.cfi_startproc
 222              		@ args = 0, pretend = 0, frame = 0
 223              		@ frame_needed = 0, uses_anonymous_args = 0
 224 0080 08B5     		push	{r3, lr}
ARM GAS  /tmp/cc3MZpdY.s 			page 5


 225              		.cfi_def_cfa_offset 8
 226              		.cfi_offset 3, -8
 227              		.cfi_offset 14, -4
 228              		.loc 7 397 0
 229 0082 FFF7D5FF 		bl	port_timer_get_time
 230 0086 0346     		mov	r3, r0
 231              		.loc 7 399 0
 232 0088 1846     		mov	r0, r3
 233 008a 08BD     		pop	{r3, pc}
 234              		.cfi_endproc
 235              	.LFE181:
 236              		.size	chVTGetSystemTimeX, .-chVTGetSystemTimeX
 237              		.align	2
 238 008c AFF30080 		.p2align 4,,15
 239              		.thumb
 240              		.thumb_func
 241              		.type	chThdQueueObjectInit, %function
 242              	chThdQueueObjectInit:
 243              	.LFB202:
 244              		.file 8 "../../../os/rt/include/chthreads.h"
 245              		.loc 8 404 0
 246              		.cfi_startproc
 247              		@ args = 0, pretend = 0, frame = 8
 248              		@ frame_needed = 0, uses_anonymous_args = 0
 249 0090 00B5     		push	{lr}
 250              		.cfi_def_cfa_offset 4
 251              		.cfi_offset 14, -4
 252 0092 83B0     		sub	sp, sp, #12
 253              		.cfi_def_cfa_offset 16
 254 0094 0190     		str	r0, [sp, #4]
 255              		.loc 8 406 0
 256 0096 0198     		ldr	r0, [sp, #4]
 257 0098 FFF7D2FF 		bl	queue_init
 258              		.loc 8 407 0
 259 009c 03B0     		add	sp, sp, #12
 260              		.cfi_def_cfa_offset 4
 261              		@ sp needed
 262 009e 5DF804FB 		ldr	pc, [sp], #4
 263              		.cfi_endproc
 264              	.LFE202:
 265              		.size	chThdQueueObjectInit, .-chThdQueueObjectInit
 266 00a2 00BF     		.align	2
 267 00a4 AFF30080 		.p2align 4,,15
 267      AFF30080 
 267      AFF30080 
 268              		.thumb
 269              		.thumb_func
 270              		.type	osalSysLock, %function
 271              	osalSysLock:
 272              	.LFB252:
 273              		.file 9 "../../../os/hal/osal/rt/osal.h"
 274              		.loc 9 491 0
 275              		.cfi_startproc
 276              		@ args = 0, pretend = 0, frame = 0
 277              		@ frame_needed = 0, uses_anonymous_args = 0
 278 00b0 08B5     		push	{r3, lr}
 279              		.cfi_def_cfa_offset 8
ARM GAS  /tmp/cc3MZpdY.s 			page 6


 280              		.cfi_offset 3, -8
 281              		.cfi_offset 14, -4
 282              		.loc 9 493 0
 283 00b2 FFF7D5FF 		bl	chSysLock
 284              		.loc 9 494 0
 285 00b6 08BD     		pop	{r3, pc}
 286              		.cfi_endproc
 287              	.LFE252:
 288              		.size	osalSysLock, .-osalSysLock
 289              		.align	2
 290 00b8 AFF30080 		.p2align 4,,15
 290      AFF30080 
 291              		.thumb
 292              		.thumb_func
 293              		.type	osalSysUnlock, %function
 294              	osalSysUnlock:
 295              	.LFB253:
 296              		.loc 9 502 0
 297              		.cfi_startproc
 298              		@ args = 0, pretend = 0, frame = 0
 299              		@ frame_needed = 0, uses_anonymous_args = 0
 300 00c0 08B5     		push	{r3, lr}
 301              		.cfi_def_cfa_offset 8
 302              		.cfi_offset 3, -8
 303              		.cfi_offset 14, -4
 304              		.loc 9 504 0
 305 00c2 FFF7D5FF 		bl	chSysUnlock
 306              		.loc 9 505 0
 307 00c6 08BD     		pop	{r3, pc}
 308              		.cfi_endproc
 309              	.LFE253:
 310              		.size	osalSysUnlock, .-osalSysUnlock
 311              		.align	2
 312 00c8 AFF30080 		.p2align 4,,15
 312      AFF30080 
 313              		.thumb
 314              		.thumb_func
 315              		.type	osalOsGetSystemTimeX, %function
 316              	osalOsGetSystemTimeX:
 317              	.LFB261:
 318              		.loc 9 616 0
 319              		.cfi_startproc
 320              		@ args = 0, pretend = 0, frame = 0
 321              		@ frame_needed = 0, uses_anonymous_args = 0
 322 00d0 08B5     		push	{r3, lr}
 323              		.cfi_def_cfa_offset 8
 324              		.cfi_offset 3, -8
 325              		.cfi_offset 14, -4
 326              		.loc 9 618 0
 327 00d2 FFF7D5FF 		bl	chVTGetSystemTimeX
 328 00d6 0346     		mov	r3, r0
 329              		.loc 9 619 0
 330 00d8 1846     		mov	r0, r3
 331 00da 08BD     		pop	{r3, pc}
 332              		.cfi_endproc
 333              	.LFE261:
 334              		.size	osalOsGetSystemTimeX, .-osalOsGetSystemTimeX
ARM GAS  /tmp/cc3MZpdY.s 			page 7


 335              		.align	2
 336 00dc AFF30080 		.p2align 4,,15
 337              		.thumb
 338              		.thumb_func
 339              		.type	osalThreadQueueObjectInit, %function
 340              	osalThreadQueueObjectInit:
 341              	.LFB269:
 342              		.loc 9 753 0
 343              		.cfi_startproc
 344              		@ args = 0, pretend = 0, frame = 8
 345              		@ frame_needed = 0, uses_anonymous_args = 0
 346 00e0 00B5     		push	{lr}
 347              		.cfi_def_cfa_offset 4
 348              		.cfi_offset 14, -4
 349 00e2 83B0     		sub	sp, sp, #12
 350              		.cfi_def_cfa_offset 16
 351 00e4 0190     		str	r0, [sp, #4]
 352              		.loc 9 755 0
 353 00e6 0198     		ldr	r0, [sp, #4]
 354 00e8 FFF7D2FF 		bl	chThdQueueObjectInit
 355              		.loc 9 756 0
 356 00ec 03B0     		add	sp, sp, #12
 357              		.cfi_def_cfa_offset 4
 358              		@ sp needed
 359 00ee 5DF804FB 		ldr	pc, [sp], #4
 360              		.cfi_endproc
 361              	.LFE269:
 362              		.size	osalThreadQueueObjectInit, .-osalThreadQueueObjectInit
 363 00f2 00BF     		.align	2
 364 00f4 AFF30080 		.p2align 4,,15
 364      AFF30080 
 364      AFF30080 
 365              		.thumb
 366              		.thumb_func
 367              		.type	osalThreadEnqueueTimeoutS, %function
 368              	osalThreadEnqueueTimeoutS:
 369              	.LFB270:
 370              		.loc 9 782 0
 371              		.cfi_startproc
 372              		@ args = 0, pretend = 0, frame = 8
 373              		@ frame_needed = 0, uses_anonymous_args = 0
 374 0100 00B5     		push	{lr}
 375              		.cfi_def_cfa_offset 4
 376              		.cfi_offset 14, -4
 377 0102 83B0     		sub	sp, sp, #12
 378              		.cfi_def_cfa_offset 16
 379 0104 0190     		str	r0, [sp, #4]
 380 0106 0091     		str	r1, [sp]
 381              		.loc 9 784 0
 382 0108 0198     		ldr	r0, [sp, #4]
 383 010a 0099     		ldr	r1, [sp]
 384 010c FFF7FEFF 		bl	chThdEnqueueTimeoutS
 385 0110 0346     		mov	r3, r0
 386              		.loc 9 785 0
 387 0112 1846     		mov	r0, r3
 388 0114 03B0     		add	sp, sp, #12
 389              		.cfi_def_cfa_offset 4
ARM GAS  /tmp/cc3MZpdY.s 			page 8


 390              		@ sp needed
 391 0116 5DF804FB 		ldr	pc, [sp], #4
 392              		.cfi_endproc
 393              	.LFE270:
 394              		.size	osalThreadEnqueueTimeoutS, .-osalThreadEnqueueTimeoutS
 395 011a 00BF     		.align	2
 396 011c AFF30080 		.p2align 4,,15
 397              		.thumb
 398              		.thumb_func
 399              		.type	osalThreadDequeueNextI, %function
 400              	osalThreadDequeueNextI:
 401              	.LFB271:
 402              		.loc 9 795 0
 403              		.cfi_startproc
 404              		@ args = 0, pretend = 0, frame = 8
 405              		@ frame_needed = 0, uses_anonymous_args = 0
 406 0120 00B5     		push	{lr}
 407              		.cfi_def_cfa_offset 4
 408              		.cfi_offset 14, -4
 409 0122 83B0     		sub	sp, sp, #12
 410              		.cfi_def_cfa_offset 16
 411 0124 0190     		str	r0, [sp, #4]
 412 0126 0091     		str	r1, [sp]
 413              		.loc 9 797 0
 414 0128 0198     		ldr	r0, [sp, #4]
 415 012a 0099     		ldr	r1, [sp]
 416 012c FFF7FEFF 		bl	chThdDequeueNextI
 417              		.loc 9 798 0
 418 0130 03B0     		add	sp, sp, #12
 419              		.cfi_def_cfa_offset 4
 420              		@ sp needed
 421 0132 5DF804FB 		ldr	pc, [sp], #4
 422              		.cfi_endproc
 423              	.LFE271:
 424              		.size	osalThreadDequeueNextI, .-osalThreadDequeueNextI
 425 0136 00BF     		.align	2
 426 0138 AFF30080 		.p2align 4,,15
 426      AFF30080 
 427              		.thumb
 428              		.thumb_func
 429              		.type	osalThreadDequeueAllI, %function
 430              	osalThreadDequeueAllI:
 431              	.LFB272:
 432              		.loc 9 808 0
 433              		.cfi_startproc
 434              		@ args = 0, pretend = 0, frame = 8
 435              		@ frame_needed = 0, uses_anonymous_args = 0
 436 0140 00B5     		push	{lr}
 437              		.cfi_def_cfa_offset 4
 438              		.cfi_offset 14, -4
 439 0142 83B0     		sub	sp, sp, #12
 440              		.cfi_def_cfa_offset 16
 441 0144 0190     		str	r0, [sp, #4]
 442 0146 0091     		str	r1, [sp]
 443              		.loc 9 810 0
 444 0148 0198     		ldr	r0, [sp, #4]
 445 014a 0099     		ldr	r1, [sp]
ARM GAS  /tmp/cc3MZpdY.s 			page 9


 446 014c FFF7FEFF 		bl	chThdDequeueAllI
 447              		.loc 9 811 0
 448 0150 03B0     		add	sp, sp, #12
 449              		.cfi_def_cfa_offset 4
 450              		@ sp needed
 451 0152 5DF804FB 		ldr	pc, [sp], #4
 452              		.cfi_endproc
 453              	.LFE272:
 454              		.size	osalThreadDequeueAllI, .-osalThreadDequeueAllI
 455 0156 00BF     		.align	2
 456 0158 AFF30080 		.p2align 4,,15
 456      AFF30080 
 457              		.global	iqObjectInit
 458              		.thumb
 459              		.thumb_func
 460              		.type	iqObjectInit, %function
 461              	iqObjectInit:
 462              	.LFB279:
 463              		.file 10 "../../../os/hal/src/hal_queues.c"
 464              		.loc 10 56 0
 465              		.cfi_startproc
 466              		@ args = 4, pretend = 0, frame = 16
 467              		@ frame_needed = 0, uses_anonymous_args = 0
 468 0160 00B5     		push	{lr}
 469              		.cfi_def_cfa_offset 4
 470              		.cfi_offset 14, -4
 471 0162 85B0     		sub	sp, sp, #20
 472              		.cfi_def_cfa_offset 24
 473 0164 0390     		str	r0, [sp, #12]
 474 0166 0291     		str	r1, [sp, #8]
 475 0168 0192     		str	r2, [sp, #4]
 476 016a 0093     		str	r3, [sp]
 477              		.loc 10 58 0
 478 016c 039B     		ldr	r3, [sp, #12]
 479 016e 1846     		mov	r0, r3
 480 0170 FFF7B6FF 		bl	osalThreadQueueObjectInit
 481              		.loc 10 59 0
 482 0174 039B     		ldr	r3, [sp, #12]
 483 0176 0022     		movs	r2, #0
 484 0178 9A60     		str	r2, [r3, #8]
 485              		.loc 10 60 0
 486 017a 039B     		ldr	r3, [sp, #12]
 487 017c 029A     		ldr	r2, [sp, #8]
 488 017e DA60     		str	r2, [r3, #12]
 489              		.loc 10 61 0
 490 0180 039B     		ldr	r3, [sp, #12]
 491 0182 029A     		ldr	r2, [sp, #8]
 492 0184 9A61     		str	r2, [r3, #24]
 493              		.loc 10 62 0
 494 0186 039B     		ldr	r3, [sp, #12]
 495 0188 029A     		ldr	r2, [sp, #8]
 496 018a 5A61     		str	r2, [r3, #20]
 497              		.loc 10 63 0
 498 018c 029A     		ldr	r2, [sp, #8]
 499 018e 019B     		ldr	r3, [sp, #4]
 500 0190 1A44     		add	r2, r2, r3
 501 0192 039B     		ldr	r3, [sp, #12]
ARM GAS  /tmp/cc3MZpdY.s 			page 10


 502 0194 1A61     		str	r2, [r3, #16]
 503              		.loc 10 64 0
 504 0196 039B     		ldr	r3, [sp, #12]
 505 0198 009A     		ldr	r2, [sp]
 506 019a DA61     		str	r2, [r3, #28]
 507              		.loc 10 65 0
 508 019c 039B     		ldr	r3, [sp, #12]
 509 019e 069A     		ldr	r2, [sp, #24]
 510 01a0 1A62     		str	r2, [r3, #32]
 511              		.loc 10 66 0
 512 01a2 05B0     		add	sp, sp, #20
 513              		.cfi_def_cfa_offset 4
 514              		@ sp needed
 515 01a4 5DF804FB 		ldr	pc, [sp], #4
 516              		.cfi_endproc
 517              	.LFE279:
 518              		.size	iqObjectInit, .-iqObjectInit
 519              		.align	2
 520 01a8 AFF30080 		.p2align 4,,15
 520      AFF30080 
 521              		.global	iqResetI
 522              		.thumb
 523              		.thumb_func
 524              		.type	iqResetI, %function
 525              	iqResetI:
 526              	.LFB280:
 527              		.loc 10 79 0
 528              		.cfi_startproc
 529              		@ args = 0, pretend = 0, frame = 8
 530              		@ frame_needed = 0, uses_anonymous_args = 0
 531 01b0 00B5     		push	{lr}
 532              		.cfi_def_cfa_offset 4
 533              		.cfi_offset 14, -4
 534 01b2 83B0     		sub	sp, sp, #12
 535              		.cfi_def_cfa_offset 16
 536 01b4 0190     		str	r0, [sp, #4]
 537              		.loc 10 83 0
 538 01b6 019B     		ldr	r3, [sp, #4]
 539 01b8 DA68     		ldr	r2, [r3, #12]
 540 01ba 019B     		ldr	r3, [sp, #4]
 541 01bc 9A61     		str	r2, [r3, #24]
 542              		.loc 10 84 0
 543 01be 019B     		ldr	r3, [sp, #4]
 544 01c0 DA68     		ldr	r2, [r3, #12]
 545 01c2 019B     		ldr	r3, [sp, #4]
 546 01c4 5A61     		str	r2, [r3, #20]
 547              		.loc 10 85 0
 548 01c6 019B     		ldr	r3, [sp, #4]
 549 01c8 0022     		movs	r2, #0
 550 01ca 9A60     		str	r2, [r3, #8]
 551              		.loc 10 86 0
 552 01cc 019B     		ldr	r3, [sp, #4]
 553 01ce 1846     		mov	r0, r3
 554 01d0 6FF00101 		mvn	r1, #1
 555 01d4 FFF7B4FF 		bl	osalThreadDequeueAllI
 556              		.loc 10 87 0
 557 01d8 03B0     		add	sp, sp, #12
ARM GAS  /tmp/cc3MZpdY.s 			page 11


 558              		.cfi_def_cfa_offset 4
 559              		@ sp needed
 560 01da 5DF804FB 		ldr	pc, [sp], #4
 561              		.cfi_endproc
 562              	.LFE280:
 563              		.size	iqResetI, .-iqResetI
 564 01de 00BF     		.align	2
 565              		.p2align 4,,15
 566              		.global	iqPutI
 567              		.thumb
 568              		.thumb_func
 569              		.type	iqPutI, %function
 570              	iqPutI:
 571              	.LFB281:
 572              		.loc 10 102 0
 573              		.cfi_startproc
 574              		@ args = 0, pretend = 0, frame = 8
 575              		@ frame_needed = 0, uses_anonymous_args = 0
 576 01e0 00B5     		push	{lr}
 577              		.cfi_def_cfa_offset 4
 578              		.cfi_offset 14, -4
 579 01e2 83B0     		sub	sp, sp, #12
 580              		.cfi_def_cfa_offset 16
 581 01e4 0190     		str	r0, [sp, #4]
 582 01e6 0B46     		mov	r3, r1
 583 01e8 8DF80330 		strb	r3, [sp, #3]
 584              		.loc 10 106 0
 585 01ec 019B     		ldr	r3, [sp, #4]
 586 01ee 5A69     		ldr	r2, [r3, #20]
 587 01f0 019B     		ldr	r3, [sp, #4]
 588 01f2 9B69     		ldr	r3, [r3, #24]
 589 01f4 9A42     		cmp	r2, r3
 590 01f6 05D1     		bne	.L25
 591              		.loc 10 106 0 is_stmt 0 discriminator 1
 592 01f8 019B     		ldr	r3, [sp, #4]
 593 01fa 9B68     		ldr	r3, [r3, #8]
 594 01fc 002B     		cmp	r3, #0
 595 01fe 01D0     		beq	.L25
 596              		.loc 10 106 0 discriminator 3
 597 0200 0123     		movs	r3, #1
 598 0202 00E0     		b	.L26
 599              	.L25:
 600              		.loc 10 106 0 discriminator 4
 601 0204 0023     		movs	r3, #0
 602              	.L26:
 603              		.loc 10 106 0 discriminator 6
 604 0206 03F00103 		and	r3, r3, #1
 605 020a DBB2     		uxtb	r3, r3
 606 020c 002B     		cmp	r3, #0
 607 020e 02D0     		beq	.L27
 608              		.loc 10 107 0 is_stmt 1
 609 0210 4FF0FF33 		mov	r3, #-1
 610 0214 1CE0     		b	.L28
 611              	.L27:
 612              		.loc 10 110 0
 613 0216 019B     		ldr	r3, [sp, #4]
 614 0218 9B68     		ldr	r3, [r3, #8]
ARM GAS  /tmp/cc3MZpdY.s 			page 12


 615 021a 5A1C     		adds	r2, r3, #1
 616 021c 019B     		ldr	r3, [sp, #4]
 617 021e 9A60     		str	r2, [r3, #8]
 618              		.loc 10 111 0
 619 0220 019B     		ldr	r3, [sp, #4]
 620 0222 5B69     		ldr	r3, [r3, #20]
 621 0224 591C     		adds	r1, r3, #1
 622 0226 019A     		ldr	r2, [sp, #4]
 623 0228 5161     		str	r1, [r2, #20]
 624 022a 9DF80320 		ldrb	r2, [sp, #3]
 625 022e 1A70     		strb	r2, [r3]
 626              		.loc 10 112 0
 627 0230 019B     		ldr	r3, [sp, #4]
 628 0232 5A69     		ldr	r2, [r3, #20]
 629 0234 019B     		ldr	r3, [sp, #4]
 630 0236 1B69     		ldr	r3, [r3, #16]
 631 0238 9A42     		cmp	r2, r3
 632 023a 03D3     		bcc	.L29
 633              		.loc 10 113 0
 634 023c 019B     		ldr	r3, [sp, #4]
 635 023e DA68     		ldr	r2, [r3, #12]
 636 0240 019B     		ldr	r3, [sp, #4]
 637 0242 5A61     		str	r2, [r3, #20]
 638              	.L29:
 639              		.loc 10 116 0
 640 0244 019B     		ldr	r3, [sp, #4]
 641 0246 1846     		mov	r0, r3
 642 0248 0021     		movs	r1, #0
 643 024a FFF769FF 		bl	osalThreadDequeueNextI
 644              		.loc 10 118 0
 645 024e 0023     		movs	r3, #0
 646              	.L28:
 647              		.loc 10 119 0
 648 0250 1846     		mov	r0, r3
 649 0252 03B0     		add	sp, sp, #12
 650              		.cfi_def_cfa_offset 4
 651              		@ sp needed
 652 0254 5DF804FB 		ldr	pc, [sp], #4
 653              		.cfi_endproc
 654              	.LFE281:
 655              		.size	iqPutI, .-iqPutI
 656              		.align	2
 657 0258 AFF30080 		.p2align 4,,15
 657      AFF30080 
 658              		.global	iqGetTimeout
 659              		.thumb
 660              		.thumb_func
 661              		.type	iqGetTimeout, %function
 662              	iqGetTimeout:
 663              	.LFB282:
 664              		.loc 10 141 0
 665              		.cfi_startproc
 666              		@ args = 0, pretend = 0, frame = 16
 667              		@ frame_needed = 0, uses_anonymous_args = 0
 668 0260 00B5     		push	{lr}
 669              		.cfi_def_cfa_offset 4
 670              		.cfi_offset 14, -4
ARM GAS  /tmp/cc3MZpdY.s 			page 13


 671 0262 85B0     		sub	sp, sp, #20
 672              		.cfi_def_cfa_offset 24
 673 0264 0190     		str	r0, [sp, #4]
 674 0266 0091     		str	r1, [sp]
 675              		.loc 10 144 0
 676 0268 FFF722FF 		bl	osalSysLock
 677              		.loc 10 147 0
 678 026c 0CE0     		b	.L31
 679              	.L33:
 680              	.LBB10:
 681              		.loc 10 148 0
 682 026e 019B     		ldr	r3, [sp, #4]
 683 0270 1846     		mov	r0, r3
 684 0272 0099     		ldr	r1, [sp]
 685 0274 FFF744FF 		bl	osalThreadEnqueueTimeoutS
 686 0278 0390     		str	r0, [sp, #12]
 687              		.loc 10 149 0
 688 027a 039B     		ldr	r3, [sp, #12]
 689 027c 002B     		cmp	r3, #0
 690 027e 03DA     		bge	.L31
 691              		.loc 10 150 0
 692 0280 FFF71EFF 		bl	osalSysUnlock
 693              		.loc 10 151 0
 694 0284 039B     		ldr	r3, [sp, #12]
 695 0286 26E0     		b	.L32
 696              	.L31:
 697              	.LBE10:
 698              		.loc 10 147 0
 699 0288 019B     		ldr	r3, [sp, #4]
 700 028a 9B68     		ldr	r3, [r3, #8]
 701 028c 002B     		cmp	r3, #0
 702 028e EED0     		beq	.L33
 703              		.loc 10 156 0
 704 0290 019B     		ldr	r3, [sp, #4]
 705 0292 9B68     		ldr	r3, [r3, #8]
 706 0294 5A1E     		subs	r2, r3, #1
 707 0296 019B     		ldr	r3, [sp, #4]
 708 0298 9A60     		str	r2, [r3, #8]
 709              		.loc 10 157 0
 710 029a 019B     		ldr	r3, [sp, #4]
 711 029c 9B69     		ldr	r3, [r3, #24]
 712 029e 591C     		adds	r1, r3, #1
 713 02a0 019A     		ldr	r2, [sp, #4]
 714 02a2 9161     		str	r1, [r2, #24]
 715 02a4 1B78     		ldrb	r3, [r3]
 716 02a6 8DF80B30 		strb	r3, [sp, #11]
 717              		.loc 10 158 0
 718 02aa 019B     		ldr	r3, [sp, #4]
 719 02ac 9A69     		ldr	r2, [r3, #24]
 720 02ae 019B     		ldr	r3, [sp, #4]
 721 02b0 1B69     		ldr	r3, [r3, #16]
 722 02b2 9A42     		cmp	r2, r3
 723 02b4 03D3     		bcc	.L34
 724              		.loc 10 159 0
 725 02b6 019B     		ldr	r3, [sp, #4]
 726 02b8 DA68     		ldr	r2, [r3, #12]
 727 02ba 019B     		ldr	r3, [sp, #4]
ARM GAS  /tmp/cc3MZpdY.s 			page 14


 728 02bc 9A61     		str	r2, [r3, #24]
 729              	.L34:
 730              		.loc 10 163 0
 731 02be 019B     		ldr	r3, [sp, #4]
 732 02c0 DB69     		ldr	r3, [r3, #28]
 733 02c2 002B     		cmp	r3, #0
 734 02c4 03D0     		beq	.L35
 735              		.loc 10 164 0
 736 02c6 019B     		ldr	r3, [sp, #4]
 737 02c8 DB69     		ldr	r3, [r3, #28]
 738 02ca 0198     		ldr	r0, [sp, #4]
 739 02cc 9847     		blx	r3
 740              	.L35:
 741              		.loc 10 167 0
 742 02ce FFF7F7FE 		bl	osalSysUnlock
 743              		.loc 10 169 0
 744 02d2 9DF80B30 		ldrb	r3, [sp, #11]	@ zero_extendqisi2
 745              	.L32:
 746              		.loc 10 170 0
 747 02d6 1846     		mov	r0, r3
 748 02d8 05B0     		add	sp, sp, #20
 749              		.cfi_def_cfa_offset 4
 750              		@ sp needed
 751 02da 5DF804FB 		ldr	pc, [sp], #4
 752              		.cfi_endproc
 753              	.LFE282:
 754              		.size	iqGetTimeout, .-iqGetTimeout
 755 02de 00BF     		.align	2
 756              		.p2align 4,,15
 757              		.global	iqReadTimeout
 758              		.thumb
 759              		.thumb_func
 760              		.type	iqReadTimeout, %function
 761              	iqReadTimeout:
 762              	.LFB283:
 763              		.loc 10 197 0
 764              		.cfi_startproc
 765              		@ args = 0, pretend = 0, frame = 40
 766              		@ frame_needed = 0, uses_anonymous_args = 0
 767 02e0 00B5     		push	{lr}
 768              		.cfi_def_cfa_offset 4
 769              		.cfi_offset 14, -4
 770 02e2 8BB0     		sub	sp, sp, #44
 771              		.cfi_def_cfa_offset 48
 772 02e4 0390     		str	r0, [sp, #12]
 773 02e6 0291     		str	r1, [sp, #8]
 774 02e8 0192     		str	r2, [sp, #4]
 775 02ea 0093     		str	r3, [sp]
 776              		.loc 10 199 0
 777 02ec 039B     		ldr	r3, [sp, #12]
 778 02ee DB69     		ldr	r3, [r3, #28]
 779 02f0 0793     		str	r3, [sp, #28]
 780              		.loc 10 200 0
 781 02f2 0023     		movs	r3, #0
 782 02f4 0993     		str	r3, [sp, #36]
 783              		.loc 10 204 0
 784 02f6 FFF7DBFE 		bl	osalSysLock
ARM GAS  /tmp/cc3MZpdY.s 			page 15


 785              		.loc 10 209 0
 786 02fa FFF7E9FE 		bl	osalOsGetSystemTimeX
 787 02fe 0246     		mov	r2, r0
 788 0300 009B     		ldr	r3, [sp]
 789 0302 1344     		add	r3, r3, r2
 790 0304 0693     		str	r3, [sp, #24]
 791              	.L47:
 792              		.loc 10 213 0
 793 0306 28E0     		b	.L37
 794              	.L43:
 795              	.LBB11:
 796              		.loc 10 218 0
 797 0308 009B     		ldr	r3, [sp]
 798 030a B3F1FF3F 		cmp	r3, #-1
 799 030e 02D0     		beq	.L38
 800              		.loc 10 218 0 is_stmt 0 discriminator 1
 801 0310 009B     		ldr	r3, [sp]
 802 0312 002B     		cmp	r3, #0
 803 0314 06D1     		bne	.L39
 804              	.L38:
 805              		.loc 10 219 0 is_stmt 1
 806 0316 039B     		ldr	r3, [sp, #12]
 807 0318 1846     		mov	r0, r3
 808 031a 0099     		ldr	r1, [sp]
 809 031c FFF7F0FE 		bl	osalThreadEnqueueTimeoutS
 810 0320 0890     		str	r0, [sp, #32]
 811 0322 13E0     		b	.L40
 812              	.L39:
 813              	.LBB12:
 814              		.loc 10 222 0
 815 0324 FFF7D4FE 		bl	osalOsGetSystemTimeX
 816 0328 0246     		mov	r2, r0
 817 032a 069B     		ldr	r3, [sp, #24]
 818 032c 9B1A     		subs	r3, r3, r2
 819 032e 0593     		str	r3, [sp, #20]
 820              		.loc 10 227 0
 821 0330 059A     		ldr	r2, [sp, #20]
 822 0332 009B     		ldr	r3, [sp]
 823 0334 9A42     		cmp	r2, r3
 824 0336 03D9     		bls	.L41
 825              		.loc 10 228 0
 826 0338 FFF7C2FE 		bl	osalSysUnlock
 827              		.loc 10 229 0
 828 033c 099B     		ldr	r3, [sp, #36]
 829 033e 3FE0     		b	.L42
 830              	.L41:
 831              		.loc 10 232 0
 832 0340 039B     		ldr	r3, [sp, #12]
 833 0342 1846     		mov	r0, r3
 834 0344 0599     		ldr	r1, [sp, #20]
 835 0346 FFF7DBFE 		bl	osalThreadEnqueueTimeoutS
 836 034a 0890     		str	r0, [sp, #32]
 837              	.L40:
 838              	.LBE12:
 839              		.loc 10 236 0
 840 034c 089B     		ldr	r3, [sp, #32]
 841 034e 002B     		cmp	r3, #0
ARM GAS  /tmp/cc3MZpdY.s 			page 16


 842 0350 03D0     		beq	.L37
 843              		.loc 10 237 0
 844 0352 FFF7B5FE 		bl	osalSysUnlock
 845              		.loc 10 238 0
 846 0356 099B     		ldr	r3, [sp, #36]
 847 0358 32E0     		b	.L42
 848              	.L37:
 849              	.LBE11:
 850              		.loc 10 213 0
 851 035a 039B     		ldr	r3, [sp, #12]
 852 035c 9B68     		ldr	r3, [r3, #8]
 853 035e 002B     		cmp	r3, #0
 854 0360 D2D0     		beq	.L43
 855              		.loc 10 243 0
 856 0362 039B     		ldr	r3, [sp, #12]
 857 0364 9B68     		ldr	r3, [r3, #8]
 858 0366 5A1E     		subs	r2, r3, #1
 859 0368 039B     		ldr	r3, [sp, #12]
 860 036a 9A60     		str	r2, [r3, #8]
 861              		.loc 10 244 0
 862 036c 029B     		ldr	r3, [sp, #8]
 863 036e 5A1C     		adds	r2, r3, #1
 864 0370 0292     		str	r2, [sp, #8]
 865 0372 039A     		ldr	r2, [sp, #12]
 866 0374 9269     		ldr	r2, [r2, #24]
 867 0376 501C     		adds	r0, r2, #1
 868 0378 0399     		ldr	r1, [sp, #12]
 869 037a 8861     		str	r0, [r1, #24]
 870 037c 1278     		ldrb	r2, [r2]	@ zero_extendqisi2
 871 037e 1A70     		strb	r2, [r3]
 872              		.loc 10 245 0
 873 0380 039B     		ldr	r3, [sp, #12]
 874 0382 9A69     		ldr	r2, [r3, #24]
 875 0384 039B     		ldr	r3, [sp, #12]
 876 0386 1B69     		ldr	r3, [r3, #16]
 877 0388 9A42     		cmp	r2, r3
 878 038a 03D3     		bcc	.L44
 879              		.loc 10 246 0
 880 038c 039B     		ldr	r3, [sp, #12]
 881 038e DA68     		ldr	r2, [r3, #12]
 882 0390 039B     		ldr	r3, [sp, #12]
 883 0392 9A61     		str	r2, [r3, #24]
 884              	.L44:
 885              		.loc 10 250 0
 886 0394 079B     		ldr	r3, [sp, #28]
 887 0396 002B     		cmp	r3, #0
 888 0398 02D0     		beq	.L45
 889              		.loc 10 251 0
 890 039a 079B     		ldr	r3, [sp, #28]
 891 039c 0398     		ldr	r0, [sp, #12]
 892 039e 9847     		blx	r3
 893              	.L45:
 894              		.loc 10 255 0
 895 03a0 FFF78EFE 		bl	osalSysUnlock
 896              		.loc 10 257 0
 897 03a4 099B     		ldr	r3, [sp, #36]
 898 03a6 0133     		adds	r3, r3, #1
ARM GAS  /tmp/cc3MZpdY.s 			page 17


 899 03a8 0993     		str	r3, [sp, #36]
 900              		.loc 10 258 0
 901 03aa 019B     		ldr	r3, [sp, #4]
 902 03ac 013B     		subs	r3, r3, #1
 903 03ae 0193     		str	r3, [sp, #4]
 904 03b0 019B     		ldr	r3, [sp, #4]
 905 03b2 002B     		cmp	r3, #0
 906 03b4 01D1     		bne	.L46
 907              		.loc 10 259 0
 908 03b6 099B     		ldr	r3, [sp, #36]
 909 03b8 02E0     		b	.L42
 910              	.L46:
 911              		.loc 10 262 0
 912 03ba FFF779FE 		bl	osalSysLock
 913              		.loc 10 263 0
 914 03be A2E7     		b	.L47
 915              	.L42:
 916              		.loc 10 264 0
 917 03c0 1846     		mov	r0, r3
 918 03c2 0BB0     		add	sp, sp, #44
 919              		.cfi_def_cfa_offset 4
 920              		@ sp needed
 921 03c4 5DF804FB 		ldr	pc, [sp], #4
 922              		.cfi_endproc
 923              	.LFE283:
 924              		.size	iqReadTimeout, .-iqReadTimeout
 925              		.align	2
 926 03c8 AFF30080 		.p2align 4,,15
 926      AFF30080 
 927              		.global	oqObjectInit
 928              		.thumb
 929              		.thumb_func
 930              		.type	oqObjectInit, %function
 931              	oqObjectInit:
 932              	.LFB284:
 933              		.loc 10 282 0
 934              		.cfi_startproc
 935              		@ args = 4, pretend = 0, frame = 16
 936              		@ frame_needed = 0, uses_anonymous_args = 0
 937 03d0 00B5     		push	{lr}
 938              		.cfi_def_cfa_offset 4
 939              		.cfi_offset 14, -4
 940 03d2 85B0     		sub	sp, sp, #20
 941              		.cfi_def_cfa_offset 24
 942 03d4 0390     		str	r0, [sp, #12]
 943 03d6 0291     		str	r1, [sp, #8]
 944 03d8 0192     		str	r2, [sp, #4]
 945 03da 0093     		str	r3, [sp]
 946              		.loc 10 284 0
 947 03dc 039B     		ldr	r3, [sp, #12]
 948 03de 1846     		mov	r0, r3
 949 03e0 FFF77EFE 		bl	osalThreadQueueObjectInit
 950              		.loc 10 285 0
 951 03e4 039B     		ldr	r3, [sp, #12]
 952 03e6 019A     		ldr	r2, [sp, #4]
 953 03e8 9A60     		str	r2, [r3, #8]
 954              		.loc 10 286 0
ARM GAS  /tmp/cc3MZpdY.s 			page 18


 955 03ea 039B     		ldr	r3, [sp, #12]
 956 03ec 029A     		ldr	r2, [sp, #8]
 957 03ee DA60     		str	r2, [r3, #12]
 958              		.loc 10 287 0
 959 03f0 039B     		ldr	r3, [sp, #12]
 960 03f2 029A     		ldr	r2, [sp, #8]
 961 03f4 9A61     		str	r2, [r3, #24]
 962              		.loc 10 288 0
 963 03f6 039B     		ldr	r3, [sp, #12]
 964 03f8 029A     		ldr	r2, [sp, #8]
 965 03fa 5A61     		str	r2, [r3, #20]
 966              		.loc 10 289 0
 967 03fc 029A     		ldr	r2, [sp, #8]
 968 03fe 019B     		ldr	r3, [sp, #4]
 969 0400 1A44     		add	r2, r2, r3
 970 0402 039B     		ldr	r3, [sp, #12]
 971 0404 1A61     		str	r2, [r3, #16]
 972              		.loc 10 290 0
 973 0406 039B     		ldr	r3, [sp, #12]
 974 0408 009A     		ldr	r2, [sp]
 975 040a DA61     		str	r2, [r3, #28]
 976              		.loc 10 291 0
 977 040c 039B     		ldr	r3, [sp, #12]
 978 040e 069A     		ldr	r2, [sp, #24]
 979 0410 1A62     		str	r2, [r3, #32]
 980              		.loc 10 292 0
 981 0412 05B0     		add	sp, sp, #20
 982              		.cfi_def_cfa_offset 4
 983              		@ sp needed
 984 0414 5DF804FB 		ldr	pc, [sp], #4
 985              		.cfi_endproc
 986              	.LFE284:
 987              		.size	oqObjectInit, .-oqObjectInit
 988              		.align	2
 989 0418 AFF30080 		.p2align 4,,15
 989      AFF30080 
 990              		.global	oqResetI
 991              		.thumb
 992              		.thumb_func
 993              		.type	oqResetI, %function
 994              	oqResetI:
 995              	.LFB285:
 996              		.loc 10 305 0
 997              		.cfi_startproc
 998              		@ args = 0, pretend = 0, frame = 8
 999              		@ frame_needed = 0, uses_anonymous_args = 0
 1000 0420 00B5     		push	{lr}
 1001              		.cfi_def_cfa_offset 4
 1002              		.cfi_offset 14, -4
 1003 0422 83B0     		sub	sp, sp, #12
 1004              		.cfi_def_cfa_offset 16
 1005 0424 0190     		str	r0, [sp, #4]
 1006              		.loc 10 309 0
 1007 0426 019B     		ldr	r3, [sp, #4]
 1008 0428 DA68     		ldr	r2, [r3, #12]
 1009 042a 019B     		ldr	r3, [sp, #4]
 1010 042c 9A61     		str	r2, [r3, #24]
ARM GAS  /tmp/cc3MZpdY.s 			page 19


 1011              		.loc 10 310 0
 1012 042e 019B     		ldr	r3, [sp, #4]
 1013 0430 DA68     		ldr	r2, [r3, #12]
 1014 0432 019B     		ldr	r3, [sp, #4]
 1015 0434 5A61     		str	r2, [r3, #20]
 1016              		.loc 10 311 0
 1017 0436 019B     		ldr	r3, [sp, #4]
 1018 0438 1B69     		ldr	r3, [r3, #16]
 1019 043a 1A46     		mov	r2, r3
 1020 043c 019B     		ldr	r3, [sp, #4]
 1021 043e DB68     		ldr	r3, [r3, #12]
 1022 0440 D31A     		subs	r3, r2, r3
 1023 0442 1A46     		mov	r2, r3
 1024 0444 019B     		ldr	r3, [sp, #4]
 1025 0446 9A60     		str	r2, [r3, #8]
 1026              		.loc 10 312 0
 1027 0448 019B     		ldr	r3, [sp, #4]
 1028 044a 1846     		mov	r0, r3
 1029 044c 6FF00101 		mvn	r1, #1
 1030 0450 FFF776FE 		bl	osalThreadDequeueAllI
 1031              		.loc 10 313 0
 1032 0454 03B0     		add	sp, sp, #12
 1033              		.cfi_def_cfa_offset 4
 1034              		@ sp needed
 1035 0456 5DF804FB 		ldr	pc, [sp], #4
 1036              		.cfi_endproc
 1037              	.LFE285:
 1038              		.size	oqResetI, .-oqResetI
 1039 045a 00BF     		.align	2
 1040 045c AFF30080 		.p2align 4,,15
 1041              		.global	oqPutTimeout
 1042              		.thumb
 1043              		.thumb_func
 1044              		.type	oqPutTimeout, %function
 1045              	oqPutTimeout:
 1046              	.LFB286:
 1047              		.loc 10 337 0
 1048              		.cfi_startproc
 1049              		@ args = 0, pretend = 0, frame = 24
 1050              		@ frame_needed = 0, uses_anonymous_args = 0
 1051 0460 00B5     		push	{lr}
 1052              		.cfi_def_cfa_offset 4
 1053              		.cfi_offset 14, -4
 1054 0462 87B0     		sub	sp, sp, #28
 1055              		.cfi_def_cfa_offset 32
 1056 0464 0390     		str	r0, [sp, #12]
 1057 0466 0B46     		mov	r3, r1
 1058 0468 0192     		str	r2, [sp, #4]
 1059 046a 8DF80B30 		strb	r3, [sp, #11]
 1060              		.loc 10 339 0
 1061 046e FFF71FFE 		bl	osalSysLock
 1062              		.loc 10 342 0
 1063 0472 0CE0     		b	.L51
 1064              	.L53:
 1065              	.LBB13:
 1066              		.loc 10 343 0
 1067 0474 039B     		ldr	r3, [sp, #12]
ARM GAS  /tmp/cc3MZpdY.s 			page 20


 1068 0476 1846     		mov	r0, r3
 1069 0478 0199     		ldr	r1, [sp, #4]
 1070 047a FFF741FE 		bl	osalThreadEnqueueTimeoutS
 1071 047e 0590     		str	r0, [sp, #20]
 1072              		.loc 10 344 0
 1073 0480 059B     		ldr	r3, [sp, #20]
 1074 0482 002B     		cmp	r3, #0
 1075 0484 03DA     		bge	.L51
 1076              		.loc 10 345 0
 1077 0486 FFF71BFE 		bl	osalSysUnlock
 1078              		.loc 10 346 0
 1079 048a 059B     		ldr	r3, [sp, #20]
 1080 048c 25E0     		b	.L52
 1081              	.L51:
 1082              	.LBE13:
 1083              		.loc 10 342 0
 1084 048e 039B     		ldr	r3, [sp, #12]
 1085 0490 9B68     		ldr	r3, [r3, #8]
 1086 0492 002B     		cmp	r3, #0
 1087 0494 EED0     		beq	.L53
 1088              		.loc 10 351 0
 1089 0496 039B     		ldr	r3, [sp, #12]
 1090 0498 9B68     		ldr	r3, [r3, #8]
 1091 049a 5A1E     		subs	r2, r3, #1
 1092 049c 039B     		ldr	r3, [sp, #12]
 1093 049e 9A60     		str	r2, [r3, #8]
 1094              		.loc 10 352 0
 1095 04a0 039B     		ldr	r3, [sp, #12]
 1096 04a2 5B69     		ldr	r3, [r3, #20]
 1097 04a4 591C     		adds	r1, r3, #1
 1098 04a6 039A     		ldr	r2, [sp, #12]
 1099 04a8 5161     		str	r1, [r2, #20]
 1100 04aa 9DF80B20 		ldrb	r2, [sp, #11]
 1101 04ae 1A70     		strb	r2, [r3]
 1102              		.loc 10 353 0
 1103 04b0 039B     		ldr	r3, [sp, #12]
 1104 04b2 5A69     		ldr	r2, [r3, #20]
 1105 04b4 039B     		ldr	r3, [sp, #12]
 1106 04b6 1B69     		ldr	r3, [r3, #16]
 1107 04b8 9A42     		cmp	r2, r3
 1108 04ba 03D3     		bcc	.L54
 1109              		.loc 10 354 0
 1110 04bc 039B     		ldr	r3, [sp, #12]
 1111 04be DA68     		ldr	r2, [r3, #12]
 1112 04c0 039B     		ldr	r3, [sp, #12]
 1113 04c2 5A61     		str	r2, [r3, #20]
 1114              	.L54:
 1115              		.loc 10 358 0
 1116 04c4 039B     		ldr	r3, [sp, #12]
 1117 04c6 DB69     		ldr	r3, [r3, #28]
 1118 04c8 002B     		cmp	r3, #0
 1119 04ca 03D0     		beq	.L55
 1120              		.loc 10 359 0
 1121 04cc 039B     		ldr	r3, [sp, #12]
 1122 04ce DB69     		ldr	r3, [r3, #28]
 1123 04d0 0398     		ldr	r0, [sp, #12]
 1124 04d2 9847     		blx	r3
ARM GAS  /tmp/cc3MZpdY.s 			page 21


 1125              	.L55:
 1126              		.loc 10 362 0
 1127 04d4 FFF7F4FD 		bl	osalSysUnlock
 1128              		.loc 10 364 0
 1129 04d8 0023     		movs	r3, #0
 1130              	.L52:
 1131              		.loc 10 365 0
 1132 04da 1846     		mov	r0, r3
 1133 04dc 07B0     		add	sp, sp, #28
 1134              		.cfi_def_cfa_offset 4
 1135              		@ sp needed
 1136 04de 5DF804FB 		ldr	pc, [sp], #4
 1137              		.cfi_endproc
 1138              	.LFE286:
 1139              		.size	oqPutTimeout, .-oqPutTimeout
 1140 04e2 00BF     		.align	2
 1141 04e4 AFF30080 		.p2align 4,,15
 1141      AFF30080 
 1141      AFF30080 
 1142              		.global	oqGetI
 1143              		.thumb
 1144              		.thumb_func
 1145              		.type	oqGetI, %function
 1146              	oqGetI:
 1147              	.LFB287:
 1148              		.loc 10 377 0
 1149              		.cfi_startproc
 1150              		@ args = 0, pretend = 0, frame = 16
 1151              		@ frame_needed = 0, uses_anonymous_args = 0
 1152 04f0 00B5     		push	{lr}
 1153              		.cfi_def_cfa_offset 4
 1154              		.cfi_offset 14, -4
 1155 04f2 85B0     		sub	sp, sp, #20
 1156              		.cfi_def_cfa_offset 24
 1157 04f4 0190     		str	r0, [sp, #4]
 1158              		.loc 10 382 0
 1159 04f6 019B     		ldr	r3, [sp, #4]
 1160 04f8 5A69     		ldr	r2, [r3, #20]
 1161 04fa 019B     		ldr	r3, [sp, #4]
 1162 04fc 9B69     		ldr	r3, [r3, #24]
 1163 04fe 9A42     		cmp	r2, r3
 1164 0500 05D1     		bne	.L57
 1165              		.loc 10 382 0 is_stmt 0 discriminator 1
 1166 0502 019B     		ldr	r3, [sp, #4]
 1167 0504 9B68     		ldr	r3, [r3, #8]
 1168 0506 002B     		cmp	r3, #0
 1169 0508 01D0     		beq	.L57
 1170              		.loc 10 382 0 discriminator 3
 1171 050a 0123     		movs	r3, #1
 1172 050c 00E0     		b	.L58
 1173              	.L57:
 1174              		.loc 10 382 0 discriminator 4
 1175 050e 0023     		movs	r3, #0
 1176              	.L58:
 1177              		.loc 10 382 0 discriminator 6
 1178 0510 03F00103 		and	r3, r3, #1
 1179 0514 DBB2     		uxtb	r3, r3
ARM GAS  /tmp/cc3MZpdY.s 			page 22


 1180 0516 002B     		cmp	r3, #0
 1181 0518 02D0     		beq	.L59
 1182              		.loc 10 383 0 is_stmt 1
 1183 051a 4FF0FF33 		mov	r3, #-1
 1184 051e 1DE0     		b	.L60
 1185              	.L59:
 1186              		.loc 10 386 0
 1187 0520 019B     		ldr	r3, [sp, #4]
 1188 0522 9B68     		ldr	r3, [r3, #8]
 1189 0524 5A1C     		adds	r2, r3, #1
 1190 0526 019B     		ldr	r3, [sp, #4]
 1191 0528 9A60     		str	r2, [r3, #8]
 1192              		.loc 10 387 0
 1193 052a 019B     		ldr	r3, [sp, #4]
 1194 052c 9B69     		ldr	r3, [r3, #24]
 1195 052e 591C     		adds	r1, r3, #1
 1196 0530 019A     		ldr	r2, [sp, #4]
 1197 0532 9161     		str	r1, [r2, #24]
 1198 0534 1B78     		ldrb	r3, [r3]
 1199 0536 8DF80F30 		strb	r3, [sp, #15]
 1200              		.loc 10 388 0
 1201 053a 019B     		ldr	r3, [sp, #4]
 1202 053c 9A69     		ldr	r2, [r3, #24]
 1203 053e 019B     		ldr	r3, [sp, #4]
 1204 0540 1B69     		ldr	r3, [r3, #16]
 1205 0542 9A42     		cmp	r2, r3
 1206 0544 03D3     		bcc	.L61
 1207              		.loc 10 389 0
 1208 0546 019B     		ldr	r3, [sp, #4]
 1209 0548 DA68     		ldr	r2, [r3, #12]
 1210 054a 019B     		ldr	r3, [sp, #4]
 1211 054c 9A61     		str	r2, [r3, #24]
 1212              	.L61:
 1213              		.loc 10 392 0
 1214 054e 019B     		ldr	r3, [sp, #4]
 1215 0550 1846     		mov	r0, r3
 1216 0552 0021     		movs	r1, #0
 1217 0554 FFF7E4FD 		bl	osalThreadDequeueNextI
 1218              		.loc 10 394 0
 1219 0558 9DF80F30 		ldrb	r3, [sp, #15]	@ zero_extendqisi2
 1220              	.L60:
 1221              		.loc 10 395 0
 1222 055c 1846     		mov	r0, r3
 1223 055e 05B0     		add	sp, sp, #20
 1224              		.cfi_def_cfa_offset 4
 1225              		@ sp needed
 1226 0560 5DF804FB 		ldr	pc, [sp], #4
 1227              		.cfi_endproc
 1228              	.LFE287:
 1229              		.size	oqGetI, .-oqGetI
 1230              		.align	2
 1231 0564 AFF30080 		.p2align 4,,15
 1231      AFF30080 
 1231      AFF30080 
 1232              		.global	oqWriteTimeout
 1233              		.thumb
 1234              		.thumb_func
ARM GAS  /tmp/cc3MZpdY.s 			page 23


 1235              		.type	oqWriteTimeout, %function
 1236              	oqWriteTimeout:
 1237              	.LFB288:
 1238              		.loc 10 422 0
 1239              		.cfi_startproc
 1240              		@ args = 0, pretend = 0, frame = 40
 1241              		@ frame_needed = 0, uses_anonymous_args = 0
 1242 0570 00B5     		push	{lr}
 1243              		.cfi_def_cfa_offset 4
 1244              		.cfi_offset 14, -4
 1245 0572 8BB0     		sub	sp, sp, #44
 1246              		.cfi_def_cfa_offset 48
 1247 0574 0390     		str	r0, [sp, #12]
 1248 0576 0291     		str	r1, [sp, #8]
 1249 0578 0192     		str	r2, [sp, #4]
 1250 057a 0093     		str	r3, [sp]
 1251              		.loc 10 424 0
 1252 057c 039B     		ldr	r3, [sp, #12]
 1253 057e DB69     		ldr	r3, [r3, #28]
 1254 0580 0793     		str	r3, [sp, #28]
 1255              		.loc 10 425 0
 1256 0582 0023     		movs	r3, #0
 1257 0584 0993     		str	r3, [sp, #36]
 1258              		.loc 10 429 0
 1259 0586 FFF793FD 		bl	osalSysLock
 1260              		.loc 10 434 0
 1261 058a FFF7A1FD 		bl	osalOsGetSystemTimeX
 1262 058e 0246     		mov	r2, r0
 1263 0590 009B     		ldr	r3, [sp]
 1264 0592 1344     		add	r3, r3, r2
 1265 0594 0693     		str	r3, [sp, #24]
 1266              	.L73:
 1267              	.LBB14:
 1268              		.loc 10 439 0
 1269 0596 28E0     		b	.L63
 1270              	.L69:
 1271              		.loc 10 442 0
 1272 0598 009B     		ldr	r3, [sp]
 1273 059a B3F1FF3F 		cmp	r3, #-1
 1274 059e 02D0     		beq	.L64
 1275              		.loc 10 442 0 is_stmt 0 discriminator 1
 1276 05a0 009B     		ldr	r3, [sp]
 1277 05a2 002B     		cmp	r3, #0
 1278 05a4 06D1     		bne	.L65
 1279              	.L64:
 1280              		.loc 10 443 0 is_stmt 1
 1281 05a6 039B     		ldr	r3, [sp, #12]
 1282 05a8 1846     		mov	r0, r3
 1283 05aa 0099     		ldr	r1, [sp]
 1284 05ac FFF7A8FD 		bl	osalThreadEnqueueTimeoutS
 1285 05b0 0890     		str	r0, [sp, #32]
 1286 05b2 13E0     		b	.L66
 1287              	.L65:
 1288              	.LBB15:
 1289              		.loc 10 446 0
 1290 05b4 FFF78CFD 		bl	osalOsGetSystemTimeX
 1291 05b8 0246     		mov	r2, r0
ARM GAS  /tmp/cc3MZpdY.s 			page 24


 1292 05ba 069B     		ldr	r3, [sp, #24]
 1293 05bc 9B1A     		subs	r3, r3, r2
 1294 05be 0593     		str	r3, [sp, #20]
 1295              		.loc 10 451 0
 1296 05c0 059A     		ldr	r2, [sp, #20]
 1297 05c2 009B     		ldr	r3, [sp]
 1298 05c4 9A42     		cmp	r2, r3
 1299 05c6 03D9     		bls	.L67
 1300              		.loc 10 452 0
 1301 05c8 FFF77AFD 		bl	osalSysUnlock
 1302              		.loc 10 453 0
 1303 05cc 099B     		ldr	r3, [sp, #36]
 1304 05ce 3FE0     		b	.L68
 1305              	.L67:
 1306              		.loc 10 456 0
 1307 05d0 039B     		ldr	r3, [sp, #12]
 1308 05d2 1846     		mov	r0, r3
 1309 05d4 0599     		ldr	r1, [sp, #20]
 1310 05d6 FFF793FD 		bl	osalThreadEnqueueTimeoutS
 1311 05da 0890     		str	r0, [sp, #32]
 1312              	.L66:
 1313              	.LBE15:
 1314              		.loc 10 460 0
 1315 05dc 089B     		ldr	r3, [sp, #32]
 1316 05de 002B     		cmp	r3, #0
 1317 05e0 03D0     		beq	.L63
 1318              		.loc 10 461 0
 1319 05e2 FFF76DFD 		bl	osalSysUnlock
 1320              		.loc 10 462 0
 1321 05e6 099B     		ldr	r3, [sp, #36]
 1322 05e8 32E0     		b	.L68
 1323              	.L63:
 1324              		.loc 10 439 0
 1325 05ea 039B     		ldr	r3, [sp, #12]
 1326 05ec 9B68     		ldr	r3, [r3, #8]
 1327 05ee 002B     		cmp	r3, #0
 1328 05f0 D2D0     		beq	.L69
 1329              		.loc 10 467 0
 1330 05f2 039B     		ldr	r3, [sp, #12]
 1331 05f4 9B68     		ldr	r3, [r3, #8]
 1332 05f6 5A1E     		subs	r2, r3, #1
 1333 05f8 039B     		ldr	r3, [sp, #12]
 1334 05fa 9A60     		str	r2, [r3, #8]
 1335              		.loc 10 468 0
 1336 05fc 039B     		ldr	r3, [sp, #12]
 1337 05fe 5B69     		ldr	r3, [r3, #20]
 1338 0600 591C     		adds	r1, r3, #1
 1339 0602 039A     		ldr	r2, [sp, #12]
 1340 0604 5161     		str	r1, [r2, #20]
 1341 0606 029A     		ldr	r2, [sp, #8]
 1342 0608 511C     		adds	r1, r2, #1
 1343 060a 0291     		str	r1, [sp, #8]
 1344 060c 1278     		ldrb	r2, [r2]	@ zero_extendqisi2
 1345 060e 1A70     		strb	r2, [r3]
 1346              		.loc 10 469 0
 1347 0610 039B     		ldr	r3, [sp, #12]
 1348 0612 5A69     		ldr	r2, [r3, #20]
ARM GAS  /tmp/cc3MZpdY.s 			page 25


 1349 0614 039B     		ldr	r3, [sp, #12]
 1350 0616 1B69     		ldr	r3, [r3, #16]
 1351 0618 9A42     		cmp	r2, r3
 1352 061a 03D3     		bcc	.L70
 1353              		.loc 10 470 0
 1354 061c 039B     		ldr	r3, [sp, #12]
 1355 061e DA68     		ldr	r2, [r3, #12]
 1356 0620 039B     		ldr	r3, [sp, #12]
 1357 0622 5A61     		str	r2, [r3, #20]
 1358              	.L70:
 1359              		.loc 10 474 0
 1360 0624 079B     		ldr	r3, [sp, #28]
 1361 0626 002B     		cmp	r3, #0
 1362 0628 02D0     		beq	.L71
 1363              		.loc 10 475 0
 1364 062a 079B     		ldr	r3, [sp, #28]
 1365 062c 0398     		ldr	r0, [sp, #12]
 1366 062e 9847     		blx	r3
 1367              	.L71:
 1368              		.loc 10 479 0
 1369 0630 FFF746FD 		bl	osalSysUnlock
 1370              		.loc 10 481 0
 1371 0634 099B     		ldr	r3, [sp, #36]
 1372 0636 0133     		adds	r3, r3, #1
 1373 0638 0993     		str	r3, [sp, #36]
 1374              		.loc 10 482 0
 1375 063a 019B     		ldr	r3, [sp, #4]
 1376 063c 013B     		subs	r3, r3, #1
 1377 063e 0193     		str	r3, [sp, #4]
 1378 0640 019B     		ldr	r3, [sp, #4]
 1379 0642 002B     		cmp	r3, #0
 1380 0644 01D1     		bne	.L72
 1381              		.loc 10 483 0
 1382 0646 099B     		ldr	r3, [sp, #36]
 1383 0648 02E0     		b	.L68
 1384              	.L72:
 1385              		.loc 10 486 0
 1386 064a FFF731FD 		bl	osalSysLock
 1387              	.LBE14:
 1388              		.loc 10 487 0
 1389 064e A2E7     		b	.L73
 1390              	.L68:
 1391              		.loc 10 488 0
 1392 0650 1846     		mov	r0, r3
 1393 0652 0BB0     		add	sp, sp, #44
 1394              		.cfi_def_cfa_offset 4
 1395              		@ sp needed
 1396 0654 5DF804FB 		ldr	pc, [sp], #4
 1397              		.cfi_endproc
 1398              	.LFE288:
 1399              		.size	oqWriteTimeout, .-oqWriteTimeout
 1400              	.Letext0:
 1401              		.file 11 "/usr/lib/gcc/arm-none-eabi/4.9.3/include/stddef.h"
 1402              		.file 12 "/usr/include/newlib/machine/_default_types.h"
 1403              		.file 13 "/usr/include/newlib/sys/_stdint.h"
 1404              		.file 14 "../../../os/common/ports/ARMCMx/compilers/GCC/chtypes.h"
 1405              		.file 15 "../../../os/rt/include/chsystypes.h"
ARM GAS  /tmp/cc3MZpdY.s 			page 26


 1406              		.file 16 "../../../os/common/ports/ARMCMx/chcore.h"
 1407              		.file 17 "../../../os/hal/ports/STM32/LLD/TIMv1/stm32_tim.h"
 1408              		.file 18 "../../../os/rt/include/chtm.h"
 1409              		.file 19 "../../../os/rt/include/chsem.h"
 1410              		.file 20 "../../../os/rt/include/chmtx.h"
 1411              		.file 21 "../../../os/hal/include/hal_queues.h"
 1412              		.file 22 "../../../os/common/ext/CMSIS/include/core_cm4.h"