ARM GAS  /tmp/ccgDY3K2.s 			page 1


   1              		.syntax unified
   2              		.cpu cortex-m4
   3              		.fpu softvfp
   4              		.eabi_attribute 20, 1
   5              		.eabi_attribute 21, 1
   6              		.eabi_attribute 23, 3
   7              		.eabi_attribute 24, 1
   8              		.eabi_attribute 25, 1
   9              		.eabi_attribute 26, 1
  10              		.eabi_attribute 30, 6
  11              		.eabi_attribute 34, 1
  12              		.eabi_attribute 18, 4
  13              		.thumb
  14              		.file	"hal_i2c_lld.c"
  15              		.text
  16              	.Ltext0:
  17              		.cfi_sections	.debug_frame
  18              		.align	2
  19              		.p2align 4,,15
  20              		.thumb
  21              		.thumb_func
  22              		.type	port_lock, %function
  23              	port_lock:
  24              	.LFB127:
  25              		.file 1 "../../../os/common/ports/ARMCMx/chcore_v7m.h"
  26              		.loc 1 594 0
  27              		.cfi_startproc
  28              		@ args = 0, pretend = 0, frame = 8
  29              		@ frame_needed = 0, uses_anonymous_args = 0
  30              		@ link register save eliminated.
  31 0000 82B0     		sub	sp, sp, #8
  32              		.cfi_def_cfa_offset 8
  33 0002 2023     		movs	r3, #32
  34 0004 0193     		str	r3, [sp, #4]
  35              	.LBB6:
  36              	.LBB7:
  37              		.file 2 "../../../os/common/ext/CMSIS/include/cmsis_gcc.h"
  38              		.loc 2 264 0
  39 0006 019B     		ldr	r3, [sp, #4]
  40              	@ 264 "../../../os/common/ext/CMSIS/include/cmsis_gcc.h" 1
  41 0008 83F31188 		MSR basepri, r3
  42              	@ 0 "" 2
  43              		.thumb
  44              	.LBE7:
  45              	.LBE6:
  46              		.loc 1 611 0
  47 000c 02B0     		add	sp, sp, #8
  48              		.cfi_def_cfa_offset 0
  49              		@ sp needed
  50 000e 7047     		bx	lr
  51              		.cfi_endproc
  52              	.LFE127:
  53              		.size	port_lock, .-port_lock
  54              		.align	2
  55              		.p2align 4,,15
  56              		.thumb
  57              		.thumb_func
ARM GAS  /tmp/ccgDY3K2.s 			page 2


  58              		.type	port_unlock, %function
  59              	port_unlock:
  60              	.LFB128:
  61              		.loc 1 618 0
  62              		.cfi_startproc
  63              		@ args = 0, pretend = 0, frame = 8
  64              		@ frame_needed = 0, uses_anonymous_args = 0
  65              		@ link register save eliminated.
  66 0010 82B0     		sub	sp, sp, #8
  67              		.cfi_def_cfa_offset 8
  68 0012 0023     		movs	r3, #0
  69 0014 0193     		str	r3, [sp, #4]
  70              	.LBB8:
  71              	.LBB9:
  72              		.loc 2 264 0
  73 0016 019B     		ldr	r3, [sp, #4]
  74              	@ 264 "../../../os/common/ext/CMSIS/include/cmsis_gcc.h" 1
  75 0018 83F31188 		MSR basepri, r3
  76              	@ 0 "" 2
  77              		.thumb
  78              	.LBE9:
  79              	.LBE8:
  80              		.loc 1 625 0
  81 001c 02B0     		add	sp, sp, #8
  82              		.cfi_def_cfa_offset 0
  83              		@ sp needed
  84 001e 7047     		bx	lr
  85              		.cfi_endproc
  86              	.LFE128:
  87              		.size	port_unlock, .-port_unlock
  88              		.align	2
  89              		.p2align 4,,15
  90              		.thumb
  91              		.thumb_func
  92              		.type	port_lock_from_isr, %function
  93              	port_lock_from_isr:
  94              	.LFB129:
  95              		.loc 1 633 0
  96              		.cfi_startproc
  97              		@ args = 0, pretend = 0, frame = 0
  98              		@ frame_needed = 0, uses_anonymous_args = 0
  99 0020 08B5     		push	{r3, lr}
 100              		.cfi_def_cfa_offset 8
 101              		.cfi_offset 3, -8
 102              		.cfi_offset 14, -4
 103              		.loc 1 635 0
 104 0022 FFF7EDFF 		bl	port_lock
 105              		.loc 1 636 0
 106 0026 08BD     		pop	{r3, pc}
 107              		.cfi_endproc
 108              	.LFE129:
 109              		.size	port_lock_from_isr, .-port_lock_from_isr
 110              		.align	2
 111 0028 AFF30080 		.p2align 4,,15
 111      AFF30080 
 112              		.thumb
 113              		.thumb_func
ARM GAS  /tmp/ccgDY3K2.s 			page 3


 114              		.type	port_unlock_from_isr, %function
 115              	port_unlock_from_isr:
 116              	.LFB130:
 117              		.loc 1 644 0
 118              		.cfi_startproc
 119              		@ args = 0, pretend = 0, frame = 0
 120              		@ frame_needed = 0, uses_anonymous_args = 0
 121 0030 08B5     		push	{r3, lr}
 122              		.cfi_def_cfa_offset 8
 123              		.cfi_offset 3, -8
 124              		.cfi_offset 14, -4
 125              		.loc 1 646 0
 126 0032 FFF7EDFF 		bl	port_unlock
 127              		.loc 1 647 0
 128 0036 08BD     		pop	{r3, pc}
 129              		.cfi_endproc
 130              	.LFE130:
 131              		.size	port_unlock_from_isr, .-port_unlock_from_isr
 132              		.align	2
 133 0038 AFF30080 		.p2align 4,,15
 133      AFF30080 
 134              		.thumb
 135              		.thumb_func
 136              		.type	st_lld_get_counter, %function
 137              	st_lld_get_counter:
 138              	.LFB136:
 139              		.file 3 "../../../os/hal/ports/STM32/LLD/TIMv1/hal_st_lld.h"
 140              		.loc 3 139 0
 141              		.cfi_startproc
 142              		@ args = 0, pretend = 0, frame = 0
 143              		@ frame_needed = 0, uses_anonymous_args = 0
 144              		@ link register save eliminated.
 145              		.loc 3 141 0
 146 0040 4FF08043 		mov	r3, #1073741824
 147 0044 5B6A     		ldr	r3, [r3, #36]
 148              		.loc 3 142 0
 149 0046 1846     		mov	r0, r3
 150 0048 7047     		bx	lr
 151              		.cfi_endproc
 152              	.LFE136:
 153              		.size	st_lld_get_counter, .-st_lld_get_counter
 154 004a 00BF     		.align	2
 155 004c AFF30080 		.p2align 4,,15
 156              		.thumb
 157              		.thumb_func
 158              		.type	port_timer_get_time, %function
 159              	port_timer_get_time:
 160              	.LFB145:
 161              		.file 4 "../../../os/common/ports/ARMCMx/chcore_timer.h"
 162              		.loc 4 105 0
 163              		.cfi_startproc
 164              		@ args = 0, pretend = 0, frame = 0
 165              		@ frame_needed = 0, uses_anonymous_args = 0
 166 0050 08B5     		push	{r3, lr}
 167              		.cfi_def_cfa_offset 8
 168              		.cfi_offset 3, -8
 169              		.cfi_offset 14, -4
ARM GAS  /tmp/ccgDY3K2.s 			page 4


 170              		.loc 4 107 0
 171 0052 FFF7F5FF 		bl	st_lld_get_counter
 172 0056 0346     		mov	r3, r0
 173              		.loc 4 108 0
 174 0058 1846     		mov	r0, r3
 175 005a 08BD     		pop	{r3, pc}
 176              		.cfi_endproc
 177              	.LFE145:
 178              		.size	port_timer_get_time, .-port_timer_get_time
 179              		.align	2
 180 005c AFF30080 		.p2align 4,,15
 181              		.thumb
 182              		.thumb_func
 183              		.type	chSysLock, %function
 184              	chSysLock:
 185              	.LFB167:
 186              		.file 5 "../../../os/rt/include/chsys.h"
 187              		.loc 5 374 0
 188              		.cfi_startproc
 189              		@ args = 0, pretend = 0, frame = 0
 190              		@ frame_needed = 0, uses_anonymous_args = 0
 191 0060 08B5     		push	{r3, lr}
 192              		.cfi_def_cfa_offset 8
 193              		.cfi_offset 3, -8
 194              		.cfi_offset 14, -4
 195              		.loc 5 376 0
 196 0062 FFF7CDFF 		bl	port_lock
 197              		.loc 5 379 0
 198 0066 08BD     		pop	{r3, pc}
 199              		.cfi_endproc
 200              	.LFE167:
 201              		.size	chSysLock, .-chSysLock
 202              		.align	2
 203 0068 AFF30080 		.p2align 4,,15
 203      AFF30080 
 204              		.thumb
 205              		.thumb_func
 206              		.type	chSysUnlock, %function
 207              	chSysUnlock:
 208              	.LFB168:
 209              		.loc 5 386 0
 210              		.cfi_startproc
 211              		@ args = 0, pretend = 0, frame = 0
 212              		@ frame_needed = 0, uses_anonymous_args = 0
 213 0070 08B5     		push	{r3, lr}
 214              		.cfi_def_cfa_offset 8
 215              		.cfi_offset 3, -8
 216              		.cfi_offset 14, -4
 217              		.loc 5 399 0
 218 0072 FFF7CDFF 		bl	port_unlock
 219              		.loc 5 400 0
 220 0076 08BD     		pop	{r3, pc}
 221              		.cfi_endproc
 222              	.LFE168:
 223              		.size	chSysUnlock, .-chSysUnlock
 224              		.align	2
 225 0078 AFF30080 		.p2align 4,,15
ARM GAS  /tmp/ccgDY3K2.s 			page 5


 225      AFF30080 
 226              		.thumb
 227              		.thumb_func
 228              		.type	chSysLockFromISR, %function
 229              	chSysLockFromISR:
 230              	.LFB169:
 231              		.loc 5 414 0
 232              		.cfi_startproc
 233              		@ args = 0, pretend = 0, frame = 0
 234              		@ frame_needed = 0, uses_anonymous_args = 0
 235 0080 08B5     		push	{r3, lr}
 236              		.cfi_def_cfa_offset 8
 237              		.cfi_offset 3, -8
 238              		.cfi_offset 14, -4
 239              		.loc 5 416 0
 240 0082 FFF7CDFF 		bl	port_lock_from_isr
 241              		.loc 5 419 0
 242 0086 08BD     		pop	{r3, pc}
 243              		.cfi_endproc
 244              	.LFE169:
 245              		.size	chSysLockFromISR, .-chSysLockFromISR
 246              		.align	2
 247 0088 AFF30080 		.p2align 4,,15
 247      AFF30080 
 248              		.thumb
 249              		.thumb_func
 250              		.type	chSysUnlockFromISR, %function
 251              	chSysUnlockFromISR:
 252              	.LFB170:
 253              		.loc 5 434 0
 254              		.cfi_startproc
 255              		@ args = 0, pretend = 0, frame = 0
 256              		@ frame_needed = 0, uses_anonymous_args = 0
 257 0090 08B5     		push	{r3, lr}
 258              		.cfi_def_cfa_offset 8
 259              		.cfi_offset 3, -8
 260              		.cfi_offset 14, -4
 261              		.loc 5 438 0
 262 0092 FFF7CDFF 		bl	port_unlock_from_isr
 263              		.loc 5 439 0
 264 0096 08BD     		pop	{r3, pc}
 265              		.cfi_endproc
 266              	.LFE170:
 267              		.size	chSysUnlockFromISR, .-chSysUnlockFromISR
 268              		.align	2
 269 0098 AFF30080 		.p2align 4,,15
 269      AFF30080 
 270              		.thumb
 271              		.thumb_func
 272              		.type	chVTGetSystemTimeX, %function
 273              	chVTGetSystemTimeX:
 274              	.LFB181:
 275              		.file 6 "../../../os/rt/include/chvt.h"
 276              		.loc 6 392 0
 277              		.cfi_startproc
 278              		@ args = 0, pretend = 0, frame = 0
 279              		@ frame_needed = 0, uses_anonymous_args = 0
ARM GAS  /tmp/ccgDY3K2.s 			page 6


 280 00a0 08B5     		push	{r3, lr}
 281              		.cfi_def_cfa_offset 8
 282              		.cfi_offset 3, -8
 283              		.cfi_offset 14, -4
 284              		.loc 6 397 0
 285 00a2 FFF7D5FF 		bl	port_timer_get_time
 286 00a6 0346     		mov	r3, r0
 287              		.loc 6 399 0
 288 00a8 1846     		mov	r0, r3
 289 00aa 08BD     		pop	{r3, pc}
 290              		.cfi_endproc
 291              	.LFE181:
 292              		.size	chVTGetSystemTimeX, .-chVTGetSystemTimeX
 293              		.align	2
 294 00ac AFF30080 		.p2align 4,,15
 295              		.thumb
 296              		.thumb_func
 297              		.type	chVTIsTimeWithinX, %function
 298              	chVTIsTimeWithinX:
 299              	.LFB184:
 300              		.loc 6 450 0
 301              		.cfi_startproc
 302              		@ args = 0, pretend = 0, frame = 16
 303              		@ frame_needed = 0, uses_anonymous_args = 0
 304              		@ link register save eliminated.
 305 00b0 84B0     		sub	sp, sp, #16
 306              		.cfi_def_cfa_offset 16
 307 00b2 0390     		str	r0, [sp, #12]
 308 00b4 0291     		str	r1, [sp, #8]
 309 00b6 0192     		str	r2, [sp, #4]
 310              		.loc 6 452 0
 311 00b8 039A     		ldr	r2, [sp, #12]
 312 00ba 029B     		ldr	r3, [sp, #8]
 313 00bc D21A     		subs	r2, r2, r3
 314 00be 0199     		ldr	r1, [sp, #4]
 315 00c0 029B     		ldr	r3, [sp, #8]
 316 00c2 CB1A     		subs	r3, r1, r3
 317 00c4 9A42     		cmp	r2, r3
 318 00c6 34BF     		ite	cc
 319 00c8 0123     		movcc	r3, #1
 320 00ca 0023     		movcs	r3, #0
 321 00cc DBB2     		uxtb	r3, r3
 322              		.loc 6 453 0
 323 00ce 1846     		mov	r0, r3
 324 00d0 04B0     		add	sp, sp, #16
 325              		.cfi_def_cfa_offset 0
 326              		@ sp needed
 327 00d2 7047     		bx	lr
 328              		.cfi_endproc
 329              	.LFE184:
 330              		.size	chVTIsTimeWithinX, .-chVTIsTimeWithinX
 331              		.align	2
 332 00d4 AFF30080 		.p2align 4,,15
 332      AFF30080 
 332      AFF30080 
 333              		.thumb
 334              		.thumb_func
ARM GAS  /tmp/ccgDY3K2.s 			page 7


 335              		.type	osalSysHalt, %function
 336              	osalSysHalt:
 337              	.LFB249:
 338              		.file 7 "../../../os/hal/osal/rt/osal.h"
 339              		.loc 7 460 0
 340              		.cfi_startproc
 341              		@ args = 0, pretend = 0, frame = 8
 342              		@ frame_needed = 0, uses_anonymous_args = 0
 343 00e0 00B5     		push	{lr}
 344              		.cfi_def_cfa_offset 4
 345              		.cfi_offset 14, -4
 346 00e2 83B0     		sub	sp, sp, #12
 347              		.cfi_def_cfa_offset 16
 348 00e4 0190     		str	r0, [sp, #4]
 349              		.loc 7 462 0
 350 00e6 0198     		ldr	r0, [sp, #4]
 351 00e8 FFF7FEFF 		bl	chSysHalt
 352              		.loc 7 463 0
 353 00ec 03B0     		add	sp, sp, #12
 354              		.cfi_def_cfa_offset 4
 355              		@ sp needed
 356 00ee 5DF804FB 		ldr	pc, [sp], #4
 357              		.cfi_endproc
 358              	.LFE249:
 359              		.size	osalSysHalt, .-osalSysHalt
 360 00f2 00BF     		.align	2
 361 00f4 AFF30080 		.p2align 4,,15
 361      AFF30080 
 361      AFF30080 
 362              		.thumb
 363              		.thumb_func
 364              		.type	osalSysLock, %function
 365              	osalSysLock:
 366              	.LFB252:
 367              		.loc 7 491 0
 368              		.cfi_startproc
 369              		@ args = 0, pretend = 0, frame = 0
 370              		@ frame_needed = 0, uses_anonymous_args = 0
 371 0100 08B5     		push	{r3, lr}
 372              		.cfi_def_cfa_offset 8
 373              		.cfi_offset 3, -8
 374              		.cfi_offset 14, -4
 375              		.loc 7 493 0
 376 0102 FFF7ADFF 		bl	chSysLock
 377              		.loc 7 494 0
 378 0106 08BD     		pop	{r3, pc}
 379              		.cfi_endproc
 380              	.LFE252:
 381              		.size	osalSysLock, .-osalSysLock
 382              		.align	2
 383 0108 AFF30080 		.p2align 4,,15
 383      AFF30080 
 384              		.thumb
 385              		.thumb_func
 386              		.type	osalSysUnlock, %function
 387              	osalSysUnlock:
 388              	.LFB253:
ARM GAS  /tmp/ccgDY3K2.s 			page 8


 389              		.loc 7 502 0
 390              		.cfi_startproc
 391              		@ args = 0, pretend = 0, frame = 0
 392              		@ frame_needed = 0, uses_anonymous_args = 0
 393 0110 08B5     		push	{r3, lr}
 394              		.cfi_def_cfa_offset 8
 395              		.cfi_offset 3, -8
 396              		.cfi_offset 14, -4
 397              		.loc 7 504 0
 398 0112 FFF7ADFF 		bl	chSysUnlock
 399              		.loc 7 505 0
 400 0116 08BD     		pop	{r3, pc}
 401              		.cfi_endproc
 402              	.LFE253:
 403              		.size	osalSysUnlock, .-osalSysUnlock
 404              		.align	2
 405 0118 AFF30080 		.p2align 4,,15
 405      AFF30080 
 406              		.thumb
 407              		.thumb_func
 408              		.type	osalSysLockFromISR, %function
 409              	osalSysLockFromISR:
 410              	.LFB254:
 411              		.loc 7 513 0
 412              		.cfi_startproc
 413              		@ args = 0, pretend = 0, frame = 0
 414              		@ frame_needed = 0, uses_anonymous_args = 0
 415 0120 08B5     		push	{r3, lr}
 416              		.cfi_def_cfa_offset 8
 417              		.cfi_offset 3, -8
 418              		.cfi_offset 14, -4
 419              		.loc 7 515 0
 420 0122 FFF7ADFF 		bl	chSysLockFromISR
 421              		.loc 7 516 0
 422 0126 08BD     		pop	{r3, pc}
 423              		.cfi_endproc
 424              	.LFE254:
 425              		.size	osalSysLockFromISR, .-osalSysLockFromISR
 426              		.align	2
 427 0128 AFF30080 		.p2align 4,,15
 427      AFF30080 
 428              		.thumb
 429              		.thumb_func
 430              		.type	osalSysUnlockFromISR, %function
 431              	osalSysUnlockFromISR:
 432              	.LFB255:
 433              		.loc 7 524 0
 434              		.cfi_startproc
 435              		@ args = 0, pretend = 0, frame = 0
 436              		@ frame_needed = 0, uses_anonymous_args = 0
 437 0130 08B5     		push	{r3, lr}
 438              		.cfi_def_cfa_offset 8
 439              		.cfi_offset 3, -8
 440              		.cfi_offset 14, -4
 441              		.loc 7 526 0
 442 0132 FFF7ADFF 		bl	chSysUnlockFromISR
 443              		.loc 7 527 0
ARM GAS  /tmp/ccgDY3K2.s 			page 9


 444 0136 08BD     		pop	{r3, pc}
 445              		.cfi_endproc
 446              	.LFE255:
 447              		.size	osalSysUnlockFromISR, .-osalSysUnlockFromISR
 448              		.align	2
 449 0138 AFF30080 		.p2align 4,,15
 449      AFF30080 
 450              		.thumb
 451              		.thumb_func
 452              		.type	osalOsGetSystemTimeX, %function
 453              	osalOsGetSystemTimeX:
 454              	.LFB261:
 455              		.loc 7 616 0
 456              		.cfi_startproc
 457              		@ args = 0, pretend = 0, frame = 0
 458              		@ frame_needed = 0, uses_anonymous_args = 0
 459 0140 08B5     		push	{r3, lr}
 460              		.cfi_def_cfa_offset 8
 461              		.cfi_offset 3, -8
 462              		.cfi_offset 14, -4
 463              		.loc 7 618 0
 464 0142 FFF7ADFF 		bl	chVTGetSystemTimeX
 465 0146 0346     		mov	r3, r0
 466              		.loc 7 619 0
 467 0148 1846     		mov	r0, r3
 468 014a 08BD     		pop	{r3, pc}
 469              		.cfi_endproc
 470              	.LFE261:
 471              		.size	osalOsGetSystemTimeX, .-osalOsGetSystemTimeX
 472              		.align	2
 473 014c AFF30080 		.p2align 4,,15
 474              		.thumb
 475              		.thumb_func
 476              		.type	osalOsIsTimeWithinX, %function
 477              	osalOsIsTimeWithinX:
 478              	.LFB262:
 479              		.loc 7 637 0
 480              		.cfi_startproc
 481              		@ args = 0, pretend = 0, frame = 16
 482              		@ frame_needed = 0, uses_anonymous_args = 0
 483 0150 00B5     		push	{lr}
 484              		.cfi_def_cfa_offset 4
 485              		.cfi_offset 14, -4
 486 0152 85B0     		sub	sp, sp, #20
 487              		.cfi_def_cfa_offset 24
 488 0154 0390     		str	r0, [sp, #12]
 489 0156 0291     		str	r1, [sp, #8]
 490 0158 0192     		str	r2, [sp, #4]
 491              		.loc 7 639 0
 492 015a 0398     		ldr	r0, [sp, #12]
 493 015c 0299     		ldr	r1, [sp, #8]
 494 015e 019A     		ldr	r2, [sp, #4]
 495 0160 FFF7A6FF 		bl	chVTIsTimeWithinX
 496 0164 0346     		mov	r3, r0
 497              		.loc 7 640 0
 498 0166 1846     		mov	r0, r3
 499 0168 05B0     		add	sp, sp, #20
ARM GAS  /tmp/ccgDY3K2.s 			page 10


 500              		.cfi_def_cfa_offset 4
 501              		@ sp needed
 502 016a 5DF804FB 		ldr	pc, [sp], #4
 503              		.cfi_endproc
 504              	.LFE262:
 505              		.size	osalOsIsTimeWithinX, .-osalOsIsTimeWithinX
 506 016e 00BF     		.align	2
 507              		.p2align 4,,15
 508              		.thumb
 509              		.thumb_func
 510              		.type	osalThreadSuspendTimeoutS, %function
 511              	osalThreadSuspendTimeoutS:
 512              	.LFB266:
 513              		.loc 7 711 0
 514              		.cfi_startproc
 515              		@ args = 0, pretend = 0, frame = 8
 516              		@ frame_needed = 0, uses_anonymous_args = 0
 517 0170 00B5     		push	{lr}
 518              		.cfi_def_cfa_offset 4
 519              		.cfi_offset 14, -4
 520 0172 83B0     		sub	sp, sp, #12
 521              		.cfi_def_cfa_offset 16
 522 0174 0190     		str	r0, [sp, #4]
 523 0176 0091     		str	r1, [sp]
 524              		.loc 7 713 0
 525 0178 0198     		ldr	r0, [sp, #4]
 526 017a 0099     		ldr	r1, [sp]
 527 017c FFF7FEFF 		bl	chThdSuspendTimeoutS
 528 0180 0346     		mov	r3, r0
 529              		.loc 7 714 0
 530 0182 1846     		mov	r0, r3
 531 0184 03B0     		add	sp, sp, #12
 532              		.cfi_def_cfa_offset 4
 533              		@ sp needed
 534 0186 5DF804FB 		ldr	pc, [sp], #4
 535              		.cfi_endproc
 536              	.LFE266:
 537              		.size	osalThreadSuspendTimeoutS, .-osalThreadSuspendTimeoutS
 538 018a 00BF     		.align	2
 539 018c AFF30080 		.p2align 4,,15
 540              		.thumb
 541              		.thumb_func
 542              		.type	osalThreadResumeI, %function
 543              	osalThreadResumeI:
 544              	.LFB267:
 545              		.loc 7 726 0
 546              		.cfi_startproc
 547              		@ args = 0, pretend = 0, frame = 8
 548              		@ frame_needed = 0, uses_anonymous_args = 0
 549 0190 00B5     		push	{lr}
 550              		.cfi_def_cfa_offset 4
 551              		.cfi_offset 14, -4
 552 0192 83B0     		sub	sp, sp, #12
 553              		.cfi_def_cfa_offset 16
 554 0194 0190     		str	r0, [sp, #4]
 555 0196 0091     		str	r1, [sp]
 556              		.loc 7 728 0
ARM GAS  /tmp/ccgDY3K2.s 			page 11


 557 0198 0198     		ldr	r0, [sp, #4]
 558 019a 0099     		ldr	r1, [sp]
 559 019c FFF7FEFF 		bl	chThdResumeI
 560              		.loc 7 729 0
 561 01a0 03B0     		add	sp, sp, #12
 562              		.cfi_def_cfa_offset 4
 563              		@ sp needed
 564 01a2 5DF804FB 		ldr	pc, [sp], #4
 565              		.cfi_endproc
 566              	.LFE267:
 567              		.size	osalThreadResumeI, .-osalThreadResumeI
 568              		.comm	I2CD1,56,4
 569 01a6 00BF     		.align	2
 570 01a8 AFF30080 		.p2align 4,,15
 570      AFF30080 
 571              		.thumb
 572              		.thumb_func
 573              		.type	i2c_lld_abort_operation, %function
 574              	i2c_lld_abort_operation:
 575              	.LFB279:
 576              		.file 8 "../../../os/hal/ports/STM32/LLD/I2Cv1/hal_i2c_lld.c"
 577              		.loc 8 122 0
 578              		.cfi_startproc
 579              		@ args = 0, pretend = 0, frame = 16
 580              		@ frame_needed = 0, uses_anonymous_args = 0
 581              		@ link register save eliminated.
 582 01b0 84B0     		sub	sp, sp, #16
 583              		.cfi_def_cfa_offset 16
 584 01b2 0190     		str	r0, [sp, #4]
 585              		.loc 8 123 0
 586 01b4 019B     		ldr	r3, [sp, #4]
 587 01b6 5B6B     		ldr	r3, [r3, #52]
 588 01b8 0393     		str	r3, [sp, #12]
 589              		.loc 8 126 0
 590 01ba 039B     		ldr	r3, [sp, #12]
 591 01bc 4FF40042 		mov	r2, #32768
 592 01c0 1A60     		str	r2, [r3]
 593              		.loc 8 127 0
 594 01c2 039B     		ldr	r3, [sp, #12]
 595 01c4 0022     		movs	r2, #0
 596 01c6 1A60     		str	r2, [r3]
 597              		.loc 8 128 0
 598 01c8 039B     		ldr	r3, [sp, #12]
 599 01ca 0022     		movs	r2, #0
 600 01cc 5A60     		str	r2, [r3, #4]
 601              		.loc 8 129 0
 602 01ce 039B     		ldr	r3, [sp, #12]
 603 01d0 0022     		movs	r2, #0
 604 01d2 5A61     		str	r2, [r3, #20]
 605              		.loc 8 132 0
 606 01d4 019B     		ldr	r3, [sp, #4]
 607 01d6 1B6B     		ldr	r3, [r3, #48]
 608 01d8 1B68     		ldr	r3, [r3]
 609 01da 019A     		ldr	r2, [sp, #4]
 610 01dc 126B     		ldr	r2, [r2, #48]
 611 01de 1268     		ldr	r2, [r2]
 612 01e0 1268     		ldr	r2, [r2]
ARM GAS  /tmp/ccgDY3K2.s 			page 12


 613 01e2 22F01F02 		bic	r2, r2, #31
 614 01e6 1A60     		str	r2, [r3]
 615 01e8 00BF     		nop
 616              	.L30:
 617              		.loc 8 132 0 is_stmt 0 discriminator 2
 618 01ea 019B     		ldr	r3, [sp, #4]
 619 01ec 1B6B     		ldr	r3, [r3, #48]
 620 01ee 1B68     		ldr	r3, [r3]
 621 01f0 1B68     		ldr	r3, [r3]
 622 01f2 03F00103 		and	r3, r3, #1
 623 01f6 002B     		cmp	r3, #0
 624 01f8 F7D1     		bne	.L30
 625              		.loc 8 132 0 discriminator 3
 626 01fa 019B     		ldr	r3, [sp, #4]
 627 01fc 1B6B     		ldr	r3, [r3, #48]
 628 01fe 5B68     		ldr	r3, [r3, #4]
 629 0200 019A     		ldr	r2, [sp, #4]
 630 0202 126B     		ldr	r2, [r2, #48]
 631 0204 127A     		ldrb	r2, [r2, #8]	@ zero_extendqisi2
 632 0206 1146     		mov	r1, r2
 633 0208 3D22     		movs	r2, #61
 634 020a 8A40     		lsls	r2, r2, r1
 635 020c 1A60     		str	r2, [r3]
 636              		.loc 8 133 0 is_stmt 1 discriminator 3
 637 020e 019B     		ldr	r3, [sp, #4]
 638 0210 DB6A     		ldr	r3, [r3, #44]
 639 0212 1B68     		ldr	r3, [r3]
 640 0214 019A     		ldr	r2, [sp, #4]
 641 0216 D26A     		ldr	r2, [r2, #44]
 642 0218 1268     		ldr	r2, [r2]
 643 021a 1268     		ldr	r2, [r2]
 644 021c 22F01F02 		bic	r2, r2, #31
 645 0220 1A60     		str	r2, [r3]
 646 0222 00BF     		nop
 647              	.L31:
 648              		.loc 8 133 0 is_stmt 0 discriminator 2
 649 0224 019B     		ldr	r3, [sp, #4]
 650 0226 DB6A     		ldr	r3, [r3, #44]
 651 0228 1B68     		ldr	r3, [r3]
 652 022a 1B68     		ldr	r3, [r3]
 653 022c 03F00103 		and	r3, r3, #1
 654 0230 002B     		cmp	r3, #0
 655 0232 F7D1     		bne	.L31
 656              		.loc 8 133 0 discriminator 3
 657 0234 019B     		ldr	r3, [sp, #4]
 658 0236 DB6A     		ldr	r3, [r3, #44]
 659 0238 5B68     		ldr	r3, [r3, #4]
 660 023a 019A     		ldr	r2, [sp, #4]
 661 023c D26A     		ldr	r2, [r2, #44]
 662 023e 127A     		ldrb	r2, [r2, #8]	@ zero_extendqisi2
 663 0240 1146     		mov	r1, r2
 664 0242 3D22     		movs	r2, #61
 665 0244 8A40     		lsls	r2, r2, r1
 666 0246 1A60     		str	r2, [r3]
 667              		.loc 8 134 0 is_stmt 1 discriminator 3
 668 0248 04B0     		add	sp, sp, #16
 669              		.cfi_def_cfa_offset 0
ARM GAS  /tmp/ccgDY3K2.s 			page 13


 670              		@ sp needed
 671 024a 7047     		bx	lr
 672              		.cfi_endproc
 673              	.LFE279:
 674              		.size	i2c_lld_abort_operation, .-i2c_lld_abort_operation
 675              		.align	2
 676 024c AFF30080 		.p2align 4,,15
 677              		.thumb
 678              		.thumb_func
 679              		.type	i2c_lld_set_clock, %function
 680              	i2c_lld_set_clock:
 681              	.LFB280:
 682              		.loc 8 143 0
 683              		.cfi_startproc
 684              		@ args = 0, pretend = 0, frame = 24
 685              		@ frame_needed = 0, uses_anonymous_args = 0
 686              		@ link register save eliminated.
 687 0250 86B0     		sub	sp, sp, #24
 688              		.cfi_def_cfa_offset 24
 689 0252 0190     		str	r0, [sp, #4]
 690              		.loc 8 144 0
 691 0254 019B     		ldr	r3, [sp, #4]
 692 0256 5B6B     		ldr	r3, [r3, #52]
 693 0258 0493     		str	r3, [sp, #16]
 694              		.loc 8 146 0
 695 025a 019B     		ldr	r3, [sp, #4]
 696 025c 5B68     		ldr	r3, [r3, #4]
 697 025e 5B68     		ldr	r3, [r3, #4]
 698 0260 0393     		str	r3, [sp, #12]
 699              		.loc 8 147 0
 700 0262 019B     		ldr	r3, [sp, #4]
 701 0264 5B68     		ldr	r3, [r3, #4]
 702 0266 1B7A     		ldrb	r3, [r3, #8]
 703 0268 8DF80B30 		strb	r3, [sp, #11]
 704              		.loc 8 154 0
 705 026c 049B     		ldr	r3, [sp, #16]
 706 026e 5A68     		ldr	r2, [r3, #4]
 707 0270 4FF6C073 		movw	r3, #65472
 708 0274 1340     		ands	r3, r3, r2
 709 0276 049A     		ldr	r2, [sp, #16]
 710 0278 5360     		str	r3, [r2, #4]
 711              		.loc 8 155 0
 712 027a 049B     		ldr	r3, [sp, #16]
 713 027c 5B68     		ldr	r3, [r3, #4]
 714 027e 43F02A02 		orr	r2, r3, #42
 715 0282 049B     		ldr	r3, [sp, #16]
 716 0284 5A60     		str	r2, [r3, #4]
 717              		.loc 8 158 0
 718 0286 0023     		movs	r3, #0
 719 0288 ADF81630 		strh	r3, [sp, #22]	@ movhi
 720              		.loc 8 159 0
 721 028c 40F6FF73 		movw	r3, #4095
 722 0290 ADF81430 		strh	r3, [sp, #20]	@ movhi
 723              		.loc 8 161 0
 724 0294 039B     		ldr	r3, [sp, #12]
 725 0296 2D4A     		ldr	r2, .L39
 726 0298 9342     		cmp	r3, r2
ARM GAS  /tmp/ccgDY3K2.s 			page 14


 727 029a 15DC     		bgt	.L33
 728              		.loc 8 168 0
 729 029c 039B     		ldr	r3, [sp, #12]
 730 029e 5B00     		lsls	r3, r3, #1
 731 02a0 1A46     		mov	r2, r3
 732 02a2 2B4B     		ldr	r3, .L39+4
 733 02a4 B3FBF2F3 		udiv	r3, r3, r2
 734 02a8 ADF81430 		strh	r3, [sp, #20]	@ movhi
 735              		.loc 8 172 0
 736 02ac BDF81430 		ldrh	r3, [sp, #20]	@ movhi
 737 02b0 C3F30B03 		ubfx	r3, r3, #0, #12
 738 02b4 9AB2     		uxth	r2, r3
 739 02b6 BDF81630 		ldrh	r3, [sp, #22]	@ movhi
 740 02ba 1343     		orrs	r3, r3, r2
 741 02bc ADF81630 		strh	r3, [sp, #22]	@ movhi
 742              		.loc 8 175 0
 743 02c0 049B     		ldr	r3, [sp, #16]
 744 02c2 2B22     		movs	r2, #43
 745 02c4 1A62     		str	r2, [r3, #32]
 746 02c6 3AE0     		b	.L37
 747              	.L33:
 748              		.loc 8 177 0
 749 02c8 039B     		ldr	r3, [sp, #12]
 750 02ca 224A     		ldr	r2, .L39+8
 751 02cc 9342     		cmp	r3, r2
 752 02ce 36DC     		bgt	.L37
 753              		.loc 8 183 0
 754 02d0 9DF80B30 		ldrb	r3, [sp, #11]	@ zero_extendqisi2
 755 02d4 022B     		cmp	r3, #2
 756 02d6 0AD1     		bne	.L35
 757              		.loc 8 187 0
 758 02d8 039A     		ldr	r2, [sp, #12]
 759 02da 1346     		mov	r3, r2
 760 02dc 5B00     		lsls	r3, r3, #1
 761 02de 1344     		add	r3, r3, r2
 762 02e0 1A46     		mov	r2, r3
 763 02e2 1B4B     		ldr	r3, .L39+4
 764 02e4 B3FBF2F3 		udiv	r3, r3, r2
 765 02e8 ADF81430 		strh	r3, [sp, #20]	@ movhi
 766 02ec 15E0     		b	.L38
 767              	.L35:
 768              		.loc 8 189 0
 769 02ee 9DF80B30 		ldrb	r3, [sp, #11]	@ zero_extendqisi2
 770 02f2 032B     		cmp	r3, #3
 771 02f4 11D1     		bne	.L38
 772              		.loc 8 193 0
 773 02f6 039A     		ldr	r2, [sp, #12]
 774 02f8 1346     		mov	r3, r2
 775 02fa 9B00     		lsls	r3, r3, #2
 776 02fc 1344     		add	r3, r3, r2
 777 02fe 9A00     		lsls	r2, r3, #2
 778 0300 1344     		add	r3, r3, r2
 779 0302 1A46     		mov	r2, r3
 780 0304 124B     		ldr	r3, .L39+4
 781 0306 B3FBF2F3 		udiv	r3, r3, r2
 782 030a ADF81430 		strh	r3, [sp, #20]	@ movhi
 783              		.loc 8 194 0
ARM GAS  /tmp/ccgDY3K2.s 			page 15


 784 030e BDF81630 		ldrh	r3, [sp, #22]	@ movhi
 785 0312 43F48043 		orr	r3, r3, #16384
 786 0316 ADF81630 		strh	r3, [sp, #22]	@ movhi
 787              	.L38:
 788              		.loc 8 199 0
 789 031a BDF81430 		ldrh	r3, [sp, #20]	@ movhi
 790 031e C3F30B03 		ubfx	r3, r3, #0, #12
 791 0322 9AB2     		uxth	r2, r3
 792 0324 BDF81630 		ldrh	r3, [sp, #22]	@ movhi
 793 0328 1343     		orrs	r3, r3, r2
 794 032a 9BB2     		uxth	r3, r3
 795 032c 6FEA4343 		mvn	r3, r3, lsl #17
 796 0330 6FEA5343 		mvn	r3, r3, lsr #17
 797 0334 ADF81630 		strh	r3, [sp, #22]	@ movhi
 798              		.loc 8 202 0
 799 0338 049B     		ldr	r3, [sp, #16]
 800 033a 0D22     		movs	r2, #13
 801 033c 1A62     		str	r2, [r3, #32]
 802              	.L37:
 803              		.loc 8 207 0
 804 033e BDF81620 		ldrh	r2, [sp, #22]
 805 0342 049B     		ldr	r3, [sp, #16]
 806 0344 DA61     		str	r2, [r3, #28]
 807              		.loc 8 208 0
 808 0346 06B0     		add	sp, sp, #24
 809              		.cfi_def_cfa_offset 0
 810              		@ sp needed
 811 0348 7047     		bx	lr
 812              	.L40:
 813 034a 00BF     		.align	2
 814              	.L39:
 815 034c A0860100 		.word	100000
 816 0350 80DE8002 		.word	42000000
 817 0354 801A0600 		.word	400000
 818              		.cfi_endproc
 819              	.LFE280:
 820              		.size	i2c_lld_set_clock, .-i2c_lld_set_clock
 821              		.align	2
 822 0358 AFF30080 		.p2align 4,,15
 822      AFF30080 
 823              		.thumb
 824              		.thumb_func
 825              		.type	i2c_lld_set_opmode, %function
 826              	i2c_lld_set_opmode:
 827              	.LFB281:
 828              		.loc 8 217 0
 829              		.cfi_startproc
 830              		@ args = 0, pretend = 0, frame = 24
 831              		@ frame_needed = 0, uses_anonymous_args = 0
 832              		@ link register save eliminated.
 833 0360 86B0     		sub	sp, sp, #24
 834              		.cfi_def_cfa_offset 24
 835 0362 0190     		str	r0, [sp, #4]
 836              		.loc 8 218 0
 837 0364 019B     		ldr	r3, [sp, #4]
 838 0366 5B6B     		ldr	r3, [r3, #52]
 839 0368 0493     		str	r3, [sp, #16]
ARM GAS  /tmp/ccgDY3K2.s 			page 16


 840              		.loc 8 219 0
 841 036a 019B     		ldr	r3, [sp, #4]
 842 036c 5B68     		ldr	r3, [r3, #4]
 843 036e 1B78     		ldrb	r3, [r3]
 844 0370 8DF80F30 		strb	r3, [sp, #15]
 845              		.loc 8 222 0
 846 0374 049B     		ldr	r3, [sp, #16]
 847 0376 1B68     		ldr	r3, [r3]
 848 0378 ADF81630 		strh	r3, [sp, #22]	@ movhi
 849              		.loc 8 223 0
 850 037c 9DF80F30 		ldrb	r3, [sp, #15]	@ zero_extendqisi2
 851 0380 022B     		cmp	r3, #2
 852 0382 0AD0     		beq	.L43
 853 0384 032B     		cmp	r3, #3
 854 0386 15D0     		beq	.L44
 855 0388 012B     		cmp	r3, #1
 856 038a 1AD1     		bne	.L42
 857              		.loc 8 225 0
 858 038c BDF81630 		ldrh	r3, [sp, #22]	@ movhi
 859 0390 23F00A03 		bic	r3, r3, #10
 860 0394 ADF81630 		strh	r3, [sp, #22]	@ movhi
 861              		.loc 8 226 0
 862 0398 13E0     		b	.L42
 863              	.L43:
 864              		.loc 8 228 0
 865 039a BDF81630 		ldrh	r3, [sp, #22]	@ movhi
 866 039e 43F00203 		orr	r3, r3, #2
 867 03a2 ADF81630 		strh	r3, [sp, #22]	@ movhi
 868              		.loc 8 229 0
 869 03a6 BDF81630 		ldrh	r3, [sp, #22]	@ movhi
 870 03aa 23F00803 		bic	r3, r3, #8
 871 03ae ADF81630 		strh	r3, [sp, #22]	@ movhi
 872              		.loc 8 230 0
 873 03b2 06E0     		b	.L42
 874              	.L44:
 875              		.loc 8 232 0
 876 03b4 BDF81630 		ldrh	r3, [sp, #22]	@ movhi
 877 03b8 43F00A03 		orr	r3, r3, #10
 878 03bc ADF81630 		strh	r3, [sp, #22]	@ movhi
 879              		.loc 8 233 0
 880 03c0 00BF     		nop
 881              	.L42:
 882              		.loc 8 235 0
 883 03c2 BDF81620 		ldrh	r2, [sp, #22]
 884 03c6 049B     		ldr	r3, [sp, #16]
 885 03c8 1A60     		str	r2, [r3]
 886              		.loc 8 236 0
 887 03ca 06B0     		add	sp, sp, #24
 888              		.cfi_def_cfa_offset 0
 889              		@ sp needed
 890 03cc 7047     		bx	lr
 891              		.cfi_endproc
 892              	.LFE281:
 893              		.size	i2c_lld_set_opmode, .-i2c_lld_set_opmode
 894 03ce 00BF     		.align	2
 895              		.p2align 4,,15
 896              		.thumb
ARM GAS  /tmp/ccgDY3K2.s 			page 17


 897              		.thumb_func
 898              		.type	i2c_lld_serve_event_interrupt, %function
 899              	i2c_lld_serve_event_interrupt:
 900              	.LFB282:
 901              		.loc 8 245 0
 902              		.cfi_startproc
 903              		@ args = 0, pretend = 0, frame = 24
 904              		@ frame_needed = 0, uses_anonymous_args = 0
 905 03d0 00B5     		push	{lr}
 906              		.cfi_def_cfa_offset 4
 907              		.cfi_offset 14, -4
 908 03d2 87B0     		sub	sp, sp, #28
 909              		.cfi_def_cfa_offset 32
 910 03d4 0190     		str	r0, [sp, #4]
 911              		.loc 8 246 0
 912 03d6 019B     		ldr	r3, [sp, #4]
 913 03d8 5B6B     		ldr	r3, [r3, #52]
 914 03da 0593     		str	r3, [sp, #20]
 915              		.loc 8 247 0
 916 03dc 059B     		ldr	r3, [sp, #20]
 917 03de 9B69     		ldr	r3, [r3, #24]
 918 03e0 0493     		str	r3, [sp, #16]
 919              		.loc 8 248 0
 920 03e2 059B     		ldr	r3, [sp, #20]
 921 03e4 5B69     		ldr	r3, [r3, #20]
 922 03e6 0393     		str	r3, [sp, #12]
 923              		.loc 8 253 0
 924 03e8 049B     		ldr	r3, [sp, #16]
 925 03ea 1A04     		lsls	r2, r3, #16
 926 03ec 039B     		ldr	r3, [sp, #12]
 927 03ee 1343     		orrs	r3, r3, r2
 928 03f0 23F07F43 		bic	r3, r3, #-16777216
 929 03f4 534A     		ldr	r2, .L60
 930 03f6 9342     		cmp	r3, r2
 931 03f8 31D0     		beq	.L48
 932 03fa 524A     		ldr	r2, .L60
 933 03fc 9342     		cmp	r3, r2
 934 03fe 06D8     		bhi	.L49
 935 0400 514A     		ldr	r2, .L60+4
 936 0402 9342     		cmp	r3, r2
 937 0404 0AD0     		beq	.L50
 938 0406 514A     		ldr	r2, .L60+8
 939 0408 9342     		cmp	r3, r2
 940 040a 30D0     		beq	.L51
 941              		.loc 8 290 0
 942 040c 8FE0     		b	.L56
 943              	.L49:
 944              		.loc 8 253 0
 945 040e 504A     		ldr	r2, .L60+12
 946 0410 9342     		cmp	r3, r2
 947 0412 50D0     		beq	.L52
 948 0414 4F4A     		ldr	r2, .L60+16
 949 0416 9342     		cmp	r3, r2
 950 0418 5ED0     		beq	.L53
 951              		.loc 8 290 0
 952 041a 88E0     		b	.L56
 953              	.L50:
ARM GAS  /tmp/ccgDY3K2.s 			page 18


 954              		.loc 8 255 0
 955 041c 019B     		ldr	r3, [sp, #4]
 956 041e 1B8C     		ldrh	r3, [r3, #32]
 957 0420 1B0A     		lsrs	r3, r3, #8
 958 0422 9BB2     		uxth	r3, r3
 959 0424 002B     		cmp	r3, #0
 960 0426 14D0     		beq	.L54
 961              		.loc 8 257 0
 962 0428 019B     		ldr	r3, [sp, #4]
 963 042a 1B8C     		ldrh	r3, [r3, #32]
 964 042c 1B0A     		lsrs	r3, r3, #8
 965 042e 9BB2     		uxth	r3, r3
 966 0430 03F00603 		and	r3, r3, #6
 967 0434 9AB2     		uxth	r2, r3
 968 0436 019B     		ldr	r3, [sp, #4]
 969 0438 1B8C     		ldrh	r3, [r3, #32]
 970 043a 03F00103 		and	r3, r3, #1
 971 043e 9BB2     		uxth	r3, r3
 972 0440 1343     		orrs	r3, r3, r2
 973 0442 9BB2     		uxth	r3, r3
 974 0444 43F0F003 		orr	r3, r3, #240
 975 0448 9BB2     		uxth	r3, r3
 976 044a 1A46     		mov	r2, r3
 977 044c 059B     		ldr	r3, [sp, #20]
 978 044e 1A61     		str	r2, [r3, #16]
 979              		.loc 8 261 0
 980 0450 6DE0     		b	.L56
 981              	.L54:
 982              		.loc 8 259 0
 983 0452 019B     		ldr	r3, [sp, #4]
 984 0454 1B8C     		ldrh	r3, [r3, #32]
 985 0456 1A46     		mov	r2, r3
 986 0458 059B     		ldr	r3, [sp, #20]
 987 045a 1A61     		str	r2, [r3, #16]
 988              		.loc 8 261 0
 989 045c 67E0     		b	.L56
 990              	.L48:
 991              		.loc 8 264 0
 992 045e 019B     		ldr	r3, [sp, #4]
 993 0460 1B8C     		ldrh	r3, [r3, #32]
 994 0462 5B08     		lsrs	r3, r3, #1
 995 0464 9BB2     		uxth	r3, r3
 996 0466 DAB2     		uxtb	r2, r3
 997 0468 059B     		ldr	r3, [sp, #20]
 998 046a 1A61     		str	r2, [r3, #16]
 999              		.loc 8 265 0
 1000 046c 5FE0     		b	.L56
 1001              	.L51:
 1002              		.loc 8 267 0
 1003 046e 059B     		ldr	r3, [sp, #20]
 1004 0470 5B68     		ldr	r3, [r3, #4]
 1005 0472 23F40072 		bic	r2, r3, #512
 1006 0476 059B     		ldr	r3, [sp, #20]
 1007 0478 5A60     		str	r2, [r3, #4]
 1008              		.loc 8 268 0
 1009 047a 019B     		ldr	r3, [sp, #4]
 1010 047c DB6A     		ldr	r3, [r3, #44]
ARM GAS  /tmp/ccgDY3K2.s 			page 19


 1011 047e 1B68     		ldr	r3, [r3]
 1012 0480 019A     		ldr	r2, [sp, #4]
 1013 0482 D26A     		ldr	r2, [r2, #44]
 1014 0484 1268     		ldr	r2, [r2]
 1015 0486 1268     		ldr	r2, [r2]
 1016 0488 42F00102 		orr	r2, r2, #1
 1017 048c 1A60     		str	r2, [r3]
 1018              		.loc 8 269 0
 1019 048e 059B     		ldr	r3, [sp, #20]
 1020 0490 5B68     		ldr	r3, [r3, #4]
 1021 0492 43F48052 		orr	r2, r3, #4096
 1022 0496 059B     		ldr	r3, [sp, #20]
 1023 0498 5A60     		str	r2, [r3, #4]
 1024              		.loc 8 270 0
 1025 049a 019B     		ldr	r3, [sp, #4]
 1026 049c DB6A     		ldr	r3, [r3, #44]
 1027 049e 1B68     		ldr	r3, [r3]
 1028 04a0 5B68     		ldr	r3, [r3, #4]
 1029 04a2 012B     		cmp	r3, #1
 1030 04a4 06D8     		bhi	.L57
 1031              		.loc 8 271 0
 1032 04a6 059B     		ldr	r3, [sp, #20]
 1033 04a8 1B68     		ldr	r3, [r3]
 1034 04aa 23F48062 		bic	r2, r3, #1024
 1035 04ae 059B     		ldr	r3, [sp, #20]
 1036 04b0 1A60     		str	r2, [r3]
 1037              		.loc 8 272 0
 1038 04b2 3CE0     		b	.L56
 1039              	.L57:
 1040 04b4 3BE0     		b	.L56
 1041              	.L52:
 1042              		.loc 8 274 0
 1043 04b6 059B     		ldr	r3, [sp, #20]
 1044 04b8 5B68     		ldr	r3, [r3, #4]
 1045 04ba 23F40072 		bic	r2, r3, #512
 1046 04be 059B     		ldr	r3, [sp, #20]
 1047 04c0 5A60     		str	r2, [r3, #4]
 1048              		.loc 8 275 0
 1049 04c2 019B     		ldr	r3, [sp, #4]
 1050 04c4 1B6B     		ldr	r3, [r3, #48]
 1051 04c6 1B68     		ldr	r3, [r3]
 1052 04c8 019A     		ldr	r2, [sp, #4]
 1053 04ca 126B     		ldr	r2, [r2, #48]
 1054 04cc 1268     		ldr	r2, [r2]
 1055 04ce 1268     		ldr	r2, [r2]
 1056 04d0 42F00102 		orr	r2, r2, #1
 1057 04d4 1A60     		str	r2, [r3]
 1058              		.loc 8 276 0
 1059 04d6 2AE0     		b	.L56
 1060              	.L53:
 1061              		.loc 8 279 0
 1062 04d8 019B     		ldr	r3, [sp, #4]
 1063 04da DB6A     		ldr	r3, [r3, #44]
 1064 04dc 1B68     		ldr	r3, [r3]
 1065 04de 5B68     		ldr	r3, [r3, #4]
 1066 04e0 002B     		cmp	r3, #0
 1067 04e2 0DD0     		beq	.L58
ARM GAS  /tmp/ccgDY3K2.s 			page 20


 1068              		.loc 8 281 0
 1069 04e4 019B     		ldr	r3, [sp, #4]
 1070 04e6 1B8C     		ldrh	r3, [r3, #32]
 1071 04e8 43F00103 		orr	r3, r3, #1
 1072 04ec 9AB2     		uxth	r2, r3
 1073 04ee 019B     		ldr	r3, [sp, #4]
 1074 04f0 1A84     		strh	r2, [r3, #32]	@ movhi
 1075              		.loc 8 282 0
 1076 04f2 059B     		ldr	r3, [sp, #20]
 1077 04f4 1B68     		ldr	r3, [r3]
 1078 04f6 43F4A062 		orr	r2, r3, #1280
 1079 04fa 059B     		ldr	r3, [sp, #20]
 1080 04fc 1A60     		str	r2, [r3]
 1081              		.loc 8 283 0
 1082 04fe 1DE0     		b	.L46
 1083              	.L58:
 1084              		.loc 8 285 0
 1085 0500 059B     		ldr	r3, [sp, #20]
 1086 0502 5B68     		ldr	r3, [r3, #4]
 1087 0504 23F40072 		bic	r2, r3, #512
 1088 0508 059B     		ldr	r3, [sp, #20]
 1089 050a 5A60     		str	r2, [r3, #4]
 1090              		.loc 8 286 0
 1091 050c 059B     		ldr	r3, [sp, #20]
 1092 050e 1B68     		ldr	r3, [r3]
 1093 0510 43F40072 		orr	r2, r3, #512
 1094 0514 059B     		ldr	r3, [sp, #20]
 1095 0516 1A60     		str	r2, [r3]
 1096              		.loc 8 287 0
 1097 0518 FFF702FE 		bl	osalSysLockFromISR
 1098 051c 019B     		ldr	r3, [sp, #4]
 1099 051e 1C33     		adds	r3, r3, #28
 1100 0520 1846     		mov	r0, r3
 1101 0522 0021     		movs	r1, #0
 1102 0524 FFF734FE 		bl	osalThreadResumeI
 1103 0528 FFF702FE 		bl	osalSysUnlockFromISR
 1104              		.loc 8 288 0
 1105 052c 00BF     		nop
 1106              	.L56:
 1107              		.loc 8 293 0
 1108 052e 039B     		ldr	r3, [sp, #12]
 1109 0530 03F00A03 		and	r3, r3, #10
 1110 0534 002B     		cmp	r3, #0
 1111 0536 01D0     		beq	.L46
 1112              		.loc 8 294 0
 1113 0538 059B     		ldr	r3, [sp, #20]
 1114 053a 9B69     		ldr	r3, [r3, #24]
 1115              	.L46:
 1116              		.loc 8 295 0
 1117 053c 07B0     		add	sp, sp, #28
 1118              		.cfi_def_cfa_offset 4
 1119              		@ sp needed
 1120 053e 5DF804FB 		ldr	pc, [sp], #4
 1121              	.L61:
 1122 0542 00BF     		.align	2
 1123              	.L60:
 1124 0544 08000300 		.word	196616
ARM GAS  /tmp/ccgDY3K2.s 			page 21


 1125 0548 01000300 		.word	196609
 1126 054c 02000300 		.word	196610
 1127 0550 82000700 		.word	458882
 1128 0554 84000700 		.word	458884
 1129              		.cfi_endproc
 1130              	.LFE282:
 1131              		.size	i2c_lld_serve_event_interrupt, .-i2c_lld_serve_event_interrupt
 1132              		.section	.rodata
 1133              		.align	2
 1134              	.LC0:
 1135 0000 444D4120 		.ascii	"DMA failure\000"
 1135      6661696C 
 1135      75726500 
 1136              		.text
 1137              		.align	2
 1138 0558 AFF30080 		.p2align 4,,15
 1138      AFF30080 
 1139              		.thumb
 1140              		.thumb_func
 1141              		.type	i2c_lld_serve_rx_end_irq, %function
 1142              	i2c_lld_serve_rx_end_irq:
 1143              	.LFB283:
 1144              		.loc 8 305 0
 1145              		.cfi_startproc
 1146              		@ args = 0, pretend = 0, frame = 16
 1147              		@ frame_needed = 0, uses_anonymous_args = 0
 1148 0560 00B5     		push	{lr}
 1149              		.cfi_def_cfa_offset 4
 1150              		.cfi_offset 14, -4
 1151 0562 85B0     		sub	sp, sp, #20
 1152              		.cfi_def_cfa_offset 24
 1153 0564 0190     		str	r0, [sp, #4]
 1154 0566 0091     		str	r1, [sp]
 1155              		.loc 8 306 0
 1156 0568 019B     		ldr	r3, [sp, #4]
 1157 056a 5B6B     		ldr	r3, [r3, #52]
 1158 056c 0393     		str	r3, [sp, #12]
 1159              		.loc 8 310 0
 1160 056e 009B     		ldr	r3, [sp]
 1161 0570 03F00C03 		and	r3, r3, #12
 1162 0574 002B     		cmp	r3, #0
 1163 0576 02D0     		beq	.L63
 1164              		.loc 8 311 0
 1165 0578 1F48     		ldr	r0, .L65
 1166 057a FFF7B1FD 		bl	osalSysHalt
 1167              	.L63:
 1168              		.loc 8 317 0
 1169 057e 019B     		ldr	r3, [sp, #4]
 1170 0580 DB6A     		ldr	r3, [r3, #44]
 1171 0582 1B68     		ldr	r3, [r3]
 1172 0584 019A     		ldr	r2, [sp, #4]
 1173 0586 D26A     		ldr	r2, [r2, #44]
 1174 0588 1268     		ldr	r2, [r2]
 1175 058a 1268     		ldr	r2, [r2]
 1176 058c 22F01F02 		bic	r2, r2, #31
 1177 0590 1A60     		str	r2, [r3]
 1178 0592 00BF     		nop
ARM GAS  /tmp/ccgDY3K2.s 			page 22


 1179              	.L64:
 1180              		.loc 8 317 0 is_stmt 0 discriminator 2
 1181 0594 019B     		ldr	r3, [sp, #4]
 1182 0596 DB6A     		ldr	r3, [r3, #44]
 1183 0598 1B68     		ldr	r3, [r3]
 1184 059a 1B68     		ldr	r3, [r3]
 1185 059c 03F00103 		and	r3, r3, #1
 1186 05a0 002B     		cmp	r3, #0
 1187 05a2 F7D1     		bne	.L64
 1188              		.loc 8 317 0 discriminator 3
 1189 05a4 019B     		ldr	r3, [sp, #4]
 1190 05a6 DB6A     		ldr	r3, [r3, #44]
 1191 05a8 5B68     		ldr	r3, [r3, #4]
 1192 05aa 019A     		ldr	r2, [sp, #4]
 1193 05ac D26A     		ldr	r2, [r2, #44]
 1194 05ae 127A     		ldrb	r2, [r2, #8]	@ zero_extendqisi2
 1195 05b0 1146     		mov	r1, r2
 1196 05b2 3D22     		movs	r2, #61
 1197 05b4 8A40     		lsls	r2, r2, r1
 1198 05b6 1A60     		str	r2, [r3]
 1199              		.loc 8 319 0 is_stmt 1 discriminator 3
 1200 05b8 039B     		ldr	r3, [sp, #12]
 1201 05ba 5B68     		ldr	r3, [r3, #4]
 1202 05bc 23F48052 		bic	r2, r3, #4096
 1203 05c0 039B     		ldr	r3, [sp, #12]
 1204 05c2 5A60     		str	r2, [r3, #4]
 1205              		.loc 8 320 0 discriminator 3
 1206 05c4 039B     		ldr	r3, [sp, #12]
 1207 05c6 1B68     		ldr	r3, [r3]
 1208 05c8 23F48062 		bic	r2, r3, #1024
 1209 05cc 039B     		ldr	r3, [sp, #12]
 1210 05ce 1A60     		str	r2, [r3]
 1211              		.loc 8 321 0 discriminator 3
 1212 05d0 039B     		ldr	r3, [sp, #12]
 1213 05d2 1B68     		ldr	r3, [r3]
 1214 05d4 43F40072 		orr	r2, r3, #512
 1215 05d8 039B     		ldr	r3, [sp, #12]
 1216 05da 1A60     		str	r2, [r3]
 1217              		.loc 8 322 0 discriminator 3
 1218 05dc FFF7A0FD 		bl	osalSysLockFromISR
 1219 05e0 019B     		ldr	r3, [sp, #4]
 1220 05e2 1C33     		adds	r3, r3, #28
 1221 05e4 1846     		mov	r0, r3
 1222 05e6 0021     		movs	r1, #0
 1223 05e8 FFF7D2FD 		bl	osalThreadResumeI
 1224 05ec FFF7A0FD 		bl	osalSysUnlockFromISR
 1225              		.loc 8 323 0 discriminator 3
 1226 05f0 05B0     		add	sp, sp, #20
 1227              		.cfi_def_cfa_offset 4
 1228              		@ sp needed
 1229 05f2 5DF804FB 		ldr	pc, [sp], #4
 1230              	.L66:
 1231 05f6 00BF     		.align	2
 1232              	.L65:
 1233 05f8 00000000 		.word	.LC0
 1234              		.cfi_endproc
 1235              	.LFE283:
ARM GAS  /tmp/ccgDY3K2.s 			page 23


 1236              		.size	i2c_lld_serve_rx_end_irq, .-i2c_lld_serve_rx_end_irq
 1237              		.align	2
 1238 05fc AFF30080 		.p2align 4,,15
 1239              		.thumb
 1240              		.thumb_func
 1241              		.type	i2c_lld_serve_tx_end_irq, %function
 1242              	i2c_lld_serve_tx_end_irq:
 1243              	.LFB284:
 1244              		.loc 8 332 0
 1245              		.cfi_startproc
 1246              		@ args = 0, pretend = 0, frame = 16
 1247              		@ frame_needed = 0, uses_anonymous_args = 0
 1248 0600 00B5     		push	{lr}
 1249              		.cfi_def_cfa_offset 4
 1250              		.cfi_offset 14, -4
 1251 0602 85B0     		sub	sp, sp, #20
 1252              		.cfi_def_cfa_offset 24
 1253 0604 0190     		str	r0, [sp, #4]
 1254 0606 0091     		str	r1, [sp]
 1255              		.loc 8 333 0
 1256 0608 019B     		ldr	r3, [sp, #4]
 1257 060a 5B6B     		ldr	r3, [r3, #52]
 1258 060c 0393     		str	r3, [sp, #12]
 1259              		.loc 8 337 0
 1260 060e 009B     		ldr	r3, [sp]
 1261 0610 03F00C03 		and	r3, r3, #12
 1262 0614 002B     		cmp	r3, #0
 1263 0616 02D0     		beq	.L68
 1264              		.loc 8 338 0
 1265 0618 1448     		ldr	r0, .L70
 1266 061a FFF761FD 		bl	osalSysHalt
 1267              	.L68:
 1268              		.loc 8 344 0
 1269 061e 019B     		ldr	r3, [sp, #4]
 1270 0620 1B6B     		ldr	r3, [r3, #48]
 1271 0622 1B68     		ldr	r3, [r3]
 1272 0624 019A     		ldr	r2, [sp, #4]
 1273 0626 126B     		ldr	r2, [r2, #48]
 1274 0628 1268     		ldr	r2, [r2]
 1275 062a 1268     		ldr	r2, [r2]
 1276 062c 22F01F02 		bic	r2, r2, #31
 1277 0630 1A60     		str	r2, [r3]
 1278 0632 00BF     		nop
 1279              	.L69:
 1280              		.loc 8 344 0 is_stmt 0 discriminator 2
 1281 0634 019B     		ldr	r3, [sp, #4]
 1282 0636 1B6B     		ldr	r3, [r3, #48]
 1283 0638 1B68     		ldr	r3, [r3]
 1284 063a 1B68     		ldr	r3, [r3]
 1285 063c 03F00103 		and	r3, r3, #1
 1286 0640 002B     		cmp	r3, #0
 1287 0642 F7D1     		bne	.L69
 1288              		.loc 8 344 0 discriminator 3
 1289 0644 019B     		ldr	r3, [sp, #4]
 1290 0646 1B6B     		ldr	r3, [r3, #48]
 1291 0648 5B68     		ldr	r3, [r3, #4]
 1292 064a 019A     		ldr	r2, [sp, #4]
ARM GAS  /tmp/ccgDY3K2.s 			page 24


 1293 064c 126B     		ldr	r2, [r2, #48]
 1294 064e 127A     		ldrb	r2, [r2, #8]	@ zero_extendqisi2
 1295 0650 1146     		mov	r1, r2
 1296 0652 3D22     		movs	r2, #61
 1297 0654 8A40     		lsls	r2, r2, r1
 1298 0656 1A60     		str	r2, [r3]
 1299              		.loc 8 348 0 is_stmt 1 discriminator 3
 1300 0658 039B     		ldr	r3, [sp, #12]
 1301 065a 5B68     		ldr	r3, [r3, #4]
 1302 065c 43F40072 		orr	r2, r3, #512
 1303 0660 039B     		ldr	r3, [sp, #12]
 1304 0662 5A60     		str	r2, [r3, #4]
 1305              		.loc 8 349 0 discriminator 3
 1306 0664 05B0     		add	sp, sp, #20
 1307              		.cfi_def_cfa_offset 4
 1308              		@ sp needed
 1309 0666 5DF804FB 		ldr	pc, [sp], #4
 1310              	.L71:
 1311 066a 00BF     		.align	2
 1312              	.L70:
 1313 066c 00000000 		.word	.LC0
 1314              		.cfi_endproc
 1315              	.LFE284:
 1316              		.size	i2c_lld_serve_tx_end_irq, .-i2c_lld_serve_tx_end_irq
 1317              		.align	2
 1318              		.p2align 4,,15
 1319              		.thumb
 1320              		.thumb_func
 1321              		.type	i2c_lld_serve_error_interrupt, %function
 1322              	i2c_lld_serve_error_interrupt:
 1323              	.LFB285:
 1324              		.loc 8 359 0
 1325              		.cfi_startproc
 1326              		@ args = 0, pretend = 0, frame = 8
 1327              		@ frame_needed = 0, uses_anonymous_args = 0
 1328 0670 00B5     		push	{lr}
 1329              		.cfi_def_cfa_offset 4
 1330              		.cfi_offset 14, -4
 1331 0672 83B0     		sub	sp, sp, #12
 1332              		.cfi_def_cfa_offset 16
 1333 0674 0190     		str	r0, [sp, #4]
 1334 0676 0B46     		mov	r3, r1
 1335 0678 ADF80230 		strh	r3, [sp, #2]	@ movhi
 1336              		.loc 8 362 0
 1337 067c 019B     		ldr	r3, [sp, #4]
 1338 067e 1B6B     		ldr	r3, [r3, #48]
 1339 0680 1B68     		ldr	r3, [r3]
 1340 0682 019A     		ldr	r2, [sp, #4]
 1341 0684 126B     		ldr	r2, [r2, #48]
 1342 0686 1268     		ldr	r2, [r2]
 1343 0688 1268     		ldr	r2, [r2]
 1344 068a 22F01F02 		bic	r2, r2, #31
 1345 068e 1A60     		str	r2, [r3]
 1346 0690 00BF     		nop
 1347              	.L73:
 1348              		.loc 8 362 0 is_stmt 0 discriminator 2
 1349 0692 019B     		ldr	r3, [sp, #4]
ARM GAS  /tmp/ccgDY3K2.s 			page 25


 1350 0694 1B6B     		ldr	r3, [r3, #48]
 1351 0696 1B68     		ldr	r3, [r3]
 1352 0698 1B68     		ldr	r3, [r3]
 1353 069a 03F00103 		and	r3, r3, #1
 1354 069e 002B     		cmp	r3, #0
 1355 06a0 F7D1     		bne	.L73
 1356              		.loc 8 362 0 discriminator 3
 1357 06a2 019B     		ldr	r3, [sp, #4]
 1358 06a4 1B6B     		ldr	r3, [r3, #48]
 1359 06a6 5B68     		ldr	r3, [r3, #4]
 1360 06a8 019A     		ldr	r2, [sp, #4]
 1361 06aa 126B     		ldr	r2, [r2, #48]
 1362 06ac 127A     		ldrb	r2, [r2, #8]	@ zero_extendqisi2
 1363 06ae 1146     		mov	r1, r2
 1364 06b0 3D22     		movs	r2, #61
 1365 06b2 8A40     		lsls	r2, r2, r1
 1366 06b4 1A60     		str	r2, [r3]
 1367              		.loc 8 363 0 is_stmt 1 discriminator 3
 1368 06b6 019B     		ldr	r3, [sp, #4]
 1369 06b8 DB6A     		ldr	r3, [r3, #44]
 1370 06ba 1B68     		ldr	r3, [r3]
 1371 06bc 019A     		ldr	r2, [sp, #4]
 1372 06be D26A     		ldr	r2, [r2, #44]
 1373 06c0 1268     		ldr	r2, [r2]
 1374 06c2 1268     		ldr	r2, [r2]
 1375 06c4 22F01F02 		bic	r2, r2, #31
 1376 06c8 1A60     		str	r2, [r3]
 1377 06ca 00BF     		nop
 1378              	.L74:
 1379              		.loc 8 363 0 is_stmt 0 discriminator 2
 1380 06cc 019B     		ldr	r3, [sp, #4]
 1381 06ce DB6A     		ldr	r3, [r3, #44]
 1382 06d0 1B68     		ldr	r3, [r3]
 1383 06d2 1B68     		ldr	r3, [r3]
 1384 06d4 03F00103 		and	r3, r3, #1
 1385 06d8 002B     		cmp	r3, #0
 1386 06da F7D1     		bne	.L74
 1387              		.loc 8 363 0 discriminator 3
 1388 06dc 019B     		ldr	r3, [sp, #4]
 1389 06de DB6A     		ldr	r3, [r3, #44]
 1390 06e0 5B68     		ldr	r3, [r3, #4]
 1391 06e2 019A     		ldr	r2, [sp, #4]
 1392 06e4 D26A     		ldr	r2, [r2, #44]
 1393 06e6 127A     		ldrb	r2, [r2, #8]	@ zero_extendqisi2
 1394 06e8 1146     		mov	r1, r2
 1395 06ea 3D22     		movs	r2, #61
 1396 06ec 8A40     		lsls	r2, r2, r1
 1397 06ee 1A60     		str	r2, [r3]
 1398              		.loc 8 365 0 is_stmt 1 discriminator 3
 1399 06f0 019B     		ldr	r3, [sp, #4]
 1400 06f2 0022     		movs	r2, #0
 1401 06f4 9A60     		str	r2, [r3, #8]
 1402              		.loc 8 367 0 discriminator 3
 1403 06f6 BDF80230 		ldrh	r3, [sp, #2]
 1404 06fa 03F48073 		and	r3, r3, #256
 1405 06fe 002B     		cmp	r3, #0
 1406 0700 05D0     		beq	.L75
ARM GAS  /tmp/ccgDY3K2.s 			page 26


 1407              		.loc 8 368 0
 1408 0702 019B     		ldr	r3, [sp, #4]
 1409 0704 9B68     		ldr	r3, [r3, #8]
 1410 0706 43F00102 		orr	r2, r3, #1
 1411 070a 019B     		ldr	r3, [sp, #4]
 1412 070c 9A60     		str	r2, [r3, #8]
 1413              	.L75:
 1414              		.loc 8 370 0
 1415 070e BDF80230 		ldrh	r3, [sp, #2]
 1416 0712 03F40073 		and	r3, r3, #512
 1417 0716 002B     		cmp	r3, #0
 1418 0718 05D0     		beq	.L76
 1419              		.loc 8 371 0
 1420 071a 019B     		ldr	r3, [sp, #4]
 1421 071c 9B68     		ldr	r3, [r3, #8]
 1422 071e 43F00202 		orr	r2, r3, #2
 1423 0722 019B     		ldr	r3, [sp, #4]
 1424 0724 9A60     		str	r2, [r3, #8]
 1425              	.L76:
 1426              		.loc 8 373 0
 1427 0726 BDF80230 		ldrh	r3, [sp, #2]
 1428 072a 03F48063 		and	r3, r3, #1024
 1429 072e 002B     		cmp	r3, #0
 1430 0730 15D0     		beq	.L77
 1431              		.loc 8 374 0
 1432 0732 019B     		ldr	r3, [sp, #4]
 1433 0734 5B6B     		ldr	r3, [r3, #52]
 1434 0736 019A     		ldr	r2, [sp, #4]
 1435 0738 526B     		ldr	r2, [r2, #52]
 1436 073a 5268     		ldr	r2, [r2, #4]
 1437 073c 22F40072 		bic	r2, r2, #512
 1438 0740 5A60     		str	r2, [r3, #4]
 1439              		.loc 8 375 0
 1440 0742 019B     		ldr	r3, [sp, #4]
 1441 0744 5B6B     		ldr	r3, [r3, #52]
 1442 0746 019A     		ldr	r2, [sp, #4]
 1443 0748 526B     		ldr	r2, [r2, #52]
 1444 074a 1268     		ldr	r2, [r2]
 1445 074c 42F40072 		orr	r2, r2, #512
 1446 0750 1A60     		str	r2, [r3]
 1447              		.loc 8 376 0
 1448 0752 019B     		ldr	r3, [sp, #4]
 1449 0754 9B68     		ldr	r3, [r3, #8]
 1450 0756 43F00402 		orr	r2, r3, #4
 1451 075a 019B     		ldr	r3, [sp, #4]
 1452 075c 9A60     		str	r2, [r3, #8]
 1453              	.L77:
 1454              		.loc 8 379 0
 1455 075e BDF80230 		ldrh	r3, [sp, #2]
 1456 0762 03F40063 		and	r3, r3, #2048
 1457 0766 002B     		cmp	r3, #0
 1458 0768 05D0     		beq	.L78
 1459              		.loc 8 380 0
 1460 076a 019B     		ldr	r3, [sp, #4]
 1461 076c 9B68     		ldr	r3, [r3, #8]
 1462 076e 43F00802 		orr	r2, r3, #8
 1463 0772 019B     		ldr	r3, [sp, #4]
ARM GAS  /tmp/ccgDY3K2.s 			page 27


 1464 0774 9A60     		str	r2, [r3, #8]
 1465              	.L78:
 1466              		.loc 8 382 0
 1467 0776 BDF80230 		ldrh	r3, [sp, #2]
 1468 077a 03F48043 		and	r3, r3, #16384
 1469 077e 002B     		cmp	r3, #0
 1470 0780 05D0     		beq	.L79
 1471              		.loc 8 383 0
 1472 0782 019B     		ldr	r3, [sp, #4]
 1473 0784 9B68     		ldr	r3, [r3, #8]
 1474 0786 43F02002 		orr	r2, r3, #32
 1475 078a 019B     		ldr	r3, [sp, #4]
 1476 078c 9A60     		str	r2, [r3, #8]
 1477              	.L79:
 1478              		.loc 8 385 0
 1479 078e BDF80230 		ldrh	r3, [sp, #2]
 1480 0792 03F48053 		and	r3, r3, #4096
 1481 0796 002B     		cmp	r3, #0
 1482 0798 05D0     		beq	.L80
 1483              		.loc 8 386 0
 1484 079a 019B     		ldr	r3, [sp, #4]
 1485 079c 9B68     		ldr	r3, [r3, #8]
 1486 079e 43F01002 		orr	r2, r3, #16
 1487 07a2 019B     		ldr	r3, [sp, #4]
 1488 07a4 9A60     		str	r2, [r3, #8]
 1489              	.L80:
 1490              		.loc 8 388 0
 1491 07a6 BDF80230 		ldrh	r3, [sp, #2]
 1492 07aa 1BB2     		sxth	r3, r3
 1493 07ac 002B     		cmp	r3, #0
 1494 07ae 05DA     		bge	.L81
 1495              		.loc 8 389 0
 1496 07b0 019B     		ldr	r3, [sp, #4]
 1497 07b2 9B68     		ldr	r3, [r3, #8]
 1498 07b4 43F04002 		orr	r2, r3, #64
 1499 07b8 019B     		ldr	r3, [sp, #4]
 1500 07ba 9A60     		str	r2, [r3, #8]
 1501              	.L81:
 1502              		.loc 8 392 0
 1503 07bc 019B     		ldr	r3, [sp, #4]
 1504 07be 9B68     		ldr	r3, [r3, #8]
 1505 07c0 002B     		cmp	r3, #0
 1506 07c2 0AD0     		beq	.L72
 1507              		.loc 8 393 0
 1508 07c4 FFF7ACFC 		bl	osalSysLockFromISR
 1509 07c8 019B     		ldr	r3, [sp, #4]
 1510 07ca 1C33     		adds	r3, r3, #28
 1511 07cc 1846     		mov	r0, r3
 1512 07ce 6FF00101 		mvn	r1, #1
 1513 07d2 FFF7DDFC 		bl	osalThreadResumeI
 1514 07d6 FFF7ABFC 		bl	osalSysUnlockFromISR
 1515              	.L72:
 1516              		.loc 8 394 0
 1517 07da 03B0     		add	sp, sp, #12
 1518              		.cfi_def_cfa_offset 4
 1519              		@ sp needed
 1520 07dc 5DF804FB 		ldr	pc, [sp], #4
ARM GAS  /tmp/ccgDY3K2.s 			page 28


 1521              		.cfi_endproc
 1522              	.LFE285:
 1523              		.size	i2c_lld_serve_error_interrupt, .-i2c_lld_serve_error_interrupt
 1524              		.align	2
 1525              		.p2align 4,,15
 1526              		.global	VectorBC
 1527              		.thumb
 1528              		.thumb_func
 1529              		.type	VectorBC, %function
 1530              	VectorBC:
 1531              	.LFB286:
 1532              		.loc 8 406 0
 1533              		.cfi_startproc
 1534              		@ args = 0, pretend = 0, frame = 0
 1535              		@ frame_needed = 0, uses_anonymous_args = 0
 1536 07e0 08B5     		push	{r3, lr}
 1537              		.cfi_def_cfa_offset 8
 1538              		.cfi_offset 3, -8
 1539              		.cfi_offset 14, -4
 1540              		.loc 8 410 0
 1541 07e2 0348     		ldr	r0, .L84
 1542 07e4 FFF7F4FD 		bl	i2c_lld_serve_event_interrupt
 1543              		.loc 8 412 0
 1544 07e8 FFF7FEFF 		bl	_port_irq_epilogue
 1545              		.loc 8 413 0
 1546 07ec 08BD     		pop	{r3, pc}
 1547              	.L85:
 1548 07ee 00BF     		.align	2
 1549              	.L84:
 1550 07f0 00000000 		.word	I2CD1
 1551              		.cfi_endproc
 1552              	.LFE286:
 1553              		.size	VectorBC, .-VectorBC
 1554              		.align	2
 1555 07f4 AFF30080 		.p2align 4,,15
 1555      AFF30080 
 1555      AFF30080 
 1556              		.global	VectorC0
 1557              		.thumb
 1558              		.thumb_func
 1559              		.type	VectorC0, %function
 1560              	VectorC0:
 1561              	.LFB287:
 1562              		.loc 8 418 0
 1563              		.cfi_startproc
 1564              		@ args = 0, pretend = 0, frame = 8
 1565              		@ frame_needed = 0, uses_anonymous_args = 0
 1566 0800 00B5     		push	{lr}
 1567              		.cfi_def_cfa_offset 4
 1568              		.cfi_offset 14, -4
 1569 0802 83B0     		sub	sp, sp, #12
 1570              		.cfi_def_cfa_offset 16
 1571              		.loc 8 419 0
 1572 0804 0B4B     		ldr	r3, .L87
 1573 0806 5B6B     		ldr	r3, [r3, #52]
 1574 0808 5B69     		ldr	r3, [r3, #20]
 1575 080a ADF80630 		strh	r3, [sp, #6]	@ movhi
ARM GAS  /tmp/ccgDY3K2.s 			page 29


 1576              		.loc 8 423 0
 1577 080e 094B     		ldr	r3, .L87
 1578 0810 5B6B     		ldr	r3, [r3, #52]
 1579 0812 BDF80620 		ldrh	r2, [sp, #6]
 1580 0816 02F45F42 		and	r2, r2, #57088
 1581 081a D243     		mvns	r2, r2
 1582 081c 5A61     		str	r2, [r3, #20]
 1583              		.loc 8 424 0
 1584 081e BDF80630 		ldrh	r3, [sp, #6]
 1585 0822 0448     		ldr	r0, .L87
 1586 0824 1946     		mov	r1, r3
 1587 0826 FFF723FF 		bl	i2c_lld_serve_error_interrupt
 1588              		.loc 8 426 0
 1589 082a FFF7FEFF 		bl	_port_irq_epilogue
 1590              		.loc 8 427 0
 1591 082e 03B0     		add	sp, sp, #12
 1592              		.cfi_def_cfa_offset 4
 1593              		@ sp needed
 1594 0830 5DF804FB 		ldr	pc, [sp], #4
 1595              	.L88:
 1596              		.align	2
 1597              	.L87:
 1598 0834 00000000 		.word	I2CD1
 1599              		.cfi_endproc
 1600              	.LFE287:
 1601              		.size	VectorC0, .-VectorC0
 1602              		.align	2
 1603 0838 AFF30080 		.p2align 4,,15
 1603      AFF30080 
 1604              		.global	i2c_lld_init
 1605              		.thumb
 1606              		.thumb_func
 1607              		.type	i2c_lld_init, %function
 1608              	i2c_lld_init:
 1609              	.LFB288:
 1610              		.loc 8 503 0
 1611              		.cfi_startproc
 1612              		@ args = 0, pretend = 0, frame = 0
 1613              		@ frame_needed = 0, uses_anonymous_args = 0
 1614 0840 08B5     		push	{r3, lr}
 1615              		.cfi_def_cfa_offset 8
 1616              		.cfi_offset 3, -8
 1617              		.cfi_offset 14, -4
 1618              		.loc 8 506 0
 1619 0842 0848     		ldr	r0, .L90
 1620 0844 FFF7FEFF 		bl	i2cObjectInit
 1621              		.loc 8 507 0
 1622 0848 064B     		ldr	r3, .L90
 1623 084a 0022     		movs	r2, #0
 1624 084c DA61     		str	r2, [r3, #28]
 1625              		.loc 8 508 0
 1626 084e 054B     		ldr	r3, .L90
 1627 0850 054A     		ldr	r2, .L90+4
 1628 0852 5A63     		str	r2, [r3, #52]
 1629              		.loc 8 509 0
 1630 0854 034B     		ldr	r3, .L90
 1631 0856 054A     		ldr	r2, .L90+8
ARM GAS  /tmp/ccgDY3K2.s 			page 30


 1632 0858 DA62     		str	r2, [r3, #44]
 1633              		.loc 8 510 0
 1634 085a 024B     		ldr	r3, .L90
 1635 085c 044A     		ldr	r2, .L90+12
 1636 085e 1A63     		str	r2, [r3, #48]
 1637              		.loc 8 528 0
 1638 0860 08BD     		pop	{r3, pc}
 1639              	.L91:
 1640 0862 00BF     		.align	2
 1641              	.L90:
 1642 0864 00000000 		.word	I2CD1
 1643 0868 00540040 		.word	1073763328
 1644 086c 00000000 		.word	_stm32_dma_streams
 1645 0870 48000000 		.word	_stm32_dma_streams+72
 1646              		.cfi_endproc
 1647              	.LFE288:
 1648              		.size	i2c_lld_init, .-i2c_lld_init
 1649              		.align	2
 1650 0874 AFF30080 		.p2align 4,,15
 1650      AFF30080 
 1650      AFF30080 
 1651              		.global	i2c_lld_start
 1652              		.thumb
 1653              		.thumb_func
 1654              		.type	i2c_lld_start, %function
 1655              	i2c_lld_start:
 1656              	.LFB289:
 1657              		.loc 8 537 0
 1658              		.cfi_startproc
 1659              		@ args = 0, pretend = 0, frame = 16
 1660              		@ frame_needed = 0, uses_anonymous_args = 0
 1661 0880 00B5     		push	{lr}
 1662              		.cfi_def_cfa_offset 4
 1663              		.cfi_offset 14, -4
 1664 0882 85B0     		sub	sp, sp, #20
 1665              		.cfi_def_cfa_offset 24
 1666 0884 0190     		str	r0, [sp, #4]
 1667              		.loc 8 538 0
 1668 0886 019B     		ldr	r3, [sp, #4]
 1669 0888 5B6B     		ldr	r3, [r3, #52]
 1670 088a 0393     		str	r3, [sp, #12]
 1671              		.loc 8 541 0
 1672 088c 019B     		ldr	r3, [sp, #4]
 1673 088e 1B78     		ldrb	r3, [r3]	@ zero_extendqisi2
 1674 0890 012B     		cmp	r3, #1
 1675 0892 48D1     		bne	.L93
 1676              		.loc 8 543 0
 1677 0894 019B     		ldr	r3, [sp, #4]
 1678 0896 40F25642 		movw	r2, #1110
 1679 089a 9A62     		str	r2, [r3, #40]
 1680              		.loc 8 547 0
 1681 089c 019B     		ldr	r3, [sp, #4]
 1682 089e 40F21642 		movw	r2, #1046
 1683 08a2 5A62     		str	r2, [r3, #36]
 1684              		.loc 8 553 0
 1685 08a4 019B     		ldr	r3, [sp, #4]
 1686 08a6 334A     		ldr	r2, .L94
ARM GAS  /tmp/ccgDY3K2.s 			page 31


 1687 08a8 9342     		cmp	r3, r2
 1688 08aa 3CD1     		bne	.L93
 1689              	.LBB10:
 1690              		.loc 8 556 0
 1691 08ac 324A     		ldr	r2, .L94+4
 1692 08ae 324B     		ldr	r3, .L94+4
 1693 08b0 1B6A     		ldr	r3, [r3, #32]
 1694 08b2 43F40013 		orr	r3, r3, #2097152
 1695 08b6 1362     		str	r3, [r2, #32]
 1696 08b8 2F4B     		ldr	r3, .L94+4
 1697 08ba 0022     		movs	r2, #0
 1698 08bc 1A62     		str	r2, [r3, #32]
 1699              		.loc 8 557 0
 1700 08be 019B     		ldr	r3, [sp, #4]
 1701 08c0 DB6A     		ldr	r3, [r3, #44]
 1702 08c2 1846     		mov	r0, r3
 1703 08c4 0521     		movs	r1, #5
 1704 08c6 2D4A     		ldr	r2, .L94+8
 1705 08c8 019B     		ldr	r3, [sp, #4]
 1706 08ca FFF7FEFF 		bl	dmaStreamAllocate
 1707 08ce 0346     		mov	r3, r0
 1708 08d0 8DF80B30 		strb	r3, [sp, #11]
 1709              		.loc 8 562 0
 1710 08d4 019B     		ldr	r3, [sp, #4]
 1711 08d6 1B6B     		ldr	r3, [r3, #48]
 1712 08d8 1846     		mov	r0, r3
 1713 08da 0521     		movs	r1, #5
 1714 08dc 284A     		ldr	r2, .L94+12
 1715 08de 019B     		ldr	r3, [sp, #4]
 1716 08e0 FFF7FEFF 		bl	dmaStreamAllocate
 1717 08e4 0346     		mov	r3, r0
 1718 08e6 8DF80B30 		strb	r3, [sp, #11]
 1719              		.loc 8 567 0
 1720 08ea 234A     		ldr	r2, .L94+4
 1721 08ec 224B     		ldr	r3, .L94+4
 1722 08ee 1B6C     		ldr	r3, [r3, #64]
 1723 08f0 43F40013 		orr	r3, r3, #2097152
 1724 08f4 1364     		str	r3, [r2, #64]
 1725              		.loc 8 568 0
 1726 08f6 1F20     		movs	r0, #31
 1727 08f8 0521     		movs	r1, #5
 1728 08fa FFF7FEFF 		bl	nvicEnableVector
 1729              		.loc 8 569 0
 1730 08fe 2020     		movs	r0, #32
 1731 0900 0521     		movs	r1, #5
 1732 0902 FFF7FEFF 		bl	nvicEnableVector
 1733              		.loc 8 571 0
 1734 0906 019B     		ldr	r3, [sp, #4]
 1735 0908 5B6A     		ldr	r3, [r3, #36]
 1736 090a 43F00073 		orr	r3, r3, #33554432
 1737 090e 43F44033 		orr	r3, r3, #196608
 1738 0912 019A     		ldr	r2, [sp, #4]
 1739 0914 5362     		str	r3, [r2, #36]
 1740              		.loc 8 573 0
 1741 0916 019B     		ldr	r3, [sp, #4]
 1742 0918 9B6A     		ldr	r3, [r3, #40]
 1743 091a 43F00073 		orr	r3, r3, #33554432
ARM GAS  /tmp/ccgDY3K2.s 			page 32


 1744 091e 43F44033 		orr	r3, r3, #196608
 1745 0922 019A     		ldr	r2, [sp, #4]
 1746 0924 9362     		str	r3, [r2, #40]
 1747              	.L93:
 1748              	.LBE10:
 1749              		.loc 8 632 0
 1750 0926 019B     		ldr	r3, [sp, #4]
 1751 0928 DB6A     		ldr	r3, [r3, #44]
 1752 092a 1B68     		ldr	r3, [r3]
 1753 092c 039A     		ldr	r2, [sp, #12]
 1754 092e 1032     		adds	r2, r2, #16
 1755 0930 9A60     		str	r2, [r3, #8]
 1756              		.loc 8 633 0
 1757 0932 019B     		ldr	r3, [sp, #4]
 1758 0934 1B6B     		ldr	r3, [r3, #48]
 1759 0936 1B68     		ldr	r3, [r3]
 1760 0938 039A     		ldr	r2, [sp, #12]
 1761 093a 1032     		adds	r2, r2, #16
 1762 093c 9A60     		str	r2, [r3, #8]
 1763              		.loc 8 636 0
 1764 093e 039B     		ldr	r3, [sp, #12]
 1765 0940 4FF40042 		mov	r2, #32768
 1766 0944 1A60     		str	r2, [r3]
 1767              		.loc 8 637 0
 1768 0946 039B     		ldr	r3, [sp, #12]
 1769 0948 0022     		movs	r2, #0
 1770 094a 1A60     		str	r2, [r3]
 1771              		.loc 8 638 0
 1772 094c 039B     		ldr	r3, [sp, #12]
 1773 094e 4FF41062 		mov	r2, #2304
 1774 0952 5A60     		str	r2, [r3, #4]
 1775              		.loc 8 641 0
 1776 0954 0198     		ldr	r0, [sp, #4]
 1777 0956 FFF77BFC 		bl	i2c_lld_set_clock
 1778              		.loc 8 642 0
 1779 095a 0198     		ldr	r0, [sp, #4]
 1780 095c FFF700FD 		bl	i2c_lld_set_opmode
 1781              		.loc 8 645 0
 1782 0960 039B     		ldr	r3, [sp, #12]
 1783 0962 1B68     		ldr	r3, [r3]
 1784 0964 43F00102 		orr	r2, r3, #1
 1785 0968 039B     		ldr	r3, [sp, #12]
 1786 096a 1A60     		str	r2, [r3]
 1787              		.loc 8 646 0
 1788 096c 05B0     		add	sp, sp, #20
 1789              		.cfi_def_cfa_offset 4
 1790              		@ sp needed
 1791 096e 5DF804FB 		ldr	pc, [sp], #4
 1792              	.L95:
 1793 0972 00BF     		.align	2
 1794              	.L94:
 1795 0974 00000000 		.word	I2CD1
 1796 0978 00380240 		.word	1073887232
 1797 097c 00000000 		.word	i2c_lld_serve_rx_end_irq
 1798 0980 00000000 		.word	i2c_lld_serve_tx_end_irq
 1799              		.cfi_endproc
 1800              	.LFE289:
ARM GAS  /tmp/ccgDY3K2.s 			page 33


 1801              		.size	i2c_lld_start, .-i2c_lld_start
 1802              		.align	2
 1803 0984 AFF30080 		.p2align 4,,15
 1803      AFF30080 
 1803      AFF30080 
 1804              		.global	i2c_lld_stop
 1805              		.thumb
 1806              		.thumb_func
 1807              		.type	i2c_lld_stop, %function
 1808              	i2c_lld_stop:
 1809              	.LFB290:
 1810              		.loc 8 655 0
 1811              		.cfi_startproc
 1812              		@ args = 0, pretend = 0, frame = 8
 1813              		@ frame_needed = 0, uses_anonymous_args = 0
 1814 0990 00B5     		push	{lr}
 1815              		.cfi_def_cfa_offset 4
 1816              		.cfi_offset 14, -4
 1817 0992 83B0     		sub	sp, sp, #12
 1818              		.cfi_def_cfa_offset 16
 1819 0994 0190     		str	r0, [sp, #4]
 1820              		.loc 8 658 0
 1821 0996 019B     		ldr	r3, [sp, #4]
 1822 0998 1B78     		ldrb	r3, [r3]	@ zero_extendqisi2
 1823 099a 012B     		cmp	r3, #1
 1824 099c 1CD0     		beq	.L96
 1825              		.loc 8 661 0
 1826 099e 0198     		ldr	r0, [sp, #4]
 1827 09a0 FFF706FC 		bl	i2c_lld_abort_operation
 1828              		.loc 8 662 0
 1829 09a4 019B     		ldr	r3, [sp, #4]
 1830 09a6 1B6B     		ldr	r3, [r3, #48]
 1831 09a8 1846     		mov	r0, r3
 1832 09aa FFF7FEFF 		bl	dmaStreamRelease
 1833              		.loc 8 663 0
 1834 09ae 019B     		ldr	r3, [sp, #4]
 1835 09b0 DB6A     		ldr	r3, [r3, #44]
 1836 09b2 1846     		mov	r0, r3
 1837 09b4 FFF7FEFF 		bl	dmaStreamRelease
 1838              		.loc 8 666 0
 1839 09b8 019B     		ldr	r3, [sp, #4]
 1840 09ba 094A     		ldr	r2, .L98
 1841 09bc 9342     		cmp	r3, r2
 1842 09be 0BD1     		bne	.L96
 1843              		.loc 8 667 0
 1844 09c0 1F20     		movs	r0, #31
 1845 09c2 FFF7FEFF 		bl	nvicDisableVector
 1846              		.loc 8 668 0
 1847 09c6 2020     		movs	r0, #32
 1848 09c8 FFF7FEFF 		bl	nvicDisableVector
 1849              		.loc 8 669 0
 1850 09cc 054A     		ldr	r2, .L98+4
 1851 09ce 054B     		ldr	r3, .L98+4
 1852 09d0 1B6C     		ldr	r3, [r3, #64]
 1853 09d2 23F40013 		bic	r3, r3, #2097152
 1854 09d6 1364     		str	r3, [r2, #64]
 1855              	.L96:
ARM GAS  /tmp/ccgDY3K2.s 			page 34


 1856              		.loc 8 689 0
 1857 09d8 03B0     		add	sp, sp, #12
 1858              		.cfi_def_cfa_offset 4
 1859              		@ sp needed
 1860 09da 5DF804FB 		ldr	pc, [sp], #4
 1861              	.L99:
 1862 09de 00BF     		.align	2
 1863              	.L98:
 1864 09e0 00000000 		.word	I2CD1
 1865 09e4 00380240 		.word	1073887232
 1866              		.cfi_endproc
 1867              	.LFE290:
 1868              		.size	i2c_lld_stop, .-i2c_lld_stop
 1869              		.align	2
 1870 09e8 AFF30080 		.p2align 4,,15
 1870      AFF30080 
 1871              		.global	i2c_lld_master_receive_timeout
 1872              		.thumb
 1873              		.thumb_func
 1874              		.type	i2c_lld_master_receive_timeout, %function
 1875              	i2c_lld_master_receive_timeout:
 1876              	.LFB291:
 1877              		.loc 8 716 0
 1878              		.cfi_startproc
 1879              		@ args = 4, pretend = 0, frame = 32
 1880              		@ frame_needed = 0, uses_anonymous_args = 0
 1881 09f0 00B5     		push	{lr}
 1882              		.cfi_def_cfa_offset 4
 1883              		.cfi_offset 14, -4
 1884 09f2 89B0     		sub	sp, sp, #36
 1885              		.cfi_def_cfa_offset 40
 1886 09f4 0390     		str	r0, [sp, #12]
 1887 09f6 0192     		str	r2, [sp, #4]
 1888 09f8 0093     		str	r3, [sp]
 1889 09fa 0B46     		mov	r3, r1	@ movhi
 1890 09fc ADF80A30 		strh	r3, [sp, #10]	@ movhi
 1891              		.loc 8 717 0
 1892 0a00 039B     		ldr	r3, [sp, #12]
 1893 0a02 5B6B     		ldr	r3, [r3, #52]
 1894 0a04 0793     		str	r3, [sp, #28]
 1895              		.loc 8 725 0
 1896 0a06 039B     		ldr	r3, [sp, #12]
 1897 0a08 0022     		movs	r2, #0
 1898 0a0a 9A60     		str	r2, [r3, #8]
 1899              		.loc 8 728 0
 1900 0a0c BDF80A30 		ldrh	r3, [sp, #10]
 1901 0a10 5B00     		lsls	r3, r3, #1
 1902 0a12 9BB2     		uxth	r3, r3
 1903 0a14 43F00103 		orr	r3, r3, #1
 1904 0a18 9BB2     		uxth	r3, r3
 1905 0a1a 9AB2     		uxth	r2, r3
 1906 0a1c 039B     		ldr	r3, [sp, #12]
 1907 0a1e 1A84     		strh	r2, [r3, #32]	@ movhi
 1908              		.loc 8 731 0
 1909 0a20 FFF776FB 		bl	osalSysUnlock
 1910              		.loc 8 734 0
 1911 0a24 039B     		ldr	r3, [sp, #12]
ARM GAS  /tmp/ccgDY3K2.s 			page 35


 1912 0a26 DB6A     		ldr	r3, [r3, #44]
 1913 0a28 1B68     		ldr	r3, [r3]
 1914 0a2a 039A     		ldr	r2, [sp, #12]
 1915 0a2c 526A     		ldr	r2, [r2, #36]
 1916 0a2e 1A60     		str	r2, [r3]
 1917              		.loc 8 735 0
 1918 0a30 039B     		ldr	r3, [sp, #12]
 1919 0a32 DB6A     		ldr	r3, [r3, #44]
 1920 0a34 1B68     		ldr	r3, [r3]
 1921 0a36 019A     		ldr	r2, [sp, #4]
 1922 0a38 DA60     		str	r2, [r3, #12]
 1923              		.loc 8 736 0
 1924 0a3a 039B     		ldr	r3, [sp, #12]
 1925 0a3c DB6A     		ldr	r3, [r3, #44]
 1926 0a3e 1B68     		ldr	r3, [r3]
 1927 0a40 009A     		ldr	r2, [sp]
 1928 0a42 5A60     		str	r2, [r3, #4]
 1929              		.loc 8 739 0
 1930 0a44 FFF77CFB 		bl	osalOsGetSystemTimeX
 1931 0a48 0690     		str	r0, [sp, #24]
 1932              		.loc 8 740 0
 1933 0a4a 069B     		ldr	r3, [sp, #24]
 1934 0a4c 03F5FA73 		add	r3, r3, #500
 1935 0a50 0593     		str	r3, [sp, #20]
 1936              	.L105:
 1937              		.loc 8 745 0
 1938 0a52 FFF755FB 		bl	osalSysLock
 1939              		.loc 8 749 0
 1940 0a56 079B     		ldr	r3, [sp, #28]
 1941 0a58 9B69     		ldr	r3, [r3, #24]
 1942 0a5a 03F00203 		and	r3, r3, #2
 1943 0a5e 002B     		cmp	r3, #0
 1944 0a60 1AD1     		bne	.L101
 1945              		.loc 8 749 0 is_stmt 0 discriminator 1
 1946 0a62 079B     		ldr	r3, [sp, #28]
 1947 0a64 1B68     		ldr	r3, [r3]
 1948 0a66 03F40073 		and	r3, r3, #512
 1949 0a6a 002B     		cmp	r3, #0
 1950 0a6c 14D1     		bne	.L101
 1951              		.loc 8 750 0 is_stmt 1
 1952 0a6e 00BF     		nop
 1953              		.loc 8 761 0
 1954 0a70 079B     		ldr	r3, [sp, #28]
 1955 0a72 5B68     		ldr	r3, [r3, #4]
 1956 0a74 43F40072 		orr	r2, r3, #512
 1957 0a78 079B     		ldr	r3, [sp, #28]
 1958 0a7a 5A60     		str	r2, [r3, #4]
 1959              		.loc 8 762 0
 1960 0a7c 079B     		ldr	r3, [sp, #28]
 1961 0a7e 1B68     		ldr	r3, [r3]
 1962 0a80 43F4A062 		orr	r2, r3, #1280
 1963 0a84 079B     		ldr	r3, [sp, #28]
 1964 0a86 1A60     		str	r2, [r3]
 1965              		.loc 8 765 0
 1966 0a88 039B     		ldr	r3, [sp, #12]
 1967 0a8a 1C33     		adds	r3, r3, #28
 1968 0a8c 1846     		mov	r0, r3
ARM GAS  /tmp/ccgDY3K2.s 			page 36


 1969 0a8e 0A99     		ldr	r1, [sp, #40]
 1970 0a90 FFF76EFB 		bl	osalThreadSuspendTimeoutS
 1971 0a94 0346     		mov	r3, r0
 1972 0a96 13E0     		b	.L104
 1973              	.L101:
 1974              		.loc 8 754 0
 1975 0a98 FFF752FB 		bl	osalOsGetSystemTimeX
 1976 0a9c 0346     		mov	r3, r0
 1977 0a9e 1846     		mov	r0, r3
 1978 0aa0 0699     		ldr	r1, [sp, #24]
 1979 0aa2 059A     		ldr	r2, [sp, #20]
 1980 0aa4 FFF754FB 		bl	osalOsIsTimeWithinX
 1981 0aa8 0346     		mov	r3, r0
 1982 0aaa 83F00103 		eor	r3, r3, #1
 1983 0aae DBB2     		uxtb	r3, r3
 1984 0ab0 002B     		cmp	r3, #0
 1985 0ab2 02D0     		beq	.L103
 1986              		.loc 8 755 0
 1987 0ab4 4FF0FF33 		mov	r3, #-1
 1988 0ab8 02E0     		b	.L104
 1989              	.L103:
 1990              		.loc 8 757 0
 1991 0aba FFF729FB 		bl	osalSysUnlock
 1992              		.loc 8 758 0
 1993 0abe C8E7     		b	.L105
 1994              	.L104:
 1995              		.loc 8 766 0
 1996 0ac0 1846     		mov	r0, r3
 1997 0ac2 09B0     		add	sp, sp, #36
 1998              		.cfi_def_cfa_offset 4
 1999              		@ sp needed
 2000 0ac4 5DF804FB 		ldr	pc, [sp], #4
 2001              		.cfi_endproc
 2002              	.LFE291:
 2003              		.size	i2c_lld_master_receive_timeout, .-i2c_lld_master_receive_timeout
 2004              		.align	2
 2005 0ac8 AFF30080 		.p2align 4,,15
 2005      AFF30080 
 2006              		.global	i2c_lld_master_transmit_timeout
 2007              		.thumb
 2008              		.thumb_func
 2009              		.type	i2c_lld_master_transmit_timeout, %function
 2010              	i2c_lld_master_transmit_timeout:
 2011              	.LFB292:
 2012              		.loc 8 796 0
 2013              		.cfi_startproc
 2014              		@ args = 12, pretend = 0, frame = 32
 2015              		@ frame_needed = 0, uses_anonymous_args = 0
 2016 0ad0 00B5     		push	{lr}
 2017              		.cfi_def_cfa_offset 4
 2018              		.cfi_offset 14, -4
 2019 0ad2 89B0     		sub	sp, sp, #36
 2020              		.cfi_def_cfa_offset 40
 2021 0ad4 0390     		str	r0, [sp, #12]
 2022 0ad6 0192     		str	r2, [sp, #4]
 2023 0ad8 0093     		str	r3, [sp]
 2024 0ada 0B46     		mov	r3, r1	@ movhi
ARM GAS  /tmp/ccgDY3K2.s 			page 37


 2025 0adc ADF80A30 		strh	r3, [sp, #10]	@ movhi
 2026              		.loc 8 797 0
 2027 0ae0 039B     		ldr	r3, [sp, #12]
 2028 0ae2 5B6B     		ldr	r3, [r3, #52]
 2029 0ae4 0793     		str	r3, [sp, #28]
 2030              		.loc 8 805 0
 2031 0ae6 039B     		ldr	r3, [sp, #12]
 2032 0ae8 0022     		movs	r2, #0
 2033 0aea 9A60     		str	r2, [r3, #8]
 2034              		.loc 8 808 0
 2035 0aec BDF80A30 		ldrh	r3, [sp, #10]	@ movhi
 2036 0af0 5B00     		lsls	r3, r3, #1
 2037 0af2 9AB2     		uxth	r2, r3
 2038 0af4 039B     		ldr	r3, [sp, #12]
 2039 0af6 1A84     		strh	r2, [r3, #32]	@ movhi
 2040              		.loc 8 811 0
 2041 0af8 FFF70AFB 		bl	osalSysUnlock
 2042              		.loc 8 814 0
 2043 0afc 039B     		ldr	r3, [sp, #12]
 2044 0afe 1B6B     		ldr	r3, [r3, #48]
 2045 0b00 1B68     		ldr	r3, [r3]
 2046 0b02 039A     		ldr	r2, [sp, #12]
 2047 0b04 926A     		ldr	r2, [r2, #40]
 2048 0b06 1A60     		str	r2, [r3]
 2049              		.loc 8 815 0
 2050 0b08 039B     		ldr	r3, [sp, #12]
 2051 0b0a 1B6B     		ldr	r3, [r3, #48]
 2052 0b0c 1B68     		ldr	r3, [r3]
 2053 0b0e 019A     		ldr	r2, [sp, #4]
 2054 0b10 DA60     		str	r2, [r3, #12]
 2055              		.loc 8 816 0
 2056 0b12 039B     		ldr	r3, [sp, #12]
 2057 0b14 1B6B     		ldr	r3, [r3, #48]
 2058 0b16 1B68     		ldr	r3, [r3]
 2059 0b18 009A     		ldr	r2, [sp]
 2060 0b1a 5A60     		str	r2, [r3, #4]
 2061              		.loc 8 819 0
 2062 0b1c 039B     		ldr	r3, [sp, #12]
 2063 0b1e DB6A     		ldr	r3, [r3, #44]
 2064 0b20 1B68     		ldr	r3, [r3]
 2065 0b22 039A     		ldr	r2, [sp, #12]
 2066 0b24 526A     		ldr	r2, [r2, #36]
 2067 0b26 1A60     		str	r2, [r3]
 2068              		.loc 8 820 0
 2069 0b28 039B     		ldr	r3, [sp, #12]
 2070 0b2a DB6A     		ldr	r3, [r3, #44]
 2071 0b2c 1B68     		ldr	r3, [r3]
 2072 0b2e 0A9A     		ldr	r2, [sp, #40]
 2073 0b30 DA60     		str	r2, [r3, #12]
 2074              		.loc 8 821 0
 2075 0b32 039B     		ldr	r3, [sp, #12]
 2076 0b34 DB6A     		ldr	r3, [r3, #44]
 2077 0b36 1B68     		ldr	r3, [r3]
 2078 0b38 0B9A     		ldr	r2, [sp, #44]
 2079 0b3a 5A60     		str	r2, [r3, #4]
 2080              		.loc 8 824 0
 2081 0b3c FFF700FB 		bl	osalOsGetSystemTimeX
ARM GAS  /tmp/ccgDY3K2.s 			page 38


 2082 0b40 0690     		str	r0, [sp, #24]
 2083              		.loc 8 825 0
 2084 0b42 069B     		ldr	r3, [sp, #24]
 2085 0b44 03F5FA73 		add	r3, r3, #500
 2086 0b48 0593     		str	r3, [sp, #20]
 2087              	.L111:
 2088              		.loc 8 830 0
 2089 0b4a FFF7D9FA 		bl	osalSysLock
 2090              		.loc 8 834 0
 2091 0b4e 079B     		ldr	r3, [sp, #28]
 2092 0b50 9B69     		ldr	r3, [r3, #24]
 2093 0b52 03F00203 		and	r3, r3, #2
 2094 0b56 002B     		cmp	r3, #0
 2095 0b58 1AD1     		bne	.L107
 2096              		.loc 8 834 0 is_stmt 0 discriminator 1
 2097 0b5a 079B     		ldr	r3, [sp, #28]
 2098 0b5c 1B68     		ldr	r3, [r3]
 2099 0b5e 03F40073 		and	r3, r3, #512
 2100 0b62 002B     		cmp	r3, #0
 2101 0b64 14D1     		bne	.L107
 2102              		.loc 8 835 0 is_stmt 1
 2103 0b66 00BF     		nop
 2104              		.loc 8 846 0
 2105 0b68 079B     		ldr	r3, [sp, #28]
 2106 0b6a 5B68     		ldr	r3, [r3, #4]
 2107 0b6c 43F40072 		orr	r2, r3, #512
 2108 0b70 079B     		ldr	r3, [sp, #28]
 2109 0b72 5A60     		str	r2, [r3, #4]
 2110              		.loc 8 847 0
 2111 0b74 079B     		ldr	r3, [sp, #28]
 2112 0b76 1B68     		ldr	r3, [r3]
 2113 0b78 43F48072 		orr	r2, r3, #256
 2114 0b7c 079B     		ldr	r3, [sp, #28]
 2115 0b7e 1A60     		str	r2, [r3]
 2116              		.loc 8 850 0
 2117 0b80 039B     		ldr	r3, [sp, #12]
 2118 0b82 1C33     		adds	r3, r3, #28
 2119 0b84 1846     		mov	r0, r3
 2120 0b86 0C99     		ldr	r1, [sp, #48]
 2121 0b88 FFF7F2FA 		bl	osalThreadSuspendTimeoutS
 2122 0b8c 0346     		mov	r3, r0
 2123 0b8e 13E0     		b	.L110
 2124              	.L107:
 2125              		.loc 8 839 0
 2126 0b90 FFF7D6FA 		bl	osalOsGetSystemTimeX
 2127 0b94 0346     		mov	r3, r0
 2128 0b96 1846     		mov	r0, r3
 2129 0b98 0699     		ldr	r1, [sp, #24]
 2130 0b9a 059A     		ldr	r2, [sp, #20]
 2131 0b9c FFF7D8FA 		bl	osalOsIsTimeWithinX
 2132 0ba0 0346     		mov	r3, r0
 2133 0ba2 83F00103 		eor	r3, r3, #1
 2134 0ba6 DBB2     		uxtb	r3, r3
 2135 0ba8 002B     		cmp	r3, #0
 2136 0baa 02D0     		beq	.L109
 2137              		.loc 8 840 0
 2138 0bac 4FF0FF33 		mov	r3, #-1
ARM GAS  /tmp/ccgDY3K2.s 			page 39


 2139 0bb0 02E0     		b	.L110
 2140              	.L109:
 2141              		.loc 8 842 0
 2142 0bb2 FFF7ADFA 		bl	osalSysUnlock
 2143              		.loc 8 843 0
 2144 0bb6 C8E7     		b	.L111
 2145              	.L110:
 2146              		.loc 8 851 0
 2147 0bb8 1846     		mov	r0, r3
 2148 0bba 09B0     		add	sp, sp, #36
 2149              		.cfi_def_cfa_offset 4
 2150              		@ sp needed
 2151 0bbc 5DF804FB 		ldr	pc, [sp], #4
 2152              		.cfi_endproc
 2153              	.LFE292:
 2154              		.size	i2c_lld_master_transmit_timeout, .-i2c_lld_master_transmit_timeout
 2155              	.Letext0:
 2156              		.file 9 "/usr/lib/gcc/arm-none-eabi/4.9.3/include/stddef.h"
 2157              		.file 10 "/usr/include/newlib/machine/_default_types.h"
 2158              		.file 11 "/usr/include/newlib/sys/_stdint.h"
 2159              		.file 12 "../../../os/common/ports/ARMCMx/compilers/GCC/chtypes.h"
 2160              		.file 13 "../../../os/rt/include/chsystypes.h"
 2161              		.file 14 "../../../os/rt/include/chschd.h"
 2162              		.file 15 "../../../os/common/ext/CMSIS/ST/STM32F4xx/stm32f407xx.h"
 2163              		.file 16 "../../../os/common/ports/ARMCMx/chcore.h"
 2164              		.file 17 "../../../os/hal/ports/STM32/LLD/TIMv1/stm32_tim.h"
 2165              		.file 18 "../../../os/rt/include/chtm.h"
 2166              		.file 19 "../../../os/rt/include/chsem.h"
 2167              		.file 20 "../../../os/rt/include/chmtx.h"
 2168              		.file 21 "../../../os/hal/ports/STM32/LLD/DMAv2/stm32_dma.h"
 2169              		.file 22 "../../../os/hal/include/hal_i2c.h"
 2170              		.file 23 "../../../os/hal/ports/STM32/LLD/I2Cv1/hal_i2c_lld.h"
 2171              		.file 24 "../../../os/common/ext/CMSIS/include/core_cm4.h"