ARM GAS  /tmp/cc8o9FGc.s 			page 1


   1              		.syntax unified
   2              		.cpu cortex-m4
   3              		.fpu softvfp
   4              		.eabi_attribute 20, 1
   5              		.eabi_attribute 21, 1
   6              		.eabi_attribute 23, 3
   7              		.eabi_attribute 24, 1
   8              		.eabi_attribute 25, 1
   9              		.eabi_attribute 26, 1
  10              		.eabi_attribute 30, 6
  11              		.eabi_attribute 34, 1
  12              		.eabi_attribute 18, 4
  13              		.thumb
  14              		.file	"hal_pal.c"
  15              		.text
  16              	.Ltext0:
  17              		.cfi_sections	.debug_frame
  18              		.align	2
  19              		.p2align 4,,15
  20              		.global	palReadBus
  21              		.thumb
  22              		.thumb_func
  23              		.type	palReadBus, %function
  24              	palReadBus:
  25              	.LFB279:
  26              		.file 1 "../../../os/hal/src/hal_pal.c"
  27              		.loc 1 65 0
  28              		.cfi_startproc
  29              		@ args = 0, pretend = 0, frame = 8
  30              		@ frame_needed = 0, uses_anonymous_args = 0
  31              		@ link register save eliminated.
  32 0000 82B0     		sub	sp, sp, #8
  33              		.cfi_def_cfa_offset 8
  34 0002 0190     		str	r0, [sp, #4]
  35              		.loc 1 69 0
  36 0004 019B     		ldr	r3, [sp, #4]
  37 0006 1B68     		ldr	r3, [r3]
  38 0008 1B69     		ldr	r3, [r3, #16]
  39 000a 019A     		ldr	r2, [sp, #4]
  40 000c 9268     		ldr	r2, [r2, #8]
  41 000e 23FA02F2 		lsr	r2, r3, r2
  42 0012 019B     		ldr	r3, [sp, #4]
  43 0014 5B68     		ldr	r3, [r3, #4]
  44 0016 1340     		ands	r3, r3, r2
  45              		.loc 1 70 0
  46 0018 1846     		mov	r0, r3
  47 001a 02B0     		add	sp, sp, #8
  48              		.cfi_def_cfa_offset 0
  49              		@ sp needed
  50 001c 7047     		bx	lr
  51              		.cfi_endproc
  52              	.LFE279:
  53              		.size	palReadBus, .-palReadBus
  54 001e 00BF     		.align	2
  55              		.p2align 4,,15
  56              		.global	palWriteBus
  57              		.thumb
ARM GAS  /tmp/cc8o9FGc.s 			page 2


  58              		.thumb_func
  59              		.type	palWriteBus, %function
  60              	palWriteBus:
  61              	.LFB280:
  62              		.loc 1 90 0
  63              		.cfi_startproc
  64              		@ args = 0, pretend = 0, frame = 8
  65              		@ frame_needed = 0, uses_anonymous_args = 0
  66              		@ link register save eliminated.
  67 0020 82B0     		sub	sp, sp, #8
  68              		.cfi_def_cfa_offset 8
  69 0022 0190     		str	r0, [sp, #4]
  70 0024 0091     		str	r1, [sp]
  71              		.loc 1 94 0
  72 0026 019B     		ldr	r3, [sp, #4]
  73 0028 1B68     		ldr	r3, [r3]
  74 002a 009A     		ldr	r2, [sp]
  75 002c D143     		mvns	r1, r2
  76 002e 019A     		ldr	r2, [sp, #4]
  77 0030 5268     		ldr	r2, [r2, #4]
  78 0032 0A40     		ands	r2, r2, r1
  79 0034 0199     		ldr	r1, [sp, #4]
  80 0036 8968     		ldr	r1, [r1, #8]
  81 0038 1031     		adds	r1, r1, #16
  82 003a 02FA01F1 		lsl	r1, r2, r1
  83 003e 019A     		ldr	r2, [sp, #4]
  84 0040 5068     		ldr	r0, [r2, #4]
  85 0042 009A     		ldr	r2, [sp]
  86 0044 0240     		ands	r2, r2, r0
  87 0046 0198     		ldr	r0, [sp, #4]
  88 0048 8068     		ldr	r0, [r0, #8]
  89 004a 8240     		lsls	r2, r2, r0
  90 004c 0A43     		orrs	r2, r2, r1
  91 004e 9A61     		str	r2, [r3, #24]
  92              		.loc 1 95 0
  93 0050 02B0     		add	sp, sp, #8
  94              		.cfi_def_cfa_offset 0
  95              		@ sp needed
  96 0052 7047     		bx	lr
  97              		.cfi_endproc
  98              	.LFE280:
  99              		.size	palWriteBus, .-palWriteBus
 100              		.align	2
 101 0054 AFF30080 		.p2align 4,,15
 101      AFF30080 
 101      AFF30080 
 102              		.global	palSetBusMode
 103              		.thumb
 104              		.thumb_func
 105              		.type	palSetBusMode, %function
 106              	palSetBusMode:
 107              	.LFB281:
 108              		.loc 1 113 0
 109              		.cfi_startproc
 110              		@ args = 0, pretend = 0, frame = 8
 111              		@ frame_needed = 0, uses_anonymous_args = 0
 112 0060 00B5     		push	{lr}
ARM GAS  /tmp/cc8o9FGc.s 			page 3


 113              		.cfi_def_cfa_offset 4
 114              		.cfi_offset 14, -4
 115 0062 83B0     		sub	sp, sp, #12
 116              		.cfi_def_cfa_offset 16
 117 0064 0190     		str	r0, [sp, #4]
 118 0066 0091     		str	r1, [sp]
 119              		.loc 1 117 0
 120 0068 019B     		ldr	r3, [sp, #4]
 121 006a 1968     		ldr	r1, [r3]
 122 006c 019B     		ldr	r3, [sp, #4]
 123 006e 5B68     		ldr	r3, [r3, #4]
 124 0070 019A     		ldr	r2, [sp, #4]
 125 0072 9268     		ldr	r2, [r2, #8]
 126 0074 9340     		lsls	r3, r3, r2
 127 0076 0846     		mov	r0, r1
 128 0078 1946     		mov	r1, r3
 129 007a 009A     		ldr	r2, [sp]
 130 007c FFF7FEFF 		bl	_pal_lld_setgroupmode
 131              		.loc 1 118 0
 132 0080 03B0     		add	sp, sp, #12
 133              		.cfi_def_cfa_offset 4
 134              		@ sp needed
 135 0082 5DF804FB 		ldr	pc, [sp], #4
 136              		.cfi_endproc
 137              	.LFE281:
 138              		.size	palSetBusMode, .-palSetBusMode
 139              	.Letext0:
 140              		.file 2 "/usr/include/newlib/machine/_default_types.h"
 141              		.file 3 "/usr/include/newlib/sys/_stdint.h"
 142              		.file 4 "/usr/include/newlib/stdint.h"
 143              		.file 5 "../../../os/common/ports/ARMCMx/compilers/GCC/chtypes.h"
 144              		.file 6 "../../../os/rt/include/chsystypes.h"
 145              		.file 7 "../../../os/rt/include/chschd.h"
 146              		.file 8 "../../../os/common/ports/ARMCMx/chcore.h"
 147              		.file 9 "../../../os/common/ports/ARMCMx/chcore_v7m.h"
 148              		.file 10 "../../../os/rt/include/chtm.h"
 149              		.file 11 "../../../os/rt/include/chsem.h"
 150              		.file 12 "../../../os/rt/include/chmtx.h"
 151              		.file 13 "../../../os/hal/ports/STM32/LLD/GPIOv2/hal_pal_lld.h"
 152              		.file 14 "../../../os/hal/include/hal_pal.h"
 153              		.file 15 "../../../os/common/ext/CMSIS/include/core_cm4.h"