ARM GAS  /tmp/cc5fH8Aa.s 			page 1


   1              		.syntax unified
   2              		.cpu cortex-m4
   3              		.fpu softvfp
   4              		.eabi_attribute 20, 1
   5              		.eabi_attribute 21, 1
   6              		.eabi_attribute 23, 3
   7              		.eabi_attribute 24, 1
   8              		.eabi_attribute 25, 1
   9              		.eabi_attribute 26, 1
  10              		.eabi_attribute 30, 6
  11              		.eabi_attribute 34, 1
  12              		.eabi_attribute 18, 4
  13              		.thumb
  14              		.file	"hal_serial_lld.c"
  15              		.text
  16              	.Ltext0:
  17              		.cfi_sections	.debug_frame
  18              		.align	2
  19              		.p2align 4,,15
  20              		.thumb
  21              		.thumb_func
  22              		.type	port_lock, %function
  23              	port_lock:
  24              	.LFB127:
  25              		.file 1 "../../../os/common/ports/ARMCMx/chcore_v7m.h"
  26              		.loc 1 594 0
  27              		.cfi_startproc
  28              		@ args = 0, pretend = 0, frame = 8
  29              		@ frame_needed = 0, uses_anonymous_args = 0
  30              		@ link register save eliminated.
  31 0000 82B0     		sub	sp, sp, #8
  32              		.cfi_def_cfa_offset 8
  33 0002 2023     		movs	r3, #32
  34 0004 0193     		str	r3, [sp, #4]
  35              	.LBB6:
  36              	.LBB7:
  37              		.file 2 "../../../os/common/ext/CMSIS/include/cmsis_gcc.h"
  38              		.loc 2 264 0
  39 0006 019B     		ldr	r3, [sp, #4]
  40              	@ 264 "../../../os/common/ext/CMSIS/include/cmsis_gcc.h" 1
  41 0008 83F31188 		MSR basepri, r3
  42              	@ 0 "" 2
  43              		.thumb
  44              	.LBE7:
  45              	.LBE6:
  46              		.loc 1 611 0
  47 000c 02B0     		add	sp, sp, #8
  48              		.cfi_def_cfa_offset 0
  49              		@ sp needed
  50 000e 7047     		bx	lr
  51              		.cfi_endproc
  52              	.LFE127:
  53              		.size	port_lock, .-port_lock
  54              		.align	2
  55              		.p2align 4,,15
  56              		.thumb
  57              		.thumb_func
ARM GAS  /tmp/cc5fH8Aa.s 			page 2


  58              		.type	port_unlock, %function
  59              	port_unlock:
  60              	.LFB128:
  61              		.loc 1 618 0
  62              		.cfi_startproc
  63              		@ args = 0, pretend = 0, frame = 8
  64              		@ frame_needed = 0, uses_anonymous_args = 0
  65              		@ link register save eliminated.
  66 0010 82B0     		sub	sp, sp, #8
  67              		.cfi_def_cfa_offset 8
  68 0012 0023     		movs	r3, #0
  69 0014 0193     		str	r3, [sp, #4]
  70              	.LBB8:
  71              	.LBB9:
  72              		.loc 2 264 0
  73 0016 019B     		ldr	r3, [sp, #4]
  74              	@ 264 "../../../os/common/ext/CMSIS/include/cmsis_gcc.h" 1
  75 0018 83F31188 		MSR basepri, r3
  76              	@ 0 "" 2
  77              		.thumb
  78              	.LBE9:
  79              	.LBE8:
  80              		.loc 1 625 0
  81 001c 02B0     		add	sp, sp, #8
  82              		.cfi_def_cfa_offset 0
  83              		@ sp needed
  84 001e 7047     		bx	lr
  85              		.cfi_endproc
  86              	.LFE128:
  87              		.size	port_unlock, .-port_unlock
  88              		.align	2
  89              		.p2align 4,,15
  90              		.thumb
  91              		.thumb_func
  92              		.type	port_lock_from_isr, %function
  93              	port_lock_from_isr:
  94              	.LFB129:
  95              		.loc 1 633 0
  96              		.cfi_startproc
  97              		@ args = 0, pretend = 0, frame = 0
  98              		@ frame_needed = 0, uses_anonymous_args = 0
  99 0020 08B5     		push	{r3, lr}
 100              		.cfi_def_cfa_offset 8
 101              		.cfi_offset 3, -8
 102              		.cfi_offset 14, -4
 103              		.loc 1 635 0
 104 0022 FFF7EDFF 		bl	port_lock
 105              		.loc 1 636 0
 106 0026 08BD     		pop	{r3, pc}
 107              		.cfi_endproc
 108              	.LFE129:
 109              		.size	port_lock_from_isr, .-port_lock_from_isr
 110              		.align	2
 111 0028 AFF30080 		.p2align 4,,15
 111      AFF30080 
 112              		.thumb
 113              		.thumb_func
ARM GAS  /tmp/cc5fH8Aa.s 			page 3


 114              		.type	port_unlock_from_isr, %function
 115              	port_unlock_from_isr:
 116              	.LFB130:
 117              		.loc 1 644 0
 118              		.cfi_startproc
 119              		@ args = 0, pretend = 0, frame = 0
 120              		@ frame_needed = 0, uses_anonymous_args = 0
 121 0030 08B5     		push	{r3, lr}
 122              		.cfi_def_cfa_offset 8
 123              		.cfi_offset 3, -8
 124              		.cfi_offset 14, -4
 125              		.loc 1 646 0
 126 0032 FFF7EDFF 		bl	port_unlock
 127              		.loc 1 647 0
 128 0036 08BD     		pop	{r3, pc}
 129              		.cfi_endproc
 130              	.LFE130:
 131              		.size	port_unlock_from_isr, .-port_unlock_from_isr
 132              		.align	2
 133 0038 AFF30080 		.p2align 4,,15
 133      AFF30080 
 134              		.thumb
 135              		.thumb_func
 136              		.type	chSysLockFromISR, %function
 137              	chSysLockFromISR:
 138              	.LFB169:
 139              		.file 3 "../../../os/rt/include/chsys.h"
 140              		.loc 3 414 0
 141              		.cfi_startproc
 142              		@ args = 0, pretend = 0, frame = 0
 143              		@ frame_needed = 0, uses_anonymous_args = 0
 144 0040 08B5     		push	{r3, lr}
 145              		.cfi_def_cfa_offset 8
 146              		.cfi_offset 3, -8
 147              		.cfi_offset 14, -4
 148              		.loc 3 416 0
 149 0042 FFF7EDFF 		bl	port_lock_from_isr
 150              		.loc 3 419 0
 151 0046 08BD     		pop	{r3, pc}
 152              		.cfi_endproc
 153              	.LFE169:
 154              		.size	chSysLockFromISR, .-chSysLockFromISR
 155              		.align	2
 156 0048 AFF30080 		.p2align 4,,15
 156      AFF30080 
 157              		.thumb
 158              		.thumb_func
 159              		.type	chSysUnlockFromISR, %function
 160              	chSysUnlockFromISR:
 161              	.LFB170:
 162              		.loc 3 434 0
 163              		.cfi_startproc
 164              		@ args = 0, pretend = 0, frame = 0
 165              		@ frame_needed = 0, uses_anonymous_args = 0
 166 0050 08B5     		push	{r3, lr}
 167              		.cfi_def_cfa_offset 8
 168              		.cfi_offset 3, -8
ARM GAS  /tmp/cc5fH8Aa.s 			page 4


 169              		.cfi_offset 14, -4
 170              		.loc 3 438 0
 171 0052 FFF7EDFF 		bl	port_unlock_from_isr
 172              		.loc 3 439 0
 173 0056 08BD     		pop	{r3, pc}
 174              		.cfi_endproc
 175              	.LFE170:
 176              		.size	chSysUnlockFromISR, .-chSysUnlockFromISR
 177              		.align	2
 178 0058 AFF30080 		.p2align 4,,15
 178      AFF30080 
 179              		.thumb
 180              		.thumb_func
 181              		.type	osalSysLockFromISR, %function
 182              	osalSysLockFromISR:
 183              	.LFB254:
 184              		.file 4 "../../../os/hal/osal/rt/osal.h"
 185              		.loc 4 513 0
 186              		.cfi_startproc
 187              		@ args = 0, pretend = 0, frame = 0
 188              		@ frame_needed = 0, uses_anonymous_args = 0
 189 0060 08B5     		push	{r3, lr}
 190              		.cfi_def_cfa_offset 8
 191              		.cfi_offset 3, -8
 192              		.cfi_offset 14, -4
 193              		.loc 4 515 0
 194 0062 FFF7EDFF 		bl	chSysLockFromISR
 195              		.loc 4 516 0
 196 0066 08BD     		pop	{r3, pc}
 197              		.cfi_endproc
 198              	.LFE254:
 199              		.size	osalSysLockFromISR, .-osalSysLockFromISR
 200              		.align	2
 201 0068 AFF30080 		.p2align 4,,15
 201      AFF30080 
 202              		.thumb
 203              		.thumb_func
 204              		.type	osalSysUnlockFromISR, %function
 205              	osalSysUnlockFromISR:
 206              	.LFB255:
 207              		.loc 4 524 0
 208              		.cfi_startproc
 209              		@ args = 0, pretend = 0, frame = 0
 210              		@ frame_needed = 0, uses_anonymous_args = 0
 211 0070 08B5     		push	{r3, lr}
 212              		.cfi_def_cfa_offset 8
 213              		.cfi_offset 3, -8
 214              		.cfi_offset 14, -4
 215              		.loc 4 526 0
 216 0072 FFF7EDFF 		bl	chSysUnlockFromISR
 217              		.loc 4 527 0
 218 0076 08BD     		pop	{r3, pc}
 219              		.cfi_endproc
 220              	.LFE255:
 221              		.size	osalSysUnlockFromISR, .-osalSysUnlockFromISR
 222              		.align	2
 223 0078 AFF30080 		.p2align 4,,15
ARM GAS  /tmp/cc5fH8Aa.s 			page 5


 223      AFF30080 
 224              		.thumb
 225              		.thumb_func
 226              		.type	osalEventBroadcastFlagsI, %function
 227              	osalEventBroadcastFlagsI:
 228              	.LFB274:
 229              		.loc 4 842 0
 230              		.cfi_startproc
 231              		@ args = 0, pretend = 0, frame = 8
 232              		@ frame_needed = 0, uses_anonymous_args = 0
 233 0080 00B5     		push	{lr}
 234              		.cfi_def_cfa_offset 4
 235              		.cfi_offset 14, -4
 236 0082 83B0     		sub	sp, sp, #12
 237              		.cfi_def_cfa_offset 16
 238 0084 0190     		str	r0, [sp, #4]
 239 0086 0091     		str	r1, [sp]
 240              		.loc 4 844 0
 241 0088 0198     		ldr	r0, [sp, #4]
 242 008a 0099     		ldr	r1, [sp]
 243 008c FFF7FEFF 		bl	chEvtBroadcastFlagsI
 244              		.loc 4 845 0
 245 0090 03B0     		add	sp, sp, #12
 246              		.cfi_def_cfa_offset 4
 247              		@ sp needed
 248 0092 5DF804FB 		ldr	pc, [sp], #4
 249              		.cfi_endproc
 250              	.LFE274:
 251              		.size	osalEventBroadcastFlagsI, .-osalEventBroadcastFlagsI
 252              		.comm	SD2,124,4
 253              		.comm	SD3,124,4
 254              		.section	.rodata
 255              		.align	2
 256              		.type	default_config, %object
 257              		.size	default_config, 12
 258              	default_config:
 259 0000 00960000 		.word	38400
 260 0004 0000     		.short	0
 261 0006 0000     		.short	0
 262 0008 0000     		.short	0
 263 000a 0000     		.space	2
 264              		.text
 265 0096 00BF     		.align	2
 266 0098 AFF30080 		.p2align 4,,15
 266      AFF30080 
 267              		.thumb
 268              		.thumb_func
 269              		.type	usart_init, %function
 270              	usart_init:
 271              	.LFB279:
 272              		.file 5 "../../../os/hal/ports/STM32/LLD/USARTv1/hal_serial_lld.c"
 273              		.loc 5 101 0
 274              		.cfi_startproc
 275              		@ args = 0, pretend = 0, frame = 16
 276              		@ frame_needed = 0, uses_anonymous_args = 0
 277              		@ link register save eliminated.
 278 00a0 84B0     		sub	sp, sp, #16
ARM GAS  /tmp/cc5fH8Aa.s 			page 6


 279              		.cfi_def_cfa_offset 16
 280 00a2 0190     		str	r0, [sp, #4]
 281 00a4 0091     		str	r1, [sp]
 282              		.loc 5 102 0
 283 00a6 019B     		ldr	r3, [sp, #4]
 284 00a8 5B6F     		ldr	r3, [r3, #116]
 285 00aa 0393     		str	r3, [sp, #12]
 286              		.loc 5 106 0
 287 00ac 019B     		ldr	r3, [sp, #4]
 288 00ae 5B6F     		ldr	r3, [r3, #116]
 289 00b0 244A     		ldr	r2, .L16
 290 00b2 9342     		cmp	r3, r2
 291 00b4 04D0     		beq	.L11
 292              		.loc 5 106 0 is_stmt 0 discriminator 1
 293 00b6 019B     		ldr	r3, [sp, #4]
 294 00b8 5B6F     		ldr	r3, [r3, #116]
 295 00ba 234A     		ldr	r2, .L16+4
 296 00bc 9342     		cmp	r3, r2
 297 00be 07D1     		bne	.L12
 298              	.L11:
 299              		.loc 5 110 0 is_stmt 1
 300 00c0 009B     		ldr	r3, [sp]
 301 00c2 1B68     		ldr	r3, [r3]
 302 00c4 214A     		ldr	r2, .L16+8
 303 00c6 B2FBF3F2 		udiv	r2, r2, r3
 304 00ca 039B     		ldr	r3, [sp, #12]
 305 00cc 9A60     		str	r2, [r3, #8]
 306 00ce 06E0     		b	.L13
 307              	.L12:
 308              		.loc 5 112 0
 309 00d0 009B     		ldr	r3, [sp]
 310 00d2 1B68     		ldr	r3, [r3]
 311 00d4 1E4A     		ldr	r2, .L16+12
 312 00d6 B2FBF3F2 		udiv	r2, r2, r3
 313 00da 039B     		ldr	r3, [sp, #12]
 314 00dc 9A60     		str	r2, [r3, #8]
 315              	.L13:
 316              		.loc 5 115 0
 317 00de 009B     		ldr	r3, [sp]
 318 00e0 DB88     		ldrh	r3, [r3, #6]
 319 00e2 43F04003 		orr	r3, r3, #64
 320 00e6 9BB2     		uxth	r3, r3
 321 00e8 1A46     		mov	r2, r3
 322 00ea 039B     		ldr	r3, [sp, #12]
 323 00ec 1A61     		str	r2, [r3, #16]
 324              		.loc 5 116 0
 325 00ee 009B     		ldr	r3, [sp]
 326 00f0 1B89     		ldrh	r3, [r3, #8]
 327 00f2 43F00103 		orr	r3, r3, #1
 328 00f6 9BB2     		uxth	r3, r3
 329 00f8 1A46     		mov	r2, r3
 330 00fa 039B     		ldr	r3, [sp, #12]
 331 00fc 5A61     		str	r2, [r3, #20]
 332              		.loc 5 117 0
 333 00fe 009B     		ldr	r3, [sp]
 334 0100 9B88     		ldrh	r3, [r3, #4]
 335 0102 43F40453 		orr	r3, r3, #8448
ARM GAS  /tmp/cc5fH8Aa.s 			page 7


 336 0106 43F02C03 		orr	r3, r3, #44
 337 010a 9BB2     		uxth	r3, r3
 338 010c 1A46     		mov	r2, r3
 339 010e 039B     		ldr	r3, [sp, #12]
 340 0110 DA60     		str	r2, [r3, #12]
 341              		.loc 5 120 0
 342 0112 039B     		ldr	r3, [sp, #12]
 343 0114 0022     		movs	r2, #0
 344 0116 1A60     		str	r2, [r3]
 345              		.loc 5 121 0
 346 0118 039B     		ldr	r3, [sp, #12]
 347 011a 1B68     		ldr	r3, [r3]
 348              		.loc 5 122 0
 349 011c 039B     		ldr	r3, [sp, #12]
 350 011e 5B68     		ldr	r3, [r3, #4]
 351              		.loc 5 126 0
 352 0120 009B     		ldr	r3, [sp]
 353 0122 9B88     		ldrh	r3, [r3, #4]
 354 0124 03F4A053 		and	r3, r3, #5120
 355 0128 B3F5806F 		cmp	r3, #1024
 356 012c 04D1     		bne	.L14
 357              		.loc 5 127 0
 358 012e 019B     		ldr	r3, [sp, #4]
 359 0130 7F22     		movs	r2, #127
 360 0132 83F87820 		strb	r2, [r3, #120]
 361 0136 03E0     		b	.L10
 362              	.L14:
 363              		.loc 5 130 0
 364 0138 019B     		ldr	r3, [sp, #4]
 365 013a FF22     		movs	r2, #255
 366 013c 83F87820 		strb	r2, [r3, #120]
 367              	.L10:
 368              		.loc 5 132 0
 369 0140 04B0     		add	sp, sp, #16
 370              		.cfi_def_cfa_offset 0
 371              		@ sp needed
 372 0142 7047     		bx	lr
 373              	.L17:
 374              		.align	2
 375              	.L16:
 376 0144 00100140 		.word	1073811456
 377 0148 00140140 		.word	1073812480
 378 014c 00BD0105 		.word	84000000
 379 0150 80DE8002 		.word	42000000
 380              		.cfi_endproc
 381              	.LFE279:
 382              		.size	usart_init, .-usart_init
 383              		.align	2
 384 0154 AFF30080 		.p2align 4,,15
 384      AFF30080 
 384      AFF30080 
 385              		.thumb
 386              		.thumb_func
 387              		.type	usart_deinit, %function
 388              	usart_deinit:
 389              	.LFB280:
 390              		.loc 5 140 0
ARM GAS  /tmp/cc5fH8Aa.s 			page 8


 391              		.cfi_startproc
 392              		@ args = 0, pretend = 0, frame = 8
 393              		@ frame_needed = 0, uses_anonymous_args = 0
 394              		@ link register save eliminated.
 395 0160 82B0     		sub	sp, sp, #8
 396              		.cfi_def_cfa_offset 8
 397 0162 0190     		str	r0, [sp, #4]
 398              		.loc 5 142 0
 399 0164 019B     		ldr	r3, [sp, #4]
 400 0166 0022     		movs	r2, #0
 401 0168 DA60     		str	r2, [r3, #12]
 402              		.loc 5 143 0
 403 016a 019B     		ldr	r3, [sp, #4]
 404 016c 0022     		movs	r2, #0
 405 016e 1A61     		str	r2, [r3, #16]
 406              		.loc 5 144 0
 407 0170 019B     		ldr	r3, [sp, #4]
 408 0172 0022     		movs	r2, #0
 409 0174 5A61     		str	r2, [r3, #20]
 410              		.loc 5 145 0
 411 0176 02B0     		add	sp, sp, #8
 412              		.cfi_def_cfa_offset 0
 413              		@ sp needed
 414 0178 7047     		bx	lr
 415              		.cfi_endproc
 416              	.LFE280:
 417              		.size	usart_deinit, .-usart_deinit
 418 017a 00BF     		.align	2
 419 017c AFF30080 		.p2align 4,,15
 420              		.thumb
 421              		.thumb_func
 422              		.type	set_error, %function
 423              	set_error:
 424              	.LFB281:
 425              		.loc 5 153 0
 426              		.cfi_startproc
 427              		@ args = 0, pretend = 0, frame = 16
 428              		@ frame_needed = 0, uses_anonymous_args = 0
 429 0180 00B5     		push	{lr}
 430              		.cfi_def_cfa_offset 4
 431              		.cfi_offset 14, -4
 432 0182 85B0     		sub	sp, sp, #20
 433              		.cfi_def_cfa_offset 24
 434 0184 0190     		str	r0, [sp, #4]
 435 0186 0B46     		mov	r3, r1
 436 0188 ADF80230 		strh	r3, [sp, #2]	@ movhi
 437              		.loc 5 154 0
 438 018c 0023     		movs	r3, #0
 439 018e 0393     		str	r3, [sp, #12]
 440              		.loc 5 156 0
 441 0190 BDF80230 		ldrh	r3, [sp, #2]
 442 0194 03F00803 		and	r3, r3, #8
 443 0198 002B     		cmp	r3, #0
 444 019a 03D0     		beq	.L20
 445              		.loc 5 157 0
 446 019c 039B     		ldr	r3, [sp, #12]
 447 019e 43F08003 		orr	r3, r3, #128
ARM GAS  /tmp/cc5fH8Aa.s 			page 9


 448 01a2 0393     		str	r3, [sp, #12]
 449              	.L20:
 450              		.loc 5 158 0
 451 01a4 BDF80230 		ldrh	r3, [sp, #2]
 452 01a8 03F00103 		and	r3, r3, #1
 453 01ac 002B     		cmp	r3, #0
 454 01ae 03D0     		beq	.L21
 455              		.loc 5 159 0
 456 01b0 039B     		ldr	r3, [sp, #12]
 457 01b2 43F02003 		orr	r3, r3, #32
 458 01b6 0393     		str	r3, [sp, #12]
 459              	.L21:
 460              		.loc 5 160 0
 461 01b8 BDF80230 		ldrh	r3, [sp, #2]
 462 01bc 03F00203 		and	r3, r3, #2
 463 01c0 002B     		cmp	r3, #0
 464 01c2 03D0     		beq	.L22
 465              		.loc 5 161 0
 466 01c4 039B     		ldr	r3, [sp, #12]
 467 01c6 43F04003 		orr	r3, r3, #64
 468 01ca 0393     		str	r3, [sp, #12]
 469              	.L22:
 470              		.loc 5 162 0
 471 01cc BDF80230 		ldrh	r3, [sp, #2]
 472 01d0 03F00403 		and	r3, r3, #4
 473 01d4 002B     		cmp	r3, #0
 474 01d6 03D0     		beq	.L23
 475              		.loc 5 163 0
 476 01d8 039B     		ldr	r3, [sp, #12]
 477 01da 43F48073 		orr	r3, r3, #256
 478 01de 0393     		str	r3, [sp, #12]
 479              	.L23:
 480              		.loc 5 164 0
 481 01e0 019B     		ldr	r3, [sp, #4]
 482 01e2 0433     		adds	r3, r3, #4
 483 01e4 1846     		mov	r0, r3
 484 01e6 0399     		ldr	r1, [sp, #12]
 485 01e8 FFF74AFF 		bl	osalEventBroadcastFlagsI
 486              		.loc 5 165 0
 487 01ec 05B0     		add	sp, sp, #20
 488              		.cfi_def_cfa_offset 4
 489              		@ sp needed
 490 01ee 5DF804FB 		ldr	pc, [sp], #4
 491              		.cfi_endproc
 492              	.LFE281:
 493              		.size	set_error, .-set_error
 494 01f2 00BF     		.align	2
 495 01f4 AFF30080 		.p2align 4,,15
 495      AFF30080 
 495      AFF30080 
 496              		.thumb
 497              		.thumb_func
 498              		.type	serve_interrupt, %function
 499              	serve_interrupt:
 500              	.LFB282:
 501              		.loc 5 172 0
 502              		.cfi_startproc
ARM GAS  /tmp/cc5fH8Aa.s 			page 10


 503              		@ args = 0, pretend = 0, frame = 24
 504              		@ frame_needed = 0, uses_anonymous_args = 0
 505 0200 00B5     		push	{lr}
 506              		.cfi_def_cfa_offset 4
 507              		.cfi_offset 14, -4
 508 0202 87B0     		sub	sp, sp, #28
 509              		.cfi_def_cfa_offset 32
 510 0204 0190     		str	r0, [sp, #4]
 511              		.loc 5 173 0
 512 0206 019B     		ldr	r3, [sp, #4]
 513 0208 5B6F     		ldr	r3, [r3, #116]
 514 020a 0493     		str	r3, [sp, #16]
 515              		.loc 5 174 0
 516 020c 049B     		ldr	r3, [sp, #16]
 517 020e DB68     		ldr	r3, [r3, #12]
 518 0210 ADF80E30 		strh	r3, [sp, #14]	@ movhi
 519              		.loc 5 175 0
 520 0214 049B     		ldr	r3, [sp, #16]
 521 0216 1B68     		ldr	r3, [r3]
 522 0218 ADF81630 		strh	r3, [sp, #22]	@ movhi
 523              		.loc 5 178 0
 524 021c BDF81630 		ldrh	r3, [sp, #22]
 525 0220 03F48073 		and	r3, r3, #256
 526 0224 002B     		cmp	r3, #0
 527 0226 0ED0     		beq	.L25
 528              		.loc 5 179 0
 529 0228 FFF71AFF 		bl	osalSysLockFromISR
 530              		.loc 5 180 0
 531 022c 019B     		ldr	r3, [sp, #4]
 532 022e 0433     		adds	r3, r3, #4
 533 0230 1846     		mov	r0, r3
 534 0232 4FF40071 		mov	r1, #512
 535 0236 FFF723FF 		bl	osalEventBroadcastFlagsI
 536              		.loc 5 181 0
 537 023a 049B     		ldr	r3, [sp, #16]
 538 023c 6FF48072 		mvn	r2, #256
 539 0240 1A60     		str	r2, [r3]
 540              		.loc 5 182 0
 541 0242 FFF715FF 		bl	osalSysUnlockFromISR
 542              	.L25:
 543              		.loc 5 186 0
 544 0246 FFF70BFF 		bl	osalSysLockFromISR
 545              		.loc 5 187 0
 546 024a 24E0     		b	.L26
 547              	.L29:
 548              	.LBB10:
 549              		.loc 5 192 0
 550 024c BDF81630 		ldrh	r3, [sp, #22]
 551 0250 03F00F03 		and	r3, r3, #15
 552 0254 002B     		cmp	r3, #0
 553 0256 05D0     		beq	.L27
 554              		.loc 5 193 0
 555 0258 BDF81630 		ldrh	r3, [sp, #22]
 556 025c 0198     		ldr	r0, [sp, #4]
 557 025e 1946     		mov	r1, r3
 558 0260 FFF78EFF 		bl	set_error
 559              	.L27:
ARM GAS  /tmp/cc5fH8Aa.s 			page 11


 560              		.loc 5 194 0
 561 0264 049B     		ldr	r3, [sp, #16]
 562 0266 5B68     		ldr	r3, [r3, #4]
 563 0268 DAB2     		uxtb	r2, r3
 564 026a 019B     		ldr	r3, [sp, #4]
 565 026c 93F87830 		ldrb	r3, [r3, #120]	@ zero_extendqisi2
 566 0270 1340     		ands	r3, r3, r2
 567 0272 8DF80D30 		strb	r3, [sp, #13]
 568              		.loc 5 195 0
 569 0276 BDF81630 		ldrh	r3, [sp, #22]
 570 027a 03F02003 		and	r3, r3, #32
 571 027e 002B     		cmp	r3, #0
 572 0280 05D0     		beq	.L28
 573              		.loc 5 196 0
 574 0282 9DF80D30 		ldrb	r3, [sp, #13]	@ zero_extendqisi2
 575 0286 0198     		ldr	r0, [sp, #4]
 576 0288 1946     		mov	r1, r3
 577 028a FFF7FEFF 		bl	sdIncomingDataI
 578              	.L28:
 579              		.loc 5 197 0
 580 028e 049B     		ldr	r3, [sp, #16]
 581 0290 1B68     		ldr	r3, [r3]
 582 0292 ADF81630 		strh	r3, [sp, #22]	@ movhi
 583              	.L26:
 584              	.LBE10:
 585              		.loc 5 187 0
 586 0296 BDF81630 		ldrh	r3, [sp, #22]
 587 029a 03F02F03 		and	r3, r3, #47
 588 029e 002B     		cmp	r3, #0
 589 02a0 D4D1     		bne	.L29
 590              		.loc 5 199 0
 591 02a2 FFF7E5FE 		bl	osalSysUnlockFromISR
 592              		.loc 5 202 0
 593 02a6 BDF80E30 		ldrh	r3, [sp, #14]
 594 02aa 03F08003 		and	r3, r3, #128
 595 02ae 002B     		cmp	r3, #0
 596 02b0 24D0     		beq	.L30
 597              		.loc 5 202 0 is_stmt 0 discriminator 1
 598 02b2 BDF81630 		ldrh	r3, [sp, #22]
 599 02b6 03F08003 		and	r3, r3, #128
 600 02ba 002B     		cmp	r3, #0
 601 02bc 1ED0     		beq	.L30
 602              	.LBB11:
 603              		.loc 5 204 0 is_stmt 1
 604 02be FFF7CFFE 		bl	osalSysLockFromISR
 605              		.loc 5 205 0
 606 02c2 019B     		ldr	r3, [sp, #4]
 607 02c4 3033     		adds	r3, r3, #48
 608 02c6 1846     		mov	r0, r3
 609 02c8 FFF7FEFF 		bl	oqGetI
 610 02cc 0290     		str	r0, [sp, #8]
 611              		.loc 5 206 0
 612 02ce 029B     		ldr	r3, [sp, #8]
 613 02d0 002B     		cmp	r3, #0
 614 02d2 0EDA     		bge	.L31
 615              		.loc 5 207 0
 616 02d4 019B     		ldr	r3, [sp, #4]
ARM GAS  /tmp/cc5fH8Aa.s 			page 12


 617 02d6 0433     		adds	r3, r3, #4
 618 02d8 1846     		mov	r0, r3
 619 02da 0821     		movs	r1, #8
 620 02dc FFF7D0FE 		bl	osalEventBroadcastFlagsI
 621              		.loc 5 208 0
 622 02e0 BDF80E30 		ldrh	r3, [sp, #14]
 623 02e4 23F0C003 		bic	r3, r3, #192
 624 02e8 43F04002 		orr	r2, r3, #64
 625 02ec 049B     		ldr	r3, [sp, #16]
 626 02ee DA60     		str	r2, [r3, #12]
 627 02f0 02E0     		b	.L32
 628              	.L31:
 629              		.loc 5 211 0
 630 02f2 029A     		ldr	r2, [sp, #8]
 631 02f4 049B     		ldr	r3, [sp, #16]
 632 02f6 5A60     		str	r2, [r3, #4]
 633              	.L32:
 634              		.loc 5 212 0
 635 02f8 FFF7BAFE 		bl	osalSysUnlockFromISR
 636              	.L30:
 637              	.LBE11:
 638              		.loc 5 216 0
 639 02fc BDF81630 		ldrh	r3, [sp, #22]
 640 0300 03F04003 		and	r3, r3, #64
 641 0304 002B     		cmp	r3, #0
 642 0306 25D0     		beq	.L24
 643              		.loc 5 217 0
 644 0308 FFF7AAFE 		bl	osalSysLockFromISR
 645              		.loc 5 218 0
 646 030c 019B     		ldr	r3, [sp, #4]
 647 030e 5A6C     		ldr	r2, [r3, #68]
 648 0310 019B     		ldr	r3, [sp, #4]
 649 0312 9B6C     		ldr	r3, [r3, #72]
 650 0314 9A42     		cmp	r2, r3
 651 0316 05D1     		bne	.L34
 652              		.loc 5 218 0 is_stmt 0 discriminator 1
 653 0318 019B     		ldr	r3, [sp, #4]
 654 031a 9B6B     		ldr	r3, [r3, #56]
 655 031c 002B     		cmp	r3, #0
 656 031e 01D0     		beq	.L34
 657              		.loc 5 218 0 discriminator 3
 658 0320 0123     		movs	r3, #1
 659 0322 00E0     		b	.L35
 660              	.L34:
 661              		.loc 5 218 0 discriminator 4
 662 0324 0023     		movs	r3, #0
 663              	.L35:
 664              		.loc 5 218 0 discriminator 6
 665 0326 03F00103 		and	r3, r3, #1
 666 032a DBB2     		uxtb	r3, r3
 667 032c 002B     		cmp	r3, #0
 668 032e 05D0     		beq	.L36
 669              		.loc 5 219 0 is_stmt 1
 670 0330 019B     		ldr	r3, [sp, #4]
 671 0332 0433     		adds	r3, r3, #4
 672 0334 1846     		mov	r0, r3
 673 0336 1021     		movs	r1, #16
ARM GAS  /tmp/cc5fH8Aa.s 			page 13


 674 0338 FFF7A2FE 		bl	osalEventBroadcastFlagsI
 675              	.L36:
 676              		.loc 5 220 0
 677 033c BDF80E30 		ldrh	r3, [sp, #14]
 678 0340 23F04002 		bic	r2, r3, #64
 679 0344 049B     		ldr	r3, [sp, #16]
 680 0346 DA60     		str	r2, [r3, #12]
 681              		.loc 5 221 0
 682 0348 049B     		ldr	r3, [sp, #16]
 683 034a 6FF04002 		mvn	r2, #64
 684 034e 1A60     		str	r2, [r3]
 685              		.loc 5 222 0
 686 0350 FFF78EFE 		bl	osalSysUnlockFromISR
 687              	.L24:
 688              		.loc 5 224 0
 689 0354 07B0     		add	sp, sp, #28
 690              		.cfi_def_cfa_offset 4
 691              		@ sp needed
 692 0356 5DF804FB 		ldr	pc, [sp], #4
 693              		.cfi_endproc
 694              	.LFE282:
 695              		.size	serve_interrupt, .-serve_interrupt
 696 035a 00BF     		.align	2
 697 035c AFF30080 		.p2align 4,,15
 698              		.thumb
 699              		.thumb_func
 700              		.type	notify2, %function
 701              	notify2:
 702              	.LFB283:
 703              		.loc 5 235 0
 704              		.cfi_startproc
 705              		@ args = 0, pretend = 0, frame = 8
 706              		@ frame_needed = 0, uses_anonymous_args = 0
 707              		@ link register save eliminated.
 708 0360 82B0     		sub	sp, sp, #8
 709              		.cfi_def_cfa_offset 8
 710 0362 0190     		str	r0, [sp, #4]
 711              		.loc 5 238 0
 712 0364 034A     		ldr	r2, .L38
 713 0366 034B     		ldr	r3, .L38
 714 0368 DB68     		ldr	r3, [r3, #12]
 715 036a 43F08003 		orr	r3, r3, #128
 716 036e D360     		str	r3, [r2, #12]
 717              		.loc 5 239 0
 718 0370 02B0     		add	sp, sp, #8
 719              		.cfi_def_cfa_offset 0
 720              		@ sp needed
 721 0372 7047     		bx	lr
 722              	.L39:
 723              		.align	2
 724              	.L38:
 725 0374 00440040 		.word	1073759232
 726              		.cfi_endproc
 727              	.LFE283:
 728              		.size	notify2, .-notify2
 729              		.align	2
 730 0378 AFF30080 		.p2align 4,,15
ARM GAS  /tmp/cc5fH8Aa.s 			page 14


 730      AFF30080 
 731              		.thumb
 732              		.thumb_func
 733              		.type	notify3, %function
 734              	notify3:
 735              	.LFB284:
 736              		.loc 5 243 0
 737              		.cfi_startproc
 738              		@ args = 0, pretend = 0, frame = 8
 739              		@ frame_needed = 0, uses_anonymous_args = 0
 740              		@ link register save eliminated.
 741 0380 82B0     		sub	sp, sp, #8
 742              		.cfi_def_cfa_offset 8
 743 0382 0190     		str	r0, [sp, #4]
 744              		.loc 5 246 0
 745 0384 034A     		ldr	r2, .L41
 746 0386 034B     		ldr	r3, .L41
 747 0388 DB68     		ldr	r3, [r3, #12]
 748 038a 43F08003 		orr	r3, r3, #128
 749 038e D360     		str	r3, [r2, #12]
 750              		.loc 5 247 0
 751 0390 02B0     		add	sp, sp, #8
 752              		.cfi_def_cfa_offset 0
 753              		@ sp needed
 754 0392 7047     		bx	lr
 755              	.L42:
 756              		.align	2
 757              	.L41:
 758 0394 00480040 		.word	1073760256
 759              		.cfi_endproc
 760              	.LFE284:
 761              		.size	notify3, .-notify3
 762              		.align	2
 763 0398 AFF30080 		.p2align 4,,15
 763      AFF30080 
 764              		.global	VectorD8
 765              		.thumb
 766              		.thumb_func
 767              		.type	VectorD8, %function
 768              	VectorD8:
 769              	.LFB285:
 770              		.loc 5 322 0
 771              		.cfi_startproc
 772              		@ args = 0, pretend = 0, frame = 0
 773              		@ frame_needed = 0, uses_anonymous_args = 0
 774 03a0 08B5     		push	{r3, lr}
 775              		.cfi_def_cfa_offset 8
 776              		.cfi_offset 3, -8
 777              		.cfi_offset 14, -4
 778              		.loc 5 326 0
 779 03a2 0348     		ldr	r0, .L44
 780 03a4 FFF72CFF 		bl	serve_interrupt
 781              		.loc 5 328 0
 782 03a8 FFF7FEFF 		bl	_port_irq_epilogue
 783              		.loc 5 329 0
 784 03ac 08BD     		pop	{r3, pc}
 785              	.L45:
ARM GAS  /tmp/cc5fH8Aa.s 			page 15


 786 03ae 00BF     		.align	2
 787              	.L44:
 788 03b0 00000000 		.word	SD2
 789              		.cfi_endproc
 790              	.LFE285:
 791              		.size	VectorD8, .-VectorD8
 792              		.align	2
 793 03b4 AFF30080 		.p2align 4,,15
 793      AFF30080 
 793      AFF30080 
 794              		.global	VectorDC
 795              		.thumb
 796              		.thumb_func
 797              		.type	VectorDC, %function
 798              	VectorDC:
 799              	.LFB286:
 800              		.loc 5 341 0
 801              		.cfi_startproc
 802              		@ args = 0, pretend = 0, frame = 0
 803              		@ frame_needed = 0, uses_anonymous_args = 0
 804 03c0 08B5     		push	{r3, lr}
 805              		.cfi_def_cfa_offset 8
 806              		.cfi_offset 3, -8
 807              		.cfi_offset 14, -4
 808              		.loc 5 345 0
 809 03c2 0348     		ldr	r0, .L47
 810 03c4 FFF71CFF 		bl	serve_interrupt
 811              		.loc 5 347 0
 812 03c8 FFF7FEFF 		bl	_port_irq_epilogue
 813              		.loc 5 348 0
 814 03cc 08BD     		pop	{r3, pc}
 815              	.L48:
 816 03ce 00BF     		.align	2
 817              	.L47:
 818 03d0 00000000 		.word	SD3
 819              		.cfi_endproc
 820              	.LFE286:
 821              		.size	VectorDC, .-VectorDC
 822              		.align	2
 823 03d4 AFF30080 		.p2align 4,,15
 823      AFF30080 
 823      AFF30080 
 824              		.global	sd_lld_init
 825              		.thumb
 826              		.thumb_func
 827              		.type	sd_lld_init, %function
 828              	sd_lld_init:
 829              	.LFB287:
 830              		.loc 5 455 0
 831              		.cfi_startproc
 832              		@ args = 0, pretend = 0, frame = 0
 833              		@ frame_needed = 0, uses_anonymous_args = 0
 834 03e0 08B5     		push	{r3, lr}
 835              		.cfi_def_cfa_offset 8
 836              		.cfi_offset 3, -8
 837              		.cfi_offset 14, -4
 838              		.loc 5 463 0
ARM GAS  /tmp/cc5fH8Aa.s 			page 16


 839 03e2 0848     		ldr	r0, .L50
 840 03e4 0021     		movs	r1, #0
 841 03e6 084A     		ldr	r2, .L50+4
 842 03e8 FFF7FEFF 		bl	sdObjectInit
 843              		.loc 5 464 0
 844 03ec 054B     		ldr	r3, .L50
 845 03ee 074A     		ldr	r2, .L50+8
 846 03f0 5A67     		str	r2, [r3, #116]
 847              		.loc 5 468 0
 848 03f2 0748     		ldr	r0, .L50+12
 849 03f4 0021     		movs	r1, #0
 850 03f6 074A     		ldr	r2, .L50+16
 851 03f8 FFF7FEFF 		bl	sdObjectInit
 852              		.loc 5 469 0
 853 03fc 044B     		ldr	r3, .L50+12
 854 03fe 064A     		ldr	r2, .L50+20
 855 0400 5A67     		str	r2, [r3, #116]
 856              		.loc 5 496 0
 857 0402 08BD     		pop	{r3, pc}
 858              	.L51:
 859              		.align	2
 860              	.L50:
 861 0404 00000000 		.word	SD2
 862 0408 00000000 		.word	notify2
 863 040c 00440040 		.word	1073759232
 864 0410 00000000 		.word	SD3
 865 0414 00000000 		.word	notify3
 866 0418 00480040 		.word	1073760256
 867              		.cfi_endproc
 868              	.LFE287:
 869              		.size	sd_lld_init, .-sd_lld_init
 870              		.align	2
 871 041c AFF30080 		.p2align 4,,15
 872              		.global	sd_lld_start
 873              		.thumb
 874              		.thumb_func
 875              		.type	sd_lld_start, %function
 876              	sd_lld_start:
 877              	.LFB288:
 878              		.loc 5 508 0
 879              		.cfi_startproc
 880              		@ args = 0, pretend = 0, frame = 8
 881              		@ frame_needed = 0, uses_anonymous_args = 0
 882 0420 00B5     		push	{lr}
 883              		.cfi_def_cfa_offset 4
 884              		.cfi_offset 14, -4
 885 0422 83B0     		sub	sp, sp, #12
 886              		.cfi_def_cfa_offset 16
 887 0424 0190     		str	r0, [sp, #4]
 888 0426 0091     		str	r1, [sp]
 889              		.loc 5 510 0
 890 0428 009B     		ldr	r3, [sp]
 891 042a 002B     		cmp	r3, #0
 892 042c 01D1     		bne	.L53
 893              		.loc 5 511 0
 894 042e 144B     		ldr	r3, .L56
 895 0430 0093     		str	r3, [sp]
ARM GAS  /tmp/cc5fH8Aa.s 			page 17


 896              	.L53:
 897              		.loc 5 513 0
 898 0432 019B     		ldr	r3, [sp, #4]
 899 0434 1B7A     		ldrb	r3, [r3, #8]	@ zero_extendqisi2
 900 0436 012B     		cmp	r3, #1
 901 0438 1BD1     		bne	.L54
 902              		.loc 5 521 0
 903 043a 019B     		ldr	r3, [sp, #4]
 904 043c 114A     		ldr	r2, .L56+4
 905 043e 9342     		cmp	r3, r2
 906 0440 09D1     		bne	.L55
 907              		.loc 5 522 0
 908 0442 114A     		ldr	r2, .L56+8
 909 0444 104B     		ldr	r3, .L56+8
 910 0446 1B6C     		ldr	r3, [r3, #64]
 911 0448 43F40033 		orr	r3, r3, #131072
 912 044c 1364     		str	r3, [r2, #64]
 913              		.loc 5 523 0
 914 044e 2620     		movs	r0, #38
 915 0450 0C21     		movs	r1, #12
 916 0452 FFF7FEFF 		bl	nvicEnableVector
 917              	.L55:
 918              		.loc 5 527 0
 919 0456 019B     		ldr	r3, [sp, #4]
 920 0458 0C4A     		ldr	r2, .L56+12
 921 045a 9342     		cmp	r3, r2
 922 045c 09D1     		bne	.L54
 923              		.loc 5 528 0
 924 045e 0A4A     		ldr	r2, .L56+8
 925 0460 094B     		ldr	r3, .L56+8
 926 0462 1B6C     		ldr	r3, [r3, #64]
 927 0464 43F48023 		orr	r3, r3, #262144
 928 0468 1364     		str	r3, [r2, #64]
 929              		.loc 5 529 0
 930 046a 2720     		movs	r0, #39
 931 046c 0C21     		movs	r1, #12
 932 046e FFF7FEFF 		bl	nvicEnableVector
 933              	.L54:
 934              		.loc 5 563 0
 935 0472 0198     		ldr	r0, [sp, #4]
 936 0474 0099     		ldr	r1, [sp]
 937 0476 FFF713FE 		bl	usart_init
 938              		.loc 5 564 0
 939 047a 03B0     		add	sp, sp, #12
 940              		.cfi_def_cfa_offset 4
 941              		@ sp needed
 942 047c 5DF804FB 		ldr	pc, [sp], #4
 943              	.L57:
 944              		.align	2
 945              	.L56:
 946 0480 00000000 		.word	default_config
 947 0484 00000000 		.word	SD2
 948 0488 00380240 		.word	1073887232
 949 048c 00000000 		.word	SD3
 950              		.cfi_endproc
 951              	.LFE288:
 952              		.size	sd_lld_start, .-sd_lld_start
ARM GAS  /tmp/cc5fH8Aa.s 			page 18


 953              		.align	2
 954              		.p2align 4,,15
 955              		.global	sd_lld_stop
 956              		.thumb
 957              		.thumb_func
 958              		.type	sd_lld_stop, %function
 959              	sd_lld_stop:
 960              	.LFB289:
 961              		.loc 5 575 0
 962              		.cfi_startproc
 963              		@ args = 0, pretend = 0, frame = 8
 964              		@ frame_needed = 0, uses_anonymous_args = 0
 965 0490 00B5     		push	{lr}
 966              		.cfi_def_cfa_offset 4
 967              		.cfi_offset 14, -4
 968 0492 83B0     		sub	sp, sp, #12
 969              		.cfi_def_cfa_offset 16
 970 0494 0190     		str	r0, [sp, #4]
 971              		.loc 5 577 0
 972 0496 019B     		ldr	r3, [sp, #4]
 973 0498 1B7A     		ldrb	r3, [r3, #8]	@ zero_extendqisi2
 974 049a 022B     		cmp	r3, #2
 975 049c 20D1     		bne	.L58
 976              		.loc 5 578 0
 977 049e 019B     		ldr	r3, [sp, #4]
 978 04a0 5B6F     		ldr	r3, [r3, #116]
 979 04a2 1846     		mov	r0, r3
 980 04a4 FFF75CFE 		bl	usart_deinit
 981              		.loc 5 587 0
 982 04a8 019B     		ldr	r3, [sp, #4]
 983 04aa 0F4A     		ldr	r2, .L61
 984 04ac 9342     		cmp	r3, r2
 985 04ae 09D1     		bne	.L60
 986              		.loc 5 588 0
 987 04b0 0E4A     		ldr	r2, .L61+4
 988 04b2 0E4B     		ldr	r3, .L61+4
 989 04b4 1B6C     		ldr	r3, [r3, #64]
 990 04b6 23F40033 		bic	r3, r3, #131072
 991 04ba 1364     		str	r3, [r2, #64]
 992              		.loc 5 589 0
 993 04bc 2620     		movs	r0, #38
 994 04be FFF7FEFF 		bl	nvicDisableVector
 995              		.loc 5 590 0
 996 04c2 0DE0     		b	.L58
 997              	.L60:
 998              		.loc 5 594 0
 999 04c4 019B     		ldr	r3, [sp, #4]
 1000 04c6 0A4A     		ldr	r2, .L61+8
 1001 04c8 9342     		cmp	r3, r2
 1002 04ca 09D1     		bne	.L58
 1003              		.loc 5 595 0
 1004 04cc 074A     		ldr	r2, .L61+4
 1005 04ce 074B     		ldr	r3, .L61+4
 1006 04d0 1B6C     		ldr	r3, [r3, #64]
 1007 04d2 23F48023 		bic	r3, r3, #262144
 1008 04d6 1364     		str	r3, [r2, #64]
 1009              		.loc 5 596 0
ARM GAS  /tmp/cc5fH8Aa.s 			page 19


 1010 04d8 2720     		movs	r0, #39
 1011 04da FFF7FEFF 		bl	nvicDisableVector
 1012              		.loc 5 597 0
 1013 04de 00BF     		nop
 1014              	.L58:
 1015              		.loc 5 636 0
 1016 04e0 03B0     		add	sp, sp, #12
 1017              		.cfi_def_cfa_offset 4
 1018              		@ sp needed
 1019 04e2 5DF804FB 		ldr	pc, [sp], #4
 1020              	.L62:
 1021 04e6 00BF     		.align	2
 1022              	.L61:
 1023 04e8 00000000 		.word	SD2
 1024 04ec 00380240 		.word	1073887232
 1025 04f0 00000000 		.word	SD3
 1026              		.cfi_endproc
 1027              	.LFE289:
 1028              		.size	sd_lld_stop, .-sd_lld_stop
 1029              	.Letext0:
 1030              		.file 6 "/usr/lib/gcc/arm-none-eabi/4.9.3/include/stddef.h"
 1031              		.file 7 "/usr/include/newlib/machine/_default_types.h"
 1032              		.file 8 "/usr/include/newlib/sys/_stdint.h"
 1033              		.file 9 "../../../os/common/ports/ARMCMx/compilers/GCC/chtypes.h"
 1034              		.file 10 "../../../os/rt/include/chsystypes.h"
 1035              		.file 11 "../../../os/rt/include/chschd.h"
 1036              		.file 12 "../../../os/common/ext/CMSIS/ST/STM32F4xx/stm32f407xx.h"
 1037              		.file 13 "../../../os/common/ports/ARMCMx/chcore.h"
 1038              		.file 14 "../../../os/rt/include/chtm.h"
 1039              		.file 15 "../../../os/rt/include/chsem.h"
 1040              		.file 16 "../../../os/rt/include/chmtx.h"
 1041              		.file 17 "../../../os/rt/include/chevents.h"
 1042              		.file 18 "../../../os/hal/include/hal_queues.h"
 1043              		.file 19 "../../../os/hal/include/hal_serial.h"
 1044              		.file 20 "../../../os/hal/ports/STM32/LLD/USARTv1/hal_serial_lld.h"
 1045              		.file 21 "../../../os/common/ext/CMSIS/include/core_cm4.h"