ARM GAS  /tmp/ccqZLEFm.s 			page 1


   1              		.syntax unified
   2              		.cpu cortex-m4
   3              		.fpu softvfp
   4              		.eabi_attribute 20, 1
   5              		.eabi_attribute 21, 1
   6              		.eabi_attribute 23, 3
   7              		.eabi_attribute 24, 1
   8              		.eabi_attribute 25, 1
   9              		.eabi_attribute 26, 1
  10              		.eabi_attribute 30, 6
  11              		.eabi_attribute 34, 1
  12              		.eabi_attribute 18, 4
  13              		.thumb
  14              		.file	"hal_serial.c"
  15              		.text
  16              	.Ltext0:
  17              		.cfi_sections	.debug_frame
  18              		.align	2
  19              		.p2align 4,,15
  20              		.thumb
  21              		.thumb_func
  22              		.type	port_lock, %function
  23              	port_lock:
  24              	.LFB127:
  25              		.file 1 "../../../os/common/ports/ARMCMx/chcore_v7m.h"
  26              		.loc 1 594 0
  27              		.cfi_startproc
  28              		@ args = 0, pretend = 0, frame = 8
  29              		@ frame_needed = 0, uses_anonymous_args = 0
  30              		@ link register save eliminated.
  31 0000 82B0     		sub	sp, sp, #8
  32              		.cfi_def_cfa_offset 8
  33 0002 2023     		movs	r3, #32
  34 0004 0193     		str	r3, [sp, #4]
  35              	.LBB6:
  36              	.LBB7:
  37              		.file 2 "../../../os/common/ext/CMSIS/include/cmsis_gcc.h"
  38              		.loc 2 264 0
  39 0006 019B     		ldr	r3, [sp, #4]
  40              	@ 264 "../../../os/common/ext/CMSIS/include/cmsis_gcc.h" 1
  41 0008 83F31188 		MSR basepri, r3
  42              	@ 0 "" 2
  43              		.thumb
  44              	.LBE7:
  45              	.LBE6:
  46              		.loc 1 611 0
  47 000c 02B0     		add	sp, sp, #8
  48              		.cfi_def_cfa_offset 0
  49              		@ sp needed
  50 000e 7047     		bx	lr
  51              		.cfi_endproc
  52              	.LFE127:
  53              		.size	port_lock, .-port_lock
  54              		.align	2
  55              		.p2align 4,,15
  56              		.thumb
  57              		.thumb_func
ARM GAS  /tmp/ccqZLEFm.s 			page 2


  58              		.type	port_unlock, %function
  59              	port_unlock:
  60              	.LFB128:
  61              		.loc 1 618 0
  62              		.cfi_startproc
  63              		@ args = 0, pretend = 0, frame = 8
  64              		@ frame_needed = 0, uses_anonymous_args = 0
  65              		@ link register save eliminated.
  66 0010 82B0     		sub	sp, sp, #8
  67              		.cfi_def_cfa_offset 8
  68 0012 0023     		movs	r3, #0
  69 0014 0193     		str	r3, [sp, #4]
  70              	.LBB8:
  71              	.LBB9:
  72              		.loc 2 264 0
  73 0016 019B     		ldr	r3, [sp, #4]
  74              	@ 264 "../../../os/common/ext/CMSIS/include/cmsis_gcc.h" 1
  75 0018 83F31188 		MSR basepri, r3
  76              	@ 0 "" 2
  77              		.thumb
  78              	.LBE9:
  79              	.LBE8:
  80              		.loc 1 625 0
  81 001c 02B0     		add	sp, sp, #8
  82              		.cfi_def_cfa_offset 0
  83              		@ sp needed
  84 001e 7047     		bx	lr
  85              		.cfi_endproc
  86              	.LFE128:
  87              		.size	port_unlock, .-port_unlock
  88              		.align	2
  89              		.p2align 4,,15
  90              		.thumb
  91              		.thumb_func
  92              		.type	chSysLock, %function
  93              	chSysLock:
  94              	.LFB167:
  95              		.file 3 "../../../os/rt/include/chsys.h"
  96              		.loc 3 374 0
  97              		.cfi_startproc
  98              		@ args = 0, pretend = 0, frame = 0
  99              		@ frame_needed = 0, uses_anonymous_args = 0
 100 0020 08B5     		push	{r3, lr}
 101              		.cfi_def_cfa_offset 8
 102              		.cfi_offset 3, -8
 103              		.cfi_offset 14, -4
 104              		.loc 3 376 0
 105 0022 FFF7EDFF 		bl	port_lock
 106              		.loc 3 379 0
 107 0026 08BD     		pop	{r3, pc}
 108              		.cfi_endproc
 109              	.LFE167:
 110              		.size	chSysLock, .-chSysLock
 111              		.align	2
 112 0028 AFF30080 		.p2align 4,,15
 112      AFF30080 
 113              		.thumb
ARM GAS  /tmp/ccqZLEFm.s 			page 3


 114              		.thumb_func
 115              		.type	chSysUnlock, %function
 116              	chSysUnlock:
 117              	.LFB168:
 118              		.loc 3 386 0
 119              		.cfi_startproc
 120              		@ args = 0, pretend = 0, frame = 0
 121              		@ frame_needed = 0, uses_anonymous_args = 0
 122 0030 08B5     		push	{r3, lr}
 123              		.cfi_def_cfa_offset 8
 124              		.cfi_offset 3, -8
 125              		.cfi_offset 14, -4
 126              		.loc 3 399 0
 127 0032 FFF7EDFF 		bl	port_unlock
 128              		.loc 3 400 0
 129 0036 08BD     		pop	{r3, pc}
 130              		.cfi_endproc
 131              	.LFE168:
 132              		.size	chSysUnlock, .-chSysUnlock
 133              		.align	2
 134 0038 AFF30080 		.p2align 4,,15
 134      AFF30080 
 135              		.thumb
 136              		.thumb_func
 137              		.type	chEvtObjectInit, %function
 138              	chEvtObjectInit:
 139              	.LFB223:
 140              		.file 4 "../../../os/rt/include/chevents.h"
 141              		.loc 4 170 0
 142              		.cfi_startproc
 143              		@ args = 0, pretend = 0, frame = 8
 144              		@ frame_needed = 0, uses_anonymous_args = 0
 145              		@ link register save eliminated.
 146 0040 82B0     		sub	sp, sp, #8
 147              		.cfi_def_cfa_offset 8
 148 0042 0190     		str	r0, [sp, #4]
 149              		.loc 4 172 0
 150 0044 019B     		ldr	r3, [sp, #4]
 151 0046 019A     		ldr	r2, [sp, #4]
 152 0048 1A60     		str	r2, [r3]
 153              		.loc 4 173 0
 154 004a 02B0     		add	sp, sp, #8
 155              		.cfi_def_cfa_offset 0
 156              		@ sp needed
 157 004c 7047     		bx	lr
 158              		.cfi_endproc
 159              	.LFE223:
 160              		.size	chEvtObjectInit, .-chEvtObjectInit
 161 004e 00BF     		.align	2
 162              		.p2align 4,,15
 163              		.thumb
 164              		.thumb_func
 165              		.type	osalSysLock, %function
 166              	osalSysLock:
 167              	.LFB252:
 168              		.file 5 "../../../os/hal/osal/rt/osal.h"
 169              		.loc 5 491 0
ARM GAS  /tmp/ccqZLEFm.s 			page 4


 170              		.cfi_startproc
 171              		@ args = 0, pretend = 0, frame = 0
 172              		@ frame_needed = 0, uses_anonymous_args = 0
 173 0050 08B5     		push	{r3, lr}
 174              		.cfi_def_cfa_offset 8
 175              		.cfi_offset 3, -8
 176              		.cfi_offset 14, -4
 177              		.loc 5 493 0
 178 0052 FFF7E5FF 		bl	chSysLock
 179              		.loc 5 494 0
 180 0056 08BD     		pop	{r3, pc}
 181              		.cfi_endproc
 182              	.LFE252:
 183              		.size	osalSysLock, .-osalSysLock
 184              		.align	2
 185 0058 AFF30080 		.p2align 4,,15
 185      AFF30080 
 186              		.thumb
 187              		.thumb_func
 188              		.type	osalSysUnlock, %function
 189              	osalSysUnlock:
 190              	.LFB253:
 191              		.loc 5 502 0
 192              		.cfi_startproc
 193              		@ args = 0, pretend = 0, frame = 0
 194              		@ frame_needed = 0, uses_anonymous_args = 0
 195 0060 08B5     		push	{r3, lr}
 196              		.cfi_def_cfa_offset 8
 197              		.cfi_offset 3, -8
 198              		.cfi_offset 14, -4
 199              		.loc 5 504 0
 200 0062 FFF7E5FF 		bl	chSysUnlock
 201              		.loc 5 505 0
 202 0066 08BD     		pop	{r3, pc}
 203              		.cfi_endproc
 204              	.LFE253:
 205              		.size	osalSysUnlock, .-osalSysUnlock
 206              		.align	2
 207 0068 AFF30080 		.p2align 4,,15
 207      AFF30080 
 208              		.thumb
 209              		.thumb_func
 210              		.type	osalOsRescheduleS, %function
 211              	osalOsRescheduleS:
 212              	.LFB260:
 213              		.loc 5 598 0
 214              		.cfi_startproc
 215              		@ args = 0, pretend = 0, frame = 0
 216              		@ frame_needed = 0, uses_anonymous_args = 0
 217 0070 08B5     		push	{r3, lr}
 218              		.cfi_def_cfa_offset 8
 219              		.cfi_offset 3, -8
 220              		.cfi_offset 14, -4
 221              		.loc 5 600 0
 222 0072 FFF7FEFF 		bl	chSchRescheduleS
 223              		.loc 5 601 0
 224 0076 08BD     		pop	{r3, pc}
ARM GAS  /tmp/ccqZLEFm.s 			page 5


 225              		.cfi_endproc
 226              	.LFE260:
 227              		.size	osalOsRescheduleS, .-osalOsRescheduleS
 228              		.align	2
 229 0078 AFF30080 		.p2align 4,,15
 229      AFF30080 
 230              		.thumb
 231              		.thumb_func
 232              		.type	osalEventObjectInit, %function
 233              	osalEventObjectInit:
 234              	.LFB273:
 235              		.loc 5 821 0
 236              		.cfi_startproc
 237              		@ args = 0, pretend = 0, frame = 8
 238              		@ frame_needed = 0, uses_anonymous_args = 0
 239 0080 00B5     		push	{lr}
 240              		.cfi_def_cfa_offset 4
 241              		.cfi_offset 14, -4
 242 0082 83B0     		sub	sp, sp, #12
 243              		.cfi_def_cfa_offset 16
 244 0084 0190     		str	r0, [sp, #4]
 245              		.loc 5 823 0
 246 0086 0198     		ldr	r0, [sp, #4]
 247 0088 FFF7DAFF 		bl	chEvtObjectInit
 248              		.loc 5 824 0
 249 008c 03B0     		add	sp, sp, #12
 250              		.cfi_def_cfa_offset 4
 251              		@ sp needed
 252 008e 5DF804FB 		ldr	pc, [sp], #4
 253              		.cfi_endproc
 254              	.LFE273:
 255              		.size	osalEventObjectInit, .-osalEventObjectInit
 256 0092 00BF     		.align	2
 257 0094 AFF30080 		.p2align 4,,15
 257      AFF30080 
 257      AFF30080 
 258              		.thumb
 259              		.thumb_func
 260              		.type	osalEventBroadcastFlagsI, %function
 261              	osalEventBroadcastFlagsI:
 262              	.LFB274:
 263              		.loc 5 842 0
 264              		.cfi_startproc
 265              		@ args = 0, pretend = 0, frame = 8
 266              		@ frame_needed = 0, uses_anonymous_args = 0
 267 00a0 00B5     		push	{lr}
 268              		.cfi_def_cfa_offset 4
 269              		.cfi_offset 14, -4
 270 00a2 83B0     		sub	sp, sp, #12
 271              		.cfi_def_cfa_offset 16
 272 00a4 0190     		str	r0, [sp, #4]
 273 00a6 0091     		str	r1, [sp]
 274              		.loc 5 844 0
 275 00a8 0198     		ldr	r0, [sp, #4]
 276 00aa 0099     		ldr	r1, [sp]
 277 00ac FFF7FEFF 		bl	chEvtBroadcastFlagsI
 278              		.loc 5 845 0
ARM GAS  /tmp/ccqZLEFm.s 			page 6


 279 00b0 03B0     		add	sp, sp, #12
 280              		.cfi_def_cfa_offset 4
 281              		@ sp needed
 282 00b2 5DF804FB 		ldr	pc, [sp], #4
 283              		.cfi_endproc
 284              	.LFE274:
 285              		.size	osalEventBroadcastFlagsI, .-osalEventBroadcastFlagsI
 286 00b6 00BF     		.align	2
 287 00b8 AFF30080 		.p2align 4,,15
 287      AFF30080 
 288              		.thumb
 289              		.thumb_func
 290              		.type	_write, %function
 291              	_write:
 292              	.LFB279:
 293              		.file 6 "../../../os/hal/src/hal_serial.c"
 294              		.loc 6 50 0
 295              		.cfi_startproc
 296              		@ args = 0, pretend = 0, frame = 16
 297              		@ frame_needed = 0, uses_anonymous_args = 0
 298 00c0 00B5     		push	{lr}
 299              		.cfi_def_cfa_offset 4
 300              		.cfi_offset 14, -4
 301 00c2 85B0     		sub	sp, sp, #20
 302              		.cfi_def_cfa_offset 24
 303 00c4 0390     		str	r0, [sp, #12]
 304 00c6 0291     		str	r1, [sp, #8]
 305 00c8 0192     		str	r2, [sp, #4]
 306              		.loc 6 52 0
 307 00ca 039B     		ldr	r3, [sp, #12]
 308 00cc 3033     		adds	r3, r3, #48
 309 00ce 1846     		mov	r0, r3
 310 00d0 0299     		ldr	r1, [sp, #8]
 311 00d2 019A     		ldr	r2, [sp, #4]
 312 00d4 4FF0FF33 		mov	r3, #-1
 313 00d8 FFF7FEFF 		bl	oqWriteTimeout
 314 00dc 0346     		mov	r3, r0
 315              		.loc 6 54 0
 316 00de 1846     		mov	r0, r3
 317 00e0 05B0     		add	sp, sp, #20
 318              		.cfi_def_cfa_offset 4
 319              		@ sp needed
 320 00e2 5DF804FB 		ldr	pc, [sp], #4
 321              		.cfi_endproc
 322              	.LFE279:
 323              		.size	_write, .-_write
 324 00e6 00BF     		.align	2
 325 00e8 AFF30080 		.p2align 4,,15
 325      AFF30080 
 326              		.thumb
 327              		.thumb_func
 328              		.type	_read, %function
 329              	_read:
 330              	.LFB280:
 331              		.loc 6 56 0
 332              		.cfi_startproc
 333              		@ args = 0, pretend = 0, frame = 16
ARM GAS  /tmp/ccqZLEFm.s 			page 7


 334              		@ frame_needed = 0, uses_anonymous_args = 0
 335 00f0 00B5     		push	{lr}
 336              		.cfi_def_cfa_offset 4
 337              		.cfi_offset 14, -4
 338 00f2 85B0     		sub	sp, sp, #20
 339              		.cfi_def_cfa_offset 24
 340 00f4 0390     		str	r0, [sp, #12]
 341 00f6 0291     		str	r1, [sp, #8]
 342 00f8 0192     		str	r2, [sp, #4]
 343              		.loc 6 58 0
 344 00fa 039B     		ldr	r3, [sp, #12]
 345 00fc 0C33     		adds	r3, r3, #12
 346 00fe 1846     		mov	r0, r3
 347 0100 0299     		ldr	r1, [sp, #8]
 348 0102 019A     		ldr	r2, [sp, #4]
 349 0104 4FF0FF33 		mov	r3, #-1
 350 0108 FFF7FEFF 		bl	iqReadTimeout
 351 010c 0346     		mov	r3, r0
 352              		.loc 6 60 0
 353 010e 1846     		mov	r0, r3
 354 0110 05B0     		add	sp, sp, #20
 355              		.cfi_def_cfa_offset 4
 356              		@ sp needed
 357 0112 5DF804FB 		ldr	pc, [sp], #4
 358              		.cfi_endproc
 359              	.LFE280:
 360              		.size	_read, .-_read
 361 0116 00BF     		.align	2
 362 0118 AFF30080 		.p2align 4,,15
 362      AFF30080 
 363              		.thumb
 364              		.thumb_func
 365              		.type	_put, %function
 366              	_put:
 367              	.LFB281:
 368              		.loc 6 62 0
 369              		.cfi_startproc
 370              		@ args = 0, pretend = 0, frame = 8
 371              		@ frame_needed = 0, uses_anonymous_args = 0
 372 0120 00B5     		push	{lr}
 373              		.cfi_def_cfa_offset 4
 374              		.cfi_offset 14, -4
 375 0122 83B0     		sub	sp, sp, #12
 376              		.cfi_def_cfa_offset 16
 377 0124 0190     		str	r0, [sp, #4]
 378 0126 0B46     		mov	r3, r1
 379 0128 8DF80330 		strb	r3, [sp, #3]
 380              		.loc 6 64 0
 381 012c 019B     		ldr	r3, [sp, #4]
 382 012e 03F13002 		add	r2, r3, #48
 383 0132 9DF80330 		ldrb	r3, [sp, #3]	@ zero_extendqisi2
 384 0136 1046     		mov	r0, r2
 385 0138 1946     		mov	r1, r3
 386 013a 4FF0FF32 		mov	r2, #-1
 387 013e FFF7FEFF 		bl	oqPutTimeout
 388 0142 0346     		mov	r3, r0
 389              		.loc 6 65 0
ARM GAS  /tmp/ccqZLEFm.s 			page 8


 390 0144 1846     		mov	r0, r3
 391 0146 03B0     		add	sp, sp, #12
 392              		.cfi_def_cfa_offset 4
 393              		@ sp needed
 394 0148 5DF804FB 		ldr	pc, [sp], #4
 395              		.cfi_endproc
 396              	.LFE281:
 397              		.size	_put, .-_put
 398              		.align	2
 399 014c AFF30080 		.p2align 4,,15
 400              		.thumb
 401              		.thumb_func
 402              		.type	_get, %function
 403              	_get:
 404              	.LFB282:
 405              		.loc 6 67 0
 406              		.cfi_startproc
 407              		@ args = 0, pretend = 0, frame = 8
 408              		@ frame_needed = 0, uses_anonymous_args = 0
 409 0150 00B5     		push	{lr}
 410              		.cfi_def_cfa_offset 4
 411              		.cfi_offset 14, -4
 412 0152 83B0     		sub	sp, sp, #12
 413              		.cfi_def_cfa_offset 16
 414 0154 0190     		str	r0, [sp, #4]
 415              		.loc 6 69 0
 416 0156 019B     		ldr	r3, [sp, #4]
 417 0158 0C33     		adds	r3, r3, #12
 418 015a 1846     		mov	r0, r3
 419 015c 4FF0FF31 		mov	r1, #-1
 420 0160 FFF7FEFF 		bl	iqGetTimeout
 421 0164 0346     		mov	r3, r0
 422              		.loc 6 70 0
 423 0166 1846     		mov	r0, r3
 424 0168 03B0     		add	sp, sp, #12
 425              		.cfi_def_cfa_offset 4
 426              		@ sp needed
 427 016a 5DF804FB 		ldr	pc, [sp], #4
 428              		.cfi_endproc
 429              	.LFE282:
 430              		.size	_get, .-_get
 431 016e 00BF     		.align	2
 432              		.p2align 4,,15
 433              		.thumb
 434              		.thumb_func
 435              		.type	_putt, %function
 436              	_putt:
 437              	.LFB283:
 438              		.loc 6 72 0
 439              		.cfi_startproc
 440              		@ args = 0, pretend = 0, frame = 16
 441              		@ frame_needed = 0, uses_anonymous_args = 0
 442 0170 00B5     		push	{lr}
 443              		.cfi_def_cfa_offset 4
 444              		.cfi_offset 14, -4
 445 0172 85B0     		sub	sp, sp, #20
 446              		.cfi_def_cfa_offset 24
ARM GAS  /tmp/ccqZLEFm.s 			page 9


 447 0174 0390     		str	r0, [sp, #12]
 448 0176 0B46     		mov	r3, r1
 449 0178 0192     		str	r2, [sp, #4]
 450 017a 8DF80B30 		strb	r3, [sp, #11]
 451              		.loc 6 74 0
 452 017e 039B     		ldr	r3, [sp, #12]
 453 0180 03F13002 		add	r2, r3, #48
 454 0184 9DF80B30 		ldrb	r3, [sp, #11]	@ zero_extendqisi2
 455 0188 1046     		mov	r0, r2
 456 018a 1946     		mov	r1, r3
 457 018c 019A     		ldr	r2, [sp, #4]
 458 018e FFF7FEFF 		bl	oqPutTimeout
 459 0192 0346     		mov	r3, r0
 460              		.loc 6 75 0
 461 0194 1846     		mov	r0, r3
 462 0196 05B0     		add	sp, sp, #20
 463              		.cfi_def_cfa_offset 4
 464              		@ sp needed
 465 0198 5DF804FB 		ldr	pc, [sp], #4
 466              		.cfi_endproc
 467              	.LFE283:
 468              		.size	_putt, .-_putt
 469              		.align	2
 470 019c AFF30080 		.p2align 4,,15
 471              		.thumb
 472              		.thumb_func
 473              		.type	_gett, %function
 474              	_gett:
 475              	.LFB284:
 476              		.loc 6 77 0
 477              		.cfi_startproc
 478              		@ args = 0, pretend = 0, frame = 8
 479              		@ frame_needed = 0, uses_anonymous_args = 0
 480 01a0 00B5     		push	{lr}
 481              		.cfi_def_cfa_offset 4
 482              		.cfi_offset 14, -4
 483 01a2 83B0     		sub	sp, sp, #12
 484              		.cfi_def_cfa_offset 16
 485 01a4 0190     		str	r0, [sp, #4]
 486 01a6 0091     		str	r1, [sp]
 487              		.loc 6 79 0
 488 01a8 019B     		ldr	r3, [sp, #4]
 489 01aa 0C33     		adds	r3, r3, #12
 490 01ac 1846     		mov	r0, r3
 491 01ae 0099     		ldr	r1, [sp]
 492 01b0 FFF7FEFF 		bl	iqGetTimeout
 493 01b4 0346     		mov	r3, r0
 494              		.loc 6 80 0
 495 01b6 1846     		mov	r0, r3
 496 01b8 03B0     		add	sp, sp, #12
 497              		.cfi_def_cfa_offset 4
 498              		@ sp needed
 499 01ba 5DF804FB 		ldr	pc, [sp], #4
 500              		.cfi_endproc
 501              	.LFE284:
 502              		.size	_gett, .-_gett
 503 01be 00BF     		.align	2
ARM GAS  /tmp/ccqZLEFm.s 			page 10


 504              		.p2align 4,,15
 505              		.thumb
 506              		.thumb_func
 507              		.type	_writet, %function
 508              	_writet:
 509              	.LFB285:
 510              		.loc 6 82 0
 511              		.cfi_startproc
 512              		@ args = 0, pretend = 0, frame = 16
 513              		@ frame_needed = 0, uses_anonymous_args = 0
 514 01c0 00B5     		push	{lr}
 515              		.cfi_def_cfa_offset 4
 516              		.cfi_offset 14, -4
 517 01c2 85B0     		sub	sp, sp, #20
 518              		.cfi_def_cfa_offset 24
 519 01c4 0390     		str	r0, [sp, #12]
 520 01c6 0291     		str	r1, [sp, #8]
 521 01c8 0192     		str	r2, [sp, #4]
 522 01ca 0093     		str	r3, [sp]
 523              		.loc 6 84 0
 524 01cc 039B     		ldr	r3, [sp, #12]
 525 01ce 3033     		adds	r3, r3, #48
 526 01d0 1846     		mov	r0, r3
 527 01d2 0299     		ldr	r1, [sp, #8]
 528 01d4 019A     		ldr	r2, [sp, #4]
 529 01d6 009B     		ldr	r3, [sp]
 530 01d8 FFF7FEFF 		bl	oqWriteTimeout
 531 01dc 0346     		mov	r3, r0
 532              		.loc 6 85 0
 533 01de 1846     		mov	r0, r3
 534 01e0 05B0     		add	sp, sp, #20
 535              		.cfi_def_cfa_offset 4
 536              		@ sp needed
 537 01e2 5DF804FB 		ldr	pc, [sp], #4
 538              		.cfi_endproc
 539              	.LFE285:
 540              		.size	_writet, .-_writet
 541 01e6 00BF     		.align	2
 542 01e8 AFF30080 		.p2align 4,,15
 542      AFF30080 
 543              		.thumb
 544              		.thumb_func
 545              		.type	_readt, %function
 546              	_readt:
 547              	.LFB286:
 548              		.loc 6 87 0
 549              		.cfi_startproc
 550              		@ args = 0, pretend = 0, frame = 16
 551              		@ frame_needed = 0, uses_anonymous_args = 0
 552 01f0 00B5     		push	{lr}
 553              		.cfi_def_cfa_offset 4
 554              		.cfi_offset 14, -4
 555 01f2 85B0     		sub	sp, sp, #20
 556              		.cfi_def_cfa_offset 24
 557 01f4 0390     		str	r0, [sp, #12]
 558 01f6 0291     		str	r1, [sp, #8]
 559 01f8 0192     		str	r2, [sp, #4]
ARM GAS  /tmp/ccqZLEFm.s 			page 11


 560 01fa 0093     		str	r3, [sp]
 561              		.loc 6 89 0
 562 01fc 039B     		ldr	r3, [sp, #12]
 563 01fe 0C33     		adds	r3, r3, #12
 564 0200 1846     		mov	r0, r3
 565 0202 0299     		ldr	r1, [sp, #8]
 566 0204 019A     		ldr	r2, [sp, #4]
 567 0206 009B     		ldr	r3, [sp]
 568 0208 FFF7FEFF 		bl	iqReadTimeout
 569 020c 0346     		mov	r3, r0
 570              		.loc 6 90 0
 571 020e 1846     		mov	r0, r3
 572 0210 05B0     		add	sp, sp, #20
 573              		.cfi_def_cfa_offset 4
 574              		@ sp needed
 575 0212 5DF804FB 		ldr	pc, [sp], #4
 576              		.cfi_endproc
 577              	.LFE286:
 578              		.size	_readt, .-_readt
 579              		.section	.rodata
 580              		.align	2
 581              		.type	vmt, %object
 582              		.size	vmt, 32
 583              	vmt:
 584 0000 00000000 		.word	_write
 585 0004 00000000 		.word	_read
 586 0008 00000000 		.word	_put
 587 000c 00000000 		.word	_get
 588 0010 00000000 		.word	_putt
 589 0014 00000000 		.word	_gett
 590 0018 00000000 		.word	_writet
 591 001c 00000000 		.word	_readt
 592              		.text
 593 0216 00BF     		.align	2
 594 0218 AFF30080 		.p2align 4,,15
 594      AFF30080 
 595              		.global	sdInit
 596              		.thumb
 597              		.thumb_func
 598              		.type	sdInit, %function
 599              	sdInit:
 600              	.LFB287:
 601              		.loc 6 108 0
 602              		.cfi_startproc
 603              		@ args = 0, pretend = 0, frame = 0
 604              		@ frame_needed = 0, uses_anonymous_args = 0
 605 0220 08B5     		push	{r3, lr}
 606              		.cfi_def_cfa_offset 8
 607              		.cfi_offset 3, -8
 608              		.cfi_offset 14, -4
 609              		.loc 6 110 0
 610 0222 FFF7FEFF 		bl	sd_lld_init
 611              		.loc 6 111 0
 612 0226 08BD     		pop	{r3, pc}
 613              		.cfi_endproc
 614              	.LFE287:
 615              		.size	sdInit, .-sdInit
ARM GAS  /tmp/ccqZLEFm.s 			page 12


 616              		.align	2
 617 0228 AFF30080 		.p2align 4,,15
 617      AFF30080 
 618              		.global	sdObjectInit
 619              		.thumb
 620              		.thumb_func
 621              		.type	sdObjectInit, %function
 622              	sdObjectInit:
 623              	.LFB288:
 624              		.loc 6 131 0
 625              		.cfi_startproc
 626              		@ args = 0, pretend = 0, frame = 16
 627              		@ frame_needed = 0, uses_anonymous_args = 0
 628 0230 00B5     		push	{lr}
 629              		.cfi_def_cfa_offset 4
 630              		.cfi_offset 14, -4
 631 0232 87B0     		sub	sp, sp, #28
 632              		.cfi_def_cfa_offset 32
 633 0234 0590     		str	r0, [sp, #20]
 634 0236 0491     		str	r1, [sp, #16]
 635 0238 0392     		str	r2, [sp, #12]
 636              		.loc 6 133 0
 637 023a 059B     		ldr	r3, [sp, #20]
 638 023c 144A     		ldr	r2, .L29
 639 023e 1A60     		str	r2, [r3]
 640              		.loc 6 134 0
 641 0240 059B     		ldr	r3, [sp, #20]
 642 0242 0433     		adds	r3, r3, #4
 643 0244 1846     		mov	r0, r3
 644 0246 FFF71BFF 		bl	osalEventObjectInit
 645              		.loc 6 135 0
 646 024a 059B     		ldr	r3, [sp, #20]
 647 024c 0122     		movs	r2, #1
 648 024e 1A72     		strb	r2, [r3, #8]
 649              		.loc 6 136 0
 650 0250 059B     		ldr	r3, [sp, #20]
 651 0252 03F10C01 		add	r1, r3, #12
 652 0256 059B     		ldr	r3, [sp, #20]
 653 0258 03F15402 		add	r2, r3, #84
 654 025c 059B     		ldr	r3, [sp, #20]
 655 025e 0093     		str	r3, [sp]
 656 0260 0846     		mov	r0, r1
 657 0262 1146     		mov	r1, r2
 658 0264 1022     		movs	r2, #16
 659 0266 049B     		ldr	r3, [sp, #16]
 660 0268 FFF7FEFF 		bl	iqObjectInit
 661              		.loc 6 137 0
 662 026c 059B     		ldr	r3, [sp, #20]
 663 026e 03F13001 		add	r1, r3, #48
 664 0272 059B     		ldr	r3, [sp, #20]
 665 0274 03F16402 		add	r2, r3, #100
 666 0278 059B     		ldr	r3, [sp, #20]
 667 027a 0093     		str	r3, [sp]
 668 027c 0846     		mov	r0, r1
 669 027e 1146     		mov	r1, r2
 670 0280 1022     		movs	r2, #16
 671 0282 039B     		ldr	r3, [sp, #12]
ARM GAS  /tmp/ccqZLEFm.s 			page 13


 672 0284 FFF7FEFF 		bl	oqObjectInit
 673              		.loc 6 138 0
 674 0288 07B0     		add	sp, sp, #28
 675              		.cfi_def_cfa_offset 4
 676              		@ sp needed
 677 028a 5DF804FB 		ldr	pc, [sp], #4
 678              	.L30:
 679 028e 00BF     		.align	2
 680              	.L29:
 681 0290 00000000 		.word	vmt
 682              		.cfi_endproc
 683              	.LFE288:
 684              		.size	sdObjectInit, .-sdObjectInit
 685              		.align	2
 686 0294 AFF30080 		.p2align 4,,15
 686      AFF30080 
 686      AFF30080 
 687              		.global	sdStart
 688              		.thumb
 689              		.thumb_func
 690              		.type	sdStart, %function
 691              	sdStart:
 692              	.LFB289:
 693              		.loc 6 158 0
 694              		.cfi_startproc
 695              		@ args = 0, pretend = 0, frame = 8
 696              		@ frame_needed = 0, uses_anonymous_args = 0
 697 02a0 00B5     		push	{lr}
 698              		.cfi_def_cfa_offset 4
 699              		.cfi_offset 14, -4
 700 02a2 83B0     		sub	sp, sp, #12
 701              		.cfi_def_cfa_offset 16
 702 02a4 0190     		str	r0, [sp, #4]
 703 02a6 0091     		str	r1, [sp]
 704              		.loc 6 162 0
 705 02a8 FFF7D2FE 		bl	osalSysLock
 706              		.loc 6 165 0
 707 02ac 0198     		ldr	r0, [sp, #4]
 708 02ae 0099     		ldr	r1, [sp]
 709 02b0 FFF7FEFF 		bl	sd_lld_start
 710              		.loc 6 166 0
 711 02b4 019B     		ldr	r3, [sp, #4]
 712 02b6 0222     		movs	r2, #2
 713 02b8 1A72     		strb	r2, [r3, #8]
 714              		.loc 6 167 0
 715 02ba FFF7D1FE 		bl	osalSysUnlock
 716              		.loc 6 168 0
 717 02be 03B0     		add	sp, sp, #12
 718              		.cfi_def_cfa_offset 4
 719              		@ sp needed
 720 02c0 5DF804FB 		ldr	pc, [sp], #4
 721              		.cfi_endproc
 722              	.LFE289:
 723              		.size	sdStart, .-sdStart
 724              		.align	2
 725 02c4 AFF30080 		.p2align 4,,15
 725      AFF30080 
ARM GAS  /tmp/ccqZLEFm.s 			page 14


 725      AFF30080 
 726              		.global	sdStop
 727              		.thumb
 728              		.thumb_func
 729              		.type	sdStop, %function
 730              	sdStop:
 731              	.LFB290:
 732              		.loc 6 179 0
 733              		.cfi_startproc
 734              		@ args = 0, pretend = 0, frame = 8
 735              		@ frame_needed = 0, uses_anonymous_args = 0
 736 02d0 00B5     		push	{lr}
 737              		.cfi_def_cfa_offset 4
 738              		.cfi_offset 14, -4
 739 02d2 83B0     		sub	sp, sp, #12
 740              		.cfi_def_cfa_offset 16
 741 02d4 0190     		str	r0, [sp, #4]
 742              		.loc 6 183 0
 743 02d6 FFF7BBFE 		bl	osalSysLock
 744              		.loc 6 188 0
 745 02da 0198     		ldr	r0, [sp, #4]
 746 02dc FFF7FEFF 		bl	sd_lld_stop
 747              		.loc 6 189 0
 748 02e0 019B     		ldr	r3, [sp, #4]
 749 02e2 0122     		movs	r2, #1
 750 02e4 1A72     		strb	r2, [r3, #8]
 751              		.loc 6 190 0
 752 02e6 019B     		ldr	r3, [sp, #4]
 753 02e8 3033     		adds	r3, r3, #48
 754 02ea 1846     		mov	r0, r3
 755 02ec FFF7FEFF 		bl	oqResetI
 756              		.loc 6 191 0
 757 02f0 019B     		ldr	r3, [sp, #4]
 758 02f2 0C33     		adds	r3, r3, #12
 759 02f4 1846     		mov	r0, r3
 760 02f6 FFF7FEFF 		bl	iqResetI
 761              		.loc 6 192 0
 762 02fa FFF7B9FE 		bl	osalOsRescheduleS
 763              		.loc 6 194 0
 764 02fe FFF7AFFE 		bl	osalSysUnlock
 765              		.loc 6 195 0
 766 0302 03B0     		add	sp, sp, #12
 767              		.cfi_def_cfa_offset 4
 768              		@ sp needed
 769 0304 5DF804FB 		ldr	pc, [sp], #4
 770              		.cfi_endproc
 771              	.LFE290:
 772              		.size	sdStop, .-sdStop
 773              		.align	2
 774 0308 AFF30080 		.p2align 4,,15
 774      AFF30080 
 775              		.global	sdIncomingDataI
 776              		.thumb
 777              		.thumb_func
 778              		.type	sdIncomingDataI, %function
 779              	sdIncomingDataI:
 780              	.LFB291:
ARM GAS  /tmp/ccqZLEFm.s 			page 15


 781              		.loc 6 213 0
 782              		.cfi_startproc
 783              		@ args = 0, pretend = 0, frame = 8
 784              		@ frame_needed = 0, uses_anonymous_args = 0
 785 0310 00B5     		push	{lr}
 786              		.cfi_def_cfa_offset 4
 787              		.cfi_offset 14, -4
 788 0312 83B0     		sub	sp, sp, #12
 789              		.cfi_def_cfa_offset 16
 790 0314 0190     		str	r0, [sp, #4]
 791 0316 0B46     		mov	r3, r1
 792 0318 8DF80330 		strb	r3, [sp, #3]
 793              		.loc 6 218 0
 794 031c 019B     		ldr	r3, [sp, #4]
 795 031e 5B69     		ldr	r3, [r3, #20]
 796 0320 002B     		cmp	r3, #0
 797 0322 05D1     		bne	.L34
 798              		.loc 6 219 0
 799 0324 019B     		ldr	r3, [sp, #4]
 800 0326 0433     		adds	r3, r3, #4
 801 0328 1846     		mov	r0, r3
 802 032a 0421     		movs	r1, #4
 803 032c FFF7B8FE 		bl	osalEventBroadcastFlagsI
 804              	.L34:
 805              		.loc 6 220 0
 806 0330 019B     		ldr	r3, [sp, #4]
 807 0332 03F10C02 		add	r2, r3, #12
 808 0336 9DF80330 		ldrb	r3, [sp, #3]	@ zero_extendqisi2
 809 033a 1046     		mov	r0, r2
 810 033c 1946     		mov	r1, r3
 811 033e FFF7FEFF 		bl	iqPutI
 812 0342 0346     		mov	r3, r0
 813 0344 002B     		cmp	r3, #0
 814 0346 06DA     		bge	.L33
 815              		.loc 6 221 0
 816 0348 019B     		ldr	r3, [sp, #4]
 817 034a 0433     		adds	r3, r3, #4
 818 034c 1846     		mov	r0, r3
 819 034e 4FF48061 		mov	r1, #1024
 820 0352 FFF7A5FE 		bl	osalEventBroadcastFlagsI
 821              	.L33:
 822              		.loc 6 222 0
 823 0356 03B0     		add	sp, sp, #12
 824              		.cfi_def_cfa_offset 4
 825              		@ sp needed
 826 0358 5DF804FB 		ldr	pc, [sp], #4
 827              		.cfi_endproc
 828              	.LFE291:
 829              		.size	sdIncomingDataI, .-sdIncomingDataI
 830              		.align	2
 831 035c AFF30080 		.p2align 4,,15
 832              		.global	sdRequestDataI
 833              		.thumb
 834              		.thumb_func
 835              		.type	sdRequestDataI, %function
 836              	sdRequestDataI:
 837              	.LFB292:
ARM GAS  /tmp/ccqZLEFm.s 			page 16


 838              		.loc 6 239 0
 839              		.cfi_startproc
 840              		@ args = 0, pretend = 0, frame = 16
 841              		@ frame_needed = 0, uses_anonymous_args = 0
 842 0360 00B5     		push	{lr}
 843              		.cfi_def_cfa_offset 4
 844              		.cfi_offset 14, -4
 845 0362 85B0     		sub	sp, sp, #20
 846              		.cfi_def_cfa_offset 24
 847 0364 0190     		str	r0, [sp, #4]
 848              		.loc 6 245 0
 849 0366 019B     		ldr	r3, [sp, #4]
 850 0368 3033     		adds	r3, r3, #48
 851 036a 1846     		mov	r0, r3
 852 036c FFF7FEFF 		bl	oqGetI
 853 0370 0390     		str	r0, [sp, #12]
 854              		.loc 6 246 0
 855 0372 039B     		ldr	r3, [sp, #12]
 856 0374 002B     		cmp	r3, #0
 857 0376 05DA     		bge	.L37
 858              		.loc 6 247 0
 859 0378 019B     		ldr	r3, [sp, #4]
 860 037a 0433     		adds	r3, r3, #4
 861 037c 1846     		mov	r0, r3
 862 037e 0821     		movs	r1, #8
 863 0380 FFF78EFE 		bl	osalEventBroadcastFlagsI
 864              	.L37:
 865              		.loc 6 248 0
 866 0384 039B     		ldr	r3, [sp, #12]
 867              		.loc 6 249 0
 868 0386 1846     		mov	r0, r3
 869 0388 05B0     		add	sp, sp, #20
 870              		.cfi_def_cfa_offset 4
 871              		@ sp needed
 872 038a 5DF804FB 		ldr	pc, [sp], #4
 873              		.cfi_endproc
 874              	.LFE292:
 875              		.size	sdRequestDataI, .-sdRequestDataI
 876 038e 00BF     		.align	2
 877              		.p2align 4,,15
 878              		.global	sdPutWouldBlock
 879              		.thumb
 880              		.thumb_func
 881              		.type	sdPutWouldBlock, %function
 882              	sdPutWouldBlock:
 883              	.LFB293:
 884              		.loc 6 266 0
 885              		.cfi_startproc
 886              		@ args = 0, pretend = 0, frame = 16
 887              		@ frame_needed = 0, uses_anonymous_args = 0
 888 0390 00B5     		push	{lr}
 889              		.cfi_def_cfa_offset 4
 890              		.cfi_offset 14, -4
 891 0392 85B0     		sub	sp, sp, #20
 892              		.cfi_def_cfa_offset 24
 893 0394 0190     		str	r0, [sp, #4]
 894              		.loc 6 269 0
ARM GAS  /tmp/ccqZLEFm.s 			page 17


 895 0396 FFF75BFE 		bl	osalSysLock
 896              		.loc 6 270 0
 897 039a 019B     		ldr	r3, [sp, #4]
 898 039c 9B6B     		ldr	r3, [r3, #56]
 899 039e 002B     		cmp	r3, #0
 900 03a0 0CBF     		ite	eq
 901 03a2 0123     		moveq	r3, #1
 902 03a4 0023     		movne	r3, #0
 903 03a6 8DF80F30 		strb	r3, [sp, #15]
 904              		.loc 6 271 0
 905 03aa FFF759FE 		bl	osalSysUnlock
 906              		.loc 6 273 0
 907 03ae 9DF80F30 		ldrb	r3, [sp, #15]	@ zero_extendqisi2
 908              		.loc 6 274 0
 909 03b2 1846     		mov	r0, r3
 910 03b4 05B0     		add	sp, sp, #20
 911              		.cfi_def_cfa_offset 4
 912              		@ sp needed
 913 03b6 5DF804FB 		ldr	pc, [sp], #4
 914              		.cfi_endproc
 915              	.LFE293:
 916              		.size	sdPutWouldBlock, .-sdPutWouldBlock
 917 03ba 00BF     		.align	2
 918 03bc AFF30080 		.p2align 4,,15
 919              		.global	sdGetWouldBlock
 920              		.thumb
 921              		.thumb_func
 922              		.type	sdGetWouldBlock, %function
 923              	sdGetWouldBlock:
 924              	.LFB294:
 925              		.loc 6 291 0
 926              		.cfi_startproc
 927              		@ args = 0, pretend = 0, frame = 16
 928              		@ frame_needed = 0, uses_anonymous_args = 0
 929 03c0 00B5     		push	{lr}
 930              		.cfi_def_cfa_offset 4
 931              		.cfi_offset 14, -4
 932 03c2 85B0     		sub	sp, sp, #20
 933              		.cfi_def_cfa_offset 24
 934 03c4 0190     		str	r0, [sp, #4]
 935              		.loc 6 294 0
 936 03c6 FFF743FE 		bl	osalSysLock
 937              		.loc 6 295 0
 938 03ca 019B     		ldr	r3, [sp, #4]
 939 03cc 5B69     		ldr	r3, [r3, #20]
 940 03ce 002B     		cmp	r3, #0
 941 03d0 0CBF     		ite	eq
 942 03d2 0123     		moveq	r3, #1
 943 03d4 0023     		movne	r3, #0
 944 03d6 8DF80F30 		strb	r3, [sp, #15]
 945              		.loc 6 296 0
 946 03da FFF741FE 		bl	osalSysUnlock
 947              		.loc 6 298 0
 948 03de 9DF80F30 		ldrb	r3, [sp, #15]	@ zero_extendqisi2
 949              		.loc 6 299 0
 950 03e2 1846     		mov	r0, r3
 951 03e4 05B0     		add	sp, sp, #20
ARM GAS  /tmp/ccqZLEFm.s 			page 18


 952              		.cfi_def_cfa_offset 4
 953              		@ sp needed
 954 03e6 5DF804FB 		ldr	pc, [sp], #4
 955              		.cfi_endproc
 956              	.LFE294:
 957              		.size	sdGetWouldBlock, .-sdGetWouldBlock
 958              	.Letext0:
 959              		.file 7 "/usr/lib/gcc/arm-none-eabi/4.9.3/include/stddef.h"
 960              		.file 8 "/usr/include/newlib/machine/_default_types.h"
 961              		.file 9 "/usr/include/newlib/sys/_stdint.h"
 962              		.file 10 "../../../os/common/ports/ARMCMx/compilers/GCC/chtypes.h"
 963              		.file 11 "../../../os/rt/include/chsystypes.h"
 964              		.file 12 "../../../os/rt/include/chschd.h"
 965              		.file 13 "../../../os/common/ext/CMSIS/ST/STM32F4xx/stm32f407xx.h"
 966              		.file 14 "../../../os/common/ports/ARMCMx/chcore.h"
 967              		.file 15 "../../../os/rt/include/chtm.h"
 968              		.file 16 "../../../os/rt/include/chsem.h"
 969              		.file 17 "../../../os/rt/include/chmtx.h"
 970              		.file 18 "../../../os/hal/include/hal_queues.h"
 971              		.file 19 "../../../os/hal/include/hal_serial.h"
 972              		.file 20 "../../../os/hal/ports/STM32/LLD/USARTv1/hal_serial_lld.h"
 973              		.file 21 "../../../os/common/ext/CMSIS/include/core_cm4.h"