ARM GAS  /tmp/cc9hywgG.s 			page 1


   1              		.syntax unified
   2              		.cpu cortex-m4
   3              		.fpu softvfp
   4              		.eabi_attribute 20, 1
   5              		.eabi_attribute 21, 1
   6              		.eabi_attribute 23, 3
   7              		.eabi_attribute 24, 1
   8              		.eabi_attribute 25, 1
   9              		.eabi_attribute 26, 1
  10              		.eabi_attribute 30, 6
  11              		.eabi_attribute 34, 1
  12              		.eabi_attribute 18, 4
  13              		.thumb
  14              		.file	"hal_buffers.c"
  15              		.text
  16              	.Ltext0:
  17              		.cfi_sections	.debug_frame
  18              		.align	2
  19              		.p2align 4,,15
  20              		.thumb
  21              		.thumb_func
  22              		.type	port_lock, %function
  23              	port_lock:
  24              	.LFB127:
  25              		.file 1 "../../../os/common/ports/ARMCMx/chcore_v7m.h"
  26              		.loc 1 594 0
  27              		.cfi_startproc
  28              		@ args = 0, pretend = 0, frame = 8
  29              		@ frame_needed = 0, uses_anonymous_args = 0
  30              		@ link register save eliminated.
  31 0000 82B0     		sub	sp, sp, #8
  32              		.cfi_def_cfa_offset 8
  33 0002 2023     		movs	r3, #32
  34 0004 0193     		str	r3, [sp, #4]
  35              	.LBB6:
  36              	.LBB7:
  37              		.file 2 "../../../os/common/ext/CMSIS/include/cmsis_gcc.h"
  38              		.loc 2 264 0
  39 0006 019B     		ldr	r3, [sp, #4]
  40              	@ 264 "../../../os/common/ext/CMSIS/include/cmsis_gcc.h" 1
  41 0008 83F31188 		MSR basepri, r3
  42              	@ 0 "" 2
  43              		.thumb
  44              	.LBE7:
  45              	.LBE6:
  46              		.loc 1 611 0
  47 000c 02B0     		add	sp, sp, #8
  48              		.cfi_def_cfa_offset 0
  49              		@ sp needed
  50 000e 7047     		bx	lr
  51              		.cfi_endproc
  52              	.LFE127:
  53              		.size	port_lock, .-port_lock
  54              		.align	2
  55              		.p2align 4,,15
  56              		.thumb
  57              		.thumb_func
ARM GAS  /tmp/cc9hywgG.s 			page 2


  58              		.type	port_unlock, %function
  59              	port_unlock:
  60              	.LFB128:
  61              		.loc 1 618 0
  62              		.cfi_startproc
  63              		@ args = 0, pretend = 0, frame = 8
  64              		@ frame_needed = 0, uses_anonymous_args = 0
  65              		@ link register save eliminated.
  66 0010 82B0     		sub	sp, sp, #8
  67              		.cfi_def_cfa_offset 8
  68 0012 0023     		movs	r3, #0
  69 0014 0193     		str	r3, [sp, #4]
  70              	.LBB8:
  71              	.LBB9:
  72              		.loc 2 264 0
  73 0016 019B     		ldr	r3, [sp, #4]
  74              	@ 264 "../../../os/common/ext/CMSIS/include/cmsis_gcc.h" 1
  75 0018 83F31188 		MSR basepri, r3
  76              	@ 0 "" 2
  77              		.thumb
  78              	.LBE9:
  79              	.LBE8:
  80              		.loc 1 625 0
  81 001c 02B0     		add	sp, sp, #8
  82              		.cfi_def_cfa_offset 0
  83              		@ sp needed
  84 001e 7047     		bx	lr
  85              		.cfi_endproc
  86              	.LFE128:
  87              		.size	port_unlock, .-port_unlock
  88              		.align	2
  89              		.p2align 4,,15
  90              		.thumb
  91              		.thumb_func
  92              		.type	st_lld_get_counter, %function
  93              	st_lld_get_counter:
  94              	.LFB136:
  95              		.file 3 "../../../os/hal/ports/STM32/LLD/TIMv1/hal_st_lld.h"
  96              		.loc 3 139 0
  97              		.cfi_startproc
  98              		@ args = 0, pretend = 0, frame = 0
  99              		@ frame_needed = 0, uses_anonymous_args = 0
 100              		@ link register save eliminated.
 101              		.loc 3 141 0
 102 0020 4FF08043 		mov	r3, #1073741824
 103 0024 5B6A     		ldr	r3, [r3, #36]
 104              		.loc 3 142 0
 105 0026 1846     		mov	r0, r3
 106 0028 7047     		bx	lr
 107              		.cfi_endproc
 108              	.LFE136:
 109              		.size	st_lld_get_counter, .-st_lld_get_counter
 110 002a 00BF     		.align	2
 111 002c AFF30080 		.p2align 4,,15
 112              		.thumb
 113              		.thumb_func
 114              		.type	port_timer_get_time, %function
ARM GAS  /tmp/cc9hywgG.s 			page 3


 115              	port_timer_get_time:
 116              	.LFB145:
 117              		.file 4 "../../../os/common/ports/ARMCMx/chcore_timer.h"
 118              		.loc 4 105 0
 119              		.cfi_startproc
 120              		@ args = 0, pretend = 0, frame = 0
 121              		@ frame_needed = 0, uses_anonymous_args = 0
 122 0030 08B5     		push	{r3, lr}
 123              		.cfi_def_cfa_offset 8
 124              		.cfi_offset 3, -8
 125              		.cfi_offset 14, -4
 126              		.loc 4 107 0
 127 0032 FFF7F5FF 		bl	st_lld_get_counter
 128 0036 0346     		mov	r3, r0
 129              		.loc 4 108 0
 130 0038 1846     		mov	r0, r3
 131 003a 08BD     		pop	{r3, pc}
 132              		.cfi_endproc
 133              	.LFE145:
 134              		.size	port_timer_get_time, .-port_timer_get_time
 135              		.align	2
 136 003c AFF30080 		.p2align 4,,15
 137              		.thumb
 138              		.thumb_func
 139              		.type	queue_init, %function
 140              	queue_init:
 141              	.LFB150:
 142              		.file 5 "../../../os/rt/include/chschd.h"
 143              		.loc 5 548 0
 144              		.cfi_startproc
 145              		@ args = 0, pretend = 0, frame = 8
 146              		@ frame_needed = 0, uses_anonymous_args = 0
 147              		@ link register save eliminated.
 148 0040 82B0     		sub	sp, sp, #8
 149              		.cfi_def_cfa_offset 8
 150 0042 0190     		str	r0, [sp, #4]
 151              		.loc 5 550 0
 152 0044 019B     		ldr	r3, [sp, #4]
 153 0046 019A     		ldr	r2, [sp, #4]
 154 0048 1A60     		str	r2, [r3]
 155              		.loc 5 551 0
 156 004a 019B     		ldr	r3, [sp, #4]
 157 004c 019A     		ldr	r2, [sp, #4]
 158 004e 5A60     		str	r2, [r3, #4]
 159              		.loc 5 552 0
 160 0050 02B0     		add	sp, sp, #8
 161              		.cfi_def_cfa_offset 0
 162              		@ sp needed
 163 0052 7047     		bx	lr
 164              		.cfi_endproc
 165              	.LFE150:
 166              		.size	queue_init, .-queue_init
 167              		.align	2
 168 0054 AFF30080 		.p2align 4,,15
 168      AFF30080 
 168      AFF30080 
 169              		.thumb
ARM GAS  /tmp/cc9hywgG.s 			page 4


 170              		.thumb_func
 171              		.type	chSysLock, %function
 172              	chSysLock:
 173              	.LFB167:
 174              		.file 6 "../../../os/rt/include/chsys.h"
 175              		.loc 6 374 0
 176              		.cfi_startproc
 177              		@ args = 0, pretend = 0, frame = 0
 178              		@ frame_needed = 0, uses_anonymous_args = 0
 179 0060 08B5     		push	{r3, lr}
 180              		.cfi_def_cfa_offset 8
 181              		.cfi_offset 3, -8
 182              		.cfi_offset 14, -4
 183              		.loc 6 376 0
 184 0062 FFF7CDFF 		bl	port_lock
 185              		.loc 6 379 0
 186 0066 08BD     		pop	{r3, pc}
 187              		.cfi_endproc
 188              	.LFE167:
 189              		.size	chSysLock, .-chSysLock
 190              		.align	2
 191 0068 AFF30080 		.p2align 4,,15
 191      AFF30080 
 192              		.thumb
 193              		.thumb_func
 194              		.type	chSysUnlock, %function
 195              	chSysUnlock:
 196              	.LFB168:
 197              		.loc 6 386 0
 198              		.cfi_startproc
 199              		@ args = 0, pretend = 0, frame = 0
 200              		@ frame_needed = 0, uses_anonymous_args = 0
 201 0070 08B5     		push	{r3, lr}
 202              		.cfi_def_cfa_offset 8
 203              		.cfi_offset 3, -8
 204              		.cfi_offset 14, -4
 205              		.loc 6 399 0
 206 0072 FFF7CDFF 		bl	port_unlock
 207              		.loc 6 400 0
 208 0076 08BD     		pop	{r3, pc}
 209              		.cfi_endproc
 210              	.LFE168:
 211              		.size	chSysUnlock, .-chSysUnlock
 212              		.align	2
 213 0078 AFF30080 		.p2align 4,,15
 213      AFF30080 
 214              		.thumb
 215              		.thumb_func
 216              		.type	chVTGetSystemTimeX, %function
 217              	chVTGetSystemTimeX:
 218              	.LFB181:
 219              		.file 7 "../../../os/rt/include/chvt.h"
 220              		.loc 7 392 0
 221              		.cfi_startproc
 222              		@ args = 0, pretend = 0, frame = 0
 223              		@ frame_needed = 0, uses_anonymous_args = 0
 224 0080 08B5     		push	{r3, lr}
ARM GAS  /tmp/cc9hywgG.s 			page 5


 225              		.cfi_def_cfa_offset 8
 226              		.cfi_offset 3, -8
 227              		.cfi_offset 14, -4
 228              		.loc 7 397 0
 229 0082 FFF7D5FF 		bl	port_timer_get_time
 230 0086 0346     		mov	r3, r0
 231              		.loc 7 399 0
 232 0088 1846     		mov	r0, r3
 233 008a 08BD     		pop	{r3, pc}
 234              		.cfi_endproc
 235              	.LFE181:
 236              		.size	chVTGetSystemTimeX, .-chVTGetSystemTimeX
 237              		.align	2
 238 008c AFF30080 		.p2align 4,,15
 239              		.thumb
 240              		.thumb_func
 241              		.type	chThdQueueObjectInit, %function
 242              	chThdQueueObjectInit:
 243              	.LFB202:
 244              		.file 8 "../../../os/rt/include/chthreads.h"
 245              		.loc 8 404 0
 246              		.cfi_startproc
 247              		@ args = 0, pretend = 0, frame = 8
 248              		@ frame_needed = 0, uses_anonymous_args = 0
 249 0090 00B5     		push	{lr}
 250              		.cfi_def_cfa_offset 4
 251              		.cfi_offset 14, -4
 252 0092 83B0     		sub	sp, sp, #12
 253              		.cfi_def_cfa_offset 16
 254 0094 0190     		str	r0, [sp, #4]
 255              		.loc 8 406 0
 256 0096 0198     		ldr	r0, [sp, #4]
 257 0098 FFF7D2FF 		bl	queue_init
 258              		.loc 8 407 0
 259 009c 03B0     		add	sp, sp, #12
 260              		.cfi_def_cfa_offset 4
 261              		@ sp needed
 262 009e 5DF804FB 		ldr	pc, [sp], #4
 263              		.cfi_endproc
 264              	.LFE202:
 265              		.size	chThdQueueObjectInit, .-chThdQueueObjectInit
 266 00a2 00BF     		.align	2
 267 00a4 AFF30080 		.p2align 4,,15
 267      AFF30080 
 267      AFF30080 
 268              		.thumb
 269              		.thumb_func
 270              		.type	osalSysLock, %function
 271              	osalSysLock:
 272              	.LFB252:
 273              		.file 9 "../../../os/hal/osal/rt/osal.h"
 274              		.loc 9 491 0
 275              		.cfi_startproc
 276              		@ args = 0, pretend = 0, frame = 0
 277              		@ frame_needed = 0, uses_anonymous_args = 0
 278 00b0 08B5     		push	{r3, lr}
 279              		.cfi_def_cfa_offset 8
ARM GAS  /tmp/cc9hywgG.s 			page 6


 280              		.cfi_offset 3, -8
 281              		.cfi_offset 14, -4
 282              		.loc 9 493 0
 283 00b2 FFF7D5FF 		bl	chSysLock
 284              		.loc 9 494 0
 285 00b6 08BD     		pop	{r3, pc}
 286              		.cfi_endproc
 287              	.LFE252:
 288              		.size	osalSysLock, .-osalSysLock
 289              		.align	2
 290 00b8 AFF30080 		.p2align 4,,15
 290      AFF30080 
 291              		.thumb
 292              		.thumb_func
 293              		.type	osalSysUnlock, %function
 294              	osalSysUnlock:
 295              	.LFB253:
 296              		.loc 9 502 0
 297              		.cfi_startproc
 298              		@ args = 0, pretend = 0, frame = 0
 299              		@ frame_needed = 0, uses_anonymous_args = 0
 300 00c0 08B5     		push	{r3, lr}
 301              		.cfi_def_cfa_offset 8
 302              		.cfi_offset 3, -8
 303              		.cfi_offset 14, -4
 304              		.loc 9 504 0
 305 00c2 FFF7D5FF 		bl	chSysUnlock
 306              		.loc 9 505 0
 307 00c6 08BD     		pop	{r3, pc}
 308              		.cfi_endproc
 309              	.LFE253:
 310              		.size	osalSysUnlock, .-osalSysUnlock
 311              		.align	2
 312 00c8 AFF30080 		.p2align 4,,15
 312      AFF30080 
 313              		.thumb
 314              		.thumb_func
 315              		.type	osalOsGetSystemTimeX, %function
 316              	osalOsGetSystemTimeX:
 317              	.LFB261:
 318              		.loc 9 616 0
 319              		.cfi_startproc
 320              		@ args = 0, pretend = 0, frame = 0
 321              		@ frame_needed = 0, uses_anonymous_args = 0
 322 00d0 08B5     		push	{r3, lr}
 323              		.cfi_def_cfa_offset 8
 324              		.cfi_offset 3, -8
 325              		.cfi_offset 14, -4
 326              		.loc 9 618 0
 327 00d2 FFF7D5FF 		bl	chVTGetSystemTimeX
 328 00d6 0346     		mov	r3, r0
 329              		.loc 9 619 0
 330 00d8 1846     		mov	r0, r3
 331 00da 08BD     		pop	{r3, pc}
 332              		.cfi_endproc
 333              	.LFE261:
 334              		.size	osalOsGetSystemTimeX, .-osalOsGetSystemTimeX
ARM GAS  /tmp/cc9hywgG.s 			page 7


 335              		.align	2
 336 00dc AFF30080 		.p2align 4,,15
 337              		.thumb
 338              		.thumb_func
 339              		.type	osalThreadQueueObjectInit, %function
 340              	osalThreadQueueObjectInit:
 341              	.LFB269:
 342              		.loc 9 753 0
 343              		.cfi_startproc
 344              		@ args = 0, pretend = 0, frame = 8
 345              		@ frame_needed = 0, uses_anonymous_args = 0
 346 00e0 00B5     		push	{lr}
 347              		.cfi_def_cfa_offset 4
 348              		.cfi_offset 14, -4
 349 00e2 83B0     		sub	sp, sp, #12
 350              		.cfi_def_cfa_offset 16
 351 00e4 0190     		str	r0, [sp, #4]
 352              		.loc 9 755 0
 353 00e6 0198     		ldr	r0, [sp, #4]
 354 00e8 FFF7D2FF 		bl	chThdQueueObjectInit
 355              		.loc 9 756 0
 356 00ec 03B0     		add	sp, sp, #12
 357              		.cfi_def_cfa_offset 4
 358              		@ sp needed
 359 00ee 5DF804FB 		ldr	pc, [sp], #4
 360              		.cfi_endproc
 361              	.LFE269:
 362              		.size	osalThreadQueueObjectInit, .-osalThreadQueueObjectInit
 363 00f2 00BF     		.align	2
 364 00f4 AFF30080 		.p2align 4,,15
 364      AFF30080 
 364      AFF30080 
 365              		.thumb
 366              		.thumb_func
 367              		.type	osalThreadEnqueueTimeoutS, %function
 368              	osalThreadEnqueueTimeoutS:
 369              	.LFB270:
 370              		.loc 9 782 0
 371              		.cfi_startproc
 372              		@ args = 0, pretend = 0, frame = 8
 373              		@ frame_needed = 0, uses_anonymous_args = 0
 374 0100 00B5     		push	{lr}
 375              		.cfi_def_cfa_offset 4
 376              		.cfi_offset 14, -4
 377 0102 83B0     		sub	sp, sp, #12
 378              		.cfi_def_cfa_offset 16
 379 0104 0190     		str	r0, [sp, #4]
 380 0106 0091     		str	r1, [sp]
 381              		.loc 9 784 0
 382 0108 0198     		ldr	r0, [sp, #4]
 383 010a 0099     		ldr	r1, [sp]
 384 010c FFF7FEFF 		bl	chThdEnqueueTimeoutS
 385 0110 0346     		mov	r3, r0
 386              		.loc 9 785 0
 387 0112 1846     		mov	r0, r3
 388 0114 03B0     		add	sp, sp, #12
 389              		.cfi_def_cfa_offset 4
ARM GAS  /tmp/cc9hywgG.s 			page 8


 390              		@ sp needed
 391 0116 5DF804FB 		ldr	pc, [sp], #4
 392              		.cfi_endproc
 393              	.LFE270:
 394              		.size	osalThreadEnqueueTimeoutS, .-osalThreadEnqueueTimeoutS
 395 011a 00BF     		.align	2
 396 011c AFF30080 		.p2align 4,,15
 397              		.thumb
 398              		.thumb_func
 399              		.type	osalThreadDequeueNextI, %function
 400              	osalThreadDequeueNextI:
 401              	.LFB271:
 402              		.loc 9 795 0
 403              		.cfi_startproc
 404              		@ args = 0, pretend = 0, frame = 8
 405              		@ frame_needed = 0, uses_anonymous_args = 0
 406 0120 00B5     		push	{lr}
 407              		.cfi_def_cfa_offset 4
 408              		.cfi_offset 14, -4
 409 0122 83B0     		sub	sp, sp, #12
 410              		.cfi_def_cfa_offset 16
 411 0124 0190     		str	r0, [sp, #4]
 412 0126 0091     		str	r1, [sp]
 413              		.loc 9 797 0
 414 0128 0198     		ldr	r0, [sp, #4]
 415 012a 0099     		ldr	r1, [sp]
 416 012c FFF7FEFF 		bl	chThdDequeueNextI
 417              		.loc 9 798 0
 418 0130 03B0     		add	sp, sp, #12
 419              		.cfi_def_cfa_offset 4
 420              		@ sp needed
 421 0132 5DF804FB 		ldr	pc, [sp], #4
 422              		.cfi_endproc
 423              	.LFE271:
 424              		.size	osalThreadDequeueNextI, .-osalThreadDequeueNextI
 425 0136 00BF     		.align	2
 426 0138 AFF30080 		.p2align 4,,15
 426      AFF30080 
 427              		.thumb
 428              		.thumb_func
 429              		.type	osalThreadDequeueAllI, %function
 430              	osalThreadDequeueAllI:
 431              	.LFB272:
 432              		.loc 9 808 0
 433              		.cfi_startproc
 434              		@ args = 0, pretend = 0, frame = 8
 435              		@ frame_needed = 0, uses_anonymous_args = 0
 436 0140 00B5     		push	{lr}
 437              		.cfi_def_cfa_offset 4
 438              		.cfi_offset 14, -4
 439 0142 83B0     		sub	sp, sp, #12
 440              		.cfi_def_cfa_offset 16
 441 0144 0190     		str	r0, [sp, #4]
 442 0146 0091     		str	r1, [sp]
 443              		.loc 9 810 0
 444 0148 0198     		ldr	r0, [sp, #4]
 445 014a 0099     		ldr	r1, [sp]
ARM GAS  /tmp/cc9hywgG.s 			page 9


 446 014c FFF7FEFF 		bl	chThdDequeueAllI
 447              		.loc 9 811 0
 448 0150 03B0     		add	sp, sp, #12
 449              		.cfi_def_cfa_offset 4
 450              		@ sp needed
 451 0152 5DF804FB 		ldr	pc, [sp], #4
 452              		.cfi_endproc
 453              	.LFE272:
 454              		.size	osalThreadDequeueAllI, .-osalThreadDequeueAllI
 455 0156 00BF     		.align	2
 456 0158 AFF30080 		.p2align 4,,15
 456      AFF30080 
 457              		.global	ibqObjectInit
 458              		.thumb
 459              		.thumb_func
 460              		.type	ibqObjectInit, %function
 461              	ibqObjectInit:
 462              	.LFB279:
 463              		.file 10 "../../../os/hal/src/hal_buffers.c"
 464              		.loc 10 77 0
 465              		.cfi_startproc
 466              		@ args = 12, pretend = 0, frame = 16
 467              		@ frame_needed = 0, uses_anonymous_args = 0
 468 0160 00B5     		push	{lr}
 469              		.cfi_def_cfa_offset 4
 470              		.cfi_offset 14, -4
 471 0162 85B0     		sub	sp, sp, #20
 472              		.cfi_def_cfa_offset 24
 473 0164 0390     		str	r0, [sp, #12]
 474 0166 0192     		str	r2, [sp, #4]
 475 0168 0093     		str	r3, [sp]
 476 016a 0B46     		mov	r3, r1
 477 016c 8DF80B30 		strb	r3, [sp, #11]
 478              		.loc 10 81 0
 479 0170 039B     		ldr	r3, [sp, #12]
 480 0172 1846     		mov	r0, r3
 481 0174 FFF7B4FF 		bl	osalThreadQueueObjectInit
 482              		.loc 10 82 0
 483 0178 039B     		ldr	r3, [sp, #12]
 484 017a 9DF80B20 		ldrb	r2, [sp, #11]
 485 017e 1A72     		strb	r2, [r3, #8]
 486              		.loc 10 83 0
 487 0180 039B     		ldr	r3, [sp, #12]
 488 0182 0022     		movs	r2, #0
 489 0184 DA60     		str	r2, [r3, #12]
 490              		.loc 10 84 0
 491 0186 039B     		ldr	r3, [sp, #12]
 492 0188 019A     		ldr	r2, [sp, #4]
 493 018a 5A61     		str	r2, [r3, #20]
 494              		.loc 10 85 0
 495 018c 039B     		ldr	r3, [sp, #12]
 496 018e 019A     		ldr	r2, [sp, #4]
 497 0190 1A61     		str	r2, [r3, #16]
 498              		.loc 10 86 0
 499 0192 009B     		ldr	r3, [sp]
 500 0194 0433     		adds	r3, r3, #4
 501 0196 069A     		ldr	r2, [sp, #24]
ARM GAS  /tmp/cc9hywgG.s 			page 10


 502 0198 02FB03F3 		mul	r3, r2, r3
 503 019c 019A     		ldr	r2, [sp, #4]
 504 019e 1A44     		add	r2, r2, r3
 505 01a0 039B     		ldr	r3, [sp, #12]
 506 01a2 9A61     		str	r2, [r3, #24]
 507              		.loc 10 87 0
 508 01a4 009B     		ldr	r3, [sp]
 509 01a6 1A1D     		adds	r2, r3, #4
 510 01a8 039B     		ldr	r3, [sp, #12]
 511 01aa DA61     		str	r2, [r3, #28]
 512              		.loc 10 88 0
 513 01ac 039B     		ldr	r3, [sp, #12]
 514 01ae 069A     		ldr	r2, [sp, #24]
 515 01b0 1A62     		str	r2, [r3, #32]
 516              		.loc 10 89 0
 517 01b2 039B     		ldr	r3, [sp, #12]
 518 01b4 019A     		ldr	r2, [sp, #4]
 519 01b6 5A62     		str	r2, [r3, #36]
 520              		.loc 10 90 0
 521 01b8 039B     		ldr	r3, [sp, #12]
 522 01ba 0022     		movs	r2, #0
 523 01bc 9A62     		str	r2, [r3, #40]
 524              		.loc 10 91 0
 525 01be 039B     		ldr	r3, [sp, #12]
 526 01c0 0022     		movs	r2, #0
 527 01c2 DA62     		str	r2, [r3, #44]
 528              		.loc 10 92 0
 529 01c4 039B     		ldr	r3, [sp, #12]
 530 01c6 079A     		ldr	r2, [sp, #28]
 531 01c8 1A63     		str	r2, [r3, #48]
 532              		.loc 10 93 0
 533 01ca 039B     		ldr	r3, [sp, #12]
 534 01cc 089A     		ldr	r2, [sp, #32]
 535 01ce 5A63     		str	r2, [r3, #52]
 536              		.loc 10 94 0
 537 01d0 05B0     		add	sp, sp, #20
 538              		.cfi_def_cfa_offset 4
 539              		@ sp needed
 540 01d2 5DF804FB 		ldr	pc, [sp], #4
 541              		.cfi_endproc
 542              	.LFE279:
 543              		.size	ibqObjectInit, .-ibqObjectInit
 544 01d6 00BF     		.align	2
 545 01d8 AFF30080 		.p2align 4,,15
 545      AFF30080 
 546              		.global	ibqResetI
 547              		.thumb
 548              		.thumb_func
 549              		.type	ibqResetI, %function
 550              	ibqResetI:
 551              	.LFB280:
 552              		.loc 10 107 0
 553              		.cfi_startproc
 554              		@ args = 0, pretend = 0, frame = 8
 555              		@ frame_needed = 0, uses_anonymous_args = 0
 556 01e0 00B5     		push	{lr}
 557              		.cfi_def_cfa_offset 4
ARM GAS  /tmp/cc9hywgG.s 			page 11


 558              		.cfi_offset 14, -4
 559 01e2 83B0     		sub	sp, sp, #12
 560              		.cfi_def_cfa_offset 16
 561 01e4 0190     		str	r0, [sp, #4]
 562              		.loc 10 111 0
 563 01e6 019B     		ldr	r3, [sp, #4]
 564 01e8 0022     		movs	r2, #0
 565 01ea DA60     		str	r2, [r3, #12]
 566              		.loc 10 112 0
 567 01ec 019B     		ldr	r3, [sp, #4]
 568 01ee 5A6A     		ldr	r2, [r3, #36]
 569 01f0 019B     		ldr	r3, [sp, #4]
 570 01f2 5A61     		str	r2, [r3, #20]
 571              		.loc 10 113 0
 572 01f4 019B     		ldr	r3, [sp, #4]
 573 01f6 5A6A     		ldr	r2, [r3, #36]
 574 01f8 019B     		ldr	r3, [sp, #4]
 575 01fa 1A61     		str	r2, [r3, #16]
 576              		.loc 10 114 0
 577 01fc 019B     		ldr	r3, [sp, #4]
 578 01fe 0022     		movs	r2, #0
 579 0200 9A62     		str	r2, [r3, #40]
 580              		.loc 10 115 0
 581 0202 019B     		ldr	r3, [sp, #4]
 582 0204 0022     		movs	r2, #0
 583 0206 DA62     		str	r2, [r3, #44]
 584              		.loc 10 116 0
 585 0208 019B     		ldr	r3, [sp, #4]
 586 020a 1846     		mov	r0, r3
 587 020c 6FF00101 		mvn	r1, #1
 588 0210 FFF796FF 		bl	osalThreadDequeueAllI
 589              		.loc 10 117 0
 590 0214 03B0     		add	sp, sp, #12
 591              		.cfi_def_cfa_offset 4
 592              		@ sp needed
 593 0216 5DF804FB 		ldr	pc, [sp], #4
 594              		.cfi_endproc
 595              	.LFE280:
 596              		.size	ibqResetI, .-ibqResetI
 597 021a 00BF     		.align	2
 598 021c AFF30080 		.p2align 4,,15
 599              		.global	ibqGetEmptyBufferI
 600              		.thumb
 601              		.thumb_func
 602              		.type	ibqGetEmptyBufferI, %function
 603              	ibqGetEmptyBufferI:
 604              	.LFB281:
 605              		.loc 10 129 0
 606              		.cfi_startproc
 607              		@ args = 0, pretend = 0, frame = 8
 608              		@ frame_needed = 0, uses_anonymous_args = 0
 609              		@ link register save eliminated.
 610 0220 82B0     		sub	sp, sp, #8
 611              		.cfi_def_cfa_offset 8
 612 0222 0190     		str	r0, [sp, #4]
 613              		.loc 10 133 0
 614 0224 019B     		ldr	r3, [sp, #4]
ARM GAS  /tmp/cc9hywgG.s 			page 12


 615 0226 1A69     		ldr	r2, [r3, #16]
 616 0228 019B     		ldr	r3, [sp, #4]
 617 022a 5B69     		ldr	r3, [r3, #20]
 618 022c 9A42     		cmp	r2, r3
 619 022e 05D1     		bne	.L25
 620              		.loc 10 133 0 is_stmt 0 discriminator 1
 621 0230 019B     		ldr	r3, [sp, #4]
 622 0232 DB68     		ldr	r3, [r3, #12]
 623 0234 002B     		cmp	r3, #0
 624 0236 01D0     		beq	.L25
 625              		.loc 10 133 0 discriminator 3
 626 0238 0123     		movs	r3, #1
 627 023a 00E0     		b	.L26
 628              	.L25:
 629              		.loc 10 133 0 discriminator 4
 630 023c 0023     		movs	r3, #0
 631              	.L26:
 632              		.loc 10 133 0 discriminator 6
 633 023e 03F00103 		and	r3, r3, #1
 634 0242 DBB2     		uxtb	r3, r3
 635 0244 002B     		cmp	r3, #0
 636 0246 01D0     		beq	.L27
 637              		.loc 10 134 0 is_stmt 1
 638 0248 0023     		movs	r3, #0
 639 024a 02E0     		b	.L28
 640              	.L27:
 641              		.loc 10 137 0
 642 024c 019B     		ldr	r3, [sp, #4]
 643 024e 1B69     		ldr	r3, [r3, #16]
 644 0250 0433     		adds	r3, r3, #4
 645              	.L28:
 646              		.loc 10 138 0
 647 0252 1846     		mov	r0, r3
 648 0254 02B0     		add	sp, sp, #8
 649              		.cfi_def_cfa_offset 0
 650              		@ sp needed
 651 0256 7047     		bx	lr
 652              		.cfi_endproc
 653              	.LFE281:
 654              		.size	ibqGetEmptyBufferI, .-ibqGetEmptyBufferI
 655              		.align	2
 656 0258 AFF30080 		.p2align 4,,15
 656      AFF30080 
 657              		.global	ibqPostFullBufferI
 658              		.thumb
 659              		.thumb_func
 660              		.type	ibqPostFullBufferI, %function
 661              	ibqPostFullBufferI:
 662              	.LFB282:
 663              		.loc 10 148 0
 664              		.cfi_startproc
 665              		@ args = 0, pretend = 0, frame = 8
 666              		@ frame_needed = 0, uses_anonymous_args = 0
 667 0260 00B5     		push	{lr}
 668              		.cfi_def_cfa_offset 4
 669              		.cfi_offset 14, -4
 670 0262 83B0     		sub	sp, sp, #12
ARM GAS  /tmp/cc9hywgG.s 			page 13


 671              		.cfi_def_cfa_offset 16
 672 0264 0190     		str	r0, [sp, #4]
 673 0266 0091     		str	r1, [sp]
 674              		.loc 10 156 0
 675 0268 019B     		ldr	r3, [sp, #4]
 676 026a 1B69     		ldr	r3, [r3, #16]
 677 026c 009A     		ldr	r2, [sp]
 678 026e 1A60     		str	r2, [r3]
 679              		.loc 10 159 0
 680 0270 019B     		ldr	r3, [sp, #4]
 681 0272 DB68     		ldr	r3, [r3, #12]
 682 0274 5A1C     		adds	r2, r3, #1
 683 0276 019B     		ldr	r3, [sp, #4]
 684 0278 DA60     		str	r2, [r3, #12]
 685              		.loc 10 160 0
 686 027a 019B     		ldr	r3, [sp, #4]
 687 027c 1A69     		ldr	r2, [r3, #16]
 688 027e 019B     		ldr	r3, [sp, #4]
 689 0280 DB69     		ldr	r3, [r3, #28]
 690 0282 1A44     		add	r2, r2, r3
 691 0284 019B     		ldr	r3, [sp, #4]
 692 0286 1A61     		str	r2, [r3, #16]
 693              		.loc 10 161 0
 694 0288 019B     		ldr	r3, [sp, #4]
 695 028a 1A69     		ldr	r2, [r3, #16]
 696 028c 019B     		ldr	r3, [sp, #4]
 697 028e 9B69     		ldr	r3, [r3, #24]
 698 0290 9A42     		cmp	r2, r3
 699 0292 03D3     		bcc	.L30
 700              		.loc 10 162 0
 701 0294 019B     		ldr	r3, [sp, #4]
 702 0296 5A6A     		ldr	r2, [r3, #36]
 703 0298 019B     		ldr	r3, [sp, #4]
 704 029a 1A61     		str	r2, [r3, #16]
 705              	.L30:
 706              		.loc 10 166 0
 707 029c 019B     		ldr	r3, [sp, #4]
 708 029e 1846     		mov	r0, r3
 709 02a0 0021     		movs	r1, #0
 710 02a2 FFF73DFF 		bl	osalThreadDequeueNextI
 711              		.loc 10 167 0
 712 02a6 03B0     		add	sp, sp, #12
 713              		.cfi_def_cfa_offset 4
 714              		@ sp needed
 715 02a8 5DF804FB 		ldr	pc, [sp], #4
 716              		.cfi_endproc
 717              	.LFE282:
 718              		.size	ibqPostFullBufferI, .-ibqPostFullBufferI
 719              		.align	2
 720 02ac AFF30080 		.p2align 4,,15
 721              		.global	ibqGetFullBufferTimeout
 722              		.thumb
 723              		.thumb_func
 724              		.type	ibqGetFullBufferTimeout, %function
 725              	ibqGetFullBufferTimeout:
 726              	.LFB283:
 727              		.loc 10 191 0
ARM GAS  /tmp/cc9hywgG.s 			page 14


 728              		.cfi_startproc
 729              		@ args = 0, pretend = 0, frame = 16
 730              		@ frame_needed = 0, uses_anonymous_args = 0
 731 02b0 00B5     		push	{lr}
 732              		.cfi_def_cfa_offset 4
 733              		.cfi_offset 14, -4
 734 02b2 85B0     		sub	sp, sp, #20
 735              		.cfi_def_cfa_offset 24
 736 02b4 0190     		str	r0, [sp, #4]
 737 02b6 0091     		str	r1, [sp]
 738              		.loc 10 194 0
 739 02b8 FFF7FAFE 		bl	osalSysLock
 740              		.loc 10 195 0
 741 02bc 0198     		ldr	r0, [sp, #4]
 742 02be 0099     		ldr	r1, [sp]
 743 02c0 FFF7FEFF 		bl	ibqGetFullBufferTimeoutS
 744 02c4 0390     		str	r0, [sp, #12]
 745              		.loc 10 196 0
 746 02c6 FFF7FBFE 		bl	osalSysUnlock
 747              		.loc 10 198 0
 748 02ca 039B     		ldr	r3, [sp, #12]
 749              		.loc 10 199 0
 750 02cc 1846     		mov	r0, r3
 751 02ce 05B0     		add	sp, sp, #20
 752              		.cfi_def_cfa_offset 4
 753              		@ sp needed
 754 02d0 5DF804FB 		ldr	pc, [sp], #4
 755              		.cfi_endproc
 756              	.LFE283:
 757              		.size	ibqGetFullBufferTimeout, .-ibqGetFullBufferTimeout
 758              		.align	2
 759 02d4 AFF30080 		.p2align 4,,15
 759      AFF30080 
 759      AFF30080 
 760              		.global	ibqGetFullBufferTimeoutS
 761              		.thumb
 762              		.thumb_func
 763              		.type	ibqGetFullBufferTimeoutS, %function
 764              	ibqGetFullBufferTimeoutS:
 765              	.LFB284:
 766              		.loc 10 223 0
 767              		.cfi_startproc
 768              		@ args = 0, pretend = 0, frame = 16
 769              		@ frame_needed = 0, uses_anonymous_args = 0
 770 02e0 00B5     		push	{lr}
 771              		.cfi_def_cfa_offset 4
 772              		.cfi_offset 14, -4
 773 02e2 85B0     		sub	sp, sp, #20
 774              		.cfi_def_cfa_offset 24
 775 02e4 0190     		str	r0, [sp, #4]
 776 02e6 0091     		str	r1, [sp]
 777              		.loc 10 227 0
 778 02e8 11E0     		b	.L34
 779              	.L37:
 780              	.LBB10:
 781              		.loc 10 228 0
 782 02ea 019B     		ldr	r3, [sp, #4]
ARM GAS  /tmp/cc9hywgG.s 			page 15


 783 02ec 1B7A     		ldrb	r3, [r3, #8]	@ zero_extendqisi2
 784 02ee 002B     		cmp	r3, #0
 785 02f0 02D0     		beq	.L35
 786              		.loc 10 229 0
 787 02f2 6FF00103 		mvn	r3, #1
 788 02f6 1CE0     		b	.L36
 789              	.L35:
 790              		.loc 10 231 0
 791 02f8 019B     		ldr	r3, [sp, #4]
 792 02fa 1846     		mov	r0, r3
 793 02fc 0099     		ldr	r1, [sp]
 794 02fe FFF7FFFE 		bl	osalThreadEnqueueTimeoutS
 795 0302 0390     		str	r0, [sp, #12]
 796              		.loc 10 232 0
 797 0304 039B     		ldr	r3, [sp, #12]
 798 0306 002B     		cmp	r3, #0
 799 0308 01DA     		bge	.L34
 800              		.loc 10 233 0
 801 030a 039B     		ldr	r3, [sp, #12]
 802 030c 11E0     		b	.L36
 803              	.L34:
 804              	.LBE10:
 805              		.loc 10 227 0
 806 030e 019B     		ldr	r3, [sp, #4]
 807 0310 DB68     		ldr	r3, [r3, #12]
 808 0312 002B     		cmp	r3, #0
 809 0314 E9D0     		beq	.L37
 810              		.loc 10 240 0
 811 0316 019B     		ldr	r3, [sp, #4]
 812 0318 5B69     		ldr	r3, [r3, #20]
 813 031a 1A1D     		adds	r2, r3, #4
 814 031c 019B     		ldr	r3, [sp, #4]
 815 031e 9A62     		str	r2, [r3, #40]
 816              		.loc 10 241 0
 817 0320 019B     		ldr	r3, [sp, #4]
 818 0322 9A6A     		ldr	r2, [r3, #40]
 819 0324 019B     		ldr	r3, [sp, #4]
 820 0326 5B69     		ldr	r3, [r3, #20]
 821 0328 1B68     		ldr	r3, [r3]
 822 032a 1A44     		add	r2, r2, r3
 823 032c 019B     		ldr	r3, [sp, #4]
 824 032e DA62     		str	r2, [r3, #44]
 825              		.loc 10 243 0
 826 0330 0023     		movs	r3, #0
 827              	.L36:
 828              		.loc 10 244 0
 829 0332 1846     		mov	r0, r3
 830 0334 05B0     		add	sp, sp, #20
 831              		.cfi_def_cfa_offset 4
 832              		@ sp needed
 833 0336 5DF804FB 		ldr	pc, [sp], #4
 834              		.cfi_endproc
 835              	.LFE284:
 836              		.size	ibqGetFullBufferTimeoutS, .-ibqGetFullBufferTimeoutS
 837 033a 00BF     		.align	2
 838 033c AFF30080 		.p2align 4,,15
 839              		.global	ibqReleaseEmptyBuffer
ARM GAS  /tmp/cc9hywgG.s 			page 16


 840              		.thumb
 841              		.thumb_func
 842              		.type	ibqReleaseEmptyBuffer, %function
 843              	ibqReleaseEmptyBuffer:
 844              	.LFB285:
 845              		.loc 10 254 0
 846              		.cfi_startproc
 847              		@ args = 0, pretend = 0, frame = 8
 848              		@ frame_needed = 0, uses_anonymous_args = 0
 849 0340 00B5     		push	{lr}
 850              		.cfi_def_cfa_offset 4
 851              		.cfi_offset 14, -4
 852 0342 83B0     		sub	sp, sp, #12
 853              		.cfi_def_cfa_offset 16
 854 0344 0190     		str	r0, [sp, #4]
 855              		.loc 10 256 0
 856 0346 FFF7B3FE 		bl	osalSysLock
 857              		.loc 10 257 0
 858 034a 0198     		ldr	r0, [sp, #4]
 859 034c FFF7FEFF 		bl	ibqReleaseEmptyBufferS
 860              		.loc 10 258 0
 861 0350 FFF7B6FE 		bl	osalSysUnlock
 862              		.loc 10 259 0
 863 0354 03B0     		add	sp, sp, #12
 864              		.cfi_def_cfa_offset 4
 865              		@ sp needed
 866 0356 5DF804FB 		ldr	pc, [sp], #4
 867              		.cfi_endproc
 868              	.LFE285:
 869              		.size	ibqReleaseEmptyBuffer, .-ibqReleaseEmptyBuffer
 870 035a 00BF     		.align	2
 871 035c AFF30080 		.p2align 4,,15
 872              		.global	ibqReleaseEmptyBufferS
 873              		.thumb
 874              		.thumb_func
 875              		.type	ibqReleaseEmptyBufferS, %function
 876              	ibqReleaseEmptyBufferS:
 877              	.LFB286:
 878              		.loc 10 269 0
 879              		.cfi_startproc
 880              		@ args = 0, pretend = 0, frame = 8
 881              		@ frame_needed = 0, uses_anonymous_args = 0
 882 0360 00B5     		push	{lr}
 883              		.cfi_def_cfa_offset 4
 884              		.cfi_offset 14, -4
 885 0362 83B0     		sub	sp, sp, #12
 886              		.cfi_def_cfa_offset 16
 887 0364 0190     		str	r0, [sp, #4]
 888              		.loc 10 275 0
 889 0366 019B     		ldr	r3, [sp, #4]
 890 0368 DB68     		ldr	r3, [r3, #12]
 891 036a 5A1E     		subs	r2, r3, #1
 892 036c 019B     		ldr	r3, [sp, #4]
 893 036e DA60     		str	r2, [r3, #12]
 894              		.loc 10 276 0
 895 0370 019B     		ldr	r3, [sp, #4]
 896 0372 5A69     		ldr	r2, [r3, #20]
ARM GAS  /tmp/cc9hywgG.s 			page 17


 897 0374 019B     		ldr	r3, [sp, #4]
 898 0376 DB69     		ldr	r3, [r3, #28]
 899 0378 1A44     		add	r2, r2, r3
 900 037a 019B     		ldr	r3, [sp, #4]
 901 037c 5A61     		str	r2, [r3, #20]
 902              		.loc 10 277 0
 903 037e 019B     		ldr	r3, [sp, #4]
 904 0380 5A69     		ldr	r2, [r3, #20]
 905 0382 019B     		ldr	r3, [sp, #4]
 906 0384 9B69     		ldr	r3, [r3, #24]
 907 0386 9A42     		cmp	r2, r3
 908 0388 03D3     		bcc	.L40
 909              		.loc 10 278 0
 910 038a 019B     		ldr	r3, [sp, #4]
 911 038c 5A6A     		ldr	r2, [r3, #36]
 912 038e 019B     		ldr	r3, [sp, #4]
 913 0390 5A61     		str	r2, [r3, #20]
 914              	.L40:
 915              		.loc 10 282 0
 916 0392 019B     		ldr	r3, [sp, #4]
 917 0394 0022     		movs	r2, #0
 918 0396 9A62     		str	r2, [r3, #40]
 919              		.loc 10 285 0
 920 0398 019B     		ldr	r3, [sp, #4]
 921 039a 1B6B     		ldr	r3, [r3, #48]
 922 039c 002B     		cmp	r3, #0
 923 039e 03D0     		beq	.L39
 924              		.loc 10 286 0
 925 03a0 019B     		ldr	r3, [sp, #4]
 926 03a2 1B6B     		ldr	r3, [r3, #48]
 927 03a4 0198     		ldr	r0, [sp, #4]
 928 03a6 9847     		blx	r3
 929              	.L39:
 930              		.loc 10 288 0
 931 03a8 03B0     		add	sp, sp, #12
 932              		.cfi_def_cfa_offset 4
 933              		@ sp needed
 934 03aa 5DF804FB 		ldr	pc, [sp], #4
 935              		.cfi_endproc
 936              	.LFE286:
 937              		.size	ibqReleaseEmptyBufferS, .-ibqReleaseEmptyBufferS
 938 03ae 00BF     		.align	2
 939              		.p2align 4,,15
 940              		.global	ibqGetTimeout
 941              		.thumb
 942              		.thumb_func
 943              		.type	ibqGetTimeout, %function
 944              	ibqGetTimeout:
 945              	.LFB287:
 946              		.loc 10 309 0
 947              		.cfi_startproc
 948              		@ args = 0, pretend = 0, frame = 16
 949              		@ frame_needed = 0, uses_anonymous_args = 0
 950 03b0 00B5     		push	{lr}
 951              		.cfi_def_cfa_offset 4
 952              		.cfi_offset 14, -4
 953 03b2 85B0     		sub	sp, sp, #20
ARM GAS  /tmp/cc9hywgG.s 			page 18


 954              		.cfi_def_cfa_offset 24
 955 03b4 0190     		str	r0, [sp, #4]
 956 03b6 0091     		str	r1, [sp]
 957              		.loc 10 312 0
 958 03b8 FFF77AFE 		bl	osalSysLock
 959              		.loc 10 315 0
 960 03bc 019B     		ldr	r3, [sp, #4]
 961 03be 9B6A     		ldr	r3, [r3, #40]
 962 03c0 002B     		cmp	r3, #0
 963 03c2 0BD1     		bne	.L43
 964              		.loc 10 316 0
 965 03c4 0198     		ldr	r0, [sp, #4]
 966 03c6 0099     		ldr	r1, [sp]
 967 03c8 FFF7FEFF 		bl	ibqGetFullBufferTimeoutS
 968 03cc 0390     		str	r0, [sp, #12]
 969              		.loc 10 317 0
 970 03ce 039B     		ldr	r3, [sp, #12]
 971 03d0 002B     		cmp	r3, #0
 972 03d2 03D0     		beq	.L43
 973              		.loc 10 318 0
 974 03d4 FFF774FE 		bl	osalSysUnlock
 975              		.loc 10 319 0
 976 03d8 039B     		ldr	r3, [sp, #12]
 977 03da 14E0     		b	.L44
 978              	.L43:
 979              		.loc 10 324 0
 980 03dc 019B     		ldr	r3, [sp, #4]
 981 03de 9B6A     		ldr	r3, [r3, #40]
 982 03e0 1B78     		ldrb	r3, [r3]	@ zero_extendqisi2
 983 03e2 0393     		str	r3, [sp, #12]
 984              		.loc 10 325 0
 985 03e4 019B     		ldr	r3, [sp, #4]
 986 03e6 9B6A     		ldr	r3, [r3, #40]
 987 03e8 5A1C     		adds	r2, r3, #1
 988 03ea 019B     		ldr	r3, [sp, #4]
 989 03ec 9A62     		str	r2, [r3, #40]
 990              		.loc 10 329 0
 991 03ee 019B     		ldr	r3, [sp, #4]
 992 03f0 9A6A     		ldr	r2, [r3, #40]
 993 03f2 019B     		ldr	r3, [sp, #4]
 994 03f4 DB6A     		ldr	r3, [r3, #44]
 995 03f6 9A42     		cmp	r2, r3
 996 03f8 02D3     		bcc	.L45
 997              		.loc 10 330 0
 998 03fa 0198     		ldr	r0, [sp, #4]
 999 03fc FFF7FEFF 		bl	ibqReleaseEmptyBufferS
 1000              	.L45:
 1001              		.loc 10 333 0
 1002 0400 FFF75EFE 		bl	osalSysUnlock
 1003              		.loc 10 334 0
 1004 0404 039B     		ldr	r3, [sp, #12]
 1005              	.L44:
 1006              		.loc 10 335 0
 1007 0406 1846     		mov	r0, r3
 1008 0408 05B0     		add	sp, sp, #20
 1009              		.cfi_def_cfa_offset 4
 1010              		@ sp needed
ARM GAS  /tmp/cc9hywgG.s 			page 19


 1011 040a 5DF804FB 		ldr	pc, [sp], #4
 1012              		.cfi_endproc
 1013              	.LFE287:
 1014              		.size	ibqGetTimeout, .-ibqGetTimeout
 1015 040e 00BF     		.align	2
 1016              		.p2align 4,,15
 1017              		.global	ibqReadTimeout
 1018              		.thumb
 1019              		.thumb_func
 1020              		.type	ibqReadTimeout, %function
 1021              	ibqReadTimeout:
 1022              	.LFB288:
 1023              		.loc 10 359 0
 1024              		.cfi_startproc
 1025              		@ args = 0, pretend = 0, frame = 40
 1026              		@ frame_needed = 0, uses_anonymous_args = 0
 1027 0410 00B5     		push	{lr}
 1028              		.cfi_def_cfa_offset 4
 1029              		.cfi_offset 14, -4
 1030 0412 8BB0     		sub	sp, sp, #44
 1031              		.cfi_def_cfa_offset 48
 1032 0414 0390     		str	r0, [sp, #12]
 1033 0416 0291     		str	r1, [sp, #8]
 1034 0418 0192     		str	r2, [sp, #4]
 1035 041a 0093     		str	r3, [sp]
 1036              		.loc 10 360 0
 1037 041c 0023     		movs	r3, #0
 1038 041e 0993     		str	r3, [sp, #36]
 1039              		.loc 10 365 0
 1040 0420 FFF746FE 		bl	osalSysLock
 1041              		.loc 10 368 0
 1042 0424 FFF754FE 		bl	osalOsGetSystemTimeX
 1043 0428 0246     		mov	r2, r0
 1044 042a 009B     		ldr	r3, [sp]
 1045 042c 1344     		add	r3, r3, r2
 1046 042e 0693     		str	r3, [sp, #24]
 1047              	.L58:
 1048              	.LBB11:
 1049              		.loc 10 374 0
 1050 0430 039B     		ldr	r3, [sp, #12]
 1051 0432 9B6A     		ldr	r3, [r3, #40]
 1052 0434 002B     		cmp	r3, #0
 1053 0436 26D1     		bne	.L47
 1054              	.LBB12:
 1055              		.loc 10 379 0
 1056 0438 009B     		ldr	r3, [sp]
 1057 043a B3F1FF3F 		cmp	r3, #-1
 1058 043e 02D0     		beq	.L48
 1059              		.loc 10 379 0 is_stmt 0 discriminator 1
 1060 0440 009B     		ldr	r3, [sp]
 1061 0442 002B     		cmp	r3, #0
 1062 0444 05D1     		bne	.L49
 1063              	.L48:
 1064              		.loc 10 380 0 is_stmt 1
 1065 0446 0398     		ldr	r0, [sp, #12]
 1066 0448 0099     		ldr	r1, [sp]
 1067 044a FFF7FEFF 		bl	ibqGetFullBufferTimeoutS
ARM GAS  /tmp/cc9hywgG.s 			page 20


 1068 044e 0790     		str	r0, [sp, #28]
 1069 0450 12E0     		b	.L50
 1070              	.L49:
 1071              	.LBB13:
 1072              		.loc 10 383 0
 1073 0452 FFF73DFE 		bl	osalOsGetSystemTimeX
 1074 0456 0246     		mov	r2, r0
 1075 0458 069B     		ldr	r3, [sp, #24]
 1076 045a 9B1A     		subs	r3, r3, r2
 1077 045c 0593     		str	r3, [sp, #20]
 1078              		.loc 10 388 0
 1079 045e 059A     		ldr	r2, [sp, #20]
 1080 0460 009B     		ldr	r3, [sp]
 1081 0462 9A42     		cmp	r2, r3
 1082 0464 03D9     		bls	.L51
 1083              		.loc 10 389 0
 1084 0466 FFF72BFE 		bl	osalSysUnlock
 1085              		.loc 10 390 0
 1086 046a 099B     		ldr	r3, [sp, #36]
 1087 046c 5CE0     		b	.L52
 1088              	.L51:
 1089              		.loc 10 392 0
 1090 046e 0398     		ldr	r0, [sp, #12]
 1091 0470 0599     		ldr	r1, [sp, #20]
 1092 0472 FFF7FEFF 		bl	ibqGetFullBufferTimeoutS
 1093 0476 0790     		str	r0, [sp, #28]
 1094              	.L50:
 1095              	.LBE13:
 1096              		.loc 10 396 0
 1097 0478 079B     		ldr	r3, [sp, #28]
 1098 047a 002B     		cmp	r3, #0
 1099 047c 03D0     		beq	.L47
 1100              		.loc 10 397 0
 1101 047e FFF71FFE 		bl	osalSysUnlock
 1102              		.loc 10 398 0
 1103 0482 099B     		ldr	r3, [sp, #36]
 1104 0484 50E0     		b	.L52
 1105              	.L47:
 1106              	.LBE12:
 1107              		.loc 10 403 0
 1108 0486 039B     		ldr	r3, [sp, #12]
 1109 0488 DB6A     		ldr	r3, [r3, #44]
 1110 048a 1A46     		mov	r2, r3
 1111 048c 039B     		ldr	r3, [sp, #12]
 1112 048e 9B6A     		ldr	r3, [r3, #40]
 1113 0490 D31A     		subs	r3, r2, r3
 1114 0492 0893     		str	r3, [sp, #32]
 1115              		.loc 10 404 0
 1116 0494 019A     		ldr	r2, [sp, #4]
 1117 0496 099B     		ldr	r3, [sp, #36]
 1118 0498 D21A     		subs	r2, r2, r3
 1119 049a 089B     		ldr	r3, [sp, #32]
 1120 049c 9A42     		cmp	r2, r3
 1121 049e 03D2     		bcs	.L53
 1122              		.loc 10 405 0
 1123 04a0 019A     		ldr	r2, [sp, #4]
 1124 04a2 099B     		ldr	r3, [sp, #36]
ARM GAS  /tmp/cc9hywgG.s 			page 21


 1125 04a4 D31A     		subs	r3, r2, r3
 1126 04a6 0893     		str	r3, [sp, #32]
 1127              	.L53:
 1128              		.loc 10 410 0
 1129 04a8 089B     		ldr	r3, [sp, #32]
 1130 04aa 402B     		cmp	r3, #64
 1131 04ac 13D9     		bls	.L54
 1132              		.loc 10 412 0
 1133 04ae 039B     		ldr	r3, [sp, #12]
 1134 04b0 9B6A     		ldr	r3, [r3, #40]
 1135 04b2 0298     		ldr	r0, [sp, #8]
 1136 04b4 1946     		mov	r1, r3
 1137 04b6 4022     		movs	r2, #64
 1138 04b8 FFF7FEFF 		bl	memcpy
 1139              		.loc 10 413 0
 1140 04bc 029B     		ldr	r3, [sp, #8]
 1141 04be 4033     		adds	r3, r3, #64
 1142 04c0 0293     		str	r3, [sp, #8]
 1143              		.loc 10 414 0
 1144 04c2 039B     		ldr	r3, [sp, #12]
 1145 04c4 9B6A     		ldr	r3, [r3, #40]
 1146 04c6 03F14002 		add	r2, r3, #64
 1147 04ca 039B     		ldr	r3, [sp, #12]
 1148 04cc 9A62     		str	r2, [r3, #40]
 1149              		.loc 10 415 0
 1150 04ce 099B     		ldr	r3, [sp, #36]
 1151 04d0 4033     		adds	r3, r3, #64
 1152 04d2 0993     		str	r3, [sp, #36]
 1153 04d4 14E0     		b	.L55
 1154              	.L54:
 1155              		.loc 10 418 0
 1156 04d6 039B     		ldr	r3, [sp, #12]
 1157 04d8 9B6A     		ldr	r3, [r3, #40]
 1158 04da 0298     		ldr	r0, [sp, #8]
 1159 04dc 1946     		mov	r1, r3
 1160 04de 089A     		ldr	r2, [sp, #32]
 1161 04e0 FFF7FEFF 		bl	memcpy
 1162              		.loc 10 419 0
 1163 04e4 029A     		ldr	r2, [sp, #8]
 1164 04e6 089B     		ldr	r3, [sp, #32]
 1165 04e8 1344     		add	r3, r3, r2
 1166 04ea 0293     		str	r3, [sp, #8]
 1167              		.loc 10 420 0
 1168 04ec 039B     		ldr	r3, [sp, #12]
 1169 04ee 9A6A     		ldr	r2, [r3, #40]
 1170 04f0 089B     		ldr	r3, [sp, #32]
 1171 04f2 1A44     		add	r2, r2, r3
 1172 04f4 039B     		ldr	r3, [sp, #12]
 1173 04f6 9A62     		str	r2, [r3, #40]
 1174              		.loc 10 421 0
 1175 04f8 099A     		ldr	r2, [sp, #36]
 1176 04fa 089B     		ldr	r3, [sp, #32]
 1177 04fc 1344     		add	r3, r3, r2
 1178 04fe 0993     		str	r3, [sp, #36]
 1179              	.L55:
 1180              		.loc 10 425 0
 1181 0500 039B     		ldr	r3, [sp, #12]
ARM GAS  /tmp/cc9hywgG.s 			page 22


 1182 0502 9A6A     		ldr	r2, [r3, #40]
 1183 0504 039B     		ldr	r3, [sp, #12]
 1184 0506 DB6A     		ldr	r3, [r3, #44]
 1185 0508 9A42     		cmp	r2, r3
 1186 050a 02D3     		bcc	.L56
 1187              		.loc 10 426 0
 1188 050c 0398     		ldr	r0, [sp, #12]
 1189 050e FFF7FEFF 		bl	ibqReleaseEmptyBufferS
 1190              	.L56:
 1191              		.loc 10 430 0
 1192 0512 FFF7D5FD 		bl	osalSysUnlock
 1193              		.loc 10 431 0
 1194 0516 099A     		ldr	r2, [sp, #36]
 1195 0518 019B     		ldr	r3, [sp, #4]
 1196 051a 9A42     		cmp	r2, r3
 1197 051c 01D3     		bcc	.L57
 1198              		.loc 10 432 0
 1199 051e 099B     		ldr	r3, [sp, #36]
 1200 0520 02E0     		b	.L52
 1201              	.L57:
 1202              		.loc 10 434 0
 1203 0522 FFF7C5FD 		bl	osalSysLock
 1204              	.LBE11:
 1205              		.loc 10 435 0
 1206 0526 83E7     		b	.L58
 1207              	.L52:
 1208              		.loc 10 436 0
 1209 0528 1846     		mov	r0, r3
 1210 052a 0BB0     		add	sp, sp, #44
 1211              		.cfi_def_cfa_offset 4
 1212              		@ sp needed
 1213 052c 5DF804FB 		ldr	pc, [sp], #4
 1214              		.cfi_endproc
 1215              	.LFE288:
 1216              		.size	ibqReadTimeout, .-ibqReadTimeout
 1217              		.align	2
 1218              		.p2align 4,,15
 1219              		.global	obqObjectInit
 1220              		.thumb
 1221              		.thumb_func
 1222              		.type	obqObjectInit, %function
 1223              	obqObjectInit:
 1224              	.LFB289:
 1225              		.loc 10 452 0
 1226              		.cfi_startproc
 1227              		@ args = 12, pretend = 0, frame = 16
 1228              		@ frame_needed = 0, uses_anonymous_args = 0
 1229 0530 00B5     		push	{lr}
 1230              		.cfi_def_cfa_offset 4
 1231              		.cfi_offset 14, -4
 1232 0532 85B0     		sub	sp, sp, #20
 1233              		.cfi_def_cfa_offset 24
 1234 0534 0390     		str	r0, [sp, #12]
 1235 0536 0192     		str	r2, [sp, #4]
 1236 0538 0093     		str	r3, [sp]
 1237 053a 0B46     		mov	r3, r1
 1238 053c 8DF80B30 		strb	r3, [sp, #11]
ARM GAS  /tmp/cc9hywgG.s 			page 23


 1239              		.loc 10 456 0
 1240 0540 039B     		ldr	r3, [sp, #12]
 1241 0542 1846     		mov	r0, r3
 1242 0544 FFF7CCFD 		bl	osalThreadQueueObjectInit
 1243              		.loc 10 457 0
 1244 0548 039B     		ldr	r3, [sp, #12]
 1245 054a 9DF80B20 		ldrb	r2, [sp, #11]
 1246 054e 1A72     		strb	r2, [r3, #8]
 1247              		.loc 10 458 0
 1248 0550 039B     		ldr	r3, [sp, #12]
 1249 0552 069A     		ldr	r2, [sp, #24]
 1250 0554 DA60     		str	r2, [r3, #12]
 1251              		.loc 10 459 0
 1252 0556 039B     		ldr	r3, [sp, #12]
 1253 0558 019A     		ldr	r2, [sp, #4]
 1254 055a 5A61     		str	r2, [r3, #20]
 1255              		.loc 10 460 0
 1256 055c 039B     		ldr	r3, [sp, #12]
 1257 055e 019A     		ldr	r2, [sp, #4]
 1258 0560 1A61     		str	r2, [r3, #16]
 1259              		.loc 10 461 0
 1260 0562 009B     		ldr	r3, [sp]
 1261 0564 0433     		adds	r3, r3, #4
 1262 0566 069A     		ldr	r2, [sp, #24]
 1263 0568 02FB03F3 		mul	r3, r2, r3
 1264 056c 019A     		ldr	r2, [sp, #4]
 1265 056e 1A44     		add	r2, r2, r3
 1266 0570 039B     		ldr	r3, [sp, #12]
 1267 0572 9A61     		str	r2, [r3, #24]
 1268              		.loc 10 462 0
 1269 0574 009B     		ldr	r3, [sp]
 1270 0576 1A1D     		adds	r2, r3, #4
 1271 0578 039B     		ldr	r3, [sp, #12]
 1272 057a DA61     		str	r2, [r3, #28]
 1273              		.loc 10 463 0
 1274 057c 039B     		ldr	r3, [sp, #12]
 1275 057e 069A     		ldr	r2, [sp, #24]
 1276 0580 1A62     		str	r2, [r3, #32]
 1277              		.loc 10 464 0
 1278 0582 039B     		ldr	r3, [sp, #12]
 1279 0584 019A     		ldr	r2, [sp, #4]
 1280 0586 5A62     		str	r2, [r3, #36]
 1281              		.loc 10 465 0
 1282 0588 039B     		ldr	r3, [sp, #12]
 1283 058a 0022     		movs	r2, #0
 1284 058c 9A62     		str	r2, [r3, #40]
 1285              		.loc 10 466 0
 1286 058e 039B     		ldr	r3, [sp, #12]
 1287 0590 0022     		movs	r2, #0
 1288 0592 DA62     		str	r2, [r3, #44]
 1289              		.loc 10 467 0
 1290 0594 039B     		ldr	r3, [sp, #12]
 1291 0596 079A     		ldr	r2, [sp, #28]
 1292 0598 1A63     		str	r2, [r3, #48]
 1293              		.loc 10 468 0
 1294 059a 039B     		ldr	r3, [sp, #12]
 1295 059c 089A     		ldr	r2, [sp, #32]
ARM GAS  /tmp/cc9hywgG.s 			page 24


 1296 059e 5A63     		str	r2, [r3, #52]
 1297              		.loc 10 469 0
 1298 05a0 05B0     		add	sp, sp, #20
 1299              		.cfi_def_cfa_offset 4
 1300              		@ sp needed
 1301 05a2 5DF804FB 		ldr	pc, [sp], #4
 1302              		.cfi_endproc
 1303              	.LFE289:
 1304              		.size	obqObjectInit, .-obqObjectInit
 1305 05a6 00BF     		.align	2
 1306 05a8 AFF30080 		.p2align 4,,15
 1306      AFF30080 
 1307              		.global	obqResetI
 1308              		.thumb
 1309              		.thumb_func
 1310              		.type	obqResetI, %function
 1311              	obqResetI:
 1312              	.LFB290:
 1313              		.loc 10 482 0
 1314              		.cfi_startproc
 1315              		@ args = 0, pretend = 0, frame = 8
 1316              		@ frame_needed = 0, uses_anonymous_args = 0
 1317 05b0 00B5     		push	{lr}
 1318              		.cfi_def_cfa_offset 4
 1319              		.cfi_offset 14, -4
 1320 05b2 83B0     		sub	sp, sp, #12
 1321              		.cfi_def_cfa_offset 16
 1322 05b4 0190     		str	r0, [sp, #4]
 1323              		.loc 10 486 0
 1324 05b6 019B     		ldr	r3, [sp, #4]
 1325 05b8 1A6A     		ldr	r2, [r3, #32]
 1326 05ba 019B     		ldr	r3, [sp, #4]
 1327 05bc DA60     		str	r2, [r3, #12]
 1328              		.loc 10 487 0
 1329 05be 019B     		ldr	r3, [sp, #4]
 1330 05c0 5A6A     		ldr	r2, [r3, #36]
 1331 05c2 019B     		ldr	r3, [sp, #4]
 1332 05c4 5A61     		str	r2, [r3, #20]
 1333              		.loc 10 488 0
 1334 05c6 019B     		ldr	r3, [sp, #4]
 1335 05c8 5A6A     		ldr	r2, [r3, #36]
 1336 05ca 019B     		ldr	r3, [sp, #4]
 1337 05cc 1A61     		str	r2, [r3, #16]
 1338              		.loc 10 489 0
 1339 05ce 019B     		ldr	r3, [sp, #4]
 1340 05d0 0022     		movs	r2, #0
 1341 05d2 9A62     		str	r2, [r3, #40]
 1342              		.loc 10 490 0
 1343 05d4 019B     		ldr	r3, [sp, #4]
 1344 05d6 0022     		movs	r2, #0
 1345 05d8 DA62     		str	r2, [r3, #44]
 1346              		.loc 10 491 0
 1347 05da 019B     		ldr	r3, [sp, #4]
 1348 05dc 1846     		mov	r0, r3
 1349 05de 6FF00101 		mvn	r1, #1
 1350 05e2 FFF7ADFD 		bl	osalThreadDequeueAllI
 1351              		.loc 10 492 0
ARM GAS  /tmp/cc9hywgG.s 			page 25


 1352 05e6 03B0     		add	sp, sp, #12
 1353              		.cfi_def_cfa_offset 4
 1354              		@ sp needed
 1355 05e8 5DF804FB 		ldr	pc, [sp], #4
 1356              		.cfi_endproc
 1357              	.LFE290:
 1358              		.size	obqResetI, .-obqResetI
 1359              		.align	2
 1360 05ec AFF30080 		.p2align 4,,15
 1361              		.global	obqGetFullBufferI
 1362              		.thumb
 1363              		.thumb_func
 1364              		.type	obqGetFullBufferI, %function
 1365              	obqGetFullBufferI:
 1366              	.LFB291:
 1367              		.loc 10 506 0
 1368              		.cfi_startproc
 1369              		@ args = 0, pretend = 0, frame = 8
 1370              		@ frame_needed = 0, uses_anonymous_args = 0
 1371              		@ link register save eliminated.
 1372 05f0 82B0     		sub	sp, sp, #8
 1373              		.cfi_def_cfa_offset 8
 1374 05f2 0190     		str	r0, [sp, #4]
 1375 05f4 0091     		str	r1, [sp]
 1376              		.loc 10 510 0
 1377 05f6 019B     		ldr	r3, [sp, #4]
 1378 05f8 1A69     		ldr	r2, [r3, #16]
 1379 05fa 019B     		ldr	r3, [sp, #4]
 1380 05fc 5B69     		ldr	r3, [r3, #20]
 1381 05fe 9A42     		cmp	r2, r3
 1382 0600 05D1     		bne	.L62
 1383              		.loc 10 510 0 is_stmt 0 discriminator 1
 1384 0602 019B     		ldr	r3, [sp, #4]
 1385 0604 DB68     		ldr	r3, [r3, #12]
 1386 0606 002B     		cmp	r3, #0
 1387 0608 01D0     		beq	.L62
 1388              		.loc 10 510 0 discriminator 3
 1389 060a 0123     		movs	r3, #1
 1390 060c 00E0     		b	.L63
 1391              	.L62:
 1392              		.loc 10 510 0 discriminator 4
 1393 060e 0023     		movs	r3, #0
 1394              	.L63:
 1395              		.loc 10 510 0 discriminator 6
 1396 0610 03F00103 		and	r3, r3, #1
 1397 0614 DBB2     		uxtb	r3, r3
 1398 0616 002B     		cmp	r3, #0
 1399 0618 01D0     		beq	.L64
 1400              		.loc 10 511 0 is_stmt 1
 1401 061a 0023     		movs	r3, #0
 1402 061c 07E0     		b	.L65
 1403              	.L64:
 1404              		.loc 10 515 0
 1405 061e 019B     		ldr	r3, [sp, #4]
 1406 0620 5B69     		ldr	r3, [r3, #20]
 1407 0622 1A68     		ldr	r2, [r3]
 1408 0624 009B     		ldr	r3, [sp]
ARM GAS  /tmp/cc9hywgG.s 			page 26


 1409 0626 1A60     		str	r2, [r3]
 1410              		.loc 10 517 0
 1411 0628 019B     		ldr	r3, [sp, #4]
 1412 062a 5B69     		ldr	r3, [r3, #20]
 1413 062c 0433     		adds	r3, r3, #4
 1414              	.L65:
 1415              		.loc 10 518 0
 1416 062e 1846     		mov	r0, r3
 1417 0630 02B0     		add	sp, sp, #8
 1418              		.cfi_def_cfa_offset 0
 1419              		@ sp needed
 1420 0632 7047     		bx	lr
 1421              		.cfi_endproc
 1422              	.LFE291:
 1423              		.size	obqGetFullBufferI, .-obqGetFullBufferI
 1424              		.align	2
 1425 0634 AFF30080 		.p2align 4,,15
 1425      AFF30080 
 1425      AFF30080 
 1426              		.global	obqReleaseEmptyBufferI
 1427              		.thumb
 1428              		.thumb_func
 1429              		.type	obqReleaseEmptyBufferI, %function
 1430              	obqReleaseEmptyBufferI:
 1431              	.LFB292:
 1432              		.loc 10 527 0
 1433              		.cfi_startproc
 1434              		@ args = 0, pretend = 0, frame = 8
 1435              		@ frame_needed = 0, uses_anonymous_args = 0
 1436 0640 00B5     		push	{lr}
 1437              		.cfi_def_cfa_offset 4
 1438              		.cfi_offset 14, -4
 1439 0642 83B0     		sub	sp, sp, #12
 1440              		.cfi_def_cfa_offset 16
 1441 0644 0190     		str	r0, [sp, #4]
 1442              		.loc 10 533 0
 1443 0646 019B     		ldr	r3, [sp, #4]
 1444 0648 DB68     		ldr	r3, [r3, #12]
 1445 064a 5A1C     		adds	r2, r3, #1
 1446 064c 019B     		ldr	r3, [sp, #4]
 1447 064e DA60     		str	r2, [r3, #12]
 1448              		.loc 10 534 0
 1449 0650 019B     		ldr	r3, [sp, #4]
 1450 0652 5A69     		ldr	r2, [r3, #20]
 1451 0654 019B     		ldr	r3, [sp, #4]
 1452 0656 DB69     		ldr	r3, [r3, #28]
 1453 0658 1A44     		add	r2, r2, r3
 1454 065a 019B     		ldr	r3, [sp, #4]
 1455 065c 5A61     		str	r2, [r3, #20]
 1456              		.loc 10 535 0
 1457 065e 019B     		ldr	r3, [sp, #4]
 1458 0660 5A69     		ldr	r2, [r3, #20]
 1459 0662 019B     		ldr	r3, [sp, #4]
 1460 0664 9B69     		ldr	r3, [r3, #24]
 1461 0666 9A42     		cmp	r2, r3
 1462 0668 03D3     		bcc	.L67
 1463              		.loc 10 536 0
ARM GAS  /tmp/cc9hywgG.s 			page 27


 1464 066a 019B     		ldr	r3, [sp, #4]
 1465 066c 5A6A     		ldr	r2, [r3, #36]
 1466 066e 019B     		ldr	r3, [sp, #4]
 1467 0670 5A61     		str	r2, [r3, #20]
 1468              	.L67:
 1469              		.loc 10 540 0
 1470 0672 019B     		ldr	r3, [sp, #4]
 1471 0674 1846     		mov	r0, r3
 1472 0676 0021     		movs	r1, #0
 1473 0678 FFF752FD 		bl	osalThreadDequeueNextI
 1474              		.loc 10 541 0
 1475 067c 03B0     		add	sp, sp, #12
 1476              		.cfi_def_cfa_offset 4
 1477              		@ sp needed
 1478 067e 5DF804FB 		ldr	pc, [sp], #4
 1479              		.cfi_endproc
 1480              	.LFE292:
 1481              		.size	obqReleaseEmptyBufferI, .-obqReleaseEmptyBufferI
 1482 0682 00BF     		.align	2
 1483 0684 AFF30080 		.p2align 4,,15
 1483      AFF30080 
 1483      AFF30080 
 1484              		.global	obqGetEmptyBufferTimeout
 1485              		.thumb
 1486              		.thumb_func
 1487              		.type	obqGetEmptyBufferTimeout, %function
 1488              	obqGetEmptyBufferTimeout:
 1489              	.LFB293:
 1490              		.loc 10 565 0
 1491              		.cfi_startproc
 1492              		@ args = 0, pretend = 0, frame = 16
 1493              		@ frame_needed = 0, uses_anonymous_args = 0
 1494 0690 00B5     		push	{lr}
 1495              		.cfi_def_cfa_offset 4
 1496              		.cfi_offset 14, -4
 1497 0692 85B0     		sub	sp, sp, #20
 1498              		.cfi_def_cfa_offset 24
 1499 0694 0190     		str	r0, [sp, #4]
 1500 0696 0091     		str	r1, [sp]
 1501              		.loc 10 568 0
 1502 0698 FFF70AFD 		bl	osalSysLock
 1503              		.loc 10 569 0
 1504 069c 0198     		ldr	r0, [sp, #4]
 1505 069e 0099     		ldr	r1, [sp]
 1506 06a0 FFF7FEFF 		bl	obqGetEmptyBufferTimeoutS
 1507 06a4 0390     		str	r0, [sp, #12]
 1508              		.loc 10 570 0
 1509 06a6 FFF70BFD 		bl	osalSysUnlock
 1510              		.loc 10 572 0
 1511 06aa 039B     		ldr	r3, [sp, #12]
 1512              		.loc 10 573 0
 1513 06ac 1846     		mov	r0, r3
 1514 06ae 05B0     		add	sp, sp, #20
 1515              		.cfi_def_cfa_offset 4
 1516              		@ sp needed
 1517 06b0 5DF804FB 		ldr	pc, [sp], #4
 1518              		.cfi_endproc
ARM GAS  /tmp/cc9hywgG.s 			page 28


 1519              	.LFE293:
 1520              		.size	obqGetEmptyBufferTimeout, .-obqGetEmptyBufferTimeout
 1521              		.align	2
 1522 06b4 AFF30080 		.p2align 4,,15
 1522      AFF30080 
 1522      AFF30080 
 1523              		.global	obqGetEmptyBufferTimeoutS
 1524              		.thumb
 1525              		.thumb_func
 1526              		.type	obqGetEmptyBufferTimeoutS, %function
 1527              	obqGetEmptyBufferTimeoutS:
 1528              	.LFB294:
 1529              		.loc 10 597 0
 1530              		.cfi_startproc
 1531              		@ args = 0, pretend = 0, frame = 16
 1532              		@ frame_needed = 0, uses_anonymous_args = 0
 1533 06c0 00B5     		push	{lr}
 1534              		.cfi_def_cfa_offset 4
 1535              		.cfi_offset 14, -4
 1536 06c2 85B0     		sub	sp, sp, #20
 1537              		.cfi_def_cfa_offset 24
 1538 06c4 0190     		str	r0, [sp, #4]
 1539 06c6 0091     		str	r1, [sp]
 1540              		.loc 10 601 0
 1541 06c8 11E0     		b	.L71
 1542              	.L74:
 1543              	.LBB14:
 1544              		.loc 10 602 0
 1545 06ca 019B     		ldr	r3, [sp, #4]
 1546 06cc 1B7A     		ldrb	r3, [r3, #8]	@ zero_extendqisi2
 1547 06ce 002B     		cmp	r3, #0
 1548 06d0 02D0     		beq	.L72
 1549              		.loc 10 603 0
 1550 06d2 6FF00103 		mvn	r3, #1
 1551 06d6 1BE0     		b	.L73
 1552              	.L72:
 1553              		.loc 10 605 0
 1554 06d8 019B     		ldr	r3, [sp, #4]
 1555 06da 1846     		mov	r0, r3
 1556 06dc 0099     		ldr	r1, [sp]
 1557 06de FFF70FFD 		bl	osalThreadEnqueueTimeoutS
 1558 06e2 0390     		str	r0, [sp, #12]
 1559              		.loc 10 606 0
 1560 06e4 039B     		ldr	r3, [sp, #12]
 1561 06e6 002B     		cmp	r3, #0
 1562 06e8 01DA     		bge	.L71
 1563              		.loc 10 607 0
 1564 06ea 039B     		ldr	r3, [sp, #12]
 1565 06ec 10E0     		b	.L73
 1566              	.L71:
 1567              	.LBE14:
 1568              		.loc 10 601 0
 1569 06ee 019B     		ldr	r3, [sp, #4]
 1570 06f0 DB68     		ldr	r3, [r3, #12]
 1571 06f2 002B     		cmp	r3, #0
 1572 06f4 E9D0     		beq	.L74
 1573              		.loc 10 614 0
ARM GAS  /tmp/cc9hywgG.s 			page 29


 1574 06f6 019B     		ldr	r3, [sp, #4]
 1575 06f8 1B69     		ldr	r3, [r3, #16]
 1576 06fa 1A1D     		adds	r2, r3, #4
 1577 06fc 019B     		ldr	r3, [sp, #4]
 1578 06fe 9A62     		str	r2, [r3, #40]
 1579              		.loc 10 615 0
 1580 0700 019B     		ldr	r3, [sp, #4]
 1581 0702 1A69     		ldr	r2, [r3, #16]
 1582 0704 019B     		ldr	r3, [sp, #4]
 1583 0706 DB69     		ldr	r3, [r3, #28]
 1584 0708 1A44     		add	r2, r2, r3
 1585 070a 019B     		ldr	r3, [sp, #4]
 1586 070c DA62     		str	r2, [r3, #44]
 1587              		.loc 10 617 0
 1588 070e 0023     		movs	r3, #0
 1589              	.L73:
 1590              		.loc 10 618 0
 1591 0710 1846     		mov	r0, r3
 1592 0712 05B0     		add	sp, sp, #20
 1593              		.cfi_def_cfa_offset 4
 1594              		@ sp needed
 1595 0714 5DF804FB 		ldr	pc, [sp], #4
 1596              		.cfi_endproc
 1597              	.LFE294:
 1598              		.size	obqGetEmptyBufferTimeoutS, .-obqGetEmptyBufferTimeoutS
 1599              		.align	2
 1600 0718 AFF30080 		.p2align 4,,15
 1600      AFF30080 
 1601              		.global	obqPostFullBuffer
 1602              		.thumb
 1603              		.thumb_func
 1604              		.type	obqPostFullBuffer, %function
 1605              	obqPostFullBuffer:
 1606              	.LFB295:
 1607              		.loc 10 629 0
 1608              		.cfi_startproc
 1609              		@ args = 0, pretend = 0, frame = 8
 1610              		@ frame_needed = 0, uses_anonymous_args = 0
 1611 0720 00B5     		push	{lr}
 1612              		.cfi_def_cfa_offset 4
 1613              		.cfi_offset 14, -4
 1614 0722 83B0     		sub	sp, sp, #12
 1615              		.cfi_def_cfa_offset 16
 1616 0724 0190     		str	r0, [sp, #4]
 1617 0726 0091     		str	r1, [sp]
 1618              		.loc 10 631 0
 1619 0728 FFF7C2FC 		bl	osalSysLock
 1620              		.loc 10 632 0
 1621 072c 0198     		ldr	r0, [sp, #4]
 1622 072e 0099     		ldr	r1, [sp]
 1623 0730 FFF7FEFF 		bl	obqPostFullBufferS
 1624              		.loc 10 633 0
 1625 0734 FFF7C4FC 		bl	osalSysUnlock
 1626              		.loc 10 634 0
 1627 0738 03B0     		add	sp, sp, #12
 1628              		.cfi_def_cfa_offset 4
 1629              		@ sp needed
ARM GAS  /tmp/cc9hywgG.s 			page 30


 1630 073a 5DF804FB 		ldr	pc, [sp], #4
 1631              		.cfi_endproc
 1632              	.LFE295:
 1633              		.size	obqPostFullBuffer, .-obqPostFullBuffer
 1634 073e 00BF     		.align	2
 1635              		.p2align 4,,15
 1636              		.global	obqPostFullBufferS
 1637              		.thumb
 1638              		.thumb_func
 1639              		.type	obqPostFullBufferS, %function
 1640              	obqPostFullBufferS:
 1641              	.LFB296:
 1642              		.loc 10 645 0
 1643              		.cfi_startproc
 1644              		@ args = 0, pretend = 0, frame = 8
 1645              		@ frame_needed = 0, uses_anonymous_args = 0
 1646 0740 00B5     		push	{lr}
 1647              		.cfi_def_cfa_offset 4
 1648              		.cfi_offset 14, -4
 1649 0742 83B0     		sub	sp, sp, #12
 1650              		.cfi_def_cfa_offset 16
 1651 0744 0190     		str	r0, [sp, #4]
 1652 0746 0091     		str	r1, [sp]
 1653              		.loc 10 652 0
 1654 0748 019B     		ldr	r3, [sp, #4]
 1655 074a 1B69     		ldr	r3, [r3, #16]
 1656 074c 009A     		ldr	r2, [sp]
 1657 074e 1A60     		str	r2, [r3]
 1658              		.loc 10 655 0
 1659 0750 019B     		ldr	r3, [sp, #4]
 1660 0752 DB68     		ldr	r3, [r3, #12]
 1661 0754 5A1E     		subs	r2, r3, #1
 1662 0756 019B     		ldr	r3, [sp, #4]
 1663 0758 DA60     		str	r2, [r3, #12]
 1664              		.loc 10 656 0
 1665 075a 019B     		ldr	r3, [sp, #4]
 1666 075c 1A69     		ldr	r2, [r3, #16]
 1667 075e 019B     		ldr	r3, [sp, #4]
 1668 0760 DB69     		ldr	r3, [r3, #28]
 1669 0762 1A44     		add	r2, r2, r3
 1670 0764 019B     		ldr	r3, [sp, #4]
 1671 0766 1A61     		str	r2, [r3, #16]
 1672              		.loc 10 657 0
 1673 0768 019B     		ldr	r3, [sp, #4]
 1674 076a 1A69     		ldr	r2, [r3, #16]
 1675 076c 019B     		ldr	r3, [sp, #4]
 1676 076e 9B69     		ldr	r3, [r3, #24]
 1677 0770 9A42     		cmp	r2, r3
 1678 0772 03D3     		bcc	.L77
 1679              		.loc 10 658 0
 1680 0774 019B     		ldr	r3, [sp, #4]
 1681 0776 5A6A     		ldr	r2, [r3, #36]
 1682 0778 019B     		ldr	r3, [sp, #4]
 1683 077a 1A61     		str	r2, [r3, #16]
 1684              	.L77:
 1685              		.loc 10 662 0
 1686 077c 019B     		ldr	r3, [sp, #4]
ARM GAS  /tmp/cc9hywgG.s 			page 31


 1687 077e 0022     		movs	r2, #0
 1688 0780 9A62     		str	r2, [r3, #40]
 1689              		.loc 10 665 0
 1690 0782 019B     		ldr	r3, [sp, #4]
 1691 0784 1B6B     		ldr	r3, [r3, #48]
 1692 0786 002B     		cmp	r3, #0
 1693 0788 03D0     		beq	.L76
 1694              		.loc 10 666 0
 1695 078a 019B     		ldr	r3, [sp, #4]
 1696 078c 1B6B     		ldr	r3, [r3, #48]
 1697 078e 0198     		ldr	r0, [sp, #4]
 1698 0790 9847     		blx	r3
 1699              	.L76:
 1700              		.loc 10 668 0
 1701 0792 03B0     		add	sp, sp, #12
 1702              		.cfi_def_cfa_offset 4
 1703              		@ sp needed
 1704 0794 5DF804FB 		ldr	pc, [sp], #4
 1705              		.cfi_endproc
 1706              	.LFE296:
 1707              		.size	obqPostFullBufferS, .-obqPostFullBufferS
 1708              		.align	2
 1709 0798 AFF30080 		.p2align 4,,15
 1709      AFF30080 
 1710              		.global	obqPutTimeout
 1711              		.thumb
 1712              		.thumb_func
 1713              		.type	obqPutTimeout, %function
 1714              	obqPutTimeout:
 1715              	.LFB297:
 1716              		.loc 10 691 0
 1717              		.cfi_startproc
 1718              		@ args = 0, pretend = 0, frame = 24
 1719              		@ frame_needed = 0, uses_anonymous_args = 0
 1720 07a0 00B5     		push	{lr}
 1721              		.cfi_def_cfa_offset 4
 1722              		.cfi_offset 14, -4
 1723 07a2 87B0     		sub	sp, sp, #28
 1724              		.cfi_def_cfa_offset 32
 1725 07a4 0390     		str	r0, [sp, #12]
 1726 07a6 0B46     		mov	r3, r1
 1727 07a8 0192     		str	r2, [sp, #4]
 1728 07aa 8DF80B30 		strb	r3, [sp, #11]
 1729              		.loc 10 694 0
 1730 07ae FFF77FFC 		bl	osalSysLock
 1731              		.loc 10 697 0
 1732 07b2 039B     		ldr	r3, [sp, #12]
 1733 07b4 9B6A     		ldr	r3, [r3, #40]
 1734 07b6 002B     		cmp	r3, #0
 1735 07b8 0BD1     		bne	.L80
 1736              		.loc 10 698 0
 1737 07ba 0398     		ldr	r0, [sp, #12]
 1738 07bc 0199     		ldr	r1, [sp, #4]
 1739 07be FFF7FEFF 		bl	obqGetEmptyBufferTimeoutS
 1740 07c2 0590     		str	r0, [sp, #20]
 1741              		.loc 10 699 0
 1742 07c4 059B     		ldr	r3, [sp, #20]
ARM GAS  /tmp/cc9hywgG.s 			page 32


 1743 07c6 002B     		cmp	r3, #0
 1744 07c8 03D0     		beq	.L80
 1745              		.loc 10 700 0
 1746 07ca FFF779FC 		bl	osalSysUnlock
 1747              		.loc 10 701 0
 1748 07ce 059B     		ldr	r3, [sp, #20]
 1749 07d0 19E0     		b	.L81
 1750              	.L80:
 1751              		.loc 10 706 0
 1752 07d2 039B     		ldr	r3, [sp, #12]
 1753 07d4 9B6A     		ldr	r3, [r3, #40]
 1754 07d6 9DF80B20 		ldrb	r2, [sp, #11]
 1755 07da 1A70     		strb	r2, [r3]
 1756              		.loc 10 707 0
 1757 07dc 039B     		ldr	r3, [sp, #12]
 1758 07de 9B6A     		ldr	r3, [r3, #40]
 1759 07e0 5A1C     		adds	r2, r3, #1
 1760 07e2 039B     		ldr	r3, [sp, #12]
 1761 07e4 9A62     		str	r2, [r3, #40]
 1762              		.loc 10 711 0
 1763 07e6 039B     		ldr	r3, [sp, #12]
 1764 07e8 9A6A     		ldr	r2, [r3, #40]
 1765 07ea 039B     		ldr	r3, [sp, #12]
 1766 07ec DB6A     		ldr	r3, [r3, #44]
 1767 07ee 9A42     		cmp	r2, r3
 1768 07f0 06D3     		bcc	.L82
 1769              		.loc 10 712 0
 1770 07f2 039B     		ldr	r3, [sp, #12]
 1771 07f4 DB69     		ldr	r3, [r3, #28]
 1772 07f6 043B     		subs	r3, r3, #4
 1773 07f8 0398     		ldr	r0, [sp, #12]
 1774 07fa 1946     		mov	r1, r3
 1775 07fc FFF7FEFF 		bl	obqPostFullBufferS
 1776              	.L82:
 1777              		.loc 10 715 0
 1778 0800 FFF75EFC 		bl	osalSysUnlock
 1779              		.loc 10 716 0
 1780 0804 0023     		movs	r3, #0
 1781              	.L81:
 1782              		.loc 10 717 0
 1783 0806 1846     		mov	r0, r3
 1784 0808 07B0     		add	sp, sp, #28
 1785              		.cfi_def_cfa_offset 4
 1786              		@ sp needed
 1787 080a 5DF804FB 		ldr	pc, [sp], #4
 1788              		.cfi_endproc
 1789              	.LFE297:
 1790              		.size	obqPutTimeout, .-obqPutTimeout
 1791 080e 00BF     		.align	2
 1792              		.p2align 4,,15
 1793              		.global	obqWriteTimeout
 1794              		.thumb
 1795              		.thumb_func
 1796              		.type	obqWriteTimeout, %function
 1797              	obqWriteTimeout:
 1798              	.LFB298:
 1799              		.loc 10 741 0
ARM GAS  /tmp/cc9hywgG.s 			page 33


 1800              		.cfi_startproc
 1801              		@ args = 0, pretend = 0, frame = 40
 1802              		@ frame_needed = 0, uses_anonymous_args = 0
 1803 0810 00B5     		push	{lr}
 1804              		.cfi_def_cfa_offset 4
 1805              		.cfi_offset 14, -4
 1806 0812 8BB0     		sub	sp, sp, #44
 1807              		.cfi_def_cfa_offset 48
 1808 0814 0390     		str	r0, [sp, #12]
 1809 0816 0291     		str	r1, [sp, #8]
 1810 0818 0192     		str	r2, [sp, #4]
 1811 081a 0093     		str	r3, [sp]
 1812              		.loc 10 742 0
 1813 081c 0023     		movs	r3, #0
 1814 081e 0993     		str	r3, [sp, #36]
 1815              		.loc 10 747 0
 1816 0820 FFF746FC 		bl	osalSysLock
 1817              		.loc 10 750 0
 1818 0824 FFF754FC 		bl	osalOsGetSystemTimeX
 1819 0828 0246     		mov	r2, r0
 1820 082a 009B     		ldr	r3, [sp]
 1821 082c 1344     		add	r3, r3, r2
 1822 082e 0693     		str	r3, [sp, #24]
 1823              	.L95:
 1824              	.LBB15:
 1825              		.loc 10 756 0
 1826 0830 039B     		ldr	r3, [sp, #12]
 1827 0832 9B6A     		ldr	r3, [r3, #40]
 1828 0834 002B     		cmp	r3, #0
 1829 0836 26D1     		bne	.L84
 1830              	.LBB16:
 1831              		.loc 10 761 0
 1832 0838 009B     		ldr	r3, [sp]
 1833 083a B3F1FF3F 		cmp	r3, #-1
 1834 083e 02D0     		beq	.L85
 1835              		.loc 10 761 0 is_stmt 0 discriminator 1
 1836 0840 009B     		ldr	r3, [sp]
 1837 0842 002B     		cmp	r3, #0
 1838 0844 05D1     		bne	.L86
 1839              	.L85:
 1840              		.loc 10 762 0 is_stmt 1
 1841 0846 0398     		ldr	r0, [sp, #12]
 1842 0848 0099     		ldr	r1, [sp]
 1843 084a FFF7FEFF 		bl	obqGetEmptyBufferTimeoutS
 1844 084e 0790     		str	r0, [sp, #28]
 1845 0850 12E0     		b	.L87
 1846              	.L86:
 1847              	.LBB17:
 1848              		.loc 10 765 0
 1849 0852 FFF73DFC 		bl	osalOsGetSystemTimeX
 1850 0856 0246     		mov	r2, r0
 1851 0858 069B     		ldr	r3, [sp, #24]
 1852 085a 9B1A     		subs	r3, r3, r2
 1853 085c 0593     		str	r3, [sp, #20]
 1854              		.loc 10 770 0
 1855 085e 059A     		ldr	r2, [sp, #20]
 1856 0860 009B     		ldr	r3, [sp]
ARM GAS  /tmp/cc9hywgG.s 			page 34


 1857 0862 9A42     		cmp	r2, r3
 1858 0864 03D9     		bls	.L88
 1859              		.loc 10 771 0
 1860 0866 FFF72BFC 		bl	osalSysUnlock
 1861              		.loc 10 772 0
 1862 086a 099B     		ldr	r3, [sp, #36]
 1863 086c 60E0     		b	.L89
 1864              	.L88:
 1865              		.loc 10 774 0
 1866 086e 0398     		ldr	r0, [sp, #12]
 1867 0870 0599     		ldr	r1, [sp, #20]
 1868 0872 FFF7FEFF 		bl	obqGetEmptyBufferTimeoutS
 1869 0876 0790     		str	r0, [sp, #28]
 1870              	.L87:
 1871              	.LBE17:
 1872              		.loc 10 778 0
 1873 0878 079B     		ldr	r3, [sp, #28]
 1874 087a 002B     		cmp	r3, #0
 1875 087c 03D0     		beq	.L84
 1876              		.loc 10 779 0
 1877 087e FFF71FFC 		bl	osalSysUnlock
 1878              		.loc 10 780 0
 1879 0882 099B     		ldr	r3, [sp, #36]
 1880 0884 54E0     		b	.L89
 1881              	.L84:
 1882              	.LBE16:
 1883              		.loc 10 785 0
 1884 0886 039B     		ldr	r3, [sp, #12]
 1885 0888 DB6A     		ldr	r3, [r3, #44]
 1886 088a 1A46     		mov	r2, r3
 1887 088c 039B     		ldr	r3, [sp, #12]
 1888 088e 9B6A     		ldr	r3, [r3, #40]
 1889 0890 D31A     		subs	r3, r2, r3
 1890 0892 0893     		str	r3, [sp, #32]
 1891              		.loc 10 786 0
 1892 0894 019A     		ldr	r2, [sp, #4]
 1893 0896 099B     		ldr	r3, [sp, #36]
 1894 0898 D21A     		subs	r2, r2, r3
 1895 089a 089B     		ldr	r3, [sp, #32]
 1896 089c 9A42     		cmp	r2, r3
 1897 089e 03D2     		bcs	.L90
 1898              		.loc 10 787 0
 1899 08a0 019A     		ldr	r2, [sp, #4]
 1900 08a2 099B     		ldr	r3, [sp, #36]
 1901 08a4 D31A     		subs	r3, r2, r3
 1902 08a6 0893     		str	r3, [sp, #32]
 1903              	.L90:
 1904              		.loc 10 792 0
 1905 08a8 089B     		ldr	r3, [sp, #32]
 1906 08aa 402B     		cmp	r3, #64
 1907 08ac 13D9     		bls	.L91
 1908              		.loc 10 794 0
 1909 08ae 039B     		ldr	r3, [sp, #12]
 1910 08b0 9B6A     		ldr	r3, [r3, #40]
 1911 08b2 1846     		mov	r0, r3
 1912 08b4 0299     		ldr	r1, [sp, #8]
 1913 08b6 4022     		movs	r2, #64
ARM GAS  /tmp/cc9hywgG.s 			page 35


 1914 08b8 FFF7FEFF 		bl	memcpy
 1915              		.loc 10 795 0
 1916 08bc 029B     		ldr	r3, [sp, #8]
 1917 08be 4033     		adds	r3, r3, #64
 1918 08c0 0293     		str	r3, [sp, #8]
 1919              		.loc 10 796 0
 1920 08c2 039B     		ldr	r3, [sp, #12]
 1921 08c4 9B6A     		ldr	r3, [r3, #40]
 1922 08c6 03F14002 		add	r2, r3, #64
 1923 08ca 039B     		ldr	r3, [sp, #12]
 1924 08cc 9A62     		str	r2, [r3, #40]
 1925              		.loc 10 797 0
 1926 08ce 099B     		ldr	r3, [sp, #36]
 1927 08d0 4033     		adds	r3, r3, #64
 1928 08d2 0993     		str	r3, [sp, #36]
 1929 08d4 14E0     		b	.L92
 1930              	.L91:
 1931              		.loc 10 800 0
 1932 08d6 039B     		ldr	r3, [sp, #12]
 1933 08d8 9B6A     		ldr	r3, [r3, #40]
 1934 08da 1846     		mov	r0, r3
 1935 08dc 0299     		ldr	r1, [sp, #8]
 1936 08de 089A     		ldr	r2, [sp, #32]
 1937 08e0 FFF7FEFF 		bl	memcpy
 1938              		.loc 10 801 0
 1939 08e4 029A     		ldr	r2, [sp, #8]
 1940 08e6 089B     		ldr	r3, [sp, #32]
 1941 08e8 1344     		add	r3, r3, r2
 1942 08ea 0293     		str	r3, [sp, #8]
 1943              		.loc 10 802 0
 1944 08ec 039B     		ldr	r3, [sp, #12]
 1945 08ee 9A6A     		ldr	r2, [r3, #40]
 1946 08f0 089B     		ldr	r3, [sp, #32]
 1947 08f2 1A44     		add	r2, r2, r3
 1948 08f4 039B     		ldr	r3, [sp, #12]
 1949 08f6 9A62     		str	r2, [r3, #40]
 1950              		.loc 10 803 0
 1951 08f8 099A     		ldr	r2, [sp, #36]
 1952 08fa 089B     		ldr	r3, [sp, #32]
 1953 08fc 1344     		add	r3, r3, r2
 1954 08fe 0993     		str	r3, [sp, #36]
 1955              	.L92:
 1956              		.loc 10 807 0
 1957 0900 039B     		ldr	r3, [sp, #12]
 1958 0902 9A6A     		ldr	r2, [r3, #40]
 1959 0904 039B     		ldr	r3, [sp, #12]
 1960 0906 DB6A     		ldr	r3, [r3, #44]
 1961 0908 9A42     		cmp	r2, r3
 1962 090a 06D3     		bcc	.L93
 1963              		.loc 10 808 0
 1964 090c 039B     		ldr	r3, [sp, #12]
 1965 090e DB69     		ldr	r3, [r3, #28]
 1966 0910 043B     		subs	r3, r3, #4
 1967 0912 0398     		ldr	r0, [sp, #12]
 1968 0914 1946     		mov	r1, r3
 1969 0916 FFF7FEFF 		bl	obqPostFullBufferS
 1970              	.L93:
ARM GAS  /tmp/cc9hywgG.s 			page 36


 1971              		.loc 10 812 0
 1972 091a FFF7D1FB 		bl	osalSysUnlock
 1973              		.loc 10 813 0
 1974 091e 099A     		ldr	r2, [sp, #36]
 1975 0920 019B     		ldr	r3, [sp, #4]
 1976 0922 9A42     		cmp	r2, r3
 1977 0924 01D3     		bcc	.L94
 1978              		.loc 10 814 0
 1979 0926 099B     		ldr	r3, [sp, #36]
 1980 0928 02E0     		b	.L89
 1981              	.L94:
 1982              		.loc 10 816 0
 1983 092a FFF7C1FB 		bl	osalSysLock
 1984              	.LBE15:
 1985              		.loc 10 817 0
 1986 092e 7FE7     		b	.L95
 1987              	.L89:
 1988              		.loc 10 818 0
 1989 0930 1846     		mov	r0, r3
 1990 0932 0BB0     		add	sp, sp, #44
 1991              		.cfi_def_cfa_offset 4
 1992              		@ sp needed
 1993 0934 5DF804FB 		ldr	pc, [sp], #4
 1994              		.cfi_endproc
 1995              	.LFE298:
 1996              		.size	obqWriteTimeout, .-obqWriteTimeout
 1997              		.align	2
 1998 0938 AFF30080 		.p2align 4,,15
 1998      AFF30080 
 1999              		.global	obqTryFlushI
 2000              		.thumb
 2001              		.thumb_func
 2002              		.type	obqTryFlushI, %function
 2003              	obqTryFlushI:
 2004              	.LFB299:
 2005              		.loc 10 833 0
 2006              		.cfi_startproc
 2007              		@ args = 0, pretend = 0, frame = 16
 2008              		@ frame_needed = 0, uses_anonymous_args = 0
 2009              		@ link register save eliminated.
 2010 0940 84B0     		sub	sp, sp, #16
 2011              		.cfi_def_cfa_offset 16
 2012 0942 0190     		str	r0, [sp, #4]
 2013              		.loc 10 839 0
 2014 0944 019B     		ldr	r3, [sp, #4]
 2015 0946 1A69     		ldr	r2, [r3, #16]
 2016 0948 019B     		ldr	r3, [sp, #4]
 2017 094a 5B69     		ldr	r3, [r3, #20]
 2018 094c 9A42     		cmp	r2, r3
 2019 094e 05D1     		bne	.L97
 2020              		.loc 10 839 0 is_stmt 0 discriminator 1
 2021 0950 019B     		ldr	r3, [sp, #4]
 2022 0952 DB68     		ldr	r3, [r3, #12]
 2023 0954 002B     		cmp	r3, #0
 2024 0956 01D0     		beq	.L97
 2025              		.loc 10 839 0 discriminator 3
 2026 0958 0123     		movs	r3, #1
ARM GAS  /tmp/cc9hywgG.s 			page 37


 2027 095a 00E0     		b	.L98
 2028              	.L97:
 2029              		.loc 10 839 0 discriminator 4
 2030 095c 0023     		movs	r3, #0
 2031              	.L98:
 2032              		.loc 10 839 0 discriminator 6
 2033 095e 03F00103 		and	r3, r3, #1
 2034 0962 DBB2     		uxtb	r3, r3
 2035 0964 002B     		cmp	r3, #0
 2036 0966 2DD0     		beq	.L99
 2037              		.loc 10 839 0 discriminator 7
 2038 0968 019B     		ldr	r3, [sp, #4]
 2039 096a 9B6A     		ldr	r3, [r3, #40]
 2040 096c 002B     		cmp	r3, #0
 2041 096e 29D0     		beq	.L99
 2042              	.LBB18:
 2043              		.loc 10 840 0 is_stmt 1
 2044 0970 019B     		ldr	r3, [sp, #4]
 2045 0972 9B6A     		ldr	r3, [r3, #40]
 2046 0974 1A46     		mov	r2, r3
 2047 0976 019B     		ldr	r3, [sp, #4]
 2048 0978 1B69     		ldr	r3, [r3, #16]
 2049 097a D31A     		subs	r3, r2, r3
 2050 097c 043B     		subs	r3, r3, #4
 2051 097e 0393     		str	r3, [sp, #12]
 2052              		.loc 10 842 0
 2053 0980 039B     		ldr	r3, [sp, #12]
 2054 0982 002B     		cmp	r3, #0
 2055 0984 1ED0     		beq	.L99
 2056              		.loc 10 845 0
 2057 0986 019B     		ldr	r3, [sp, #4]
 2058 0988 1B69     		ldr	r3, [r3, #16]
 2059 098a 039A     		ldr	r2, [sp, #12]
 2060 098c 1A60     		str	r2, [r3]
 2061              		.loc 10 848 0
 2062 098e 019B     		ldr	r3, [sp, #4]
 2063 0990 DB68     		ldr	r3, [r3, #12]
 2064 0992 5A1E     		subs	r2, r3, #1
 2065 0994 019B     		ldr	r3, [sp, #4]
 2066 0996 DA60     		str	r2, [r3, #12]
 2067              		.loc 10 849 0
 2068 0998 019B     		ldr	r3, [sp, #4]
 2069 099a 1A69     		ldr	r2, [r3, #16]
 2070 099c 019B     		ldr	r3, [sp, #4]
 2071 099e DB69     		ldr	r3, [r3, #28]
 2072 09a0 1A44     		add	r2, r2, r3
 2073 09a2 019B     		ldr	r3, [sp, #4]
 2074 09a4 1A61     		str	r2, [r3, #16]
 2075              		.loc 10 850 0
 2076 09a6 019B     		ldr	r3, [sp, #4]
 2077 09a8 1A69     		ldr	r2, [r3, #16]
 2078 09aa 019B     		ldr	r3, [sp, #4]
 2079 09ac 9B69     		ldr	r3, [r3, #24]
 2080 09ae 9A42     		cmp	r2, r3
 2081 09b0 03D3     		bcc	.L100
 2082              		.loc 10 851 0
 2083 09b2 019B     		ldr	r3, [sp, #4]
ARM GAS  /tmp/cc9hywgG.s 			page 38


 2084 09b4 5A6A     		ldr	r2, [r3, #36]
 2085 09b6 019B     		ldr	r3, [sp, #4]
 2086 09b8 1A61     		str	r2, [r3, #16]
 2087              	.L100:
 2088              		.loc 10 855 0
 2089 09ba 019B     		ldr	r3, [sp, #4]
 2090 09bc 0022     		movs	r2, #0
 2091 09be 9A62     		str	r2, [r3, #40]
 2092              		.loc 10 857 0
 2093 09c0 0123     		movs	r3, #1
 2094 09c2 00E0     		b	.L101
 2095              	.L99:
 2096              	.LBE18:
 2097              		.loc 10 860 0
 2098 09c4 0023     		movs	r3, #0
 2099              	.L101:
 2100              		.loc 10 861 0
 2101 09c6 1846     		mov	r0, r3
 2102 09c8 04B0     		add	sp, sp, #16
 2103              		.cfi_def_cfa_offset 0
 2104              		@ sp needed
 2105 09ca 7047     		bx	lr
 2106              		.cfi_endproc
 2107              	.LFE299:
 2108              		.size	obqTryFlushI, .-obqTryFlushI
 2109              		.align	2
 2110 09cc AFF30080 		.p2align 4,,15
 2111              		.global	obqFlush
 2112              		.thumb
 2113              		.thumb_func
 2114              		.type	obqFlush, %function
 2115              	obqFlush:
 2116              	.LFB300:
 2117              		.loc 10 870 0
 2118              		.cfi_startproc
 2119              		@ args = 0, pretend = 0, frame = 16
 2120              		@ frame_needed = 0, uses_anonymous_args = 0
 2121 09d0 00B5     		push	{lr}
 2122              		.cfi_def_cfa_offset 4
 2123              		.cfi_offset 14, -4
 2124 09d2 85B0     		sub	sp, sp, #20
 2125              		.cfi_def_cfa_offset 24
 2126 09d4 0190     		str	r0, [sp, #4]
 2127              		.loc 10 872 0
 2128 09d6 FFF76BFB 		bl	osalSysLock
 2129              		.loc 10 875 0
 2130 09da 019B     		ldr	r3, [sp, #4]
 2131 09dc 9B6A     		ldr	r3, [r3, #40]
 2132 09de 002B     		cmp	r3, #0
 2133 09e0 0ED0     		beq	.L103
 2134              	.LBB19:
 2135              		.loc 10 876 0
 2136 09e2 019B     		ldr	r3, [sp, #4]
 2137 09e4 9B6A     		ldr	r3, [r3, #40]
 2138 09e6 1A46     		mov	r2, r3
 2139 09e8 019B     		ldr	r3, [sp, #4]
 2140 09ea 1B69     		ldr	r3, [r3, #16]
ARM GAS  /tmp/cc9hywgG.s 			page 39


 2141 09ec D31A     		subs	r3, r2, r3
 2142 09ee 043B     		subs	r3, r3, #4
 2143 09f0 0393     		str	r3, [sp, #12]
 2144              		.loc 10 878 0
 2145 09f2 039B     		ldr	r3, [sp, #12]
 2146 09f4 002B     		cmp	r3, #0
 2147 09f6 03D0     		beq	.L103
 2148              		.loc 10 879 0
 2149 09f8 0198     		ldr	r0, [sp, #4]
 2150 09fa 0399     		ldr	r1, [sp, #12]
 2151 09fc FFF7FEFF 		bl	obqPostFullBufferS
 2152              	.L103:
 2153              	.LBE19:
 2154              		.loc 10 883 0
 2155 0a00 FFF75EFB 		bl	osalSysUnlock
 2156              		.loc 10 884 0
 2157 0a04 05B0     		add	sp, sp, #20
 2158              		.cfi_def_cfa_offset 4
 2159              		@ sp needed
 2160 0a06 5DF804FB 		ldr	pc, [sp], #4
 2161              		.cfi_endproc
 2162              	.LFE300:
 2163              		.size	obqFlush, .-obqFlush
 2164              	.Letext0:
 2165              		.file 11 "/usr/lib/gcc/arm-none-eabi/4.9.3/include/stddef.h"
 2166              		.file 12 "/usr/include/newlib/machine/_default_types.h"
 2167              		.file 13 "/usr/include/newlib/sys/_stdint.h"
 2168              		.file 14 "../../../os/common/ports/ARMCMx/compilers/GCC/chtypes.h"
 2169              		.file 15 "../../../os/rt/include/chsystypes.h"
 2170              		.file 16 "../../../os/common/ports/ARMCMx/chcore.h"
 2171              		.file 17 "../../../os/hal/ports/STM32/LLD/TIMv1/stm32_tim.h"
 2172              		.file 18 "../../../os/rt/include/chtm.h"
 2173              		.file 19 "../../../os/rt/include/chsem.h"
 2174              		.file 20 "../../../os/rt/include/chmtx.h"
 2175              		.file 21 "../../../os/hal/include/hal_buffers.h"
 2176              		.file 22 "../../../os/common/ext/CMSIS/include/core_cm4.h"
 2177 0a0a 00BF     		.section	.debug_info,"",%progbits
 2178              	.Ldebug_info0:
 2179 0000 36120000 		.4byte	0x1236
 2180 0004 0400     		.2byte	0x4
 2181 0006 00000000 		.4byte	.Ldebug_abbrev0
 2182 000a 04       		.byte	0x4
 2183 000b 01       		.uleb128 0x1
 2184 000c D6050000 		.4byte	.LASF164
 2185 0010 01       		.byte	0x1
 2186 0011 DF000000 		.4byte	.LASF165
 2187 0015 82060000 		.4byte	.LASF166
 2188 0019 00000000 		.4byte	.Ltext0
 2189 001d 0A0A0000 		.4byte	.Letext0-.Ltext0
 2190 0021 00000000 		.4byte	.Ldebug_line0
 2191 0025 02       		.uleb128 0x2
 2192 0026 04       		.byte	0x4
 2193 0027 05       		.byte	0x5
 2194 0028 696E7400 		.ascii	"int\000"
 2195 002c 03       		.uleb128 0x3
 2196 002d 12000000 		.4byte	.LASF2
 2197 0031 0B       		.byte	0xb
ARM GAS  /tmp/cc9hywgG.s 			page 40


 2198 0032 D4       		.byte	0xd4
 2199 0033 37000000 		.4byte	0x37
 2200 0037 04       		.uleb128 0x4
 2201 0038 04       		.byte	0x4
 2202 0039 07       		.byte	0x7
 2203 003a B7020000 		.4byte	.LASF0
 2204 003e 04       		.uleb128 0x4
 2205 003f 01       		.byte	0x1
 2206 0040 06       		.byte	0x6
 2207 0041 4C010000 		.4byte	.LASF1
 2208 0045 03       		.uleb128 0x3
 2209 0046 34000000 		.4byte	.LASF3
 2210 004a 0C       		.byte	0xc
 2211 004b 1D       		.byte	0x1d
 2212 004c 50000000 		.4byte	0x50
 2213 0050 04       		.uleb128 0x4
 2214 0051 01       		.byte	0x1
 2215 0052 08       		.byte	0x8
 2216 0053 BD040000 		.4byte	.LASF4
 2217 0057 04       		.uleb128 0x4
 2218 0058 02       		.byte	0x2
 2219 0059 05       		.byte	0x5
 2220 005a F3040000 		.4byte	.LASF5
 2221 005e 04       		.uleb128 0x4
 2222 005f 02       		.byte	0x2
 2223 0060 07       		.byte	0x7
 2224 0061 F5060000 		.4byte	.LASF6
 2225 0065 03       		.uleb128 0x3
 2226 0066 81030000 		.4byte	.LASF7
 2227 006a 0C       		.byte	0xc
 2228 006b 3F       		.byte	0x3f
 2229 006c 70000000 		.4byte	0x70
 2230 0070 04       		.uleb128 0x4
 2231 0071 04       		.byte	0x4
 2232 0072 05       		.byte	0x5
 2233 0073 CD010000 		.4byte	.LASF8
 2234 0077 03       		.uleb128 0x3
 2235 0078 1D020000 		.4byte	.LASF9
 2236 007c 0C       		.byte	0xc
 2237 007d 41       		.byte	0x41
 2238 007e 82000000 		.4byte	0x82
 2239 0082 04       		.uleb128 0x4
 2240 0083 04       		.byte	0x4
 2241 0084 07       		.byte	0x7
 2242 0085 C4050000 		.4byte	.LASF10
 2243 0089 04       		.uleb128 0x4
 2244 008a 08       		.byte	0x8
 2245 008b 05       		.byte	0x5
 2246 008c E9010000 		.4byte	.LASF11
 2247 0090 03       		.uleb128 0x3
 2248 0091 4A040000 		.4byte	.LASF12
 2249 0095 0C       		.byte	0xc
 2250 0096 5B       		.byte	0x5b
 2251 0097 9B000000 		.4byte	0x9b
 2252 009b 04       		.uleb128 0x4
 2253 009c 08       		.byte	0x8
 2254 009d 07       		.byte	0x7
ARM GAS  /tmp/cc9hywgG.s 			page 41


 2255 009e 8A000000 		.4byte	.LASF13
 2256 00a2 04       		.uleb128 0x4
 2257 00a3 04       		.byte	0x4
 2258 00a4 07       		.byte	0x7
 2259 00a5 BA030000 		.4byte	.LASF14
 2260 00a9 05       		.uleb128 0x5
 2261 00aa 04       		.byte	0x4
 2262 00ab 04       		.uleb128 0x4
 2263 00ac 01       		.byte	0x1
 2264 00ad 08       		.byte	0x8
 2265 00ae 60060000 		.4byte	.LASF15
 2266 00b2 06       		.uleb128 0x6
 2267 00b3 04       		.byte	0x4
 2268 00b4 B8000000 		.4byte	0xb8
 2269 00b8 07       		.uleb128 0x7
 2270 00b9 AB000000 		.4byte	0xab
 2271 00bd 08       		.uleb128 0x8
 2272 00be AB000000 		.4byte	0xab
 2273 00c2 CD000000 		.4byte	0xcd
 2274 00c6 09       		.uleb128 0x9
 2275 00c7 A2000000 		.4byte	0xa2
 2276 00cb 19       		.byte	0x19
 2277 00cc 00       		.byte	0
 2278 00cd 08       		.uleb128 0x8
 2279 00ce AB000000 		.4byte	0xab
 2280 00d2 DD000000 		.4byte	0xdd
 2281 00d6 09       		.uleb128 0x9
 2282 00d7 A2000000 		.4byte	0xa2
 2283 00db 18       		.byte	0x18
 2284 00dc 00       		.byte	0
 2285 00dd 03       		.uleb128 0x3
 2286 00de 84070000 		.4byte	.LASF16
 2287 00e2 0D       		.byte	0xd
 2288 00e3 14       		.byte	0x14
 2289 00e4 45000000 		.4byte	0x45
 2290 00e8 03       		.uleb128 0x3
 2291 00e9 B5040000 		.4byte	.LASF17
 2292 00ed 0D       		.byte	0xd
 2293 00ee 1F       		.byte	0x1f
 2294 00ef 65000000 		.4byte	0x65
 2295 00f3 03       		.uleb128 0x3
 2296 00f4 9E050000 		.4byte	.LASF18
 2297 00f8 0D       		.byte	0xd
 2298 00f9 20       		.byte	0x20
 2299 00fa 77000000 		.4byte	0x77
 2300 00fe 03       		.uleb128 0x3
 2301 00ff 2B000000 		.4byte	.LASF19
 2302 0103 0D       		.byte	0xd
 2303 0104 26       		.byte	0x26
 2304 0105 90000000 		.4byte	0x90
 2305 0109 03       		.uleb128 0x3
 2306 010a 36070000 		.4byte	.LASF20
 2307 010e 0E       		.byte	0xe
 2308 010f 39       		.byte	0x39
 2309 0110 F3000000 		.4byte	0xf3
 2310 0114 03       		.uleb128 0x3
 2311 0115 0D080000 		.4byte	.LASF21
ARM GAS  /tmp/cc9hywgG.s 			page 42


 2312 0119 0E       		.byte	0xe
 2313 011a 3C       		.byte	0x3c
 2314 011b DD000000 		.4byte	0xdd
 2315 011f 03       		.uleb128 0x3
 2316 0120 D6010000 		.4byte	.LASF22
 2317 0124 0E       		.byte	0xe
 2318 0125 3D       		.byte	0x3d
 2319 0126 DD000000 		.4byte	0xdd
 2320 012a 03       		.uleb128 0x3
 2321 012b 63040000 		.4byte	.LASF23
 2322 012f 0E       		.byte	0xe
 2323 0130 3E       		.byte	0x3e
 2324 0131 DD000000 		.4byte	0xdd
 2325 0135 03       		.uleb128 0x3
 2326 0136 80040000 		.4byte	.LASF24
 2327 013a 0E       		.byte	0xe
 2328 013b 40       		.byte	0x40
 2329 013c F3000000 		.4byte	0xf3
 2330 0140 03       		.uleb128 0x3
 2331 0141 3E000000 		.4byte	.LASF25
 2332 0145 0E       		.byte	0xe
 2333 0146 41       		.byte	0x41
 2334 0147 E8000000 		.4byte	0xe8
 2335 014b 03       		.uleb128 0x3
 2336 014c 75030000 		.4byte	.LASF26
 2337 0150 0E       		.byte	0xe
 2338 0151 43       		.byte	0x43
 2339 0152 F3000000 		.4byte	0xf3
 2340 0156 03       		.uleb128 0x3
 2341 0157 9E020000 		.4byte	.LASF27
 2342 015b 0E       		.byte	0xe
 2343 015c 45       		.byte	0x45
 2344 015d E8000000 		.4byte	0xe8
 2345 0161 03       		.uleb128 0x3
 2346 0162 CC060000 		.4byte	.LASF28
 2347 0166 0F       		.byte	0xf
 2348 0167 33       		.byte	0x33
 2349 0168 F3000000 		.4byte	0xf3
 2350 016c 03       		.uleb128 0x3
 2351 016d C3060000 		.4byte	.LASF29
 2352 0171 0F       		.byte	0xf
 2353 0172 3F       		.byte	0x3f
 2354 0173 77010000 		.4byte	0x177
 2355 0177 0A       		.uleb128 0xa
 2356 0178 F1020000 		.4byte	.LASF47
 2357 017c 44       		.byte	0x44
 2358 017d 05       		.byte	0x5
 2359 017e 9A       		.byte	0x9a
 2360 017f 55020000 		.4byte	0x255
 2361 0183 0B       		.uleb128 0xb
 2362 0184 F7010000 		.4byte	.LASF30
 2363 0188 05       		.byte	0x5
 2364 0189 9B       		.byte	0x9b
 2365 018a 8A020000 		.4byte	0x28a
 2366 018e 00       		.byte	0
 2367 018f 0B       		.uleb128 0xb
 2368 0190 3D040000 		.4byte	.LASF31
ARM GAS  /tmp/cc9hywgG.s 			page 43


 2369 0194 05       		.byte	0x5
 2370 0195 9C       		.byte	0x9c
 2371 0196 35010000 		.4byte	0x135
 2372 019a 08       		.byte	0x8
 2373 019b 0C       		.uleb128 0xc
 2374 019c 63747800 		.ascii	"ctx\000"
 2375 01a0 05       		.byte	0x5
 2376 01a1 9D       		.byte	0x9d
 2377 01a2 9E040000 		.4byte	0x49e
 2378 01a6 0C       		.byte	0xc
 2379 01a7 0B       		.uleb128 0xb
 2380 01a8 96030000 		.4byte	.LASF32
 2381 01ac 05       		.byte	0x5
 2382 01ad 9F       		.byte	0x9f
 2383 01ae 60020000 		.4byte	0x260
 2384 01b2 10       		.byte	0x10
 2385 01b3 0B       		.uleb128 0xb
 2386 01b4 65060000 		.4byte	.LASF33
 2387 01b8 05       		.byte	0x5
 2388 01b9 A0       		.byte	0xa0
 2389 01ba 60020000 		.4byte	0x260
 2390 01be 14       		.byte	0x14
 2391 01bf 0B       		.uleb128 0xb
 2392 01c0 E1020000 		.4byte	.LASF34
 2393 01c4 05       		.byte	0x5
 2394 01c5 A7       		.byte	0xa7
 2395 01c6 B2000000 		.4byte	0xb2
 2396 01ca 18       		.byte	0x18
 2397 01cb 0B       		.uleb128 0xb
 2398 01cc FD010000 		.4byte	.LASF35
 2399 01d0 05       		.byte	0x5
 2400 01d1 B0       		.byte	0xb0
 2401 01d2 45070000 		.4byte	0x745
 2402 01d6 1C       		.byte	0x1c
 2403 01d7 0B       		.uleb128 0xb
 2404 01d8 C7010000 		.4byte	.LASF36
 2405 01dc 05       		.byte	0x5
 2406 01dd B5       		.byte	0xb5
 2407 01de 1F010000 		.4byte	0x11f
 2408 01e2 20       		.byte	0x20
 2409 01e3 0B       		.uleb128 0xb
 2410 01e4 8C070000 		.4byte	.LASF37
 2411 01e8 05       		.byte	0x5
 2412 01e9 B9       		.byte	0xb9
 2413 01ea 14010000 		.4byte	0x114
 2414 01ee 21       		.byte	0x21
 2415 01ef 0B       		.uleb128 0xb
 2416 01f0 6B040000 		.4byte	.LASF38
 2417 01f4 05       		.byte	0x5
 2418 01f5 BE       		.byte	0xbe
 2419 01f6 2A010000 		.4byte	0x12a
 2420 01fa 22       		.byte	0x22
 2421 01fb 0D       		.uleb128 0xd
 2422 01fc 7500     		.ascii	"u\000"
 2423 01fe 05       		.byte	0x5
 2424 01ff 0F01     		.2byte	0x10f
 2425 0201 7A060000 		.4byte	0x67a
ARM GAS  /tmp/cc9hywgG.s 			page 44


 2426 0205 24       		.byte	0x24
 2427 0206 0E       		.uleb128 0xe
 2428 0207 53020000 		.4byte	.LASF39
 2429 020b 05       		.byte	0x5
 2430 020c 1401     		.2byte	0x114
 2431 020e 66020000 		.4byte	0x266
 2432 0212 28       		.byte	0x28
 2433 0213 0E       		.uleb128 0xe
 2434 0214 BE010000 		.4byte	.LASF40
 2435 0218 05       		.byte	0x5
 2436 0219 1A01     		.2byte	0x11a
 2437 021b 8A020000 		.4byte	0x28a
 2438 021f 2C       		.byte	0x2c
 2439 0220 0E       		.uleb128 0xe
 2440 0221 19030000 		.4byte	.LASF41
 2441 0225 05       		.byte	0x5
 2442 0226 2001     		.2byte	0x120
 2443 0228 4B010000 		.4byte	0x14b
 2444 022c 34       		.byte	0x34
 2445 022d 0E       		.uleb128 0xe
 2446 022e 2A080000 		.4byte	.LASF42
 2447 0232 05       		.byte	0x5
 2448 0233 2701     		.2byte	0x127
 2449 0235 3F070000 		.4byte	0x73f
 2450 0239 38       		.byte	0x38
 2451 023a 0E       		.uleb128 0xe
 2452 023b B1030000 		.4byte	.LASF43
 2453 023f 05       		.byte	0x5
 2454 0240 2B01     		.2byte	0x12b
 2455 0242 35010000 		.4byte	0x135
 2456 0246 3C       		.byte	0x3c
 2457 0247 0E       		.uleb128 0xe
 2458 0248 E6020000 		.4byte	.LASF44
 2459 024c 05       		.byte	0x5
 2460 024d 3201     		.2byte	0x132
 2461 024f A9000000 		.4byte	0xa9
 2462 0253 40       		.byte	0x40
 2463 0254 00       		.byte	0
 2464 0255 03       		.uleb128 0x3
 2465 0256 C3030000 		.4byte	.LASF45
 2466 025a 0F       		.byte	0xf
 2467 025b 44       		.byte	0x44
 2468 025c 60020000 		.4byte	0x260
 2469 0260 06       		.uleb128 0x6
 2470 0261 04       		.byte	0x4
 2471 0262 6C010000 		.4byte	0x16c
 2472 0266 03       		.uleb128 0x3
 2473 0267 E9070000 		.4byte	.LASF46
 2474 026b 0F       		.byte	0xf
 2475 026c 49       		.byte	0x49
 2476 026d 71020000 		.4byte	0x271
 2477 0271 0A       		.uleb128 0xa
 2478 0272 AE050000 		.4byte	.LASF48
 2479 0276 04       		.byte	0x4
 2480 0277 05       		.byte	0x5
 2481 0278 88       		.byte	0x88
 2482 0279 8A020000 		.4byte	0x28a
ARM GAS  /tmp/cc9hywgG.s 			page 45


 2483 027d 0B       		.uleb128 0xb
 2484 027e 19000000 		.4byte	.LASF49
 2485 0282 05       		.byte	0x5
 2486 0283 89       		.byte	0x89
 2487 0284 60020000 		.4byte	0x260
 2488 0288 00       		.byte	0
 2489 0289 00       		.byte	0
 2490 028a 03       		.uleb128 0x3
 2491 028b 49070000 		.4byte	.LASF50
 2492 028f 0F       		.byte	0xf
 2493 0290 50       		.byte	0x50
 2494 0291 95020000 		.4byte	0x295
 2495 0295 0A       		.uleb128 0xa
 2496 0296 55000000 		.4byte	.LASF51
 2497 029a 08       		.byte	0x8
 2498 029b 05       		.byte	0x5
 2499 029c 8F       		.byte	0x8f
 2500 029d BA020000 		.4byte	0x2ba
 2501 02a1 0B       		.uleb128 0xb
 2502 02a2 19000000 		.4byte	.LASF49
 2503 02a6 05       		.byte	0x5
 2504 02a7 90       		.byte	0x90
 2505 02a8 60020000 		.4byte	0x260
 2506 02ac 00       		.byte	0
 2507 02ad 0B       		.uleb128 0xb
 2508 02ae 44000000 		.4byte	.LASF52
 2509 02b2 05       		.byte	0x5
 2510 02b3 91       		.byte	0x91
 2511 02b4 60020000 		.4byte	0x260
 2512 02b8 04       		.byte	0x4
 2513 02b9 00       		.byte	0
 2514 02ba 03       		.uleb128 0x3
 2515 02bb 00000000 		.4byte	.LASF53
 2516 02bf 0F       		.byte	0xf
 2517 02c0 57       		.byte	0x57
 2518 02c1 C5020000 		.4byte	0x2c5
 2519 02c5 0F       		.uleb128 0xf
 2520 02c6 67030000 		.4byte	.LASF54
 2521 02ca 1C       		.byte	0x1c
 2522 02cb 05       		.byte	0x5
 2523 02cc 6A01     		.2byte	0x16a
 2524 02ce 21030000 		.4byte	0x321
 2525 02d2 0E       		.uleb128 0xe
 2526 02d3 F7010000 		.4byte	.LASF30
 2527 02d7 05       		.byte	0x5
 2528 02d8 6B01     		.2byte	0x16b
 2529 02da 8A020000 		.4byte	0x28a
 2530 02de 00       		.byte	0
 2531 02df 0E       		.uleb128 0xe
 2532 02e0 3D040000 		.4byte	.LASF31
 2533 02e4 05       		.byte	0x5
 2534 02e5 6C01     		.2byte	0x16c
 2535 02e7 35010000 		.4byte	0x135
 2536 02eb 08       		.byte	0x8
 2537 02ec 0D       		.uleb128 0xd
 2538 02ed 63747800 		.ascii	"ctx\000"
 2539 02f1 05       		.byte	0x5
ARM GAS  /tmp/cc9hywgG.s 			page 46


 2540 02f2 6E01     		.2byte	0x16e
 2541 02f4 9E040000 		.4byte	0x49e
 2542 02f8 0C       		.byte	0xc
 2543 02f9 0E       		.uleb128 0xe
 2544 02fa 96030000 		.4byte	.LASF32
 2545 02fe 05       		.byte	0x5
 2546 02ff 7101     		.2byte	0x171
 2547 0301 60020000 		.4byte	0x260
 2548 0305 10       		.byte	0x10
 2549 0306 0E       		.uleb128 0xe
 2550 0307 65060000 		.4byte	.LASF33
 2551 030b 05       		.byte	0x5
 2552 030c 7201     		.2byte	0x172
 2553 030e 60020000 		.4byte	0x260
 2554 0312 14       		.byte	0x14
 2555 0313 0E       		.uleb128 0xe
 2556 0314 42040000 		.4byte	.LASF55
 2557 0318 05       		.byte	0x5
 2558 0319 7501     		.2byte	0x175
 2559 031b 60020000 		.4byte	0x260
 2560 031f 18       		.byte	0x18
 2561 0320 00       		.byte	0
 2562 0321 03       		.uleb128 0x3
 2563 0322 D6060000 		.4byte	.LASF56
 2564 0326 0F       		.byte	0xf
 2565 0327 5C       		.byte	0x5c
 2566 0328 2C030000 		.4byte	0x32c
 2567 032c 06       		.uleb128 0x6
 2568 032d 04       		.byte	0x4
 2569 032e 32030000 		.4byte	0x332
 2570 0332 10       		.uleb128 0x10
 2571 0333 3D030000 		.4byte	0x33d
 2572 0337 11       		.uleb128 0x11
 2573 0338 A9000000 		.4byte	0xa9
 2574 033c 00       		.byte	0
 2575 033d 03       		.uleb128 0x3
 2576 033e 70040000 		.4byte	.LASF57
 2577 0342 0F       		.byte	0xf
 2578 0343 61       		.byte	0x61
 2579 0344 48030000 		.4byte	0x348
 2580 0348 0F       		.uleb128 0xf
 2581 0349 60050000 		.4byte	.LASF58
 2582 034d 14       		.byte	0x14
 2583 034e 05       		.byte	0x5
 2584 034f 4501     		.2byte	0x145
 2585 0351 97030000 		.4byte	0x397
 2586 0355 0E       		.uleb128 0xe
 2587 0356 19000000 		.4byte	.LASF49
 2588 035a 05       		.byte	0x5
 2589 035b 4601     		.2byte	0x146
 2590 035d 4B070000 		.4byte	0x74b
 2591 0361 00       		.byte	0
 2592 0362 0E       		.uleb128 0xe
 2593 0363 44000000 		.4byte	.LASF52
 2594 0367 05       		.byte	0x5
 2595 0368 4701     		.2byte	0x147
 2596 036a 4B070000 		.4byte	0x74b
ARM GAS  /tmp/cc9hywgG.s 			page 47


 2597 036e 04       		.byte	0x4
 2598 036f 0E       		.uleb128 0xe
 2599 0370 1E000000 		.4byte	.LASF59
 2600 0374 05       		.byte	0x5
 2601 0375 4801     		.2byte	0x148
 2602 0377 61010000 		.4byte	0x161
 2603 037b 08       		.byte	0x8
 2604 037c 0E       		.uleb128 0xe
 2605 037d DF010000 		.4byte	.LASF60
 2606 0381 05       		.byte	0x5
 2607 0382 4901     		.2byte	0x149
 2608 0384 21030000 		.4byte	0x321
 2609 0388 0C       		.byte	0xc
 2610 0389 0D       		.uleb128 0xd
 2611 038a 70617200 		.ascii	"par\000"
 2612 038e 05       		.byte	0x5
 2613 038f 4B01     		.2byte	0x14b
 2614 0391 A9000000 		.4byte	0xa9
 2615 0395 10       		.byte	0x10
 2616 0396 00       		.byte	0
 2617 0397 03       		.uleb128 0x3
 2618 0398 C9000000 		.4byte	.LASF61
 2619 039c 0F       		.byte	0xf
 2620 039d 66       		.byte	0x66
 2621 039e A2030000 		.4byte	0x3a2
 2622 03a2 0F       		.uleb128 0xf
 2623 03a3 D6030000 		.4byte	.LASF62
 2624 03a7 10       		.byte	0x10
 2625 03a8 05       		.byte	0x5
 2626 03a9 5501     		.2byte	0x155
 2627 03ab E4030000 		.4byte	0x3e4
 2628 03af 0E       		.uleb128 0xe
 2629 03b0 19000000 		.4byte	.LASF49
 2630 03b4 05       		.byte	0x5
 2631 03b5 5601     		.2byte	0x156
 2632 03b7 4B070000 		.4byte	0x74b
 2633 03bb 00       		.byte	0
 2634 03bc 0E       		.uleb128 0xe
 2635 03bd 44000000 		.4byte	.LASF52
 2636 03c1 05       		.byte	0x5
 2637 03c2 5801     		.2byte	0x158
 2638 03c4 4B070000 		.4byte	0x74b
 2639 03c8 04       		.byte	0x4
 2640 03c9 0E       		.uleb128 0xe
 2641 03ca 1E000000 		.4byte	.LASF59
 2642 03ce 05       		.byte	0x5
 2643 03cf 5A01     		.2byte	0x15a
 2644 03d1 61010000 		.4byte	0x161
 2645 03d5 08       		.byte	0x8
 2646 03d6 0E       		.uleb128 0xe
 2647 03d7 FD040000 		.4byte	.LASF63
 2648 03db 05       		.byte	0x5
 2649 03dc 6201     		.2byte	0x162
 2650 03de 61010000 		.4byte	0x161
 2651 03e2 0C       		.byte	0xc
 2652 03e3 00       		.byte	0
 2653 03e4 03       		.uleb128 0x3
ARM GAS  /tmp/cc9hywgG.s 			page 48


 2654 03e5 66000000 		.4byte	.LASF64
 2655 03e9 0F       		.byte	0xf
 2656 03ea 6B       		.byte	0x6b
 2657 03eb EF030000 		.4byte	0x3ef
 2658 03ef 0F       		.uleb128 0xf
 2659 03f0 9F040000 		.4byte	.LASF65
 2660 03f4 04       		.byte	0x4
 2661 03f5 05       		.byte	0x5
 2662 03f6 7C01     		.2byte	0x17c
 2663 03f8 0A040000 		.4byte	0x40a
 2664 03fc 0E       		.uleb128 0xe
 2665 03fd E4060000 		.4byte	.LASF66
 2666 0401 05       		.byte	0x5
 2667 0402 8401     		.2byte	0x184
 2668 0404 51070000 		.4byte	0x751
 2669 0408 00       		.byte	0
 2670 0409 00       		.byte	0
 2671 040a 03       		.uleb128 0x3
 2672 040b 35030000 		.4byte	.LASF67
 2673 040f 0F       		.byte	0xf
 2674 0410 70       		.byte	0x70
 2675 0411 15040000 		.4byte	0x415
 2676 0415 0F       		.uleb128 0xf
 2677 0416 0D050000 		.4byte	.LASF68
 2678 041a 78       		.byte	0x78
 2679 041b 05       		.byte	0x5
 2680 041c 9C01     		.2byte	0x19c
 2681 041e 63040000 		.4byte	0x463
 2682 0422 0E       		.uleb128 0xe
 2683 0423 79070000 		.4byte	.LASF69
 2684 0427 05       		.byte	0x5
 2685 0428 A001     		.2byte	0x1a0
 2686 042a BA020000 		.4byte	0x2ba
 2687 042e 00       		.byte	0
 2688 042f 0E       		.uleb128 0xe
 2689 0430 AB010000 		.4byte	.LASF70
 2690 0434 05       		.byte	0x5
 2691 0435 A401     		.2byte	0x1a4
 2692 0437 97030000 		.4byte	0x397
 2693 043b 1C       		.byte	0x1c
 2694 043c 0D       		.uleb128 0xd
 2695 043d 64626700 		.ascii	"dbg\000"
 2696 0441 05       		.byte	0x5
 2697 0442 A801     		.2byte	0x1a8
 2698 0444 E4030000 		.4byte	0x3e4
 2699 0448 2C       		.byte	0x2c
 2700 0449 0E       		.uleb128 0xe
 2701 044a FB020000 		.4byte	.LASF71
 2702 044e 05       		.byte	0x5
 2703 044f AC01     		.2byte	0x1ac
 2704 0451 6C010000 		.4byte	0x16c
 2705 0455 30       		.byte	0x30
 2706 0456 0D       		.uleb128 0xd
 2707 0457 746D00   		.ascii	"tm\000"
 2708 045a 05       		.byte	0x5
 2709 045b B101     		.2byte	0x1b1
 2710 045d 6F060000 		.4byte	0x66f
ARM GAS  /tmp/cc9hywgG.s 			page 49


 2711 0461 74       		.byte	0x74
 2712 0462 00       		.byte	0
 2713 0463 12       		.uleb128 0x12
 2714 0464 F3000000 		.4byte	0xf3
 2715 0468 08       		.uleb128 0x8
 2716 0469 F3000000 		.4byte	0xf3
 2717 046d 78040000 		.4byte	0x478
 2718 0471 09       		.uleb128 0x9
 2719 0472 A2000000 		.4byte	0xa2
 2720 0476 01       		.byte	0x1
 2721 0477 00       		.byte	0
 2722 0478 08       		.uleb128 0x8
 2723 0479 F3000000 		.4byte	0xf3
 2724 047d 88040000 		.4byte	0x488
 2725 0481 09       		.uleb128 0x9
 2726 0482 A2000000 		.4byte	0xa2
 2727 0486 03       		.byte	0x3
 2728 0487 00       		.byte	0
 2729 0488 03       		.uleb128 0x3
 2730 0489 28020000 		.4byte	.LASF72
 2731 048d 10       		.byte	0x10
 2732 048e 65       		.byte	0x65
 2733 048f A9000000 		.4byte	0xa9
 2734 0493 03       		.uleb128 0x3
 2735 0494 8B030000 		.4byte	.LASF73
 2736 0498 10       		.byte	0x10
 2737 0499 6D       		.byte	0x6d
 2738 049a FE000000 		.4byte	0xfe
 2739 049e 0A       		.uleb128 0xa
 2740 049f 88020000 		.4byte	.LASF74
 2741 04a3 04       		.byte	0x4
 2742 04a4 10       		.byte	0x10
 2743 04a5 89       		.byte	0x89
 2744 04a6 B6040000 		.4byte	0x4b6
 2745 04aa 0C       		.uleb128 0xc
 2746 04ab 737000   		.ascii	"sp\000"
 2747 04ae 10       		.byte	0x10
 2748 04af 8A       		.byte	0x8a
 2749 04b0 32050000 		.4byte	0x532
 2750 04b4 00       		.byte	0
 2751 04b5 00       		.byte	0
 2752 04b6 0F       		.uleb128 0xf
 2753 04b7 49000000 		.4byte	.LASF75
 2754 04bb 24       		.byte	0x24
 2755 04bc 01       		.byte	0x1
 2756 04bd 5901     		.2byte	0x159
 2757 04bf 32050000 		.4byte	0x532
 2758 04c3 0D       		.uleb128 0xd
 2759 04c4 723400   		.ascii	"r4\000"
 2760 04c7 01       		.byte	0x1
 2761 04c8 6C01     		.2byte	0x16c
 2762 04ca 88040000 		.4byte	0x488
 2763 04ce 00       		.byte	0
 2764 04cf 0D       		.uleb128 0xd
 2765 04d0 723500   		.ascii	"r5\000"
 2766 04d3 01       		.byte	0x1
 2767 04d4 6D01     		.2byte	0x16d
ARM GAS  /tmp/cc9hywgG.s 			page 50


 2768 04d6 88040000 		.4byte	0x488
 2769 04da 04       		.byte	0x4
 2770 04db 0D       		.uleb128 0xd
 2771 04dc 723600   		.ascii	"r6\000"
 2772 04df 01       		.byte	0x1
 2773 04e0 6E01     		.2byte	0x16e
 2774 04e2 88040000 		.4byte	0x488
 2775 04e6 08       		.byte	0x8
 2776 04e7 0D       		.uleb128 0xd
 2777 04e8 723700   		.ascii	"r7\000"
 2778 04eb 01       		.byte	0x1
 2779 04ec 6F01     		.2byte	0x16f
 2780 04ee 88040000 		.4byte	0x488
 2781 04f2 0C       		.byte	0xc
 2782 04f3 0D       		.uleb128 0xd
 2783 04f4 723800   		.ascii	"r8\000"
 2784 04f7 01       		.byte	0x1
 2785 04f8 7001     		.2byte	0x170
 2786 04fa 88040000 		.4byte	0x488
 2787 04fe 10       		.byte	0x10
 2788 04ff 0D       		.uleb128 0xd
 2789 0500 723900   		.ascii	"r9\000"
 2790 0503 01       		.byte	0x1
 2791 0504 7101     		.2byte	0x171
 2792 0506 88040000 		.4byte	0x488
 2793 050a 14       		.byte	0x14
 2794 050b 0D       		.uleb128 0xd
 2795 050c 72313000 		.ascii	"r10\000"
 2796 0510 01       		.byte	0x1
 2797 0511 7201     		.2byte	0x172
 2798 0513 88040000 		.4byte	0x488
 2799 0517 18       		.byte	0x18
 2800 0518 0D       		.uleb128 0xd
 2801 0519 72313100 		.ascii	"r11\000"
 2802 051d 01       		.byte	0x1
 2803 051e 7301     		.2byte	0x173
 2804 0520 88040000 		.4byte	0x488
 2805 0524 1C       		.byte	0x1c
 2806 0525 0D       		.uleb128 0xd
 2807 0526 6C7200   		.ascii	"lr\000"
 2808 0529 01       		.byte	0x1
 2809 052a 7401     		.2byte	0x174
 2810 052c 88040000 		.4byte	0x488
 2811 0530 20       		.byte	0x20
 2812 0531 00       		.byte	0
 2813 0532 06       		.uleb128 0x6
 2814 0533 04       		.byte	0x4
 2815 0534 B6040000 		.4byte	0x4b6
 2816 0538 13       		.uleb128 0x13
 2817 0539 60       		.byte	0x60
 2818 053a 11       		.byte	0x11
 2819 053b A101     		.2byte	0x1a1
 2820 053d 44060000 		.4byte	0x644
 2821 0541 0D       		.uleb128 0xd
 2822 0542 43523100 		.ascii	"CR1\000"
 2823 0546 11       		.byte	0x11
 2824 0547 A201     		.2byte	0x1a2
ARM GAS  /tmp/cc9hywgG.s 			page 51


 2825 0549 63040000 		.4byte	0x463
 2826 054d 00       		.byte	0
 2827 054e 0D       		.uleb128 0xd
 2828 054f 43523200 		.ascii	"CR2\000"
 2829 0553 11       		.byte	0x11
 2830 0554 A301     		.2byte	0x1a3
 2831 0556 63040000 		.4byte	0x463
 2832 055a 04       		.byte	0x4
 2833 055b 0E       		.uleb128 0xe
 2834 055c EC020000 		.4byte	.LASF76
 2835 0560 11       		.byte	0x11
 2836 0561 A401     		.2byte	0x1a4
 2837 0563 63040000 		.4byte	0x463
 2838 0567 08       		.byte	0x8
 2839 0568 0E       		.uleb128 0xe
 2840 0569 CE070000 		.4byte	.LASF77
 2841 056d 11       		.byte	0x11
 2842 056e A501     		.2byte	0x1a5
 2843 0570 63040000 		.4byte	0x463
 2844 0574 0C       		.byte	0xc
 2845 0575 0D       		.uleb128 0xd
 2846 0576 535200   		.ascii	"SR\000"
 2847 0579 11       		.byte	0x11
 2848 057a A601     		.2byte	0x1a6
 2849 057c 63040000 		.4byte	0x463
 2850 0580 10       		.byte	0x10
 2851 0581 0D       		.uleb128 0xd
 2852 0582 45475200 		.ascii	"EGR\000"
 2853 0586 11       		.byte	0x11
 2854 0587 A701     		.2byte	0x1a7
 2855 0589 63040000 		.4byte	0x463
 2856 058d 14       		.byte	0x14
 2857 058e 0E       		.uleb128 0xe
 2858 058f 3A010000 		.4byte	.LASF78
 2859 0593 11       		.byte	0x11
 2860 0594 A801     		.2byte	0x1a8
 2861 0596 63040000 		.4byte	0x463
 2862 059a 18       		.byte	0x18
 2863 059b 0E       		.uleb128 0xe
 2864 059c 40010000 		.4byte	.LASF79
 2865 05a0 11       		.byte	0x11
 2866 05a1 A901     		.2byte	0x1a9
 2867 05a3 63040000 		.4byte	0x463
 2868 05a7 1C       		.byte	0x1c
 2869 05a8 0E       		.uleb128 0xe
 2870 05a9 E4010000 		.4byte	.LASF80
 2871 05ad 11       		.byte	0x11
 2872 05ae AA01     		.2byte	0x1aa
 2873 05b0 63040000 		.4byte	0x463
 2874 05b4 20       		.byte	0x20
 2875 05b5 0D       		.uleb128 0xd
 2876 05b6 434E5400 		.ascii	"CNT\000"
 2877 05ba 11       		.byte	0x11
 2878 05bb AB01     		.2byte	0x1ab
 2879 05bd 63040000 		.4byte	0x463
 2880 05c1 24       		.byte	0x24
 2881 05c2 0D       		.uleb128 0xd
ARM GAS  /tmp/cc9hywgG.s 			page 52


 2882 05c3 50534300 		.ascii	"PSC\000"
 2883 05c7 11       		.byte	0x11
 2884 05c8 AC01     		.2byte	0x1ac
 2885 05ca 63040000 		.4byte	0x463
 2886 05ce 28       		.byte	0x28
 2887 05cf 0D       		.uleb128 0xd
 2888 05d0 41525200 		.ascii	"ARR\000"
 2889 05d4 11       		.byte	0x11
 2890 05d5 AD01     		.2byte	0x1ad
 2891 05d7 63040000 		.4byte	0x463
 2892 05db 2C       		.byte	0x2c
 2893 05dc 0D       		.uleb128 0xd
 2894 05dd 52435200 		.ascii	"RCR\000"
 2895 05e1 11       		.byte	0x11
 2896 05e2 AE01     		.2byte	0x1ae
 2897 05e4 63040000 		.4byte	0x463
 2898 05e8 30       		.byte	0x30
 2899 05e9 0D       		.uleb128 0xd
 2900 05ea 43435200 		.ascii	"CCR\000"
 2901 05ee 11       		.byte	0x11
 2902 05ef AF01     		.2byte	0x1af
 2903 05f1 44060000 		.4byte	0x644
 2904 05f5 34       		.byte	0x34
 2905 05f6 0E       		.uleb128 0xe
 2906 05f7 1C010000 		.4byte	.LASF81
 2907 05fb 11       		.byte	0x11
 2908 05fc B001     		.2byte	0x1b0
 2909 05fe 63040000 		.4byte	0x463
 2910 0602 44       		.byte	0x44
 2911 0603 0D       		.uleb128 0xd
 2912 0604 44435200 		.ascii	"DCR\000"
 2913 0608 11       		.byte	0x11
 2914 0609 B101     		.2byte	0x1b1
 2915 060b 63040000 		.4byte	0x463
 2916 060f 48       		.byte	0x48
 2917 0610 0E       		.uleb128 0xe
 2918 0611 7D060000 		.4byte	.LASF82
 2919 0615 11       		.byte	0x11
 2920 0616 B201     		.2byte	0x1b2
 2921 0618 63040000 		.4byte	0x463
 2922 061c 4C       		.byte	0x4c
 2923 061d 0D       		.uleb128 0xd
 2924 061e 4F5200   		.ascii	"OR\000"
 2925 0621 11       		.byte	0x11
 2926 0622 B301     		.2byte	0x1b3
 2927 0624 63040000 		.4byte	0x463
 2928 0628 50       		.byte	0x50
 2929 0629 0E       		.uleb128 0xe
 2930 062a 46010000 		.4byte	.LASF83
 2931 062e 11       		.byte	0x11
 2932 062f B401     		.2byte	0x1b4
 2933 0631 63040000 		.4byte	0x463
 2934 0635 54       		.byte	0x54
 2935 0636 0E       		.uleb128 0xe
 2936 0637 DF060000 		.4byte	.LASF84
 2937 063b 11       		.byte	0x11
 2938 063c B501     		.2byte	0x1b5
ARM GAS  /tmp/cc9hywgG.s 			page 53


 2939 063e 49060000 		.4byte	0x649
 2940 0642 58       		.byte	0x58
 2941 0643 00       		.byte	0
 2942 0644 12       		.uleb128 0x12
 2943 0645 78040000 		.4byte	0x478
 2944 0649 12       		.uleb128 0x12
 2945 064a 68040000 		.4byte	0x468
 2946 064e 14       		.uleb128 0x14
 2947 064f 41030000 		.4byte	.LASF85
 2948 0653 11       		.byte	0x11
 2949 0654 B601     		.2byte	0x1b6
 2950 0656 38050000 		.4byte	0x538
 2951 065a 15       		.uleb128 0x15
 2952 065b 04       		.byte	0x4
 2953 065c 12       		.byte	0x12
 2954 065d 38       		.byte	0x38
 2955 065e 6F060000 		.4byte	0x66f
 2956 0662 0B       		.uleb128 0xb
 2957 0663 EE060000 		.4byte	.LASF86
 2958 0667 12       		.byte	0x12
 2959 0668 3C       		.byte	0x3c
 2960 0669 09010000 		.4byte	0x109
 2961 066d 00       		.byte	0
 2962 066e 00       		.byte	0
 2963 066f 03       		.uleb128 0x3
 2964 0670 27040000 		.4byte	.LASF87
 2965 0674 12       		.byte	0x12
 2966 0675 3D       		.byte	0x3d
 2967 0676 5A060000 		.4byte	0x65a
 2968 067a 16       		.uleb128 0x16
 2969 067b 04       		.byte	0x4
 2970 067c 05       		.byte	0x5
 2971 067d D2       		.byte	0xd2
 2972 067e DD060000 		.4byte	0x6dd
 2973 0682 17       		.uleb128 0x17
 2974 0683 24000000 		.4byte	.LASF88
 2975 0687 05       		.byte	0x5
 2976 0688 D9       		.byte	0xd9
 2977 0689 40010000 		.4byte	0x140
 2978 068d 17       		.uleb128 0x17
 2979 068e A1000000 		.4byte	.LASF89
 2980 0692 05       		.byte	0x5
 2981 0693 E0       		.byte	0xe0
 2982 0694 40010000 		.4byte	0x140
 2983 0698 17       		.uleb128 0x17
 2984 0699 AB070000 		.4byte	.LASF90
 2985 069d 05       		.byte	0x5
 2986 069e E7       		.byte	0xe7
 2987 069f A9000000 		.4byte	0xa9
 2988 06a3 17       		.uleb128 0x17
 2989 06a4 CB020000 		.4byte	.LASF91
 2990 06a8 05       		.byte	0x5
 2991 06a9 EE       		.byte	0xee
 2992 06aa DD060000 		.4byte	0x6dd
 2993 06ae 17       		.uleb128 0x17
 2994 06af C1000000 		.4byte	.LASF92
 2995 06b3 05       		.byte	0x5
ARM GAS  /tmp/cc9hywgG.s 			page 54


 2996 06b4 F3       		.byte	0xf3
 2997 06b5 40010000 		.4byte	0x140
 2998 06b9 17       		.uleb128 0x17
 2999 06ba C4020000 		.4byte	.LASF93
 3000 06be 05       		.byte	0x5
 3001 06bf FC       		.byte	0xfc
 3002 06c0 08070000 		.4byte	0x708
 3003 06c4 18       		.uleb128 0x18
 3004 06c5 A7050000 		.4byte	.LASF94
 3005 06c9 05       		.byte	0x5
 3006 06ca 0501     		.2byte	0x105
 3007 06cc 3F070000 		.4byte	0x73f
 3008 06d0 18       		.uleb128 0x18
 3009 06d1 06050000 		.4byte	.LASF95
 3010 06d5 05       		.byte	0x5
 3011 06d6 0D01     		.2byte	0x10d
 3012 06d8 4B010000 		.4byte	0x14b
 3013 06dc 00       		.byte	0
 3014 06dd 06       		.uleb128 0x6
 3015 06de 04       		.byte	0x4
 3016 06df 55020000 		.4byte	0x255
 3017 06e3 0A       		.uleb128 0xa
 3018 06e4 71050000 		.4byte	.LASF96
 3019 06e8 0C       		.byte	0xc
 3020 06e9 13       		.byte	0x13
 3021 06ea 34       		.byte	0x34
 3022 06eb 08070000 		.4byte	0x708
 3023 06ef 0B       		.uleb128 0xb
 3024 06f0 F7010000 		.4byte	.LASF30
 3025 06f4 13       		.byte	0x13
 3026 06f5 35       		.byte	0x35
 3027 06f6 8A020000 		.4byte	0x28a
 3028 06fa 00       		.byte	0
 3029 06fb 0C       		.uleb128 0xc
 3030 06fc 636E7400 		.ascii	"cnt\000"
 3031 0700 13       		.byte	0x13
 3032 0701 37       		.byte	0x37
 3033 0702 56010000 		.4byte	0x156
 3034 0706 08       		.byte	0x8
 3035 0707 00       		.byte	0
 3036 0708 06       		.uleb128 0x6
 3037 0709 04       		.byte	0x4
 3038 070a E3060000 		.4byte	0x6e3
 3039 070e 0A       		.uleb128 0xa
 3040 070f 59070000 		.4byte	.LASF97
 3041 0713 10       		.byte	0x10
 3042 0714 14       		.byte	0x14
 3043 0715 39       		.byte	0x39
 3044 0716 3F070000 		.4byte	0x73f
 3045 071a 0B       		.uleb128 0xb
 3046 071b F7010000 		.4byte	.LASF30
 3047 071f 14       		.byte	0x14
 3048 0720 3A       		.byte	0x3a
 3049 0721 8A020000 		.4byte	0x28a
 3050 0725 00       		.byte	0
 3051 0726 0B       		.uleb128 0xb
 3052 0727 BE050000 		.4byte	.LASF98
ARM GAS  /tmp/cc9hywgG.s 			page 55


 3053 072b 14       		.byte	0x14
 3054 072c 3C       		.byte	0x3c
 3055 072d 60020000 		.4byte	0x260
 3056 0731 08       		.byte	0x8
 3057 0732 0B       		.uleb128 0xb
 3058 0733 19000000 		.4byte	.LASF49
 3059 0737 14       		.byte	0x14
 3060 0738 3E       		.byte	0x3e
 3061 0739 61070000 		.4byte	0x761
 3062 073d 0C       		.byte	0xc
 3063 073e 00       		.byte	0
 3064 073f 06       		.uleb128 0x6
 3065 0740 04       		.byte	0x4
 3066 0741 0E070000 		.4byte	0x70e
 3067 0745 06       		.uleb128 0x6
 3068 0746 04       		.byte	0x4
 3069 0747 93040000 		.4byte	0x493
 3070 074b 06       		.uleb128 0x6
 3071 074c 04       		.byte	0x4
 3072 074d 3D030000 		.4byte	0x33d
 3073 0751 12       		.uleb128 0x12
 3074 0752 B2000000 		.4byte	0xb2
 3075 0756 03       		.uleb128 0x3
 3076 0757 7A020000 		.4byte	.LASF99
 3077 075b 14       		.byte	0x14
 3078 075c 34       		.byte	0x34
 3079 075d 0E070000 		.4byte	0x70e
 3080 0761 06       		.uleb128 0x6
 3081 0762 04       		.byte	0x4
 3082 0763 56070000 		.4byte	0x756
 3083 0767 04       		.uleb128 0x4
 3084 0768 01       		.byte	0x1
 3085 0769 02       		.byte	0x2
 3086 076a AF040000 		.4byte	.LASF100
 3087 076e 06       		.uleb128 0x6
 3088 076f 04       		.byte	0x4
 3089 0770 DD000000 		.4byte	0xdd
 3090 0774 06       		.uleb128 0x6
 3091 0775 04       		.byte	0x4
 3092 0776 7A070000 		.4byte	0x77a
 3093 077a 07       		.uleb128 0x7
 3094 077b DD000000 		.4byte	0xdd
 3095 077f 03       		.uleb128 0x3
 3096 0780 67020000 		.4byte	.LASF101
 3097 0784 15       		.byte	0x15
 3098 0785 2F       		.byte	0x2f
 3099 0786 8A070000 		.4byte	0x78a
 3100 078a 0A       		.uleb128 0xa
 3101 078b 7D010000 		.4byte	.LASF102
 3102 078f 38       		.byte	0x38
 3103 0790 15       		.byte	0x15
 3104 0791 3B       		.byte	0x3b
 3105 0792 32080000 		.4byte	0x832
 3106 0796 0B       		.uleb128 0xb
 3107 0797 53020000 		.4byte	.LASF39
 3108 079b 15       		.byte	0x15
 3109 079c 3F       		.byte	0x3f
ARM GAS  /tmp/cc9hywgG.s 			page 56


 3110 079d 8A020000 		.4byte	0x28a
 3111 07a1 00       		.byte	0
 3112 07a2 0B       		.uleb128 0xb
 3113 07a3 0E040000 		.4byte	.LASF103
 3114 07a7 15       		.byte	0x15
 3115 07a8 43       		.byte	0x43
 3116 07a9 67070000 		.4byte	0x767
 3117 07ad 08       		.byte	0x8
 3118 07ae 0B       		.uleb128 0xb
 3119 07af 5A040000 		.4byte	.LASF104
 3120 07b3 15       		.byte	0x15
 3121 07b4 47       		.byte	0x47
 3122 07b5 54080000 		.4byte	0x854
 3123 07b9 0C       		.byte	0xc
 3124 07ba 0B       		.uleb128 0xb
 3125 07bb 21010000 		.4byte	.LASF105
 3126 07bf 15       		.byte	0x15
 3127 07c0 4B       		.byte	0x4b
 3128 07c1 6E070000 		.4byte	0x76e
 3129 07c5 10       		.byte	0x10
 3130 07c6 0B       		.uleb128 0xb
 3131 07c7 4C020000 		.4byte	.LASF106
 3132 07cb 15       		.byte	0x15
 3133 07cc 4F       		.byte	0x4f
 3134 07cd 6E070000 		.4byte	0x76e
 3135 07d1 14       		.byte	0x14
 3136 07d2 0B       		.uleb128 0xb
 3137 07d3 18040000 		.4byte	.LASF107
 3138 07d7 15       		.byte	0x15
 3139 07d8 53       		.byte	0x53
 3140 07d9 6E070000 		.4byte	0x76e
 3141 07dd 18       		.byte	0x18
 3142 07de 0B       		.uleb128 0xb
 3143 07df CB040000 		.4byte	.LASF108
 3144 07e3 15       		.byte	0x15
 3145 07e4 5A       		.byte	0x5a
 3146 07e5 2C000000 		.4byte	0x2c
 3147 07e9 1C       		.byte	0x1c
 3148 07ea 0C       		.uleb128 0xc
 3149 07eb 626E00   		.ascii	"bn\000"
 3150 07ee 15       		.byte	0x15
 3151 07ef 5E       		.byte	0x5e
 3152 07f0 2C000000 		.4byte	0x2c
 3153 07f4 20       		.byte	0x20
 3154 07f5 0B       		.uleb128 0xb
 3155 07f6 D9020000 		.4byte	.LASF109
 3156 07fa 15       		.byte	0x15
 3157 07fb 62       		.byte	0x62
 3158 07fc 6E070000 		.4byte	0x76e
 3159 0800 24       		.byte	0x24
 3160 0801 0C       		.uleb128 0xc
 3161 0802 70747200 		.ascii	"ptr\000"
 3162 0806 15       		.byte	0x15
 3163 0807 67       		.byte	0x67
 3164 0808 6E070000 		.4byte	0x76e
 3165 080c 28       		.byte	0x28
 3166 080d 0C       		.uleb128 0xc
ARM GAS  /tmp/cc9hywgG.s 			page 57


 3167 080e 746F7000 		.ascii	"top\000"
 3168 0812 15       		.byte	0x15
 3169 0813 6B       		.byte	0x6b
 3170 0814 6E070000 		.4byte	0x76e
 3171 0818 2C       		.byte	0x2c
 3172 0819 0B       		.uleb128 0xb
 3173 081a 59060000 		.4byte	.LASF110
 3174 081e 15       		.byte	0x15
 3175 081f 6F       		.byte	0x6f
 3176 0820 32080000 		.4byte	0x832
 3177 0824 30       		.byte	0x30
 3178 0825 0B       		.uleb128 0xb
 3179 0826 31020000 		.4byte	.LASF111
 3180 082a 15       		.byte	0x15
 3181 082b 73       		.byte	0x73
 3182 082c A9000000 		.4byte	0xa9
 3183 0830 34       		.byte	0x34
 3184 0831 00       		.byte	0
 3185 0832 03       		.uleb128 0x3
 3186 0833 3E070000 		.4byte	.LASF112
 3187 0837 15       		.byte	0x15
 3188 0838 36       		.byte	0x36
 3189 0839 3D080000 		.4byte	0x83d
 3190 083d 06       		.uleb128 0x6
 3191 083e 04       		.byte	0x4
 3192 083f 43080000 		.4byte	0x843
 3193 0843 10       		.uleb128 0x10
 3194 0844 4E080000 		.4byte	0x84e
 3195 0848 11       		.uleb128 0x11
 3196 0849 4E080000 		.4byte	0x84e
 3197 084d 00       		.byte	0
 3198 084e 06       		.uleb128 0x6
 3199 084f 04       		.byte	0x4
 3200 0850 7F070000 		.4byte	0x77f
 3201 0854 12       		.uleb128 0x12
 3202 0855 2C000000 		.4byte	0x2c
 3203 0859 03       		.uleb128 0x3
 3204 085a 36020000 		.4byte	.LASF113
 3205 085e 15       		.byte	0x15
 3206 085f 79       		.byte	0x79
 3207 0860 7F070000 		.4byte	0x77f
 3208 0864 03       		.uleb128 0x3
 3209 0865 88040000 		.4byte	.LASF114
 3210 0869 15       		.byte	0x15
 3211 086a 7E       		.byte	0x7e
 3212 086b 7F070000 		.4byte	0x77f
 3213 086f 19       		.uleb128 0x19
 3214 0870 ED030000 		.4byte	.LASF167
 3215 0874 02       		.byte	0x2
 3216 0875 0601     		.2byte	0x106
 3217 0877 03       		.byte	0x3
 3218 0878 89080000 		.4byte	0x889
 3219 087c 1A       		.uleb128 0x1a
 3220 087d 82020000 		.4byte	.LASF168
 3221 0881 02       		.byte	0x2
 3222 0882 0601     		.2byte	0x106
 3223 0884 F3000000 		.4byte	0xf3
ARM GAS  /tmp/cc9hywgG.s 			page 58


 3224 0888 00       		.byte	0
 3225 0889 1B       		.uleb128 0x1b
 3226 088a 80000000 		.4byte	.LASF115
 3227 088e 01       		.byte	0x1
 3228 088f 5202     		.2byte	0x252
 3229 0891 00000000 		.4byte	.LFB127
 3230 0895 10000000 		.4byte	.LFE127-.LFB127
 3231 0899 01       		.uleb128 0x1
 3232 089a 9C       		.byte	0x9c
 3233 089b B9080000 		.4byte	0x8b9
 3234 089f 1C       		.uleb128 0x1c
 3235 08a0 6F080000 		.4byte	0x86f
 3236 08a4 06000000 		.4byte	.LBB6
 3237 08a8 06000000 		.4byte	.LBE6-.LBB6
 3238 08ac 01       		.byte	0x1
 3239 08ad 5A02     		.2byte	0x25a
 3240 08af 1D       		.uleb128 0x1d
 3241 08b0 7C080000 		.4byte	0x87c
 3242 08b4 02       		.uleb128 0x2
 3243 08b5 91       		.byte	0x91
 3244 08b6 7C       		.sleb128 -4
 3245 08b7 00       		.byte	0
 3246 08b8 00       		.byte	0
 3247 08b9 1B       		.uleb128 0x1b
 3248 08ba B2010000 		.4byte	.LASF116
 3249 08be 01       		.byte	0x1
 3250 08bf 6A02     		.2byte	0x26a
 3251 08c1 10000000 		.4byte	.LFB128
 3252 08c5 10000000 		.4byte	.LFE128-.LFB128
 3253 08c9 01       		.uleb128 0x1
 3254 08ca 9C       		.byte	0x9c
 3255 08cb E9080000 		.4byte	0x8e9
 3256 08cf 1C       		.uleb128 0x1c
 3257 08d0 6F080000 		.4byte	0x86f
 3258 08d4 16000000 		.4byte	.LBB8
 3259 08d8 06000000 		.4byte	.LBE8-.LBB8
 3260 08dc 01       		.byte	0x1
 3261 08dd 6D02     		.2byte	0x26d
 3262 08df 1D       		.uleb128 0x1d
 3263 08e0 7C080000 		.4byte	0x87c
 3264 08e4 02       		.uleb128 0x2
 3265 08e5 91       		.byte	0x91
 3266 08e6 7C       		.sleb128 -4
 3267 08e7 00       		.byte	0
 3268 08e8 00       		.byte	0
 3269 08e9 1E       		.uleb128 0x1e
 3270 08ea 7E050000 		.4byte	.LASF117
 3271 08ee 03       		.byte	0x3
 3272 08ef 8B       		.byte	0x8b
 3273 08f0 61010000 		.4byte	0x161
 3274 08f4 20000000 		.4byte	.LFB136
 3275 08f8 0A000000 		.4byte	.LFE136-.LFB136
 3276 08fc 01       		.uleb128 0x1
 3277 08fd 9C       		.byte	0x9c
 3278 08fe 1F       		.uleb128 0x1f
 3279 08ff 22070000 		.4byte	.LASF118
 3280 0903 04       		.byte	0x4
ARM GAS  /tmp/cc9hywgG.s 			page 59


 3281 0904 69       		.byte	0x69
 3282 0905 61010000 		.4byte	0x161
 3283 0909 30000000 		.4byte	.LFB145
 3284 090d 0C000000 		.4byte	.LFE145-.LFB145
 3285 0911 01       		.uleb128 0x1
 3286 0912 9C       		.byte	0x9c
 3287 0913 1B       		.uleb128 0x1b
 3288 0914 75000000 		.4byte	.LASF119
 3289 0918 05       		.byte	0x5
 3290 0919 2402     		.2byte	0x224
 3291 091b 40000000 		.4byte	.LFB150
 3292 091f 14000000 		.4byte	.LFE150-.LFB150
 3293 0923 01       		.uleb128 0x1
 3294 0924 9C       		.byte	0x9c
 3295 0925 39090000 		.4byte	0x939
 3296 0929 20       		.uleb128 0x20
 3297 092a 74717000 		.ascii	"tqp\000"
 3298 092e 05       		.byte	0x5
 3299 092f 2402     		.2byte	0x224
 3300 0931 39090000 		.4byte	0x939
 3301 0935 02       		.uleb128 0x2
 3302 0936 91       		.byte	0x91
 3303 0937 7C       		.sleb128 -4
 3304 0938 00       		.byte	0
 3305 0939 06       		.uleb128 0x6
 3306 093a 04       		.byte	0x4
 3307 093b 8A020000 		.4byte	0x28a
 3308 093f 21       		.uleb128 0x21
 3309 0940 33050000 		.4byte	.LASF123
 3310 0944 06       		.byte	0x6
 3311 0945 7601     		.2byte	0x176
 3312 0947 60000000 		.4byte	.LFB167
 3313 094b 08000000 		.4byte	.LFE167-.LFB167
 3314 094f 01       		.uleb128 0x1
 3315 0950 9C       		.byte	0x9c
 3316 0951 22       		.uleb128 0x22
 3317 0952 15080000 		.4byte	.LASF120
 3318 0956 06       		.byte	0x6
 3319 0957 8201     		.2byte	0x182
 3320 0959 70000000 		.4byte	.LFB168
 3321 095d 08000000 		.4byte	.LFE168-.LFB168
 3322 0961 01       		.uleb128 0x1
 3323 0962 9C       		.byte	0x9c
 3324 0963 71090000 		.4byte	0x971
 3325 0967 23       		.uleb128 0x23
 3326 0968 2A050000 		.4byte	.LASF134
 3327 096c 81090000 		.4byte	0x981
 3328 0970 00       		.byte	0
 3329 0971 08       		.uleb128 0x8
 3330 0972 AB000000 		.4byte	0xab
 3331 0976 81090000 		.4byte	0x981
 3332 097a 09       		.uleb128 0x9
 3333 097b A2000000 		.4byte	0xa2
 3334 097f 0B       		.byte	0xb
 3335 0980 00       		.byte	0
 3336 0981 07       		.uleb128 0x7
 3337 0982 71090000 		.4byte	0x971
ARM GAS  /tmp/cc9hywgG.s 			page 60


 3338 0986 24       		.uleb128 0x24
 3339 0987 A4020000 		.4byte	.LASF121
 3340 098b 07       		.byte	0x7
 3341 098c 8801     		.2byte	0x188
 3342 098e 61010000 		.4byte	0x161
 3343 0992 80000000 		.4byte	.LFB181
 3344 0996 0C000000 		.4byte	.LFE181-.LFB181
 3345 099a 01       		.uleb128 0x1
 3346 099b 9C       		.byte	0x9c
 3347 099c 22       		.uleb128 0x22
 3348 099d 9C030000 		.4byte	.LASF122
 3349 09a1 08       		.byte	0x8
 3350 09a2 9401     		.2byte	0x194
 3351 09a4 90000000 		.4byte	.LFB202
 3352 09a8 12000000 		.4byte	.LFE202-.LFB202
 3353 09ac 01       		.uleb128 0x1
 3354 09ad 9C       		.byte	0x9c
 3355 09ae C2090000 		.4byte	0x9c2
 3356 09b2 20       		.uleb128 0x20
 3357 09b3 74717000 		.ascii	"tqp\000"
 3358 09b7 08       		.byte	0x8
 3359 09b8 9401     		.2byte	0x194
 3360 09ba 39090000 		.4byte	0x939
 3361 09be 02       		.uleb128 0x2
 3362 09bf 91       		.byte	0x91
 3363 09c0 74       		.sleb128 -12
 3364 09c1 00       		.byte	0
 3365 09c2 21       		.uleb128 0x21
 3366 09c3 5B020000 		.4byte	.LASF124
 3367 09c7 09       		.byte	0x9
 3368 09c8 EB01     		.2byte	0x1eb
 3369 09ca B0000000 		.4byte	.LFB252
 3370 09ce 08000000 		.4byte	.LFE252-.LFB252
 3371 09d2 01       		.uleb128 0x1
 3372 09d3 9C       		.byte	0x9c
 3373 09d4 21       		.uleb128 0x21
 3374 09d5 4D050000 		.4byte	.LASF125
 3375 09d9 09       		.byte	0x9
 3376 09da F601     		.2byte	0x1f6
 3377 09dc C0000000 		.4byte	.LFB253
 3378 09e0 08000000 		.4byte	.LFE253-.LFB253
 3379 09e4 01       		.uleb128 0x1
 3380 09e5 9C       		.byte	0x9c
 3381 09e6 24       		.uleb128 0x24
 3382 09e7 F8070000 		.4byte	.LASF126
 3383 09eb 09       		.byte	0x9
 3384 09ec 6802     		.2byte	0x268
 3385 09ee 61010000 		.4byte	0x161
 3386 09f2 D0000000 		.4byte	.LFB261
 3387 09f6 0C000000 		.4byte	.LFE261-.LFB261
 3388 09fa 01       		.uleb128 0x1
 3389 09fb 9C       		.byte	0x9c
 3390 09fc 22       		.uleb128 0x22
 3391 09fd 08070000 		.4byte	.LASF127
 3392 0a01 09       		.byte	0x9
 3393 0a02 F102     		.2byte	0x2f1
 3394 0a04 E0000000 		.4byte	.LFB269
ARM GAS  /tmp/cc9hywgG.s 			page 61


 3395 0a08 12000000 		.4byte	.LFE269-.LFB269
 3396 0a0c 01       		.uleb128 0x1
 3397 0a0d 9C       		.byte	0x9c
 3398 0a0e 220A0000 		.4byte	0xa22
 3399 0a12 20       		.uleb128 0x20
 3400 0a13 74717000 		.ascii	"tqp\000"
 3401 0a17 09       		.byte	0x9
 3402 0a18 F102     		.2byte	0x2f1
 3403 0a1a 39090000 		.4byte	0x939
 3404 0a1e 02       		.uleb128 0x2
 3405 0a1f 91       		.byte	0x91
 3406 0a20 74       		.sleb128 -12
 3407 0a21 00       		.byte	0
 3408 0a22 25       		.uleb128 0x25
 3409 0a23 4D030000 		.4byte	.LASF169
 3410 0a27 09       		.byte	0x9
 3411 0a28 0D03     		.2byte	0x30d
 3412 0a2a 40010000 		.4byte	0x140
 3413 0a2e 00010000 		.4byte	.LFB270
 3414 0a32 1A000000 		.4byte	.LFE270-.LFB270
 3415 0a36 01       		.uleb128 0x1
 3416 0a37 9C       		.byte	0x9c
 3417 0a38 5B0A0000 		.4byte	0xa5b
 3418 0a3c 20       		.uleb128 0x20
 3419 0a3d 74717000 		.ascii	"tqp\000"
 3420 0a41 09       		.byte	0x9
 3421 0a42 0D03     		.2byte	0x30d
 3422 0a44 39090000 		.4byte	0x939
 3423 0a48 02       		.uleb128 0x2
 3424 0a49 91       		.byte	0x91
 3425 0a4a 74       		.sleb128 -12
 3426 0a4b 26       		.uleb128 0x26
 3427 0a4c 38040000 		.4byte	.LASF128
 3428 0a50 09       		.byte	0x9
 3429 0a51 0E03     		.2byte	0x30e
 3430 0a53 61010000 		.4byte	0x161
 3431 0a57 02       		.uleb128 0x2
 3432 0a58 91       		.byte	0x91
 3433 0a59 70       		.sleb128 -16
 3434 0a5a 00       		.byte	0
 3435 0a5b 22       		.uleb128 0x22
 3436 0a5c 66010000 		.4byte	.LASF129
 3437 0a60 09       		.byte	0x9
 3438 0a61 1B03     		.2byte	0x31b
 3439 0a63 20010000 		.4byte	.LFB271
 3440 0a67 16000000 		.4byte	.LFE271-.LFB271
 3441 0a6b 01       		.uleb128 0x1
 3442 0a6c 9C       		.byte	0x9c
 3443 0a6d 900A0000 		.4byte	0xa90
 3444 0a71 20       		.uleb128 0x20
 3445 0a72 74717000 		.ascii	"tqp\000"
 3446 0a76 09       		.byte	0x9
 3447 0a77 1B03     		.2byte	0x31b
 3448 0a79 39090000 		.4byte	0x939
 3449 0a7d 02       		.uleb128 0x2
 3450 0a7e 91       		.byte	0x91
 3451 0a7f 74       		.sleb128 -12
ARM GAS  /tmp/cc9hywgG.s 			page 62


 3452 0a80 20       		.uleb128 0x20
 3453 0a81 6D736700 		.ascii	"msg\000"
 3454 0a85 09       		.byte	0x9
 3455 0a86 1B03     		.2byte	0x31b
 3456 0a88 40010000 		.4byte	0x140
 3457 0a8c 02       		.uleb128 0x2
 3458 0a8d 91       		.byte	0x91
 3459 0a8e 70       		.sleb128 -16
 3460 0a8f 00       		.byte	0
 3461 0a90 22       		.uleb128 0x22
 3462 0a91 D3070000 		.4byte	.LASF130
 3463 0a95 09       		.byte	0x9
 3464 0a96 2803     		.2byte	0x328
 3465 0a98 40010000 		.4byte	.LFB272
 3466 0a9c 16000000 		.4byte	.LFE272-.LFB272
 3467 0aa0 01       		.uleb128 0x1
 3468 0aa1 9C       		.byte	0x9c
 3469 0aa2 C50A0000 		.4byte	0xac5
 3470 0aa6 20       		.uleb128 0x20
 3471 0aa7 74717000 		.ascii	"tqp\000"
 3472 0aab 09       		.byte	0x9
 3473 0aac 2803     		.2byte	0x328
 3474 0aae 39090000 		.4byte	0x939
 3475 0ab2 02       		.uleb128 0x2
 3476 0ab3 91       		.byte	0x91
 3477 0ab4 74       		.sleb128 -12
 3478 0ab5 20       		.uleb128 0x20
 3479 0ab6 6D736700 		.ascii	"msg\000"
 3480 0aba 09       		.byte	0x9
 3481 0abb 2803     		.2byte	0x328
 3482 0abd 40010000 		.4byte	0x140
 3483 0ac1 02       		.uleb128 0x2
 3484 0ac2 91       		.byte	0x91
 3485 0ac3 70       		.sleb128 -16
 3486 0ac4 00       		.byte	0
 3487 0ac5 27       		.uleb128 0x27
 3488 0ac6 0E010000 		.4byte	.LASF135
 3489 0aca 0A       		.byte	0xa
 3490 0acb 4C       		.byte	0x4c
 3491 0acc 60010000 		.4byte	.LFB279
 3492 0ad0 76000000 		.4byte	.LFE279-.LFB279
 3493 0ad4 01       		.uleb128 0x1
 3494 0ad5 9C       		.byte	0x9c
 3495 0ad6 430B0000 		.4byte	0xb43
 3496 0ada 28       		.uleb128 0x28
 3497 0adb 55040000 		.4byte	.LASF131
 3498 0adf 0A       		.byte	0xa
 3499 0ae0 4C       		.byte	0x4c
 3500 0ae1 430B0000 		.4byte	0xb43
 3501 0ae5 02       		.uleb128 0x2
 3502 0ae6 91       		.byte	0x91
 3503 0ae7 74       		.sleb128 -12
 3504 0ae8 28       		.uleb128 0x28
 3505 0ae9 0E040000 		.4byte	.LASF103
 3506 0aed 0A       		.byte	0xa
 3507 0aee 4C       		.byte	0x4c
 3508 0aef 67070000 		.4byte	0x767
ARM GAS  /tmp/cc9hywgG.s 			page 63


 3509 0af3 02       		.uleb128 0x2
 3510 0af4 91       		.byte	0x91
 3511 0af5 73       		.sleb128 -13
 3512 0af6 29       		.uleb128 0x29
 3513 0af7 627000   		.ascii	"bp\000"
 3514 0afa 0A       		.byte	0xa
 3515 0afb 4C       		.byte	0x4c
 3516 0afc 6E070000 		.4byte	0x76e
 3517 0b00 02       		.uleb128 0x2
 3518 0b01 91       		.byte	0x91
 3519 0b02 6C       		.sleb128 -20
 3520 0b03 28       		.uleb128 0x28
 3521 0b04 5B050000 		.4byte	.LASF132
 3522 0b08 0A       		.byte	0xa
 3523 0b09 4D       		.byte	0x4d
 3524 0b0a 2C000000 		.4byte	0x2c
 3525 0b0e 02       		.uleb128 0x2
 3526 0b0f 91       		.byte	0x91
 3527 0b10 68       		.sleb128 -24
 3528 0b11 29       		.uleb128 0x29
 3529 0b12 6E00     		.ascii	"n\000"
 3530 0b14 0A       		.byte	0xa
 3531 0b15 4D       		.byte	0x4d
 3532 0b16 2C000000 		.4byte	0x2c
 3533 0b1a 02       		.uleb128 0x2
 3534 0b1b 91       		.byte	0x91
 3535 0b1c 00       		.sleb128 0
 3536 0b1d 28       		.uleb128 0x28
 3537 0b1e 17050000 		.4byte	.LASF133
 3538 0b22 0A       		.byte	0xa
 3539 0b23 4D       		.byte	0x4d
 3540 0b24 32080000 		.4byte	0x832
 3541 0b28 02       		.uleb128 0x2
 3542 0b29 91       		.byte	0x91
 3543 0b2a 04       		.sleb128 4
 3544 0b2b 28       		.uleb128 0x28
 3545 0b2c 31020000 		.4byte	.LASF111
 3546 0b30 0A       		.byte	0xa
 3547 0b31 4D       		.byte	0x4d
 3548 0b32 A9000000 		.4byte	0xa9
 3549 0b36 02       		.uleb128 0x2
 3550 0b37 91       		.byte	0x91
 3551 0b38 08       		.sleb128 8
 3552 0b39 23       		.uleb128 0x23
 3553 0b3a 2A050000 		.4byte	.LASF134
 3554 0b3e 590B0000 		.4byte	0xb59
 3555 0b42 00       		.byte	0
 3556 0b43 06       		.uleb128 0x6
 3557 0b44 04       		.byte	0x4
 3558 0b45 59080000 		.4byte	0x859
 3559 0b49 08       		.uleb128 0x8
 3560 0b4a AB000000 		.4byte	0xab
 3561 0b4e 590B0000 		.4byte	0xb59
 3562 0b52 09       		.uleb128 0x9
 3563 0b53 A2000000 		.4byte	0xa2
 3564 0b57 0D       		.byte	0xd
 3565 0b58 00       		.byte	0
ARM GAS  /tmp/cc9hywgG.s 			page 64


 3566 0b59 07       		.uleb128 0x7
 3567 0b5a 490B0000 		.4byte	0xb49
 3568 0b5e 27       		.uleb128 0x27
 3569 0b5f D1040000 		.4byte	.LASF136
 3570 0b63 0A       		.byte	0xa
 3571 0b64 6B       		.byte	0x6b
 3572 0b65 E0010000 		.4byte	.LFB280
 3573 0b69 3A000000 		.4byte	.LFE280-.LFB280
 3574 0b6d 01       		.uleb128 0x1
 3575 0b6e 9C       		.byte	0x9c
 3576 0b6f 820B0000 		.4byte	0xb82
 3577 0b73 28       		.uleb128 0x28
 3578 0b74 55040000 		.4byte	.LASF131
 3579 0b78 0A       		.byte	0xa
 3580 0b79 6B       		.byte	0x6b
 3581 0b7a 430B0000 		.4byte	0xb43
 3582 0b7e 02       		.uleb128 0x2
 3583 0b7f 91       		.byte	0x91
 3584 0b80 74       		.sleb128 -12
 3585 0b81 00       		.byte	0
 3586 0b82 2A       		.uleb128 0x2a
 3587 0b83 22030000 		.4byte	.LASF138
 3588 0b87 0A       		.byte	0xa
 3589 0b88 81       		.byte	0x81
 3590 0b89 6E070000 		.4byte	0x76e
 3591 0b8d 20020000 		.4byte	.LFB281
 3592 0b91 38000000 		.4byte	.LFE281-.LFB281
 3593 0b95 01       		.uleb128 0x1
 3594 0b96 9C       		.byte	0x9c
 3595 0b97 AA0B0000 		.4byte	0xbaa
 3596 0b9b 28       		.uleb128 0x28
 3597 0b9c 55040000 		.4byte	.LASF131
 3598 0ba0 0A       		.byte	0xa
 3599 0ba1 81       		.byte	0x81
 3600 0ba2 430B0000 		.4byte	0xb43
 3601 0ba6 02       		.uleb128 0x2
 3602 0ba7 91       		.byte	0x91
 3603 0ba8 7C       		.sleb128 -4
 3604 0ba9 00       		.byte	0
 3605 0baa 27       		.uleb128 0x27
 3606 0bab FB030000 		.4byte	.LASF137
 3607 0baf 0A       		.byte	0xa
 3608 0bb0 94       		.byte	0x94
 3609 0bb1 60020000 		.4byte	.LFB282
 3610 0bb5 4C000000 		.4byte	.LFE282-.LFB282
 3611 0bb9 01       		.uleb128 0x1
 3612 0bba 9C       		.byte	0x9c
 3613 0bbb E50B0000 		.4byte	0xbe5
 3614 0bbf 28       		.uleb128 0x28
 3615 0bc0 55040000 		.4byte	.LASF131
 3616 0bc4 0A       		.byte	0xa
 3617 0bc5 94       		.byte	0x94
 3618 0bc6 430B0000 		.4byte	0xb43
 3619 0bca 02       		.uleb128 0x2
 3620 0bcb 91       		.byte	0x91
 3621 0bcc 74       		.sleb128 -12
 3622 0bcd 28       		.uleb128 0x28
ARM GAS  /tmp/cc9hywgG.s 			page 65


 3623 0bce 5B050000 		.4byte	.LASF132
 3624 0bd2 0A       		.byte	0xa
 3625 0bd3 94       		.byte	0x94
 3626 0bd4 2C000000 		.4byte	0x2c
 3627 0bd8 02       		.uleb128 0x2
 3628 0bd9 91       		.byte	0x91
 3629 0bda 70       		.sleb128 -16
 3630 0bdb 23       		.uleb128 0x23
 3631 0bdc 2A050000 		.4byte	.LASF134
 3632 0be0 F50B0000 		.4byte	0xbf5
 3633 0be4 00       		.byte	0
 3634 0be5 08       		.uleb128 0x8
 3635 0be6 AB000000 		.4byte	0xab
 3636 0bea F50B0000 		.4byte	0xbf5
 3637 0bee 09       		.uleb128 0x9
 3638 0bef A2000000 		.4byte	0xa2
 3639 0bf3 12       		.byte	0x12
 3640 0bf4 00       		.byte	0
 3641 0bf5 07       		.uleb128 0x7
 3642 0bf6 E50B0000 		.4byte	0xbe5
 3643 0bfa 2B       		.uleb128 0x2b
 3644 0bfb DB040000 		.4byte	.LASF139
 3645 0bff 0A       		.byte	0xa
 3646 0c00 BE       		.byte	0xbe
 3647 0c01 40010000 		.4byte	0x140
 3648 0c05 B0020000 		.4byte	.LFB283
 3649 0c09 24000000 		.4byte	.LFE283-.LFB283
 3650 0c0d 01       		.uleb128 0x1
 3651 0c0e 9C       		.byte	0x9c
 3652 0c0f 3E0C0000 		.4byte	0xc3e
 3653 0c13 28       		.uleb128 0x28
 3654 0c14 55040000 		.4byte	.LASF131
 3655 0c18 0A       		.byte	0xa
 3656 0c19 BE       		.byte	0xbe
 3657 0c1a 430B0000 		.4byte	0xb43
 3658 0c1e 02       		.uleb128 0x2
 3659 0c1f 91       		.byte	0x91
 3660 0c20 6C       		.sleb128 -20
 3661 0c21 28       		.uleb128 0x28
 3662 0c22 D1020000 		.4byte	.LASF140
 3663 0c26 0A       		.byte	0xa
 3664 0c27 BF       		.byte	0xbf
 3665 0c28 61010000 		.4byte	0x161
 3666 0c2c 02       		.uleb128 0x2
 3667 0c2d 91       		.byte	0x91
 3668 0c2e 68       		.sleb128 -24
 3669 0c2f 2C       		.uleb128 0x2c
 3670 0c30 6D736700 		.ascii	"msg\000"
 3671 0c34 0A       		.byte	0xa
 3672 0c35 C0       		.byte	0xc0
 3673 0c36 40010000 		.4byte	0x140
 3674 0c3a 02       		.uleb128 0x2
 3675 0c3b 91       		.byte	0x91
 3676 0c3c 74       		.sleb128 -12
 3677 0c3d 00       		.byte	0
 3678 0c3e 2B       		.uleb128 0x2b
 3679 0c3f 04020000 		.4byte	.LASF141
ARM GAS  /tmp/cc9hywgG.s 			page 66


 3680 0c43 0A       		.byte	0xa
 3681 0c44 DE       		.byte	0xde
 3682 0c45 40010000 		.4byte	0x140
 3683 0c49 E0020000 		.4byte	.LFB284
 3684 0c4d 5A000000 		.4byte	.LFE284-.LFB284
 3685 0c51 01       		.uleb128 0x1
 3686 0c52 9C       		.byte	0x9c
 3687 0c53 950C0000 		.4byte	0xc95
 3688 0c57 28       		.uleb128 0x28
 3689 0c58 55040000 		.4byte	.LASF131
 3690 0c5c 0A       		.byte	0xa
 3691 0c5d DE       		.byte	0xde
 3692 0c5e 430B0000 		.4byte	0xb43
 3693 0c62 02       		.uleb128 0x2
 3694 0c63 91       		.byte	0x91
 3695 0c64 6C       		.sleb128 -20
 3696 0c65 28       		.uleb128 0x28
 3697 0c66 D1020000 		.4byte	.LASF140
 3698 0c6a 0A       		.byte	0xa
 3699 0c6b DF       		.byte	0xdf
 3700 0c6c 61010000 		.4byte	0x161
 3701 0c70 02       		.uleb128 0x2
 3702 0c71 91       		.byte	0x91
 3703 0c72 68       		.sleb128 -24
 3704 0c73 23       		.uleb128 0x23
 3705 0c74 2A050000 		.4byte	.LASF134
 3706 0c78 950C0000 		.4byte	0xc95
 3707 0c7c 2D       		.uleb128 0x2d
 3708 0c7d EA020000 		.4byte	.LBB10
 3709 0c81 24000000 		.4byte	.LBE10-.LBB10
 3710 0c85 2C       		.uleb128 0x2c
 3711 0c86 6D736700 		.ascii	"msg\000"
 3712 0c8a 0A       		.byte	0xa
 3713 0c8b E7       		.byte	0xe7
 3714 0c8c 40010000 		.4byte	0x140
 3715 0c90 02       		.uleb128 0x2
 3716 0c91 91       		.byte	0x91
 3717 0c92 74       		.sleb128 -12
 3718 0c93 00       		.byte	0
 3719 0c94 00       		.byte	0
 3720 0c95 07       		.uleb128 0x7
 3721 0c96 CD000000 		.4byte	0xcd
 3722 0c9a 27       		.uleb128 0x27
 3723 0c9b B8070000 		.4byte	.LASF142
 3724 0c9f 0A       		.byte	0xa
 3725 0ca0 FE       		.byte	0xfe
 3726 0ca1 40030000 		.4byte	.LFB285
 3727 0ca5 1A000000 		.4byte	.LFE285-.LFB285
 3728 0ca9 01       		.uleb128 0x1
 3729 0caa 9C       		.byte	0x9c
 3730 0cab BE0C0000 		.4byte	0xcbe
 3731 0caf 28       		.uleb128 0x28
 3732 0cb0 55040000 		.4byte	.LASF131
 3733 0cb4 0A       		.byte	0xa
 3734 0cb5 FE       		.byte	0xfe
 3735 0cb6 430B0000 		.4byte	0xb43
 3736 0cba 02       		.uleb128 0x2
ARM GAS  /tmp/cc9hywgG.s 			page 67


 3737 0cbb 91       		.byte	0x91
 3738 0cbc 74       		.sleb128 -12
 3739 0cbd 00       		.byte	0
 3740 0cbe 2E       		.uleb128 0x2e
 3741 0cbf AA000000 		.4byte	.LASF143
 3742 0cc3 0A       		.byte	0xa
 3743 0cc4 0D01     		.2byte	0x10d
 3744 0cc6 60030000 		.4byte	.LFB286
 3745 0cca 4E000000 		.4byte	.LFE286-.LFB286
 3746 0cce 01       		.uleb128 0x1
 3747 0ccf 9C       		.byte	0x9c
 3748 0cd0 ED0C0000 		.4byte	0xced
 3749 0cd4 26       		.uleb128 0x26
 3750 0cd5 55040000 		.4byte	.LASF131
 3751 0cd9 0A       		.byte	0xa
 3752 0cda 0D01     		.2byte	0x10d
 3753 0cdc 430B0000 		.4byte	0xb43
 3754 0ce0 02       		.uleb128 0x2
 3755 0ce1 91       		.byte	0x91
 3756 0ce2 74       		.sleb128 -12
 3757 0ce3 23       		.uleb128 0x23
 3758 0ce4 2A050000 		.4byte	.LASF134
 3759 0ce8 FD0C0000 		.4byte	0xcfd
 3760 0cec 00       		.byte	0
 3761 0ced 08       		.uleb128 0x8
 3762 0cee AB000000 		.4byte	0xab
 3763 0cf2 FD0C0000 		.4byte	0xcfd
 3764 0cf6 09       		.uleb128 0x9
 3765 0cf7 A2000000 		.4byte	0xa2
 3766 0cfb 16       		.byte	0x16
 3767 0cfc 00       		.byte	0
 3768 0cfd 07       		.uleb128 0x7
 3769 0cfe ED0C0000 		.4byte	0xced
 3770 0d02 2F       		.uleb128 0x2f
 3771 0d03 8E010000 		.4byte	.LASF144
 3772 0d07 0A       		.byte	0xa
 3773 0d08 3501     		.2byte	0x135
 3774 0d0a 40010000 		.4byte	0x140
 3775 0d0e B0030000 		.4byte	.LFB287
 3776 0d12 5E000000 		.4byte	.LFE287-.LFB287
 3777 0d16 01       		.uleb128 0x1
 3778 0d17 9C       		.byte	0x9c
 3779 0d18 4A0D0000 		.4byte	0xd4a
 3780 0d1c 26       		.uleb128 0x26
 3781 0d1d 55040000 		.4byte	.LASF131
 3782 0d21 0A       		.byte	0xa
 3783 0d22 3501     		.2byte	0x135
 3784 0d24 430B0000 		.4byte	0xb43
 3785 0d28 02       		.uleb128 0x2
 3786 0d29 91       		.byte	0x91
 3787 0d2a 6C       		.sleb128 -20
 3788 0d2b 26       		.uleb128 0x26
 3789 0d2c D1020000 		.4byte	.LASF140
 3790 0d30 0A       		.byte	0xa
 3791 0d31 3501     		.2byte	0x135
 3792 0d33 61010000 		.4byte	0x161
 3793 0d37 02       		.uleb128 0x2
ARM GAS  /tmp/cc9hywgG.s 			page 68


 3794 0d38 91       		.byte	0x91
 3795 0d39 68       		.sleb128 -24
 3796 0d3a 30       		.uleb128 0x30
 3797 0d3b 6D736700 		.ascii	"msg\000"
 3798 0d3f 0A       		.byte	0xa
 3799 0d40 3601     		.2byte	0x136
 3800 0d42 40010000 		.4byte	0x140
 3801 0d46 02       		.uleb128 0x2
 3802 0d47 91       		.byte	0x91
 3803 0d48 74       		.sleb128 -12
 3804 0d49 00       		.byte	0
 3805 0d4a 2F       		.uleb128 0x2f
 3806 0d4b 9C010000 		.4byte	.LASF145
 3807 0d4f 0A       		.byte	0xa
 3808 0d50 6601     		.2byte	0x166
 3809 0d52 2C000000 		.4byte	0x2c
 3810 0d56 10040000 		.4byte	.LFB288
 3811 0d5a 20010000 		.4byte	.LFE288-.LFB288
 3812 0d5e 01       		.uleb128 0x1
 3813 0d5f 9C       		.byte	0x9c
 3814 0d60 0E0E0000 		.4byte	0xe0e
 3815 0d64 26       		.uleb128 0x26
 3816 0d65 55040000 		.4byte	.LASF131
 3817 0d69 0A       		.byte	0xa
 3818 0d6a 6601     		.2byte	0x166
 3819 0d6c 430B0000 		.4byte	0xb43
 3820 0d70 02       		.uleb128 0x2
 3821 0d71 91       		.byte	0x91
 3822 0d72 5C       		.sleb128 -36
 3823 0d73 20       		.uleb128 0x20
 3824 0d74 627000   		.ascii	"bp\000"
 3825 0d77 0A       		.byte	0xa
 3826 0d78 6601     		.2byte	0x166
 3827 0d7a 6E070000 		.4byte	0x76e
 3828 0d7e 02       		.uleb128 0x2
 3829 0d7f 91       		.byte	0x91
 3830 0d80 58       		.sleb128 -40
 3831 0d81 20       		.uleb128 0x20
 3832 0d82 6E00     		.ascii	"n\000"
 3833 0d84 0A       		.byte	0xa
 3834 0d85 6701     		.2byte	0x167
 3835 0d87 2C000000 		.4byte	0x2c
 3836 0d8b 02       		.uleb128 0x2
 3837 0d8c 91       		.byte	0x91
 3838 0d8d 54       		.sleb128 -44
 3839 0d8e 26       		.uleb128 0x26
 3840 0d8f D1020000 		.4byte	.LASF140
 3841 0d93 0A       		.byte	0xa
 3842 0d94 6701     		.2byte	0x167
 3843 0d96 61010000 		.4byte	0x161
 3844 0d9a 02       		.uleb128 0x2
 3845 0d9b 91       		.byte	0x91
 3846 0d9c 50       		.sleb128 -48
 3847 0d9d 30       		.uleb128 0x30
 3848 0d9e 7200     		.ascii	"r\000"
 3849 0da0 0A       		.byte	0xa
 3850 0da1 6801     		.2byte	0x168
ARM GAS  /tmp/cc9hywgG.s 			page 69


 3851 0da3 2C000000 		.4byte	0x2c
 3852 0da7 02       		.uleb128 0x2
 3853 0da8 91       		.byte	0x91
 3854 0da9 74       		.sleb128 -12
 3855 0daa 31       		.uleb128 0x31
 3856 0dab 21080000 		.4byte	.LASF146
 3857 0daf 0A       		.byte	0xa
 3858 0db0 6901     		.2byte	0x169
 3859 0db2 61010000 		.4byte	0x161
 3860 0db6 02       		.uleb128 0x2
 3861 0db7 91       		.byte	0x91
 3862 0db8 68       		.sleb128 -24
 3863 0db9 23       		.uleb128 0x23
 3864 0dba 2A050000 		.4byte	.LASF134
 3865 0dbe 1E0E0000 		.4byte	0xe1e
 3866 0dc2 2D       		.uleb128 0x2d
 3867 0dc3 30040000 		.4byte	.LBB11
 3868 0dc7 F6000000 		.4byte	.LBE11-.LBB11
 3869 0dcb 31       		.uleb128 0x31
 3870 0dcc 5B050000 		.4byte	.LASF132
 3871 0dd0 0A       		.byte	0xa
 3872 0dd1 7301     		.2byte	0x173
 3873 0dd3 2C000000 		.4byte	0x2c
 3874 0dd7 02       		.uleb128 0x2
 3875 0dd8 91       		.byte	0x91
 3876 0dd9 70       		.sleb128 -16
 3877 0dda 2D       		.uleb128 0x2d
 3878 0ddb 38040000 		.4byte	.LBB12
 3879 0ddf 4E000000 		.4byte	.LBE12-.LBB12
 3880 0de3 30       		.uleb128 0x30
 3881 0de4 6D736700 		.ascii	"msg\000"
 3882 0de8 0A       		.byte	0xa
 3883 0de9 7701     		.2byte	0x177
 3884 0deb 40010000 		.4byte	0x140
 3885 0def 02       		.uleb128 0x2
 3886 0df0 91       		.byte	0x91
 3887 0df1 6C       		.sleb128 -20
 3888 0df2 2D       		.uleb128 0x2d
 3889 0df3 52040000 		.4byte	.LBB13
 3890 0df7 26000000 		.4byte	.LBE13-.LBB13
 3891 0dfb 31       		.uleb128 0x31
 3892 0dfc 4C080000 		.4byte	.LASF147
 3893 0e00 0A       		.byte	0xa
 3894 0e01 7F01     		.2byte	0x17f
 3895 0e03 61010000 		.4byte	0x161
 3896 0e07 02       		.uleb128 0x2
 3897 0e08 91       		.byte	0x91
 3898 0e09 64       		.sleb128 -28
 3899 0e0a 00       		.byte	0
 3900 0e0b 00       		.byte	0
 3901 0e0c 00       		.byte	0
 3902 0e0d 00       		.byte	0
 3903 0e0e 08       		.uleb128 0x8
 3904 0e0f AB000000 		.4byte	0xab
 3905 0e13 1E0E0000 		.4byte	0xe1e
 3906 0e17 09       		.uleb128 0x9
 3907 0e18 A2000000 		.4byte	0xa2
ARM GAS  /tmp/cc9hywgG.s 			page 70


 3908 0e1c 0E       		.byte	0xe
 3909 0e1d 00       		.byte	0
 3910 0e1e 07       		.uleb128 0x7
 3911 0e1f 0E0E0000 		.4byte	0xe0e
 3912 0e23 2E       		.uleb128 0x2e
 3913 0e24 58010000 		.4byte	.LASF148
 3914 0e28 0A       		.byte	0xa
 3915 0e29 C301     		.2byte	0x1c3
 3916 0e2b 30050000 		.4byte	.LFB289
 3917 0e2f 76000000 		.4byte	.LFE289-.LFB289
 3918 0e33 01       		.uleb128 0x1
 3919 0e34 9C       		.byte	0x9c
 3920 0e35 A90E0000 		.4byte	0xea9
 3921 0e39 26       		.uleb128 0x26
 3922 0e3a 7F070000 		.4byte	.LASF149
 3923 0e3e 0A       		.byte	0xa
 3924 0e3f C301     		.2byte	0x1c3
 3925 0e41 A90E0000 		.4byte	0xea9
 3926 0e45 02       		.uleb128 0x2
 3927 0e46 91       		.byte	0x91
 3928 0e47 74       		.sleb128 -12
 3929 0e48 26       		.uleb128 0x26
 3930 0e49 0E040000 		.4byte	.LASF103
 3931 0e4d 0A       		.byte	0xa
 3932 0e4e C301     		.2byte	0x1c3
 3933 0e50 67070000 		.4byte	0x767
 3934 0e54 02       		.uleb128 0x2
 3935 0e55 91       		.byte	0x91
 3936 0e56 73       		.sleb128 -13
 3937 0e57 20       		.uleb128 0x20
 3938 0e58 627000   		.ascii	"bp\000"
 3939 0e5b 0A       		.byte	0xa
 3940 0e5c C301     		.2byte	0x1c3
 3941 0e5e 6E070000 		.4byte	0x76e
 3942 0e62 02       		.uleb128 0x2
 3943 0e63 91       		.byte	0x91
 3944 0e64 6C       		.sleb128 -20
 3945 0e65 26       		.uleb128 0x26
 3946 0e66 5B050000 		.4byte	.LASF132
 3947 0e6a 0A       		.byte	0xa
 3948 0e6b C401     		.2byte	0x1c4
 3949 0e6d 2C000000 		.4byte	0x2c
 3950 0e71 02       		.uleb128 0x2
 3951 0e72 91       		.byte	0x91
 3952 0e73 68       		.sleb128 -24
 3953 0e74 20       		.uleb128 0x20
 3954 0e75 6E00     		.ascii	"n\000"
 3955 0e77 0A       		.byte	0xa
 3956 0e78 C401     		.2byte	0x1c4
 3957 0e7a 2C000000 		.4byte	0x2c
 3958 0e7e 02       		.uleb128 0x2
 3959 0e7f 91       		.byte	0x91
 3960 0e80 00       		.sleb128 0
 3961 0e81 26       		.uleb128 0x26
 3962 0e82 0D000000 		.4byte	.LASF150
 3963 0e86 0A       		.byte	0xa
 3964 0e87 C401     		.2byte	0x1c4
ARM GAS  /tmp/cc9hywgG.s 			page 71


 3965 0e89 32080000 		.4byte	0x832
 3966 0e8d 02       		.uleb128 0x2
 3967 0e8e 91       		.byte	0x91
 3968 0e8f 04       		.sleb128 4
 3969 0e90 26       		.uleb128 0x26
 3970 0e91 31020000 		.4byte	.LASF111
 3971 0e95 0A       		.byte	0xa
 3972 0e96 C401     		.2byte	0x1c4
 3973 0e98 A9000000 		.4byte	0xa9
 3974 0e9c 02       		.uleb128 0x2
 3975 0e9d 91       		.byte	0x91
 3976 0e9e 08       		.sleb128 8
 3977 0e9f 23       		.uleb128 0x23
 3978 0ea0 2A050000 		.4byte	.LASF134
 3979 0ea4 AF0E0000 		.4byte	0xeaf
 3980 0ea8 00       		.byte	0
 3981 0ea9 06       		.uleb128 0x6
 3982 0eaa 04       		.byte	0x4
 3983 0eab 64080000 		.4byte	0x864
 3984 0eaf 07       		.uleb128 0x7
 3985 0eb0 490B0000 		.4byte	0xb49
 3986 0eb4 2E       		.uleb128 0x2e
 3987 0eb5 1D040000 		.4byte	.LASF151
 3988 0eb9 0A       		.byte	0xa
 3989 0eba E201     		.2byte	0x1e2
 3990 0ebc B0050000 		.4byte	.LFB290
 3991 0ec0 3C000000 		.4byte	.LFE290-.LFB290
 3992 0ec4 01       		.uleb128 0x1
 3993 0ec5 9C       		.byte	0x9c
 3994 0ec6 DA0E0000 		.4byte	0xeda
 3995 0eca 26       		.uleb128 0x26
 3996 0ecb 7F070000 		.4byte	.LASF149
 3997 0ecf 0A       		.byte	0xa
 3998 0ed0 E201     		.2byte	0x1e2
 3999 0ed2 A90E0000 		.4byte	0xea9
 4000 0ed6 02       		.uleb128 0x2
 4001 0ed7 91       		.byte	0x91
 4002 0ed8 74       		.sleb128 -12
 4003 0ed9 00       		.byte	0
 4004 0eda 32       		.uleb128 0x32
 4005 0edb 28010000 		.4byte	.LASF152
 4006 0edf 0A       		.byte	0xa
 4007 0ee0 F901     		.2byte	0x1f9
 4008 0ee2 6E070000 		.4byte	0x76e
 4009 0ee6 F0050000 		.4byte	.LFB291
 4010 0eea 44000000 		.4byte	.LFE291-.LFB291
 4011 0eee 01       		.uleb128 0x1
 4012 0eef 9C       		.byte	0x9c
 4013 0ef0 130F0000 		.4byte	0xf13
 4014 0ef4 26       		.uleb128 0x26
 4015 0ef5 7F070000 		.4byte	.LASF149
 4016 0ef9 0A       		.byte	0xa
 4017 0efa F901     		.2byte	0x1f9
 4018 0efc A90E0000 		.4byte	0xea9
 4019 0f00 02       		.uleb128 0x2
 4020 0f01 91       		.byte	0x91
 4021 0f02 7C       		.sleb128 -4
ARM GAS  /tmp/cc9hywgG.s 			page 72


 4022 0f03 26       		.uleb128 0x26
 4023 0f04 B2070000 		.4byte	.LASF153
 4024 0f08 0A       		.byte	0xa
 4025 0f09 FA01     		.2byte	0x1fa
 4026 0f0b 130F0000 		.4byte	0xf13
 4027 0f0f 02       		.uleb128 0x2
 4028 0f10 91       		.byte	0x91
 4029 0f11 78       		.sleb128 -8
 4030 0f12 00       		.byte	0
 4031 0f13 06       		.uleb128 0x6
 4032 0f14 04       		.byte	0x4
 4033 0f15 2C000000 		.4byte	0x2c
 4034 0f19 2E       		.uleb128 0x2e
 4035 0f1a 62070000 		.4byte	.LASF154
 4036 0f1e 0A       		.byte	0xa
 4037 0f1f 0F02     		.2byte	0x20f
 4038 0f21 40060000 		.4byte	.LFB292
 4039 0f25 42000000 		.4byte	.LFE292-.LFB292
 4040 0f29 01       		.uleb128 0x1
 4041 0f2a 9C       		.byte	0x9c
 4042 0f2b 480F0000 		.4byte	0xf48
 4043 0f2f 26       		.uleb128 0x26
 4044 0f30 7F070000 		.4byte	.LASF149
 4045 0f34 0A       		.byte	0xa
 4046 0f35 0F02     		.2byte	0x20f
 4047 0f37 A90E0000 		.4byte	0xea9
 4048 0f3b 02       		.uleb128 0x2
 4049 0f3c 91       		.byte	0x91
 4050 0f3d 74       		.sleb128 -12
 4051 0f3e 23       		.uleb128 0x23
 4052 0f3f 2A050000 		.4byte	.LASF134
 4053 0f43 480F0000 		.4byte	0xf48
 4054 0f47 00       		.byte	0
 4055 0f48 07       		.uleb128 0x7
 4056 0f49 ED0C0000 		.4byte	0xced
 4057 0f4d 2F       		.uleb128 0x2f
 4058 0f4e 92070000 		.4byte	.LASF155
 4059 0f52 0A       		.byte	0xa
 4060 0f53 3402     		.2byte	0x234
 4061 0f55 40010000 		.4byte	0x140
 4062 0f59 90060000 		.4byte	.LFB293
 4063 0f5d 24000000 		.4byte	.LFE293-.LFB293
 4064 0f61 01       		.uleb128 0x1
 4065 0f62 9C       		.byte	0x9c
 4066 0f63 950F0000 		.4byte	0xf95
 4067 0f67 26       		.uleb128 0x26
 4068 0f68 7F070000 		.4byte	.LASF149
 4069 0f6c 0A       		.byte	0xa
 4070 0f6d 3402     		.2byte	0x234
 4071 0f6f A90E0000 		.4byte	0xea9
 4072 0f73 02       		.uleb128 0x2
 4073 0f74 91       		.byte	0x91
 4074 0f75 6C       		.sleb128 -20
 4075 0f76 26       		.uleb128 0x26
 4076 0f77 D1020000 		.4byte	.LASF140
 4077 0f7b 0A       		.byte	0xa
 4078 0f7c 3502     		.2byte	0x235
ARM GAS  /tmp/cc9hywgG.s 			page 73


 4079 0f7e 61010000 		.4byte	0x161
 4080 0f82 02       		.uleb128 0x2
 4081 0f83 91       		.byte	0x91
 4082 0f84 68       		.sleb128 -24
 4083 0f85 30       		.uleb128 0x30
 4084 0f86 6D736700 		.ascii	"msg\000"
 4085 0f8a 0A       		.byte	0xa
 4086 0f8b 3602     		.2byte	0x236
 4087 0f8d 40010000 		.4byte	0x140
 4088 0f91 02       		.uleb128 0x2
 4089 0f92 91       		.byte	0x91
 4090 0f93 74       		.sleb128 -12
 4091 0f94 00       		.byte	0
 4092 0f95 2F       		.uleb128 0x2f
 4093 0f96 32080000 		.4byte	.LASF156
 4094 0f9a 0A       		.byte	0xa
 4095 0f9b 5402     		.2byte	0x254
 4096 0f9d 40010000 		.4byte	0x140
 4097 0fa1 C0060000 		.4byte	.LFB294
 4098 0fa5 58000000 		.4byte	.LFE294-.LFB294
 4099 0fa9 01       		.uleb128 0x1
 4100 0faa 9C       		.byte	0x9c
 4101 0fab F00F0000 		.4byte	0xff0
 4102 0faf 26       		.uleb128 0x26
 4103 0fb0 7F070000 		.4byte	.LASF149
 4104 0fb4 0A       		.byte	0xa
 4105 0fb5 5402     		.2byte	0x254
 4106 0fb7 A90E0000 		.4byte	0xea9
 4107 0fbb 02       		.uleb128 0x2
 4108 0fbc 91       		.byte	0x91
 4109 0fbd 6C       		.sleb128 -20
 4110 0fbe 26       		.uleb128 0x26
 4111 0fbf D1020000 		.4byte	.LASF140
 4112 0fc3 0A       		.byte	0xa
 4113 0fc4 5502     		.2byte	0x255
 4114 0fc6 61010000 		.4byte	0x161
 4115 0fca 02       		.uleb128 0x2
 4116 0fcb 91       		.byte	0x91
 4117 0fcc 68       		.sleb128 -24
 4118 0fcd 23       		.uleb128 0x23
 4119 0fce 2A050000 		.4byte	.LASF134
 4120 0fd2 F00F0000 		.4byte	0xff0
 4121 0fd6 2D       		.uleb128 0x2d
 4122 0fd7 CA060000 		.4byte	.LBB14
 4123 0fdb 24000000 		.4byte	.LBE14-.LBB14
 4124 0fdf 30       		.uleb128 0x30
 4125 0fe0 6D736700 		.ascii	"msg\000"
 4126 0fe4 0A       		.byte	0xa
 4127 0fe5 5D02     		.2byte	0x25d
 4128 0fe7 40010000 		.4byte	0x140
 4129 0feb 02       		.uleb128 0x2
 4130 0fec 91       		.byte	0x91
 4131 0fed 74       		.sleb128 -12
 4132 0fee 00       		.byte	0
 4133 0fef 00       		.byte	0
 4134 0ff0 07       		.uleb128 0x7
 4135 0ff1 BD000000 		.4byte	0xbd
ARM GAS  /tmp/cc9hywgG.s 			page 74


 4136 0ff5 2E       		.uleb128 0x2e
 4137 0ff6 6B060000 		.4byte	.LASF157
 4138 0ffa 0A       		.byte	0xa
 4139 0ffb 7502     		.2byte	0x275
 4140 0ffd 20070000 		.4byte	.LFB295
 4141 1001 1E000000 		.4byte	.LFE295-.LFB295
 4142 1005 01       		.uleb128 0x1
 4143 1006 9C       		.byte	0x9c
 4144 1007 2A100000 		.4byte	0x102a
 4145 100b 26       		.uleb128 0x26
 4146 100c 7F070000 		.4byte	.LASF149
 4147 1010 0A       		.byte	0xa
 4148 1011 7502     		.2byte	0x275
 4149 1013 A90E0000 		.4byte	0xea9
 4150 1017 02       		.uleb128 0x2
 4151 1018 91       		.byte	0x91
 4152 1019 74       		.sleb128 -12
 4153 101a 26       		.uleb128 0x26
 4154 101b 5B050000 		.4byte	.LASF132
 4155 101f 0A       		.byte	0xa
 4156 1020 7502     		.2byte	0x275
 4157 1022 2C000000 		.4byte	0x2c
 4158 1026 02       		.uleb128 0x2
 4159 1027 91       		.byte	0x91
 4160 1028 70       		.sleb128 -16
 4161 1029 00       		.byte	0
 4162 102a 2E       		.uleb128 0x2e
 4163 102b 06030000 		.4byte	.LASF158
 4164 102f 0A       		.byte	0xa
 4165 1030 8502     		.2byte	0x285
 4166 1032 40070000 		.4byte	.LFB296
 4167 1036 58000000 		.4byte	.LFE296-.LFB296
 4168 103a 01       		.uleb128 0x1
 4169 103b 9C       		.byte	0x9c
 4170 103c 68100000 		.4byte	0x1068
 4171 1040 26       		.uleb128 0x26
 4172 1041 7F070000 		.4byte	.LASF149
 4173 1045 0A       		.byte	0xa
 4174 1046 8502     		.2byte	0x285
 4175 1048 A90E0000 		.4byte	0xea9
 4176 104c 02       		.uleb128 0x2
 4177 104d 91       		.byte	0x91
 4178 104e 74       		.sleb128 -12
 4179 104f 26       		.uleb128 0x26
 4180 1050 5B050000 		.4byte	.LASF132
 4181 1054 0A       		.byte	0xa
 4182 1055 8502     		.2byte	0x285
 4183 1057 2C000000 		.4byte	0x2c
 4184 105b 02       		.uleb128 0x2
 4185 105c 91       		.byte	0x91
 4186 105d 70       		.sleb128 -16
 4187 105e 23       		.uleb128 0x23
 4188 105f 2A050000 		.4byte	.LASF134
 4189 1063 68100000 		.4byte	0x1068
 4190 1067 00       		.byte	0
 4191 1068 07       		.uleb128 0x7
 4192 1069 E50B0000 		.4byte	0xbe5
ARM GAS  /tmp/cc9hywgG.s 			page 75


 4193 106d 2F       		.uleb128 0x2f
 4194 106e 1C050000 		.4byte	.LASF159
 4195 1072 0A       		.byte	0xa
 4196 1073 B202     		.2byte	0x2b2
 4197 1075 40010000 		.4byte	0x140
 4198 1079 A0070000 		.4byte	.LFB297
 4199 107d 6E000000 		.4byte	.LFE297-.LFB297
 4200 1081 01       		.uleb128 0x1
 4201 1082 9C       		.byte	0x9c
 4202 1083 C2100000 		.4byte	0x10c2
 4203 1087 26       		.uleb128 0x26
 4204 1088 7F070000 		.4byte	.LASF149
 4205 108c 0A       		.byte	0xa
 4206 108d B202     		.2byte	0x2b2
 4207 108f A90E0000 		.4byte	0xea9
 4208 1093 02       		.uleb128 0x2
 4209 1094 91       		.byte	0x91
 4210 1095 6C       		.sleb128 -20
 4211 1096 20       		.uleb128 0x20
 4212 1097 6200     		.ascii	"b\000"
 4213 1099 0A       		.byte	0xa
 4214 109a B202     		.2byte	0x2b2
 4215 109c DD000000 		.4byte	0xdd
 4216 10a0 02       		.uleb128 0x2
 4217 10a1 91       		.byte	0x91
 4218 10a2 6B       		.sleb128 -21
 4219 10a3 26       		.uleb128 0x26
 4220 10a4 D1020000 		.4byte	.LASF140
 4221 10a8 0A       		.byte	0xa
 4222 10a9 B302     		.2byte	0x2b3
 4223 10ab 61010000 		.4byte	0x161
 4224 10af 02       		.uleb128 0x2
 4225 10b0 91       		.byte	0x91
 4226 10b1 64       		.sleb128 -28
 4227 10b2 30       		.uleb128 0x30
 4228 10b3 6D736700 		.ascii	"msg\000"
 4229 10b7 0A       		.byte	0xa
 4230 10b8 B402     		.2byte	0x2b4
 4231 10ba 40010000 		.4byte	0x140
 4232 10be 02       		.uleb128 0x2
 4233 10bf 91       		.byte	0x91
 4234 10c0 74       		.sleb128 -12
 4235 10c1 00       		.byte	0
 4236 10c2 2F       		.uleb128 0x2f
 4237 10c3 3D050000 		.4byte	.LASF160
 4238 10c7 0A       		.byte	0xa
 4239 10c8 E402     		.2byte	0x2e4
 4240 10ca 2C000000 		.4byte	0x2c
 4241 10ce 10080000 		.4byte	.LFB298
 4242 10d2 28010000 		.4byte	.LFE298-.LFB298
 4243 10d6 01       		.uleb128 0x1
 4244 10d7 9C       		.byte	0x9c
 4245 10d8 86110000 		.4byte	0x1186
 4246 10dc 26       		.uleb128 0x26
 4247 10dd 7F070000 		.4byte	.LASF149
 4248 10e1 0A       		.byte	0xa
 4249 10e2 E402     		.2byte	0x2e4
ARM GAS  /tmp/cc9hywgG.s 			page 76


 4250 10e4 A90E0000 		.4byte	0xea9
 4251 10e8 02       		.uleb128 0x2
 4252 10e9 91       		.byte	0x91
 4253 10ea 5C       		.sleb128 -36
 4254 10eb 20       		.uleb128 0x20
 4255 10ec 627000   		.ascii	"bp\000"
 4256 10ef 0A       		.byte	0xa
 4257 10f0 E402     		.2byte	0x2e4
 4258 10f2 74070000 		.4byte	0x774
 4259 10f6 02       		.uleb128 0x2
 4260 10f7 91       		.byte	0x91
 4261 10f8 58       		.sleb128 -40
 4262 10f9 20       		.uleb128 0x20
 4263 10fa 6E00     		.ascii	"n\000"
 4264 10fc 0A       		.byte	0xa
 4265 10fd E502     		.2byte	0x2e5
 4266 10ff 2C000000 		.4byte	0x2c
 4267 1103 02       		.uleb128 0x2
 4268 1104 91       		.byte	0x91
 4269 1105 54       		.sleb128 -44
 4270 1106 26       		.uleb128 0x26
 4271 1107 D1020000 		.4byte	.LASF140
 4272 110b 0A       		.byte	0xa
 4273 110c E502     		.2byte	0x2e5
 4274 110e 61010000 		.4byte	0x161
 4275 1112 02       		.uleb128 0x2
 4276 1113 91       		.byte	0x91
 4277 1114 50       		.sleb128 -48
 4278 1115 30       		.uleb128 0x30
 4279 1116 7700     		.ascii	"w\000"
 4280 1118 0A       		.byte	0xa
 4281 1119 E602     		.2byte	0x2e6
 4282 111b 2C000000 		.4byte	0x2c
 4283 111f 02       		.uleb128 0x2
 4284 1120 91       		.byte	0x91
 4285 1121 74       		.sleb128 -12
 4286 1122 31       		.uleb128 0x31
 4287 1123 21080000 		.4byte	.LASF146
 4288 1127 0A       		.byte	0xa
 4289 1128 E702     		.2byte	0x2e7
 4290 112a 61010000 		.4byte	0x161
 4291 112e 02       		.uleb128 0x2
 4292 112f 91       		.byte	0x91
 4293 1130 68       		.sleb128 -24
 4294 1131 23       		.uleb128 0x23
 4295 1132 2A050000 		.4byte	.LASF134
 4296 1136 96110000 		.4byte	0x1196
 4297 113a 2D       		.uleb128 0x2d
 4298 113b 30080000 		.4byte	.LBB15
 4299 113f FE000000 		.4byte	.LBE15-.LBB15
 4300 1143 31       		.uleb128 0x31
 4301 1144 5B050000 		.4byte	.LASF132
 4302 1148 0A       		.byte	0xa
 4303 1149 F102     		.2byte	0x2f1
 4304 114b 2C000000 		.4byte	0x2c
 4305 114f 02       		.uleb128 0x2
 4306 1150 91       		.byte	0x91
ARM GAS  /tmp/cc9hywgG.s 			page 77


 4307 1151 70       		.sleb128 -16
 4308 1152 2D       		.uleb128 0x2d
 4309 1153 38080000 		.4byte	.LBB16
 4310 1157 4E000000 		.4byte	.LBE16-.LBB16
 4311 115b 30       		.uleb128 0x30
 4312 115c 6D736700 		.ascii	"msg\000"
 4313 1160 0A       		.byte	0xa
 4314 1161 F502     		.2byte	0x2f5
 4315 1163 40010000 		.4byte	0x140
 4316 1167 02       		.uleb128 0x2
 4317 1168 91       		.byte	0x91
 4318 1169 6C       		.sleb128 -20
 4319 116a 2D       		.uleb128 0x2d
 4320 116b 52080000 		.4byte	.LBB17
 4321 116f 26000000 		.4byte	.LBE17-.LBB17
 4322 1173 31       		.uleb128 0x31
 4323 1174 4C080000 		.4byte	.LASF147
 4324 1178 0A       		.byte	0xa
 4325 1179 FD02     		.2byte	0x2fd
 4326 117b 61010000 		.4byte	0x161
 4327 117f 02       		.uleb128 0x2
 4328 1180 91       		.byte	0x91
 4329 1181 64       		.sleb128 -28
 4330 1182 00       		.byte	0
 4331 1183 00       		.byte	0
 4332 1184 00       		.byte	0
 4333 1185 00       		.byte	0
 4334 1186 08       		.uleb128 0x8
 4335 1187 AB000000 		.4byte	0xab
 4336 118b 96110000 		.4byte	0x1196
 4337 118f 09       		.uleb128 0x9
 4338 1190 A2000000 		.4byte	0xa2
 4339 1194 0F       		.byte	0xf
 4340 1195 00       		.byte	0
 4341 1196 07       		.uleb128 0x7
 4342 1197 86110000 		.4byte	0x1186
 4343 119b 32       		.uleb128 0x32
 4344 119c 91050000 		.4byte	.LASF161
 4345 11a0 0A       		.byte	0xa
 4346 11a1 4103     		.2byte	0x341
 4347 11a3 67070000 		.4byte	0x767
 4348 11a7 40090000 		.4byte	.LFB299
 4349 11ab 8C000000 		.4byte	.LFE299-.LFB299
 4350 11af 01       		.uleb128 0x1
 4351 11b0 9C       		.byte	0x9c
 4352 11b1 DE110000 		.4byte	0x11de
 4353 11b5 26       		.uleb128 0x26
 4354 11b6 7F070000 		.4byte	.LASF149
 4355 11ba 0A       		.byte	0xa
 4356 11bb 4103     		.2byte	0x341
 4357 11bd A90E0000 		.4byte	0xea9
 4358 11c1 02       		.uleb128 0x2
 4359 11c2 91       		.byte	0x91
 4360 11c3 74       		.sleb128 -12
 4361 11c4 2D       		.uleb128 0x2d
 4362 11c5 70090000 		.4byte	.LBB18
 4363 11c9 54000000 		.4byte	.LBE18-.LBB18
ARM GAS  /tmp/cc9hywgG.s 			page 78


 4364 11cd 31       		.uleb128 0x31
 4365 11ce 5B050000 		.4byte	.LASF132
 4366 11d2 0A       		.byte	0xa
 4367 11d3 4803     		.2byte	0x348
 4368 11d5 2C000000 		.4byte	0x2c
 4369 11d9 02       		.uleb128 0x2
 4370 11da 91       		.byte	0x91
 4371 11db 7C       		.sleb128 -4
 4372 11dc 00       		.byte	0
 4373 11dd 00       		.byte	0
 4374 11de 2E       		.uleb128 0x2e
 4375 11df 95020000 		.4byte	.LASF162
 4376 11e3 0A       		.byte	0xa
 4377 11e4 6603     		.2byte	0x366
 4378 11e6 D0090000 		.4byte	.LFB300
 4379 11ea 3A000000 		.4byte	.LFE300-.LFB300
 4380 11ee 01       		.uleb128 0x1
 4381 11ef 9C       		.byte	0x9c
 4382 11f0 1D120000 		.4byte	0x121d
 4383 11f4 26       		.uleb128 0x26
 4384 11f5 7F070000 		.4byte	.LASF149
 4385 11f9 0A       		.byte	0xa
 4386 11fa 6603     		.2byte	0x366
 4387 11fc A90E0000 		.4byte	0xea9
 4388 1200 02       		.uleb128 0x2
 4389 1201 91       		.byte	0x91
 4390 1202 6C       		.sleb128 -20
 4391 1203 2D       		.uleb128 0x2d
 4392 1204 E2090000 		.4byte	.LBB19
 4393 1208 1E000000 		.4byte	.LBE19-.LBB19
 4394 120c 31       		.uleb128 0x31
 4395 120d 5B050000 		.4byte	.LASF132
 4396 1211 0A       		.byte	0xa
 4397 1212 6C03     		.2byte	0x36c
 4398 1214 2C000000 		.4byte	0x2c
 4399 1218 02       		.uleb128 0x2
 4400 1219 91       		.byte	0x91
 4401 121a 74       		.sleb128 -12
 4402 121b 00       		.byte	0
 4403 121c 00       		.byte	0
 4404 121d 33       		.uleb128 0x33
 4405 121e 01010000 		.4byte	.LASF163
 4406 1222 16       		.byte	0x16
 4407 1223 4407     		.2byte	0x744
 4408 1225 29120000 		.4byte	0x1229
 4409 1229 12       		.uleb128 0x12
 4410 122a E8000000 		.4byte	0xe8
 4411 122e 34       		.uleb128 0x34
 4412 122f 636800   		.ascii	"ch\000"
 4413 1232 05       		.byte	0x5
 4414 1233 D201     		.2byte	0x1d2
 4415 1235 0A040000 		.4byte	0x40a
 4416 1239 00       		.byte	0
 4417              		.section	.debug_abbrev,"",%progbits
 4418              	.Ldebug_abbrev0:
 4419 0000 01       		.uleb128 0x1
 4420 0001 11       		.uleb128 0x11
ARM GAS  /tmp/cc9hywgG.s 			page 79


 4421 0002 01       		.byte	0x1
 4422 0003 25       		.uleb128 0x25
 4423 0004 0E       		.uleb128 0xe
 4424 0005 13       		.uleb128 0x13
 4425 0006 0B       		.uleb128 0xb
 4426 0007 03       		.uleb128 0x3
 4427 0008 0E       		.uleb128 0xe
 4428 0009 1B       		.uleb128 0x1b
 4429 000a 0E       		.uleb128 0xe
 4430 000b 11       		.uleb128 0x11
 4431 000c 01       		.uleb128 0x1
 4432 000d 12       		.uleb128 0x12
 4433 000e 06       		.uleb128 0x6
 4434 000f 10       		.uleb128 0x10
 4435 0010 17       		.uleb128 0x17
 4436 0011 00       		.byte	0
 4437 0012 00       		.byte	0
 4438 0013 02       		.uleb128 0x2
 4439 0014 24       		.uleb128 0x24
 4440 0015 00       		.byte	0
 4441 0016 0B       		.uleb128 0xb
 4442 0017 0B       		.uleb128 0xb
 4443 0018 3E       		.uleb128 0x3e
 4444 0019 0B       		.uleb128 0xb
 4445 001a 03       		.uleb128 0x3
 4446 001b 08       		.uleb128 0x8
 4447 001c 00       		.byte	0
 4448 001d 00       		.byte	0
 4449 001e 03       		.uleb128 0x3
 4450 001f 16       		.uleb128 0x16
 4451 0020 00       		.byte	0
 4452 0021 03       		.uleb128 0x3
 4453 0022 0E       		.uleb128 0xe
 4454 0023 3A       		.uleb128 0x3a
 4455 0024 0B       		.uleb128 0xb
 4456 0025 3B       		.uleb128 0x3b
 4457 0026 0B       		.uleb128 0xb
 4458 0027 49       		.uleb128 0x49
 4459 0028 13       		.uleb128 0x13
 4460 0029 00       		.byte	0
 4461 002a 00       		.byte	0
 4462 002b 04       		.uleb128 0x4
 4463 002c 24       		.uleb128 0x24
 4464 002d 00       		.byte	0
 4465 002e 0B       		.uleb128 0xb
 4466 002f 0B       		.uleb128 0xb
 4467 0030 3E       		.uleb128 0x3e
 4468 0031 0B       		.uleb128 0xb
 4469 0032 03       		.uleb128 0x3
 4470 0033 0E       		.uleb128 0xe
 4471 0034 00       		.byte	0
 4472 0035 00       		.byte	0
 4473 0036 05       		.uleb128 0x5
 4474 0037 0F       		.uleb128 0xf
 4475 0038 00       		.byte	0
 4476 0039 0B       		.uleb128 0xb
 4477 003a 0B       		.uleb128 0xb
ARM GAS  /tmp/cc9hywgG.s 			page 80


 4478 003b 00       		.byte	0
 4479 003c 00       		.byte	0
 4480 003d 06       		.uleb128 0x6
 4481 003e 0F       		.uleb128 0xf
 4482 003f 00       		.byte	0
 4483 0040 0B       		.uleb128 0xb
 4484 0041 0B       		.uleb128 0xb
 4485 0042 49       		.uleb128 0x49
 4486 0043 13       		.uleb128 0x13
 4487 0044 00       		.byte	0
 4488 0045 00       		.byte	0
 4489 0046 07       		.uleb128 0x7
 4490 0047 26       		.uleb128 0x26
 4491 0048 00       		.byte	0
 4492 0049 49       		.uleb128 0x49
 4493 004a 13       		.uleb128 0x13
 4494 004b 00       		.byte	0
 4495 004c 00       		.byte	0
 4496 004d 08       		.uleb128 0x8
 4497 004e 01       		.uleb128 0x1
 4498 004f 01       		.byte	0x1
 4499 0050 49       		.uleb128 0x49
 4500 0051 13       		.uleb128 0x13
 4501 0052 01       		.uleb128 0x1
 4502 0053 13       		.uleb128 0x13
 4503 0054 00       		.byte	0
 4504 0055 00       		.byte	0
 4505 0056 09       		.uleb128 0x9
 4506 0057 21       		.uleb128 0x21
 4507 0058 00       		.byte	0
 4508 0059 49       		.uleb128 0x49
 4509 005a 13       		.uleb128 0x13
 4510 005b 2F       		.uleb128 0x2f
 4511 005c 0B       		.uleb128 0xb
 4512 005d 00       		.byte	0
 4513 005e 00       		.byte	0
 4514 005f 0A       		.uleb128 0xa
 4515 0060 13       		.uleb128 0x13
 4516 0061 01       		.byte	0x1
 4517 0062 03       		.uleb128 0x3
 4518 0063 0E       		.uleb128 0xe
 4519 0064 0B       		.uleb128 0xb
 4520 0065 0B       		.uleb128 0xb
 4521 0066 3A       		.uleb128 0x3a
 4522 0067 0B       		.uleb128 0xb
 4523 0068 3B       		.uleb128 0x3b
 4524 0069 0B       		.uleb128 0xb
 4525 006a 01       		.uleb128 0x1
 4526 006b 13       		.uleb128 0x13
 4527 006c 00       		.byte	0
 4528 006d 00       		.byte	0
 4529 006e 0B       		.uleb128 0xb
 4530 006f 0D       		.uleb128 0xd
 4531 0070 00       		.byte	0
 4532 0071 03       		.uleb128 0x3
 4533 0072 0E       		.uleb128 0xe
 4534 0073 3A       		.uleb128 0x3a
ARM GAS  /tmp/cc9hywgG.s 			page 81


 4535 0074 0B       		.uleb128 0xb
 4536 0075 3B       		.uleb128 0x3b
 4537 0076 0B       		.uleb128 0xb
 4538 0077 49       		.uleb128 0x49
 4539 0078 13       		.uleb128 0x13
 4540 0079 38       		.uleb128 0x38
 4541 007a 0B       		.uleb128 0xb
 4542 007b 00       		.byte	0
 4543 007c 00       		.byte	0
 4544 007d 0C       		.uleb128 0xc
 4545 007e 0D       		.uleb128 0xd
 4546 007f 00       		.byte	0
 4547 0080 03       		.uleb128 0x3
 4548 0081 08       		.uleb128 0x8
 4549 0082 3A       		.uleb128 0x3a
 4550 0083 0B       		.uleb128 0xb
 4551 0084 3B       		.uleb128 0x3b
 4552 0085 0B       		.uleb128 0xb
 4553 0086 49       		.uleb128 0x49
 4554 0087 13       		.uleb128 0x13
 4555 0088 38       		.uleb128 0x38
 4556 0089 0B       		.uleb128 0xb
 4557 008a 00       		.byte	0
 4558 008b 00       		.byte	0
 4559 008c 0D       		.uleb128 0xd
 4560 008d 0D       		.uleb128 0xd
 4561 008e 00       		.byte	0
 4562 008f 03       		.uleb128 0x3
 4563 0090 08       		.uleb128 0x8
 4564 0091 3A       		.uleb128 0x3a
 4565 0092 0B       		.uleb128 0xb
 4566 0093 3B       		.uleb128 0x3b
 4567 0094 05       		.uleb128 0x5
 4568 0095 49       		.uleb128 0x49
 4569 0096 13       		.uleb128 0x13
 4570 0097 38       		.uleb128 0x38
 4571 0098 0B       		.uleb128 0xb
 4572 0099 00       		.byte	0
 4573 009a 00       		.byte	0
 4574 009b 0E       		.uleb128 0xe
 4575 009c 0D       		.uleb128 0xd
 4576 009d 00       		.byte	0
 4577 009e 03       		.uleb128 0x3
 4578 009f 0E       		.uleb128 0xe
 4579 00a0 3A       		.uleb128 0x3a
 4580 00a1 0B       		.uleb128 0xb
 4581 00a2 3B       		.uleb128 0x3b
 4582 00a3 05       		.uleb128 0x5
 4583 00a4 49       		.uleb128 0x49
 4584 00a5 13       		.uleb128 0x13
 4585 00a6 38       		.uleb128 0x38
 4586 00a7 0B       		.uleb128 0xb
 4587 00a8 00       		.byte	0
 4588 00a9 00       		.byte	0
 4589 00aa 0F       		.uleb128 0xf
 4590 00ab 13       		.uleb128 0x13
 4591 00ac 01       		.byte	0x1
ARM GAS  /tmp/cc9hywgG.s 			page 82


 4592 00ad 03       		.uleb128 0x3
 4593 00ae 0E       		.uleb128 0xe
 4594 00af 0B       		.uleb128 0xb
 4595 00b0 0B       		.uleb128 0xb
 4596 00b1 3A       		.uleb128 0x3a
 4597 00b2 0B       		.uleb128 0xb
 4598 00b3 3B       		.uleb128 0x3b
 4599 00b4 05       		.uleb128 0x5
 4600 00b5 01       		.uleb128 0x1
 4601 00b6 13       		.uleb128 0x13
 4602 00b7 00       		.byte	0
 4603 00b8 00       		.byte	0
 4604 00b9 10       		.uleb128 0x10
 4605 00ba 15       		.uleb128 0x15
 4606 00bb 01       		.byte	0x1
 4607 00bc 27       		.uleb128 0x27
 4608 00bd 19       		.uleb128 0x19
 4609 00be 01       		.uleb128 0x1
 4610 00bf 13       		.uleb128 0x13
 4611 00c0 00       		.byte	0
 4612 00c1 00       		.byte	0
 4613 00c2 11       		.uleb128 0x11
 4614 00c3 05       		.uleb128 0x5
 4615 00c4 00       		.byte	0
 4616 00c5 49       		.uleb128 0x49
 4617 00c6 13       		.uleb128 0x13
 4618 00c7 00       		.byte	0
 4619 00c8 00       		.byte	0
 4620 00c9 12       		.uleb128 0x12
 4621 00ca 35       		.uleb128 0x35
 4622 00cb 00       		.byte	0
 4623 00cc 49       		.uleb128 0x49
 4624 00cd 13       		.uleb128 0x13
 4625 00ce 00       		.byte	0
 4626 00cf 00       		.byte	0
 4627 00d0 13       		.uleb128 0x13
 4628 00d1 13       		.uleb128 0x13
 4629 00d2 01       		.byte	0x1
 4630 00d3 0B       		.uleb128 0xb
 4631 00d4 0B       		.uleb128 0xb
 4632 00d5 3A       		.uleb128 0x3a
 4633 00d6 0B       		.uleb128 0xb
 4634 00d7 3B       		.uleb128 0x3b
 4635 00d8 05       		.uleb128 0x5
 4636 00d9 01       		.uleb128 0x1
 4637 00da 13       		.uleb128 0x13
 4638 00db 00       		.byte	0
 4639 00dc 00       		.byte	0
 4640 00dd 14       		.uleb128 0x14
 4641 00de 16       		.uleb128 0x16
 4642 00df 00       		.byte	0
 4643 00e0 03       		.uleb128 0x3
 4644 00e1 0E       		.uleb128 0xe
 4645 00e2 3A       		.uleb128 0x3a
 4646 00e3 0B       		.uleb128 0xb
 4647 00e4 3B       		.uleb128 0x3b
 4648 00e5 05       		.uleb128 0x5
ARM GAS  /tmp/cc9hywgG.s 			page 83


 4649 00e6 49       		.uleb128 0x49
 4650 00e7 13       		.uleb128 0x13
 4651 00e8 00       		.byte	0
 4652 00e9 00       		.byte	0
 4653 00ea 15       		.uleb128 0x15
 4654 00eb 13       		.uleb128 0x13
 4655 00ec 01       		.byte	0x1
 4656 00ed 0B       		.uleb128 0xb
 4657 00ee 0B       		.uleb128 0xb
 4658 00ef 3A       		.uleb128 0x3a
 4659 00f0 0B       		.uleb128 0xb
 4660 00f1 3B       		.uleb128 0x3b
 4661 00f2 0B       		.uleb128 0xb
 4662 00f3 01       		.uleb128 0x1
 4663 00f4 13       		.uleb128 0x13
 4664 00f5 00       		.byte	0
 4665 00f6 00       		.byte	0
 4666 00f7 16       		.uleb128 0x16
 4667 00f8 17       		.uleb128 0x17
 4668 00f9 01       		.byte	0x1
 4669 00fa 0B       		.uleb128 0xb
 4670 00fb 0B       		.uleb128 0xb
 4671 00fc 3A       		.uleb128 0x3a
 4672 00fd 0B       		.uleb128 0xb
 4673 00fe 3B       		.uleb128 0x3b
 4674 00ff 0B       		.uleb128 0xb
 4675 0100 01       		.uleb128 0x1
 4676 0101 13       		.uleb128 0x13
 4677 0102 00       		.byte	0
 4678 0103 00       		.byte	0
 4679 0104 17       		.uleb128 0x17
 4680 0105 0D       		.uleb128 0xd
 4681 0106 00       		.byte	0
 4682 0107 03       		.uleb128 0x3
 4683 0108 0E       		.uleb128 0xe
 4684 0109 3A       		.uleb128 0x3a
 4685 010a 0B       		.uleb128 0xb
 4686 010b 3B       		.uleb128 0x3b
 4687 010c 0B       		.uleb128 0xb
 4688 010d 49       		.uleb128 0x49
 4689 010e 13       		.uleb128 0x13
 4690 010f 00       		.byte	0
 4691 0110 00       		.byte	0
 4692 0111 18       		.uleb128 0x18
 4693 0112 0D       		.uleb128 0xd
 4694 0113 00       		.byte	0
 4695 0114 03       		.uleb128 0x3
 4696 0115 0E       		.uleb128 0xe
 4697 0116 3A       		.uleb128 0x3a
 4698 0117 0B       		.uleb128 0xb
 4699 0118 3B       		.uleb128 0x3b
 4700 0119 05       		.uleb128 0x5
 4701 011a 49       		.uleb128 0x49
 4702 011b 13       		.uleb128 0x13
 4703 011c 00       		.byte	0
 4704 011d 00       		.byte	0
 4705 011e 19       		.uleb128 0x19
ARM GAS  /tmp/cc9hywgG.s 			page 84


 4706 011f 2E       		.uleb128 0x2e
 4707 0120 01       		.byte	0x1
 4708 0121 03       		.uleb128 0x3
 4709 0122 0E       		.uleb128 0xe
 4710 0123 3A       		.uleb128 0x3a
 4711 0124 0B       		.uleb128 0xb
 4712 0125 3B       		.uleb128 0x3b
 4713 0126 05       		.uleb128 0x5
 4714 0127 27       		.uleb128 0x27
 4715 0128 19       		.uleb128 0x19
 4716 0129 20       		.uleb128 0x20
 4717 012a 0B       		.uleb128 0xb
 4718 012b 01       		.uleb128 0x1
 4719 012c 13       		.uleb128 0x13
 4720 012d 00       		.byte	0
 4721 012e 00       		.byte	0
 4722 012f 1A       		.uleb128 0x1a
 4723 0130 05       		.uleb128 0x5
 4724 0131 00       		.byte	0
 4725 0132 03       		.uleb128 0x3
 4726 0133 0E       		.uleb128 0xe
 4727 0134 3A       		.uleb128 0x3a
 4728 0135 0B       		.uleb128 0xb
 4729 0136 3B       		.uleb128 0x3b
 4730 0137 05       		.uleb128 0x5
 4731 0138 49       		.uleb128 0x49
 4732 0139 13       		.uleb128 0x13
 4733 013a 00       		.byte	0
 4734 013b 00       		.byte	0
 4735 013c 1B       		.uleb128 0x1b
 4736 013d 2E       		.uleb128 0x2e
 4737 013e 01       		.byte	0x1
 4738 013f 03       		.uleb128 0x3
 4739 0140 0E       		.uleb128 0xe
 4740 0141 3A       		.uleb128 0x3a
 4741 0142 0B       		.uleb128 0xb
 4742 0143 3B       		.uleb128 0x3b
 4743 0144 05       		.uleb128 0x5
 4744 0145 27       		.uleb128 0x27
 4745 0146 19       		.uleb128 0x19
 4746 0147 11       		.uleb128 0x11
 4747 0148 01       		.uleb128 0x1
 4748 0149 12       		.uleb128 0x12
 4749 014a 06       		.uleb128 0x6
 4750 014b 40       		.uleb128 0x40
 4751 014c 18       		.uleb128 0x18
 4752 014d 9742     		.uleb128 0x2117
 4753 014f 19       		.uleb128 0x19
 4754 0150 01       		.uleb128 0x1
 4755 0151 13       		.uleb128 0x13
 4756 0152 00       		.byte	0
 4757 0153 00       		.byte	0
 4758 0154 1C       		.uleb128 0x1c
 4759 0155 1D       		.uleb128 0x1d
 4760 0156 01       		.byte	0x1
 4761 0157 31       		.uleb128 0x31
 4762 0158 13       		.uleb128 0x13
ARM GAS  /tmp/cc9hywgG.s 			page 85


 4763 0159 11       		.uleb128 0x11
 4764 015a 01       		.uleb128 0x1
 4765 015b 12       		.uleb128 0x12
 4766 015c 06       		.uleb128 0x6
 4767 015d 58       		.uleb128 0x58
 4768 015e 0B       		.uleb128 0xb
 4769 015f 59       		.uleb128 0x59
 4770 0160 05       		.uleb128 0x5
 4771 0161 00       		.byte	0
 4772 0162 00       		.byte	0
 4773 0163 1D       		.uleb128 0x1d
 4774 0164 05       		.uleb128 0x5
 4775 0165 00       		.byte	0
 4776 0166 31       		.uleb128 0x31
 4777 0167 13       		.uleb128 0x13
 4778 0168 02       		.uleb128 0x2
 4779 0169 18       		.uleb128 0x18
 4780 016a 00       		.byte	0
 4781 016b 00       		.byte	0
 4782 016c 1E       		.uleb128 0x1e
 4783 016d 2E       		.uleb128 0x2e
 4784 016e 00       		.byte	0
 4785 016f 03       		.uleb128 0x3
 4786 0170 0E       		.uleb128 0xe
 4787 0171 3A       		.uleb128 0x3a
 4788 0172 0B       		.uleb128 0xb
 4789 0173 3B       		.uleb128 0x3b
 4790 0174 0B       		.uleb128 0xb
 4791 0175 27       		.uleb128 0x27
 4792 0176 19       		.uleb128 0x19
 4793 0177 49       		.uleb128 0x49
 4794 0178 13       		.uleb128 0x13
 4795 0179 11       		.uleb128 0x11
 4796 017a 01       		.uleb128 0x1
 4797 017b 12       		.uleb128 0x12
 4798 017c 06       		.uleb128 0x6
 4799 017d 40       		.uleb128 0x40
 4800 017e 18       		.uleb128 0x18
 4801 017f 9742     		.uleb128 0x2117
 4802 0181 19       		.uleb128 0x19
 4803 0182 00       		.byte	0
 4804 0183 00       		.byte	0
 4805 0184 1F       		.uleb128 0x1f
 4806 0185 2E       		.uleb128 0x2e
 4807 0186 00       		.byte	0
 4808 0187 03       		.uleb128 0x3
 4809 0188 0E       		.uleb128 0xe
 4810 0189 3A       		.uleb128 0x3a
 4811 018a 0B       		.uleb128 0xb
 4812 018b 3B       		.uleb128 0x3b
 4813 018c 0B       		.uleb128 0xb
 4814 018d 27       		.uleb128 0x27
 4815 018e 19       		.uleb128 0x19
 4816 018f 49       		.uleb128 0x49
 4817 0190 13       		.uleb128 0x13
 4818 0191 11       		.uleb128 0x11
 4819 0192 01       		.uleb128 0x1
ARM GAS  /tmp/cc9hywgG.s 			page 86


 4820 0193 12       		.uleb128 0x12
 4821 0194 06       		.uleb128 0x6
 4822 0195 40       		.uleb128 0x40
 4823 0196 18       		.uleb128 0x18
 4824 0197 9642     		.uleb128 0x2116
 4825 0199 19       		.uleb128 0x19
 4826 019a 00       		.byte	0
 4827 019b 00       		.byte	0
 4828 019c 20       		.uleb128 0x20
 4829 019d 05       		.uleb128 0x5
 4830 019e 00       		.byte	0
 4831 019f 03       		.uleb128 0x3
 4832 01a0 08       		.uleb128 0x8
 4833 01a1 3A       		.uleb128 0x3a
 4834 01a2 0B       		.uleb128 0xb
 4835 01a3 3B       		.uleb128 0x3b
 4836 01a4 05       		.uleb128 0x5
 4837 01a5 49       		.uleb128 0x49
 4838 01a6 13       		.uleb128 0x13
 4839 01a7 02       		.uleb128 0x2
 4840 01a8 18       		.uleb128 0x18
 4841 01a9 00       		.byte	0
 4842 01aa 00       		.byte	0
 4843 01ab 21       		.uleb128 0x21
 4844 01ac 2E       		.uleb128 0x2e
 4845 01ad 00       		.byte	0
 4846 01ae 03       		.uleb128 0x3
 4847 01af 0E       		.uleb128 0xe
 4848 01b0 3A       		.uleb128 0x3a
 4849 01b1 0B       		.uleb128 0xb
 4850 01b2 3B       		.uleb128 0x3b
 4851 01b3 05       		.uleb128 0x5
 4852 01b4 27       		.uleb128 0x27
 4853 01b5 19       		.uleb128 0x19
 4854 01b6 11       		.uleb128 0x11
 4855 01b7 01       		.uleb128 0x1
 4856 01b8 12       		.uleb128 0x12
 4857 01b9 06       		.uleb128 0x6
 4858 01ba 40       		.uleb128 0x40
 4859 01bb 18       		.uleb128 0x18
 4860 01bc 9642     		.uleb128 0x2116
 4861 01be 19       		.uleb128 0x19
 4862 01bf 00       		.byte	0
 4863 01c0 00       		.byte	0
 4864 01c1 22       		.uleb128 0x22
 4865 01c2 2E       		.uleb128 0x2e
 4866 01c3 01       		.byte	0x1
 4867 01c4 03       		.uleb128 0x3
 4868 01c5 0E       		.uleb128 0xe
 4869 01c6 3A       		.uleb128 0x3a
 4870 01c7 0B       		.uleb128 0xb
 4871 01c8 3B       		.uleb128 0x3b
 4872 01c9 05       		.uleb128 0x5
 4873 01ca 27       		.uleb128 0x27
 4874 01cb 19       		.uleb128 0x19
 4875 01cc 11       		.uleb128 0x11
 4876 01cd 01       		.uleb128 0x1
ARM GAS  /tmp/cc9hywgG.s 			page 87


 4877 01ce 12       		.uleb128 0x12
 4878 01cf 06       		.uleb128 0x6
 4879 01d0 40       		.uleb128 0x40
 4880 01d1 18       		.uleb128 0x18
 4881 01d2 9642     		.uleb128 0x2116
 4882 01d4 19       		.uleb128 0x19
 4883 01d5 01       		.uleb128 0x1
 4884 01d6 13       		.uleb128 0x13
 4885 01d7 00       		.byte	0
 4886 01d8 00       		.byte	0
 4887 01d9 23       		.uleb128 0x23
 4888 01da 34       		.uleb128 0x34
 4889 01db 00       		.byte	0
 4890 01dc 03       		.uleb128 0x3
 4891 01dd 0E       		.uleb128 0xe
 4892 01de 49       		.uleb128 0x49
 4893 01df 13       		.uleb128 0x13
 4894 01e0 34       		.uleb128 0x34
 4895 01e1 19       		.uleb128 0x19
 4896 01e2 00       		.byte	0
 4897 01e3 00       		.byte	0
 4898 01e4 24       		.uleb128 0x24
 4899 01e5 2E       		.uleb128 0x2e
 4900 01e6 00       		.byte	0
 4901 01e7 03       		.uleb128 0x3
 4902 01e8 0E       		.uleb128 0xe
 4903 01e9 3A       		.uleb128 0x3a
 4904 01ea 0B       		.uleb128 0xb
 4905 01eb 3B       		.uleb128 0x3b
 4906 01ec 05       		.uleb128 0x5
 4907 01ed 27       		.uleb128 0x27
 4908 01ee 19       		.uleb128 0x19
 4909 01ef 49       		.uleb128 0x49
 4910 01f0 13       		.uleb128 0x13
 4911 01f1 11       		.uleb128 0x11
 4912 01f2 01       		.uleb128 0x1
 4913 01f3 12       		.uleb128 0x12
 4914 01f4 06       		.uleb128 0x6
 4915 01f5 40       		.uleb128 0x40
 4916 01f6 18       		.uleb128 0x18
 4917 01f7 9642     		.uleb128 0x2116
 4918 01f9 19       		.uleb128 0x19
 4919 01fa 00       		.byte	0
 4920 01fb 00       		.byte	0
 4921 01fc 25       		.uleb128 0x25
 4922 01fd 2E       		.uleb128 0x2e
 4923 01fe 01       		.byte	0x1
 4924 01ff 03       		.uleb128 0x3
 4925 0200 0E       		.uleb128 0xe
 4926 0201 3A       		.uleb128 0x3a
 4927 0202 0B       		.uleb128 0xb
 4928 0203 3B       		.uleb128 0x3b
 4929 0204 05       		.uleb128 0x5
 4930 0205 27       		.uleb128 0x27
 4931 0206 19       		.uleb128 0x19
 4932 0207 49       		.uleb128 0x49
 4933 0208 13       		.uleb128 0x13
ARM GAS  /tmp/cc9hywgG.s 			page 88


 4934 0209 11       		.uleb128 0x11
 4935 020a 01       		.uleb128 0x1
 4936 020b 12       		.uleb128 0x12
 4937 020c 06       		.uleb128 0x6
 4938 020d 40       		.uleb128 0x40
 4939 020e 18       		.uleb128 0x18
 4940 020f 9642     		.uleb128 0x2116
 4941 0211 19       		.uleb128 0x19
 4942 0212 01       		.uleb128 0x1
 4943 0213 13       		.uleb128 0x13
 4944 0214 00       		.byte	0
 4945 0215 00       		.byte	0
 4946 0216 26       		.uleb128 0x26
 4947 0217 05       		.uleb128 0x5
 4948 0218 00       		.byte	0
 4949 0219 03       		.uleb128 0x3
 4950 021a 0E       		.uleb128 0xe
 4951 021b 3A       		.uleb128 0x3a
 4952 021c 0B       		.uleb128 0xb
 4953 021d 3B       		.uleb128 0x3b
 4954 021e 05       		.uleb128 0x5
 4955 021f 49       		.uleb128 0x49
 4956 0220 13       		.uleb128 0x13
 4957 0221 02       		.uleb128 0x2
 4958 0222 18       		.uleb128 0x18
 4959 0223 00       		.byte	0
 4960 0224 00       		.byte	0
 4961 0225 27       		.uleb128 0x27
 4962 0226 2E       		.uleb128 0x2e
 4963 0227 01       		.byte	0x1
 4964 0228 3F       		.uleb128 0x3f
 4965 0229 19       		.uleb128 0x19
 4966 022a 03       		.uleb128 0x3
 4967 022b 0E       		.uleb128 0xe
 4968 022c 3A       		.uleb128 0x3a
 4969 022d 0B       		.uleb128 0xb
 4970 022e 3B       		.uleb128 0x3b
 4971 022f 0B       		.uleb128 0xb
 4972 0230 27       		.uleb128 0x27
 4973 0231 19       		.uleb128 0x19
 4974 0232 11       		.uleb128 0x11
 4975 0233 01       		.uleb128 0x1
 4976 0234 12       		.uleb128 0x12
 4977 0235 06       		.uleb128 0x6
 4978 0236 40       		.uleb128 0x40
 4979 0237 18       		.uleb128 0x18
 4980 0238 9642     		.uleb128 0x2116
 4981 023a 19       		.uleb128 0x19
 4982 023b 01       		.uleb128 0x1
 4983 023c 13       		.uleb128 0x13
 4984 023d 00       		.byte	0
 4985 023e 00       		.byte	0
 4986 023f 28       		.uleb128 0x28
 4987 0240 05       		.uleb128 0x5
 4988 0241 00       		.byte	0
 4989 0242 03       		.uleb128 0x3
 4990 0243 0E       		.uleb128 0xe
ARM GAS  /tmp/cc9hywgG.s 			page 89


 4991 0244 3A       		.uleb128 0x3a
 4992 0245 0B       		.uleb128 0xb
 4993 0246 3B       		.uleb128 0x3b
 4994 0247 0B       		.uleb128 0xb
 4995 0248 49       		.uleb128 0x49
 4996 0249 13       		.uleb128 0x13
 4997 024a 02       		.uleb128 0x2
 4998 024b 18       		.uleb128 0x18
 4999 024c 00       		.byte	0
 5000 024d 00       		.byte	0
 5001 024e 29       		.uleb128 0x29
 5002 024f 05       		.uleb128 0x5
 5003 0250 00       		.byte	0
 5004 0251 03       		.uleb128 0x3
 5005 0252 08       		.uleb128 0x8
 5006 0253 3A       		.uleb128 0x3a
 5007 0254 0B       		.uleb128 0xb
 5008 0255 3B       		.uleb128 0x3b
 5009 0256 0B       		.uleb128 0xb
 5010 0257 49       		.uleb128 0x49
 5011 0258 13       		.uleb128 0x13
 5012 0259 02       		.uleb128 0x2
 5013 025a 18       		.uleb128 0x18
 5014 025b 00       		.byte	0
 5015 025c 00       		.byte	0
 5016 025d 2A       		.uleb128 0x2a
 5017 025e 2E       		.uleb128 0x2e
 5018 025f 01       		.byte	0x1
 5019 0260 3F       		.uleb128 0x3f
 5020 0261 19       		.uleb128 0x19
 5021 0262 03       		.uleb128 0x3
 5022 0263 0E       		.uleb128 0xe
 5023 0264 3A       		.uleb128 0x3a
 5024 0265 0B       		.uleb128 0xb
 5025 0266 3B       		.uleb128 0x3b
 5026 0267 0B       		.uleb128 0xb
 5027 0268 27       		.uleb128 0x27
 5028 0269 19       		.uleb128 0x19
 5029 026a 49       		.uleb128 0x49
 5030 026b 13       		.uleb128 0x13
 5031 026c 11       		.uleb128 0x11
 5032 026d 01       		.uleb128 0x1
 5033 026e 12       		.uleb128 0x12
 5034 026f 06       		.uleb128 0x6
 5035 0270 40       		.uleb128 0x40
 5036 0271 18       		.uleb128 0x18
 5037 0272 9742     		.uleb128 0x2117
 5038 0274 19       		.uleb128 0x19
 5039 0275 01       		.uleb128 0x1
 5040 0276 13       		.uleb128 0x13
 5041 0277 00       		.byte	0
 5042 0278 00       		.byte	0
 5043 0279 2B       		.uleb128 0x2b
 5044 027a 2E       		.uleb128 0x2e
 5045 027b 01       		.byte	0x1
 5046 027c 3F       		.uleb128 0x3f
 5047 027d 19       		.uleb128 0x19
ARM GAS  /tmp/cc9hywgG.s 			page 90


 5048 027e 03       		.uleb128 0x3
 5049 027f 0E       		.uleb128 0xe
 5050 0280 3A       		.uleb128 0x3a
 5051 0281 0B       		.uleb128 0xb
 5052 0282 3B       		.uleb128 0x3b
 5053 0283 0B       		.uleb128 0xb
 5054 0284 27       		.uleb128 0x27
 5055 0285 19       		.uleb128 0x19
 5056 0286 49       		.uleb128 0x49
 5057 0287 13       		.uleb128 0x13
 5058 0288 11       		.uleb128 0x11
 5059 0289 01       		.uleb128 0x1
 5060 028a 12       		.uleb128 0x12
 5061 028b 06       		.uleb128 0x6
 5062 028c 40       		.uleb128 0x40
 5063 028d 18       		.uleb128 0x18
 5064 028e 9642     		.uleb128 0x2116
 5065 0290 19       		.uleb128 0x19
 5066 0291 01       		.uleb128 0x1
 5067 0292 13       		.uleb128 0x13
 5068 0293 00       		.byte	0
 5069 0294 00       		.byte	0
 5070 0295 2C       		.uleb128 0x2c
 5071 0296 34       		.uleb128 0x34
 5072 0297 00       		.byte	0
 5073 0298 03       		.uleb128 0x3
 5074 0299 08       		.uleb128 0x8
 5075 029a 3A       		.uleb128 0x3a
 5076 029b 0B       		.uleb128 0xb
 5077 029c 3B       		.uleb128 0x3b
 5078 029d 0B       		.uleb128 0xb
 5079 029e 49       		.uleb128 0x49
 5080 029f 13       		.uleb128 0x13
 5081 02a0 02       		.uleb128 0x2
 5082 02a1 18       		.uleb128 0x18
 5083 02a2 00       		.byte	0
 5084 02a3 00       		.byte	0
 5085 02a4 2D       		.uleb128 0x2d
 5086 02a5 0B       		.uleb128 0xb
 5087 02a6 01       		.byte	0x1
 5088 02a7 11       		.uleb128 0x11
 5089 02a8 01       		.uleb128 0x1
 5090 02a9 12       		.uleb128 0x12
 5091 02aa 06       		.uleb128 0x6
 5092 02ab 00       		.byte	0
 5093 02ac 00       		.byte	0
 5094 02ad 2E       		.uleb128 0x2e
 5095 02ae 2E       		.uleb128 0x2e
 5096 02af 01       		.byte	0x1
 5097 02b0 3F       		.uleb128 0x3f
 5098 02b1 19       		.uleb128 0x19
 5099 02b2 03       		.uleb128 0x3
 5100 02b3 0E       		.uleb128 0xe
 5101 02b4 3A       		.uleb128 0x3a
 5102 02b5 0B       		.uleb128 0xb
 5103 02b6 3B       		.uleb128 0x3b
 5104 02b7 05       		.uleb128 0x5
ARM GAS  /tmp/cc9hywgG.s 			page 91


 5105 02b8 27       		.uleb128 0x27
 5106 02b9 19       		.uleb128 0x19
 5107 02ba 11       		.uleb128 0x11
 5108 02bb 01       		.uleb128 0x1
 5109 02bc 12       		.uleb128 0x12
 5110 02bd 06       		.uleb128 0x6
 5111 02be 40       		.uleb128 0x40
 5112 02bf 18       		.uleb128 0x18
 5113 02c0 9642     		.uleb128 0x2116
 5114 02c2 19       		.uleb128 0x19
 5115 02c3 01       		.uleb128 0x1
 5116 02c4 13       		.uleb128 0x13
 5117 02c5 00       		.byte	0
 5118 02c6 00       		.byte	0
 5119 02c7 2F       		.uleb128 0x2f
 5120 02c8 2E       		.uleb128 0x2e
 5121 02c9 01       		.byte	0x1
 5122 02ca 3F       		.uleb128 0x3f
 5123 02cb 19       		.uleb128 0x19
 5124 02cc 03       		.uleb128 0x3
 5125 02cd 0E       		.uleb128 0xe
 5126 02ce 3A       		.uleb128 0x3a
 5127 02cf 0B       		.uleb128 0xb
 5128 02d0 3B       		.uleb128 0x3b
 5129 02d1 05       		.uleb128 0x5
 5130 02d2 27       		.uleb128 0x27
 5131 02d3 19       		.uleb128 0x19
 5132 02d4 49       		.uleb128 0x49
 5133 02d5 13       		.uleb128 0x13
 5134 02d6 11       		.uleb128 0x11
 5135 02d7 01       		.uleb128 0x1
 5136 02d8 12       		.uleb128 0x12
 5137 02d9 06       		.uleb128 0x6
 5138 02da 40       		.uleb128 0x40
 5139 02db 18       		.uleb128 0x18
 5140 02dc 9642     		.uleb128 0x2116
 5141 02de 19       		.uleb128 0x19
 5142 02df 01       		.uleb128 0x1
 5143 02e0 13       		.uleb128 0x13
 5144 02e1 00       		.byte	0
 5145 02e2 00       		.byte	0
 5146 02e3 30       		.uleb128 0x30
 5147 02e4 34       		.uleb128 0x34
 5148 02e5 00       		.byte	0
 5149 02e6 03       		.uleb128 0x3
 5150 02e7 08       		.uleb128 0x8
 5151 02e8 3A       		.uleb128 0x3a
 5152 02e9 0B       		.uleb128 0xb
 5153 02ea 3B       		.uleb128 0x3b
 5154 02eb 05       		.uleb128 0x5
 5155 02ec 49       		.uleb128 0x49
 5156 02ed 13       		.uleb128 0x13
 5157 02ee 02       		.uleb128 0x2
 5158 02ef 18       		.uleb128 0x18
 5159 02f0 00       		.byte	0
 5160 02f1 00       		.byte	0
 5161 02f2 31       		.uleb128 0x31
ARM GAS  /tmp/cc9hywgG.s 			page 92


 5162 02f3 34       		.uleb128 0x34
 5163 02f4 00       		.byte	0
 5164 02f5 03       		.uleb128 0x3
 5165 02f6 0E       		.uleb128 0xe
 5166 02f7 3A       		.uleb128 0x3a
 5167 02f8 0B       		.uleb128 0xb
 5168 02f9 3B       		.uleb128 0x3b
 5169 02fa 05       		.uleb128 0x5
 5170 02fb 49       		.uleb128 0x49
 5171 02fc 13       		.uleb128 0x13
 5172 02fd 02       		.uleb128 0x2
 5173 02fe 18       		.uleb128 0x18
 5174 02ff 00       		.byte	0
 5175 0300 00       		.byte	0
 5176 0301 32       		.uleb128 0x32
 5177 0302 2E       		.uleb128 0x2e
 5178 0303 01       		.byte	0x1
 5179 0304 3F       		.uleb128 0x3f
 5180 0305 19       		.uleb128 0x19
 5181 0306 03       		.uleb128 0x3
 5182 0307 0E       		.uleb128 0xe
 5183 0308 3A       		.uleb128 0x3a
 5184 0309 0B       		.uleb128 0xb
 5185 030a 3B       		.uleb128 0x3b
 5186 030b 05       		.uleb128 0x5
 5187 030c 27       		.uleb128 0x27
 5188 030d 19       		.uleb128 0x19
 5189 030e 49       		.uleb128 0x49
 5190 030f 13       		.uleb128 0x13
 5191 0310 11       		.uleb128 0x11
 5192 0311 01       		.uleb128 0x1
 5193 0312 12       		.uleb128 0x12
 5194 0313 06       		.uleb128 0x6
 5195 0314 40       		.uleb128 0x40
 5196 0315 18       		.uleb128 0x18
 5197 0316 9742     		.uleb128 0x2117
 5198 0318 19       		.uleb128 0x19
 5199 0319 01       		.uleb128 0x1
 5200 031a 13       		.uleb128 0x13
 5201 031b 00       		.byte	0
 5202 031c 00       		.byte	0
 5203 031d 33       		.uleb128 0x33
 5204 031e 34       		.uleb128 0x34
 5205 031f 00       		.byte	0
 5206 0320 03       		.uleb128 0x3
 5207 0321 0E       		.uleb128 0xe
 5208 0322 3A       		.uleb128 0x3a
 5209 0323 0B       		.uleb128 0xb
 5210 0324 3B       		.uleb128 0x3b
 5211 0325 05       		.uleb128 0x5
 5212 0326 49       		.uleb128 0x49
 5213 0327 13       		.uleb128 0x13
 5214 0328 3F       		.uleb128 0x3f
 5215 0329 19       		.uleb128 0x19
 5216 032a 3C       		.uleb128 0x3c
 5217 032b 19       		.uleb128 0x19
 5218 032c 00       		.byte	0
ARM GAS  /tmp/cc9hywgG.s 			page 93


 5219 032d 00       		.byte	0
 5220 032e 34       		.uleb128 0x34
 5221 032f 34       		.uleb128 0x34
 5222 0330 00       		.byte	0
 5223 0331 03       		.uleb128 0x3
 5224 0332 08       		.uleb128 0x8
 5225 0333 3A       		.uleb128 0x3a
 5226 0334 0B       		.uleb128 0xb
 5227 0335 3B       		.uleb128 0x3b
 5228 0336 05       		.uleb128 0x5
 5229 0337 49       		.uleb128 0x49
 5230 0338 13       		.uleb128 0x13
 5231 0339 3F       		.uleb128 0x3f
 5232 033a 19       		.uleb128 0x19
 5233 033b 3C       		.uleb128 0x3c
 5234 033c 19       		.uleb128 0x19
 5235 033d 00       		.byte	0
 5236 033e 00       		.byte	0
 5237 033f 00       		.byte	0
 5238              		.section	.debug_aranges,"",%progbits
 5239 0000 1C000000 		.4byte	0x1c
 5240 0004 0200     		.2byte	0x2
 5241 0006 00000000 		.4byte	.Ldebug_info0
 5242 000a 04       		.byte	0x4
 5243 000b 00       		.byte	0
 5244 000c 0000     		.2byte	0
 5245 000e 0000     		.2byte	0
 5246 0010 00000000 		.4byte	.Ltext0
 5247 0014 0A0A0000 		.4byte	.Letext0-.Ltext0
 5248 0018 00000000 		.4byte	0
 5249 001c 00000000 		.4byte	0
 5250              		.section	.debug_line,"",%progbits
 5251              	.Ldebug_line0:
 5252 0000 A6040000 		.section	.debug_str,"MS",%progbits,1
 5252      02009402 
 5252      00000201 
 5252      FB0E0D00 
 5252      01010101 
 5253              	.LASF53:
 5254 0000 72656164 		.ascii	"ready_list_t\000"
 5254      795F6C69 
 5254      73745F74 
 5254      00
 5255              	.LASF150:
 5256 000d 6F6E6679 		.ascii	"onfy\000"
 5256      00
 5257              	.LASF2:
 5258 0012 73697A65 		.ascii	"size_t\000"
 5258      5F7400
 5259              	.LASF49:
 5260 0019 6E657874 		.ascii	"next\000"
 5260      00
 5261              	.LASF59:
 5262 001e 64656C74 		.ascii	"delta\000"
 5262      6100
 5263              	.LASF88:
 5264 0024 7264796D 		.ascii	"rdymsg\000"
ARM GAS  /tmp/cc9hywgG.s 			page 94


 5264      736700
 5265              	.LASF19:
 5266 002b 75696E74 		.ascii	"uint64_t\000"
 5266      36345F74 
 5266      00
 5267              	.LASF3:
 5268 0034 5F5F7569 		.ascii	"__uint8_t\000"
 5268      6E74385F 
 5268      7400
 5269              	.LASF25:
 5270 003e 6D73675F 		.ascii	"msg_t\000"
 5270      7400
 5271              	.LASF52:
 5272 0044 70726576 		.ascii	"prev\000"
 5272      00
 5273              	.LASF75:
 5274 0049 706F7274 		.ascii	"port_intctx\000"
 5274      5F696E74 
 5274      63747800 
 5275              	.LASF51:
 5276 0055 63685F74 		.ascii	"ch_threads_queue\000"
 5276      68726561 
 5276      64735F71 
 5276      75657565 
 5276      00
 5277              	.LASF64:
 5278 0066 73797374 		.ascii	"system_debug_t\000"
 5278      656D5F64 
 5278      65627567 
 5278      5F7400
 5279              	.LASF119:
 5280 0075 71756575 		.ascii	"queue_init\000"
 5280      655F696E 
 5280      697400
 5281              	.LASF115:
 5282 0080 706F7274 		.ascii	"port_lock\000"
 5282      5F6C6F63 
 5282      6B00
 5283              	.LASF13:
 5284 008a 6C6F6E67 		.ascii	"long long unsigned int\000"
 5284      206C6F6E 
 5284      6720756E 
 5284      7369676E 
 5284      65642069 
 5285              	.LASF89:
 5286 00a1 65786974 		.ascii	"exitcode\000"
 5286      636F6465 
 5286      00
 5287              	.LASF143:
 5288 00aa 69627152 		.ascii	"ibqReleaseEmptyBufferS\000"
 5288      656C6561 
 5288      7365456D 
 5288      70747942 
 5288      75666665 
 5289              	.LASF92:
 5290 00c1 73656E74 		.ascii	"sentmsg\000"
 5290      6D736700 
ARM GAS  /tmp/cc9hywgG.s 			page 95


 5291              	.LASF61:
 5292 00c9 76697274 		.ascii	"virtual_timers_list_t\000"
 5292      75616C5F 
 5292      74696D65 
 5292      72735F6C 
 5292      6973745F 
 5293              	.LASF165:
 5294 00df 2E2E2F2E 		.ascii	"../../../os/hal/src/hal_buffers.c\000"
 5294      2E2F2E2E 
 5294      2F6F732F 
 5294      68616C2F 
 5294      7372632F 
 5295              	.LASF163:
 5296 0101 49544D5F 		.ascii	"ITM_RxBuffer\000"
 5296      52784275 
 5296      66666572 
 5296      00
 5297              	.LASF135:
 5298 010e 6962714F 		.ascii	"ibqObjectInit\000"
 5298      626A6563 
 5298      74496E69 
 5298      7400
 5299              	.LASF81:
 5300 011c 42445452 		.ascii	"BDTR\000"
 5300      00
 5301              	.LASF105:
 5302 0121 62777270 		.ascii	"bwrptr\000"
 5302      747200
 5303              	.LASF152:
 5304 0128 6F627147 		.ascii	"obqGetFullBufferI\000"
 5304      65744675 
 5304      6C6C4275 
 5304      66666572 
 5304      4900
 5305              	.LASF78:
 5306 013a 43434D52 		.ascii	"CCMR1\000"
 5306      3100
 5307              	.LASF79:
 5308 0140 43434D52 		.ascii	"CCMR2\000"
 5308      3200
 5309              	.LASF83:
 5310 0146 43434D52 		.ascii	"CCMR3\000"
 5310      3300
 5311              	.LASF1:
 5312 014c 7369676E 		.ascii	"signed char\000"
 5312      65642063 
 5312      68617200 
 5313              	.LASF148:
 5314 0158 6F62714F 		.ascii	"obqObjectInit\000"
 5314      626A6563 
 5314      74496E69 
 5314      7400
 5315              	.LASF129:
 5316 0166 6F73616C 		.ascii	"osalThreadDequeueNextI\000"
 5316      54687265 
 5316      61644465 
 5316      71756575 
ARM GAS  /tmp/cc9hywgG.s 			page 96


 5316      654E6578 
 5317              	.LASF102:
 5318 017d 696F5F62 		.ascii	"io_buffers_queue\000"
 5318      75666665 
 5318      72735F71 
 5318      75657565 
 5318      00
 5319              	.LASF144:
 5320 018e 69627147 		.ascii	"ibqGetTimeout\000"
 5320      65745469 
 5320      6D656F75 
 5320      7400
 5321              	.LASF145:
 5322 019c 69627152 		.ascii	"ibqReadTimeout\000"
 5322      65616454 
 5322      696D656F 
 5322      757400
 5323              	.LASF70:
 5324 01ab 76746C69 		.ascii	"vtlist\000"
 5324      737400
 5325              	.LASF116:
 5326 01b2 706F7274 		.ascii	"port_unlock\000"
 5326      5F756E6C 
 5326      6F636B00 
 5327              	.LASF40:
 5328 01be 6D736771 		.ascii	"msgqueue\000"
 5328      75657565 
 5328      00
 5329              	.LASF36:
 5330 01c7 73746174 		.ascii	"state\000"
 5330      6500
 5331              	.LASF8:
 5332 01cd 6C6F6E67 		.ascii	"long int\000"
 5332      20696E74 
 5332      00
 5333              	.LASF22:
 5334 01d6 74737461 		.ascii	"tstate_t\000"
 5334      74655F74 
 5334      00
 5335              	.LASF60:
 5336 01df 66756E63 		.ascii	"func\000"
 5336      00
 5337              	.LASF80:
 5338 01e4 43434552 		.ascii	"CCER\000"
 5338      00
 5339              	.LASF11:
 5340 01e9 6C6F6E67 		.ascii	"long long int\000"
 5340      206C6F6E 
 5340      6720696E 
 5340      7400
 5341              	.LASF30:
 5342 01f7 71756575 		.ascii	"queue\000"
 5342      6500
 5343              	.LASF35:
 5344 01fd 77616261 		.ascii	"wabase\000"
 5344      736500
 5345              	.LASF141:
ARM GAS  /tmp/cc9hywgG.s 			page 97


 5346 0204 69627147 		.ascii	"ibqGetFullBufferTimeoutS\000"
 5346      65744675 
 5346      6C6C4275 
 5346      66666572 
 5346      54696D65 
 5347              	.LASF9:
 5348 021d 5F5F7569 		.ascii	"__uint32_t\000"
 5348      6E743332 
 5348      5F7400
 5349              	.LASF72:
 5350 0228 72656761 		.ascii	"regarm_t\000"
 5350      726D5F74 
 5350      00
 5351              	.LASF111:
 5352 0231 6C696E6B 		.ascii	"link\000"
 5352      00
 5353              	.LASF113:
 5354 0236 696E7075 		.ascii	"input_buffers_queue_t\000"
 5354      745F6275 
 5354      66666572 
 5354      735F7175 
 5354      6575655F 
 5355              	.LASF106:
 5356 024c 62726470 		.ascii	"brdptr\000"
 5356      747200
 5357              	.LASF39:
 5358 0253 77616974 		.ascii	"waiting\000"
 5358      696E6700 
 5359              	.LASF124:
 5360 025b 6F73616C 		.ascii	"osalSysLock\000"
 5360      5379734C 
 5360      6F636B00 
 5361              	.LASF101:
 5362 0267 696F5F62 		.ascii	"io_buffers_queue_t\000"
 5362      75666665 
 5362      72735F71 
 5362      75657565 
 5362      5F7400
 5363              	.LASF99:
 5364 027a 6D757465 		.ascii	"mutex_t\000"
 5364      785F7400 
 5365              	.LASF168:
 5366 0282 76616C75 		.ascii	"value\000"
 5366      6500
 5367              	.LASF74:
 5368 0288 706F7274 		.ascii	"port_context\000"
 5368      5F636F6E 
 5368      74657874 
 5368      00
 5369              	.LASF162:
 5370 0295 6F627146 		.ascii	"obqFlush\000"
 5370      6C757368 
 5370      00
 5371              	.LASF27:
 5372 029e 636E745F 		.ascii	"cnt_t\000"
 5372      7400
 5373              	.LASF121:
ARM GAS  /tmp/cc9hywgG.s 			page 98


 5374 02a4 63685654 		.ascii	"chVTGetSystemTimeX\000"
 5374      47657453 
 5374      79737465 
 5374      6D54696D 
 5374      655800
 5375              	.LASF0:
 5376 02b7 756E7369 		.ascii	"unsigned int\000"
 5376      676E6564 
 5376      20696E74 
 5376      00
 5377              	.LASF93:
 5378 02c4 77747365 		.ascii	"wtsemp\000"
 5378      6D7000
 5379              	.LASF91:
 5380 02cb 77747472 		.ascii	"wttrp\000"
 5380      7000
 5381              	.LASF140:
 5382 02d1 74696D65 		.ascii	"timeout\000"
 5382      6F757400 
 5383              	.LASF109:
 5384 02d9 62756666 		.ascii	"buffers\000"
 5384      65727300 
 5385              	.LASF34:
 5386 02e1 6E616D65 		.ascii	"name\000"
 5386      00
 5387              	.LASF44:
 5388 02e6 6D706F6F 		.ascii	"mpool\000"
 5388      6C00
 5389              	.LASF76:
 5390 02ec 534D4352 		.ascii	"SMCR\000"
 5390      00
 5391              	.LASF47:
 5392 02f1 63685F74 		.ascii	"ch_thread\000"
 5392      68726561 
 5392      6400
 5393              	.LASF71:
 5394 02fb 6D61696E 		.ascii	"mainthread\000"
 5394      74687265 
 5394      616400
 5395              	.LASF158:
 5396 0306 6F627150 		.ascii	"obqPostFullBufferS\000"
 5396      6F737446 
 5396      756C6C42 
 5396      75666665 
 5396      725300
 5397              	.LASF41:
 5398 0319 6570656E 		.ascii	"epending\000"
 5398      64696E67 
 5398      00
 5399              	.LASF138:
 5400 0322 69627147 		.ascii	"ibqGetEmptyBufferI\000"
 5400      6574456D 
 5400      70747942 
 5400      75666665 
 5400      724900
 5401              	.LASF67:
 5402 0335 63685F73 		.ascii	"ch_system_t\000"
ARM GAS  /tmp/cc9hywgG.s 			page 99


 5402      79737465 
 5402      6D5F7400 
 5403              	.LASF85:
 5404 0341 73746D33 		.ascii	"stm32_tim_t\000"
 5404      325F7469 
 5404      6D5F7400 
 5405              	.LASF169:
 5406 034d 6F73616C 		.ascii	"osalThreadEnqueueTimeoutS\000"
 5406      54687265 
 5406      6164456E 
 5406      71756575 
 5406      6554696D 
 5407              	.LASF54:
 5408 0367 63685F72 		.ascii	"ch_ready_list\000"
 5408      65616479 
 5408      5F6C6973 
 5408      7400
 5409              	.LASF26:
 5410 0375 6576656E 		.ascii	"eventmask_t\000"
 5410      746D6173 
 5410      6B5F7400 
 5411              	.LASF7:
 5412 0381 5F5F696E 		.ascii	"__int32_t\000"
 5412      7433325F 
 5412      7400
 5413              	.LASF73:
 5414 038b 73746B61 		.ascii	"stkalign_t\000"
 5414      6C69676E 
 5414      5F7400
 5415              	.LASF32:
 5416 0396 6E657765 		.ascii	"newer\000"
 5416      7200
 5417              	.LASF122:
 5418 039c 63685468 		.ascii	"chThdQueueObjectInit\000"
 5418      64517565 
 5418      75654F62 
 5418      6A656374 
 5418      496E6974 
 5419              	.LASF43:
 5420 03b1 7265616C 		.ascii	"realprio\000"
 5420      7072696F 
 5420      00
 5421              	.LASF14:
 5422 03ba 73697A65 		.ascii	"sizetype\000"
 5422      74797065 
 5422      00
 5423              	.LASF45:
 5424 03c3 74687265 		.ascii	"thread_reference_t\000"
 5424      61645F72 
 5424      65666572 
 5424      656E6365 
 5424      5F7400
 5425              	.LASF62:
 5426 03d6 63685F76 		.ascii	"ch_virtual_timers_list\000"
 5426      69727475 
 5426      616C5F74 
 5426      696D6572 
ARM GAS  /tmp/cc9hywgG.s 			page 100


 5426      735F6C69 
 5427              	.LASF167:
 5428 03ed 5F5F7365 		.ascii	"__set_BASEPRI\000"
 5428      745F4241 
 5428      53455052 
 5428      4900
 5429              	.LASF137:
 5430 03fb 69627150 		.ascii	"ibqPostFullBufferI\000"
 5430      6F737446 
 5430      756C6C42 
 5430      75666665 
 5430      724900
 5431              	.LASF103:
 5432 040e 73757370 		.ascii	"suspended\000"
 5432      656E6465 
 5432      6400
 5433              	.LASF107:
 5434 0418 62746F70 		.ascii	"btop\000"
 5434      00
 5435              	.LASF151:
 5436 041d 6F627152 		.ascii	"obqResetI\000"
 5436      65736574 
 5436      4900
 5437              	.LASF87:
 5438 0427 746D5F63 		.ascii	"tm_calibration_t\000"
 5438      616C6962 
 5438      72617469 
 5438      6F6E5F74 
 5438      00
 5439              	.LASF128:
 5440 0438 74696D65 		.ascii	"time\000"
 5440      00
 5441              	.LASF31:
 5442 043d 7072696F 		.ascii	"prio\000"
 5442      00
 5443              	.LASF55:
 5444 0442 63757272 		.ascii	"current\000"
 5444      656E7400 
 5445              	.LASF12:
 5446 044a 5F5F7569 		.ascii	"__uint64_t\000"
 5446      6E743634 
 5446      5F7400
 5447              	.LASF131:
 5448 0455 69627170 		.ascii	"ibqp\000"
 5448      00
 5449              	.LASF104:
 5450 045a 62636F75 		.ascii	"bcounter\000"
 5450      6E746572 
 5450      00
 5451              	.LASF23:
 5452 0463 74726566 		.ascii	"trefs_t\000"
 5452      735F7400 
 5453              	.LASF38:
 5454 046b 72656673 		.ascii	"refs\000"
 5454      00
 5455              	.LASF57:
 5456 0470 76697274 		.ascii	"virtual_timer_t\000"
ARM GAS  /tmp/cc9hywgG.s 			page 101


 5456      75616C5F 
 5456      74696D65 
 5456      725F7400 
 5457              	.LASF24:
 5458 0480 74707269 		.ascii	"tprio_t\000"
 5458      6F5F7400 
 5459              	.LASF114:
 5460 0488 6F757470 		.ascii	"output_buffers_queue_t\000"
 5460      75745F62 
 5460      75666665 
 5460      72735F71 
 5460      75657565 
 5461              	.LASF65:
 5462 049f 63685F73 		.ascii	"ch_system_debug\000"
 5462      79737465 
 5462      6D5F6465 
 5462      62756700 
 5463              	.LASF100:
 5464 04af 5F426F6F 		.ascii	"_Bool\000"
 5464      6C00
 5465              	.LASF17:
 5466 04b5 696E7433 		.ascii	"int32_t\000"
 5466      325F7400 
 5467              	.LASF4:
 5468 04bd 756E7369 		.ascii	"unsigned char\000"
 5468      676E6564 
 5468      20636861 
 5468      7200
 5469              	.LASF108:
 5470 04cb 6273697A 		.ascii	"bsize\000"
 5470      6500
 5471              	.LASF136:
 5472 04d1 69627152 		.ascii	"ibqResetI\000"
 5472      65736574 
 5472      4900
 5473              	.LASF139:
 5474 04db 69627147 		.ascii	"ibqGetFullBufferTimeout\000"
 5474      65744675 
 5474      6C6C4275 
 5474      66666572 
 5474      54696D65 
 5475              	.LASF5:
 5476 04f3 73686F72 		.ascii	"short int\000"
 5476      7420696E 
 5476      7400
 5477              	.LASF63:
 5478 04fd 6C617374 		.ascii	"lasttime\000"
 5478      74696D65 
 5478      00
 5479              	.LASF95:
 5480 0506 65776D61 		.ascii	"ewmask\000"
 5480      736B00
 5481              	.LASF68:
 5482 050d 63685F73 		.ascii	"ch_system\000"
 5482      79737465 
 5482      6D00
 5483              	.LASF133:
ARM GAS  /tmp/cc9hywgG.s 			page 102


 5484 0517 696E6679 		.ascii	"infy\000"
 5484      00
 5485              	.LASF159:
 5486 051c 6F627150 		.ascii	"obqPutTimeout\000"
 5486      75745469 
 5486      6D656F75 
 5486      7400
 5487              	.LASF134:
 5488 052a 5F5F6675 		.ascii	"__func__\000"
 5488      6E635F5F 
 5488      00
 5489              	.LASF123:
 5490 0533 63685379 		.ascii	"chSysLock\000"
 5490      734C6F63 
 5490      6B00
 5491              	.LASF160:
 5492 053d 6F627157 		.ascii	"obqWriteTimeout\000"
 5492      72697465 
 5492      54696D65 
 5492      6F757400 
 5493              	.LASF125:
 5494 054d 6F73616C 		.ascii	"osalSysUnlock\000"
 5494      53797355 
 5494      6E6C6F63 
 5494      6B00
 5495              	.LASF132:
 5496 055b 73697A65 		.ascii	"size\000"
 5496      00
 5497              	.LASF58:
 5498 0560 63685F76 		.ascii	"ch_virtual_timer\000"
 5498      69727475 
 5498      616C5F74 
 5498      696D6572 
 5498      00
 5499              	.LASF96:
 5500 0571 63685F73 		.ascii	"ch_semaphore\000"
 5500      656D6170 
 5500      686F7265 
 5500      00
 5501              	.LASF117:
 5502 057e 73745F6C 		.ascii	"st_lld_get_counter\000"
 5502      6C645F67 
 5502      65745F63 
 5502      6F756E74 
 5502      657200
 5503              	.LASF161:
 5504 0591 6F627154 		.ascii	"obqTryFlushI\000"
 5504      7279466C 
 5504      75736849 
 5504      00
 5505              	.LASF18:
 5506 059e 75696E74 		.ascii	"uint32_t\000"
 5506      33325F74 
 5506      00
 5507              	.LASF94:
 5508 05a7 77746D74 		.ascii	"wtmtxp\000"
 5508      787000
ARM GAS  /tmp/cc9hywgG.s 			page 103


 5509              	.LASF48:
 5510 05ae 63685F74 		.ascii	"ch_threads_list\000"
 5510      68726561 
 5510      64735F6C 
 5510      69737400 
 5511              	.LASF98:
 5512 05be 6F776E65 		.ascii	"owner\000"
 5512      7200
 5513              	.LASF10:
 5514 05c4 6C6F6E67 		.ascii	"long unsigned int\000"
 5514      20756E73 
 5514      69676E65 
 5514      6420696E 
 5514      7400
 5515              	.LASF164:
 5516 05d6 474E5520 		.ascii	"GNU C 4.9.3 20150529 (prerelease) -mcpu=cortex-m4 -"
 5516      4320342E 
 5516      392E3320 
 5516      32303135 
 5516      30353239 
 5517 0609 6D6E6F2D 		.ascii	"mno-thumb-interwork -mthumb -ggdb -O0 -fomit-frame-"
 5517      7468756D 
 5517      622D696E 
 5517      74657277 
 5517      6F726B20 
 5518 063c 706F696E 		.ascii	"pointer -falign-functions=16\000"
 5518      74657220 
 5518      2D66616C 
 5518      69676E2D 
 5518      66756E63 
 5519              	.LASF110:
 5520 0659 6E6F7469 		.ascii	"notify\000"
 5520      667900
 5521              	.LASF15:
 5522 0660 63686172 		.ascii	"char\000"
 5522      00
 5523              	.LASF33:
 5524 0665 6F6C6465 		.ascii	"older\000"
 5524      7200
 5525              	.LASF157:
 5526 066b 6F627150 		.ascii	"obqPostFullBuffer\000"
 5526      6F737446 
 5526      756C6C42 
 5526      75666665 
 5526      7200
 5527              	.LASF82:
 5528 067d 444D4152 		.ascii	"DMAR\000"
 5528      00
 5529              	.LASF166:
 5530 0682 2F686F6D 		.ascii	"/home/declan/ChibiOS2/ChibiOS/demos/STM32/RT-STM32F"
 5530      652F6465 
 5530      636C616E 
 5530      2F436869 
 5530      62694F53 
 5531 06b5 3430372D 		.ascii	"407-DISCOVERY\000"
 5531      44495343 
 5531      4F564552 
ARM GAS  /tmp/cc9hywgG.s 			page 104


 5531      5900
 5532              	.LASF29:
 5533 06c3 74687265 		.ascii	"thread_t\000"
 5533      61645F74 
 5533      00
 5534              	.LASF28:
 5535 06cc 73797374 		.ascii	"systime_t\000"
 5535      696D655F 
 5535      7400
 5536              	.LASF56:
 5537 06d6 76746675 		.ascii	"vtfunc_t\000"
 5537      6E635F74 
 5537      00
 5538              	.LASF84:
 5539 06df 43435852 		.ascii	"CCXR\000"
 5539      00
 5540              	.LASF66:
 5541 06e4 70616E69 		.ascii	"panic_msg\000"
 5541      635F6D73 
 5541      6700
 5542              	.LASF86:
 5543 06ee 6F666673 		.ascii	"offset\000"
 5543      657400
 5544              	.LASF6:
 5545 06f5 73686F72 		.ascii	"short unsigned int\000"
 5545      7420756E 
 5545      7369676E 
 5545      65642069 
 5545      6E7400
 5546              	.LASF127:
 5547 0708 6F73616C 		.ascii	"osalThreadQueueObjectInit\000"
 5547      54687265 
 5547      61645175 
 5547      6575654F 
 5547      626A6563 
 5548              	.LASF118:
 5549 0722 706F7274 		.ascii	"port_timer_get_time\000"
 5549      5F74696D 
 5549      65725F67 
 5549      65745F74 
 5549      696D6500 
 5550              	.LASF20:
 5551 0736 7274636E 		.ascii	"rtcnt_t\000"
 5551      745F7400 
 5552              	.LASF112:
 5553 073e 62716E6F 		.ascii	"bqnotify_t\000"
 5553      74696679 
 5553      5F7400
 5554              	.LASF50:
 5555 0749 74687265 		.ascii	"threads_queue_t\000"
 5555      6164735F 
 5555      71756575 
 5555      655F7400 
 5556              	.LASF97:
 5557 0759 63685F6D 		.ascii	"ch_mutex\000"
 5557      75746578 
 5557      00
ARM GAS  /tmp/cc9hywgG.s 			page 105


 5558              	.LASF154:
 5559 0762 6F627152 		.ascii	"obqReleaseEmptyBufferI\000"
 5559      656C6561 
 5559      7365456D 
 5559      70747942 
 5559      75666665 
 5560              	.LASF69:
 5561 0779 726C6973 		.ascii	"rlist\000"
 5561      7400
 5562              	.LASF149:
 5563 077f 6F627170 		.ascii	"obqp\000"
 5563      00
 5564              	.LASF16:
 5565 0784 75696E74 		.ascii	"uint8_t\000"
 5565      385F7400 
 5566              	.LASF37:
 5567 078c 666C6167 		.ascii	"flags\000"
 5567      7300
 5568              	.LASF155:
 5569 0792 6F627147 		.ascii	"obqGetEmptyBufferTimeout\000"
 5569      6574456D 
 5569      70747942 
 5569      75666665 
 5569      7254696D 
 5570              	.LASF90:
 5571 07ab 77746F62 		.ascii	"wtobjp\000"
 5571      6A7000
 5572              	.LASF153:
 5573 07b2 73697A65 		.ascii	"sizep\000"
 5573      7000
 5574              	.LASF142:
 5575 07b8 69627152 		.ascii	"ibqReleaseEmptyBuffer\000"
 5575      656C6561 
 5575      7365456D 
 5575      70747942 
 5575      75666665 
 5576              	.LASF77:
 5577 07ce 44494552 		.ascii	"DIER\000"
 5577      00
 5578              	.LASF130:
 5579 07d3 6F73616C 		.ascii	"osalThreadDequeueAllI\000"
 5579      54687265 
 5579      61644465 
 5579      71756575 
 5579      65416C6C 
 5580              	.LASF46:
 5581 07e9 74687265 		.ascii	"threads_list_t\000"
 5581      6164735F 
 5581      6C697374 
 5581      5F7400
 5582              	.LASF126:
 5583 07f8 6F73616C 		.ascii	"osalOsGetSystemTimeX\000"
 5583      4F734765 
 5583      74537973 
 5583      74656D54 
 5583      696D6558 
 5584              	.LASF21:
ARM GAS  /tmp/cc9hywgG.s 			page 106


 5585 080d 746D6F64 		.ascii	"tmode_t\000"
 5585      655F7400 
 5586              	.LASF120:
 5587 0815 63685379 		.ascii	"chSysUnlock\000"
 5587      73556E6C 
 5587      6F636B00 
 5588              	.LASF146:
 5589 0821 64656164 		.ascii	"deadline\000"
 5589      6C696E65 
 5589      00
 5590              	.LASF42:
 5591 082a 6D74786C 		.ascii	"mtxlist\000"
 5591      69737400 
 5592              	.LASF156:
 5593 0832 6F627147 		.ascii	"obqGetEmptyBufferTimeoutS\000"
 5593      6574456D 
 5593      70747942 
 5593      75666665 
 5593      7254696D 
 5594              	.LASF147:
 5595 084c 6E657874 		.ascii	"next_timeout\000"
 5595      5F74696D 
 5595      656F7574 
 5595      00
 5596              		.ident	"GCC: (15:4.9.3+svn231177-1) 4.9.3 20150529 (prerelease)"
ARM GAS  /tmp/cc9hywgG.s 			page 107


DEFINED SYMBOLS
                            *ABS*:0000000000000000 hal_buffers.c
     /tmp/cc9hywgG.s:18     .text:0000000000000000 $t
     /tmp/cc9hywgG.s:23     .text:0000000000000000 port_lock
     /tmp/cc9hywgG.s:59     .text:0000000000000010 port_unlock
     /tmp/cc9hywgG.s:93     .text:0000000000000020 st_lld_get_counter
     /tmp/cc9hywgG.s:115    .text:0000000000000030 port_timer_get_time
     /tmp/cc9hywgG.s:140    .text:0000000000000040 queue_init
     /tmp/cc9hywgG.s:172    .text:0000000000000060 chSysLock
     /tmp/cc9hywgG.s:195    .text:0000000000000070 chSysUnlock
     /tmp/cc9hywgG.s:217    .text:0000000000000080 chVTGetSystemTimeX
     /tmp/cc9hywgG.s:242    .text:0000000000000090 chThdQueueObjectInit
     /tmp/cc9hywgG.s:271    .text:00000000000000b0 osalSysLock
     /tmp/cc9hywgG.s:294    .text:00000000000000c0 osalSysUnlock
     /tmp/cc9hywgG.s:316    .text:00000000000000d0 osalOsGetSystemTimeX
     /tmp/cc9hywgG.s:340    .text:00000000000000e0 osalThreadQueueObjectInit
     /tmp/cc9hywgG.s:368    .text:0000000000000100 osalThreadEnqueueTimeoutS
     /tmp/cc9hywgG.s:400    .text:0000000000000120 osalThreadDequeueNextI
     /tmp/cc9hywgG.s:430    .text:0000000000000140 osalThreadDequeueAllI
     /tmp/cc9hywgG.s:461    .text:0000000000000160 ibqObjectInit
     /tmp/cc9hywgG.s:550    .text:00000000000001e0 ibqResetI
     /tmp/cc9hywgG.s:603    .text:0000000000000220 ibqGetEmptyBufferI
     /tmp/cc9hywgG.s:661    .text:0000000000000260 ibqPostFullBufferI
     /tmp/cc9hywgG.s:725    .text:00000000000002b0 ibqGetFullBufferTimeout
     /tmp/cc9hywgG.s:764    .text:00000000000002e0 ibqGetFullBufferTimeoutS
     /tmp/cc9hywgG.s:843    .text:0000000000000340 ibqReleaseEmptyBuffer
     /tmp/cc9hywgG.s:876    .text:0000000000000360 ibqReleaseEmptyBufferS
     /tmp/cc9hywgG.s:944    .text:00000000000003b0 ibqGetTimeout
     /tmp/cc9hywgG.s:1021   .text:0000000000000410 ibqReadTimeout
     /tmp/cc9hywgG.s:1223   .text:0000000000000530 obqObjectInit
     /tmp/cc9hywgG.s:1311   .text:00000000000005b0 obqResetI
     /tmp/cc9hywgG.s:1365   .text:00000000000005f0 obqGetFullBufferI
     /tmp/cc9hywgG.s:1430   .text:0000000000000640 obqReleaseEmptyBufferI
     /tmp/cc9hywgG.s:1488   .text:0000000000000690 obqGetEmptyBufferTimeout
     /tmp/cc9hywgG.s:1527   .text:00000000000006c0 obqGetEmptyBufferTimeoutS
     /tmp/cc9hywgG.s:1605   .text:0000000000000720 obqPostFullBuffer
     /tmp/cc9hywgG.s:1640   .text:0000000000000740 obqPostFullBufferS
     /tmp/cc9hywgG.s:1714   .text:00000000000007a0 obqPutTimeout
     /tmp/cc9hywgG.s:1797   .text:0000000000000810 obqWriteTimeout
     /tmp/cc9hywgG.s:2003   .text:0000000000000940 obqTryFlushI
     /tmp/cc9hywgG.s:2115   .text:00000000000009d0 obqFlush
                     .debug_frame:0000000000000010 $d

UNDEFINED SYMBOLS
chThdEnqueueTimeoutS
chThdDequeueNextI
chThdDequeueAllI
memcpy
