ARM GAS  /tmp/cc9hywgG.s 			page 1


   1              		.syntax unified
   2              		.cpu cortex-m4
   3              		.fpu softvfp
   4              		.eabi_attribute 20, 1
   5              		.eabi_attribute 21, 1
   6              		.eabi_attribute 23, 3
   7              		.eabi_attribute 24, 1
   8              		.eabi_attribute 25, 1
   9              		.eabi_attribute 26, 1
  10              		.eabi_attribute 30, 6
  11              		.eabi_attribute 34, 1
  12              		.eabi_attribute 18, 4
  13              		.thumb
  14              		.file	"hal_buffers.c"
  15              		.text
  16              	.Ltext0:
  17              		.cfi_sections	.debug_frame
  18              		.align	2
  19              		.p2align 4,,15
  20              		.thumb
  21              		.thumb_func
  22              		.type	port_lock, %function
  23              	port_lock:
  24              	.LFB127:
  25              		.file 1 "../../../os/common/ports/ARMCMx/chcore_v7m.h"
  26              		.loc 1 594 0
  27              		.cfi_startproc
  28              		@ args = 0, pretend = 0, frame = 8
  29              		@ frame_needed = 0, uses_anonymous_args = 0
  30              		@ link register save eliminated.
  31 0000 82B0     		sub	sp, sp, #8
  32              		.cfi_def_cfa_offset 8
  33 0002 2023     		movs	r3, #32
  34 0004 0193     		str	r3, [sp, #4]
  35              	.LBB6:
  36              	.LBB7:
  37              		.file 2 "../../../os/common/ext/CMSIS/include/cmsis_gcc.h"
  38              		.loc 2 264 0
  39 0006 019B     		ldr	r3, [sp, #4]
  40              	@ 264 "../../../os/common/ext/CMSIS/include/cmsis_gcc.h" 1
  41 0008 83F31188 		MSR basepri, r3
  42              	@ 0 "" 2
  43              		.thumb
  44              	.LBE7:
  45              	.LBE6:
  46              		.loc 1 611 0
  47 000c 02B0     		add	sp, sp, #8
  48              		.cfi_def_cfa_offset 0
  49              		@ sp needed
  50 000e 7047     		bx	lr
  51              		.cfi_endproc
  52              	.LFE127:
  53              		.size	port_lock, .-port_lock
  54              		.align	2
  55              		.p2align 4,,15
  56              		.thumb
  57              		.thumb_func
ARM GAS  /tmp/cc9hywgG.s 			page 2


  58              		.type	port_unlock, %function
  59              	port_unlock:
  60              	.LFB128:
  61              		.loc 1 618 0
  62              		.cfi_startproc
  63              		@ args = 0, pretend = 0, frame = 8
  64              		@ frame_needed = 0, uses_anonymous_args = 0
  65              		@ link register save eliminated.
  66 0010 82B0     		sub	sp, sp, #8
  67              		.cfi_def_cfa_offset 8
  68 0012 0023     		movs	r3, #0
  69 0014 0193     		str	r3, [sp, #4]
  70              	.LBB8:
  71              	.LBB9:
  72              		.loc 2 264 0
  73 0016 019B     		ldr	r3, [sp, #4]
  74              	@ 264 "../../../os/common/ext/CMSIS/include/cmsis_gcc.h" 1
  75 0018 83F31188 		MSR basepri, r3
  76              	@ 0 "" 2
  77              		.thumb
  78              	.LBE9:
  79              	.LBE8:
  80              		.loc 1 625 0
  81 001c 02B0     		add	sp, sp, #8
  82              		.cfi_def_cfa_offset 0
  83              		@ sp needed
  84 001e 7047     		bx	lr
  85              		.cfi_endproc
  86              	.LFE128:
  87              		.size	port_unlock, .-port_unlock
  88              		.align	2
  89              		.p2align 4,,15
  90              		.thumb
  91              		.thumb_func
  92              		.type	st_lld_get_counter, %function
  93              	st_lld_get_counter:
  94              	.LFB136:
  95              		.file 3 "../../../os/hal/ports/STM32/LLD/TIMv1/hal_st_lld.h"
  96              		.loc 3 139 0
  97              		.cfi_startproc
  98              		@ args = 0, pretend = 0, frame = 0
  99              		@ frame_needed = 0, uses_anonymous_args = 0
 100              		@ link register save eliminated.
 101              		.loc 3 141 0
 102 0020 4FF08043 		mov	r3, #1073741824
 103 0024 5B6A     		ldr	r3, [r3, #36]
 104              		.loc 3 142 0
 105 0026 1846     		mov	r0, r3
 106 0028 7047     		bx	lr
 107              		.cfi_endproc
 108              	.LFE136:
 109              		.size	st_lld_get_counter, .-st_lld_get_counter
 110 002a 00BF     		.align	2
 111 002c AFF30080 		.p2align 4,,15
 112              		.thumb
 113              		.thumb_func
 114              		.type	port_timer_get_time, %function
ARM GAS  /tmp/cc9hywgG.s 			page 3


 115              	port_timer_get_time:
 116              	.LFB145:
 117              		.file 4 "../../../os/common/ports/ARMCMx/chcore_timer.h"
 118              		.loc 4 105 0
 119              		.cfi_startproc
 120              		@ args = 0, pretend = 0, frame = 0
 121              		@ frame_needed = 0, uses_anonymous_args = 0
 122 0030 08B5     		push	{r3, lr}
 123              		.cfi_def_cfa_offset 8
 124              		.cfi_offset 3, -8
 125              		.cfi_offset 14, -4
 126              		.loc 4 107 0
 127 0032 FFF7F5FF 		bl	st_lld_get_counter
 128 0036 0346     		mov	r3, r0
 129              		.loc 4 108 0
 130 0038 1846     		mov	r0, r3
 131 003a 08BD     		pop	{r3, pc}
 132              		.cfi_endproc
 133              	.LFE145:
 134              		.size	port_timer_get_time, .-port_timer_get_time
 135              		.align	2
 136 003c AFF30080 		.p2align 4,,15
 137              		.thumb
 138              		.thumb_func
 139              		.type	queue_init, %function
 140              	queue_init:
 141              	.LFB150:
 142              		.file 5 "../../../os/rt/include/chschd.h"
 143              		.loc 5 548 0
 144              		.cfi_startproc
 145              		@ args = 0, pretend = 0, frame = 8
 146              		@ frame_needed = 0, uses_anonymous_args = 0
 147              		@ link register save eliminated.
 148 0040 82B0     		sub	sp, sp, #8
 149              		.cfi_def_cfa_offset 8
 150 0042 0190     		str	r0, [sp, #4]
 151              		.loc 5 550 0
 152 0044 019B     		ldr	r3, [sp, #4]
 153 0046 019A     		ldr	r2, [sp, #4]
 154 0048 1A60     		str	r2, [r3]
 155              		.loc 5 551 0
 156 004a 019B     		ldr	r3, [sp, #4]
 157 004c 019A     		ldr	r2, [sp, #4]
 158 004e 5A60     		str	r2, [r3, #4]
 159              		.loc 5 552 0
 160 0050 02B0     		add	sp, sp, #8
 161              		.cfi_def_cfa_offset 0
 162              		@ sp needed
 163 0052 7047     		bx	lr
 164              		.cfi_endproc
 165              	.LFE150:
 166              		.size	queue_init, .-queue_init
 167              		.align	2
 168 0054 AFF30080 		.p2align 4,,15
 168      AFF30080 
 168      AFF30080 
 169              		.thumb
ARM GAS  /tmp/cc9hywgG.s 			page 4


 170              		.thumb_func
 171              		.type	chSysLock, %function
 172              	chSysLock:
 173              	.LFB167:
 174              		.file 6 "../../../os/rt/include/chsys.h"
 175              		.loc 6 374 0
 176              		.cfi_startproc
 177              		@ args = 0, pretend = 0, frame = 0
 178              		@ frame_needed = 0, uses_anonymous_args = 0
 179 0060 08B5     		push	{r3, lr}
 180              		.cfi_def_cfa_offset 8
 181              		.cfi_offset 3, -8
 182              		.cfi_offset 14, -4
 183              		.loc 6 376 0
 184 0062 FFF7CDFF 		bl	port_lock
 185              		.loc 6 379 0
 186 0066 08BD     		pop	{r3, pc}
 187              		.cfi_endproc
 188              	.LFE167:
 189              		.size	chSysLock, .-chSysLock
 190              		.align	2
 191 0068 AFF30080 		.p2align 4,,15
 191      AFF30080 
 192              		.thumb
 193              		.thumb_func
 194              		.type	chSysUnlock, %function
 195              	chSysUnlock:
 196              	.LFB168:
 197              		.loc 6 386 0
 198              		.cfi_startproc
 199              		@ args = 0, pretend = 0, frame = 0
 200              		@ frame_needed = 0, uses_anonymous_args = 0
 201 0070 08B5     		push	{r3, lr}
 202              		.cfi_def_cfa_offset 8
 203              		.cfi_offset 3, -8
 204              		.cfi_offset 14, -4
 205              		.loc 6 399 0
 206 0072 FFF7CDFF 		bl	port_unlock
 207              		.loc 6 400 0
 208 0076 08BD     		pop	{r3, pc}
 209              		.cfi_endproc
 210              	.LFE168:
 211              		.size	chSysUnlock, .-chSysUnlock
 212              		.align	2
 213 0078 AFF30080 		.p2align 4,,15
 213      AFF30080 
 214              		.thumb
 215              		.thumb_func
 216              		.type	chVTGetSystemTimeX, %function
 217              	chVTGetSystemTimeX:
 218              	.LFB181:
 219              		.file 7 "../../../os/rt/include/chvt.h"
 220              		.loc 7 392 0
 221              		.cfi_startproc
 222              		@ args = 0, pretend = 0, frame = 0
 223              		@ frame_needed = 0, uses_anonymous_args = 0
 224 0080 08B5     		push	{r3, lr}
ARM GAS  /tmp/cc9hywgG.s 			page 5


 225              		.cfi_def_cfa_offset 8
 226              		.cfi_offset 3, -8
 227              		.cfi_offset 14, -4
 228              		.loc 7 397 0
 229 0082 FFF7D5FF 		bl	port_timer_get_time
 230 0086 0346     		mov	r3, r0
 231              		.loc 7 399 0
 232 0088 1846     		mov	r0, r3
 233 008a 08BD     		pop	{r3, pc}
 234              		.cfi_endproc
 235              	.LFE181:
 236              		.size	chVTGetSystemTimeX, .-chVTGetSystemTimeX
 237              		.align	2
 238 008c AFF30080 		.p2align 4,,15
 239              		.thumb
 240              		.thumb_func
 241              		.type	chThdQueueObjectInit, %function
 242              	chThdQueueObjectInit:
 243              	.LFB202:
 244              		.file 8 "../../../os/rt/include/chthreads.h"
 245              		.loc 8 404 0
 246              		.cfi_startproc
 247              		@ args = 0, pretend = 0, frame = 8
 248              		@ frame_needed = 0, uses_anonymous_args = 0
 249 0090 00B5     		push	{lr}
 250              		.cfi_def_cfa_offset 4
 251              		.cfi_offset 14, -4
 252 0092 83B0     		sub	sp, sp, #12
 253              		.cfi_def_cfa_offset 16
 254 0094 0190     		str	r0, [sp, #4]
 255              		.loc 8 406 0
 256 0096 0198     		ldr	r0, [sp, #4]
 257 0098 FFF7D2FF 		bl	queue_init
 258              		.loc 8 407 0
 259 009c 03B0     		add	sp, sp, #12
 260              		.cfi_def_cfa_offset 4
 261              		@ sp needed
 262 009e 5DF804FB 		ldr	pc, [sp], #4
 263              		.cfi_endproc
 264              	.LFE202:
 265              		.size	chThdQueueObjectInit, .-chThdQueueObjectInit
 266 00a2 00BF     		.align	2
 267 00a4 AFF30080 		.p2align 4,,15
 267      AFF30080 
 267      AFF30080 
 268              		.thumb
 269              		.thumb_func
 270              		.type	osalSysLock, %function
 271              	osalSysLock:
 272              	.LFB252:
 273              		.file 9 "../../../os/hal/osal/rt/osal.h"
 274              		.loc 9 491 0
 275              		.cfi_startproc
 276              		@ args = 0, pretend = 0, frame = 0
 277              		@ frame_needed = 0, uses_anonymous_args = 0
 278 00b0 08B5     		push	{r3, lr}
 279              		.cfi_def_cfa_offset 8
ARM GAS  /tmp/cc9hywgG.s 			page 6


 280              		.cfi_offset 3, -8
 281              		.cfi_offset 14, -4
 282              		.loc 9 493 0
 283 00b2 FFF7D5FF 		bl	chSysLock
 284              		.loc 9 494 0
 285 00b6 08BD     		pop	{r3, pc}
 286              		.cfi_endproc
 287              	.LFE252:
 288              		.size	osalSysLock, .-osalSysLock
 289              		.align	2
 290 00b8 AFF30080 		.p2align 4,,15
 290      AFF30080 
 291              		.thumb
 292              		.thumb_func
 293              		.type	osalSysUnlock, %function
 294              	osalSysUnlock:
 295              	.LFB253:
 296              		.loc 9 502 0
 297              		.cfi_startproc
 298              		@ args = 0, pretend = 0, frame = 0
 299              		@ frame_needed = 0, uses_anonymous_args = 0
 300 00c0 08B5     		push	{r3, lr}
 301              		.cfi_def_cfa_offset 8
 302              		.cfi_offset 3, -8
 303              		.cfi_offset 14, -4
 304              		.loc 9 504 0
 305 00c2 FFF7D5FF 		bl	chSysUnlock
 306              		.loc 9 505 0
 307 00c6 08BD     		pop	{r3, pc}
 308              		.cfi_endproc
 309              	.LFE253:
 310              		.size	osalSysUnlock, .-osalSysUnlock
 311              		.align	2
 312 00c8 AFF30080 		.p2align 4,,15
 312      AFF30080 
 313              		.thumb
 314              		.thumb_func
 315              		.type	osalOsGetSystemTimeX, %function
 316              	osalOsGetSystemTimeX:
 317              	.LFB261:
 318              		.loc 9 616 0
 319              		.cfi_startproc
 320              		@ args = 0, pretend = 0, frame = 0
 321              		@ frame_needed = 0, uses_anonymous_args = 0
 322 00d0 08B5     		push	{r3, lr}
 323              		.cfi_def_cfa_offset 8
 324              		.cfi_offset 3, -8
 325              		.cfi_offset 14, -4
 326              		.loc 9 618 0
 327 00d2 FFF7D5FF 		bl	chVTGetSystemTimeX
 328 00d6 0346     		mov	r3, r0
 329              		.loc 9 619 0
 330 00d8 1846     		mov	r0, r3
 331 00da 08BD     		pop	{r3, pc}
 332              		.cfi_endproc
 333              	.LFE261:
 334              		.size	osalOsGetSystemTimeX, .-osalOsGetSystemTimeX
ARM GAS  /tmp/cc9hywgG.s 			page 7


 335              		.align	2
 336 00dc AFF30080 		.p2align 4,,15
 337              		.thumb
 338              		.thumb_func
 339              		.type	osalThreadQueueObjectInit, %function
 340              	osalThreadQueueObjectInit:
 341              	.LFB269:
 342              		.loc 9 753 0
 343              		.cfi_startproc
 344              		@ args = 0, pretend = 0, frame = 8
 345              		@ frame_needed = 0, uses_anonymous_args = 0
 346 00e0 00B5     		push	{lr}
 347              		.cfi_def_cfa_offset 4
 348              		.cfi_offset 14, -4
 349 00e2 83B0     		sub	sp, sp, #12
 350              		.cfi_def_cfa_offset 16
 351 00e4 0190     		str	r0, [sp, #4]
 352              		.loc 9 755 0
 353 00e6 0198     		ldr	r0, [sp, #4]
 354 00e8 FFF7D2FF 		bl	chThdQueueObjectInit
 355              		.loc 9 756 0
 356 00ec 03B0     		add	sp, sp, #12
 357              		.cfi_def_cfa_offset 4
 358              		@ sp needed
 359 00ee 5DF804FB 		ldr	pc, [sp], #4
 360              		.cfi_endproc
 361              	.LFE269:
 362              		.size	osalThreadQueueObjectInit, .-osalThreadQueueObjectInit
 363 00f2 00BF     		.align	2
 364 00f4 AFF30080 		.p2align 4,,15
 364      AFF30080 
 364      AFF30080 
 365              		.thumb
 366              		.thumb_func
 367              		.type	osalThreadEnqueueTimeoutS, %function
 368              	osalThreadEnqueueTimeoutS:
 369              	.LFB270:
 370              		.loc 9 782 0
 371              		.cfi_startproc
 372              		@ args = 0, pretend = 0, frame = 8
 373              		@ frame_needed = 0, uses_anonymous_args = 0
 374 0100 00B5     		push	{lr}
 375              		.cfi_def_cfa_offset 4
 376              		.cfi_offset 14, -4
 377 0102 83B0     		sub	sp, sp, #12
 378              		.cfi_def_cfa_offset 16
 379 0104 0190     		str	r0, [sp, #4]
 380 0106 0091     		str	r1, [sp]
 381              		.loc 9 784 0
 382 0108 0198     		ldr	r0, [sp, #4]
 383 010a 0099     		ldr	r1, [sp]
 384 010c FFF7FEFF 		bl	chThdEnqueueTimeoutS
 385 0110 0346     		mov	r3, r0
 386              		.loc 9 785 0
 387 0112 1846     		mov	r0, r3
 388 0114 03B0     		add	sp, sp, #12
 389              		.cfi_def_cfa_offset 4
ARM GAS  /tmp/cc9hywgG.s 			page 8


 390              		@ sp needed
 391 0116 5DF804FB 		ldr	pc, [sp], #4
 392              		.cfi_endproc
 393              	.LFE270:
 394              		.size	osalThreadEnqueueTimeoutS, .-osalThreadEnqueueTimeoutS
 395 011a 00BF     		.align	2
 396 011c AFF30080 		.p2align 4,,15
 397              		.thumb
 398              		.thumb_func
 399              		.type	osalThreadDequeueNextI, %function
 400              	osalThreadDequeueNextI:
 401              	.LFB271:
 402              		.loc 9 795 0
 403              		.cfi_startproc
 404              		@ args = 0, pretend = 0, frame = 8
 405              		@ frame_needed = 0, uses_anonymous_args = 0
 406 0120 00B5     		push	{lr}
 407              		.cfi_def_cfa_offset 4
 408              		.cfi_offset 14, -4
 409 0122 83B0     		sub	sp, sp, #12
 410              		.cfi_def_cfa_offset 16
 411 0124 0190     		str	r0, [sp, #4]
 412 0126 0091     		str	r1, [sp]
 413              		.loc 9 797 0
 414 0128 0198     		ldr	r0, [sp, #4]
 415 012a 0099     		ldr	r1, [sp]
 416 012c FFF7FEFF 		bl	chThdDequeueNextI
 417              		.loc 9 798 0
 418 0130 03B0     		add	sp, sp, #12
 419              		.cfi_def_cfa_offset 4
 420              		@ sp needed
 421 0132 5DF804FB 		ldr	pc, [sp], #4
 422              		.cfi_endproc
 423              	.LFE271:
 424              		.size	osalThreadDequeueNextI, .-osalThreadDequeueNextI
 425 0136 00BF     		.align	2
 426 0138 AFF30080 		.p2align 4,,15
 426      AFF30080 
 427              		.thumb
 428              		.thumb_func
 429              		.type	osalThreadDequeueAllI, %function
 430              	osalThreadDequeueAllI:
 431              	.LFB272:
 432              		.loc 9 808 0
 433              		.cfi_startproc
 434              		@ args = 0, pretend = 0, frame = 8
 435              		@ frame_needed = 0, uses_anonymous_args = 0
 436 0140 00B5     		push	{lr}
 437              		.cfi_def_cfa_offset 4
 438              		.cfi_offset 14, -4
 439 0142 83B0     		sub	sp, sp, #12
 440              		.cfi_def_cfa_offset 16
 441 0144 0190     		str	r0, [sp, #4]
 442 0146 0091     		str	r1, [sp]
 443              		.loc 9 810 0
 444 0148 0198     		ldr	r0, [sp, #4]
 445 014a 0099     		ldr	r1, [sp]
ARM GAS  /tmp/cc9hywgG.s 			page 9


 446 014c FFF7FEFF 		bl	chThdDequeueAllI
 447              		.loc 9 811 0
 448 0150 03B0     		add	sp, sp, #12
 449              		.cfi_def_cfa_offset 4
 450              		@ sp needed
 451 0152 5DF804FB 		ldr	pc, [sp], #4
 452              		.cfi_endproc
 453              	.LFE272:
 454              		.size	osalThreadDequeueAllI, .-osalThreadDequeueAllI
 455 0156 00BF     		.align	2
 456 0158 AFF30080 		.p2align 4,,15
 456      AFF30080 
 457              		.global	ibqObjectInit
 458              		.thumb
 459              		.thumb_func
 460              		.type	ibqObjectInit, %function
 461              	ibqObjectInit:
 462              	.LFB279:
 463              		.file 10 "../../../os/hal/src/hal_buffers.c"
 464              		.loc 10 77 0
 465              		.cfi_startproc
 466              		@ args = 12, pretend = 0, frame = 16
 467              		@ frame_needed = 0, uses_anonymous_args = 0
 468 0160 00B5     		push	{lr}
 469              		.cfi_def_cfa_offset 4
 470              		.cfi_offset 14, -4
 471 0162 85B0     		sub	sp, sp, #20
 472              		.cfi_def_cfa_offset 24
 473 0164 0390     		str	r0, [sp, #12]
 474 0166 0192     		str	r2, [sp, #4]
 475 0168 0093     		str	r3, [sp]
 476 016a 0B46     		mov	r3, r1
 477 016c 8DF80B30 		strb	r3, [sp, #11]
 478              		.loc 10 81 0
 479 0170 039B     		ldr	r3, [sp, #12]
 480 0172 1846     		mov	r0, r3
 481 0174 FFF7B4FF 		bl	osalThreadQueueObjectInit
 482              		.loc 10 82 0
 483 0178 039B     		ldr	r3, [sp, #12]
 484 017a 9DF80B20 		ldrb	r2, [sp, #11]
 485 017e 1A72     		strb	r2, [r3, #8]
 486              		.loc 10 83 0
 487 0180 039B     		ldr	r3, [sp, #12]
 488 0182 0022     		movs	r2, #0
 489 0184 DA60     		str	r2, [r3, #12]
 490              		.loc 10 84 0
 491 0186 039B     		ldr	r3, [sp, #12]
 492 0188 019A     		ldr	r2, [sp, #4]
 493 018a 5A61     		str	r2, [r3, #20]
 494              		.loc 10 85 0
 495 018c 039B     		ldr	r3, [sp, #12]
 496 018e 019A     		ldr	r2, [sp, #4]
 497 0190 1A61     		str	r2, [r3, #16]
 498              		.loc 10 86 0
 499 0192 009B     		ldr	r3, [sp]
 500 0194 0433     		adds	r3, r3, #4
 501 0196 069A     		ldr	r2, [sp, #24]
ARM GAS  /tmp/cc9hywgG.s 			page 10


 502 0198 02FB03F3 		mul	r3, r2, r3
 503 019c 019A     		ldr	r2, [sp, #4]
 504 019e 1A44     		add	r2, r2, r3
 505 01a0 039B     		ldr	r3, [sp, #12]
 506 01a2 9A61     		str	r2, [r3, #24]
 507              		.loc 10 87 0
 508 01a4 009B     		ldr	r3, [sp]
 509 01a6 1A1D     		adds	r2, r3, #4
 510 01a8 039B     		ldr	r3, [sp, #12]
 511 01aa DA61     		str	r2, [r3, #28]
 512              		.loc 10 88 0
 513 01ac 039B     		ldr	r3, [sp, #12]
 514 01ae 069A     		ldr	r2, [sp, #24]
 515 01b0 1A62     		str	r2, [r3, #32]
 516              		.loc 10 89 0
 517 01b2 039B     		ldr	r3, [sp, #12]
 518 01b4 019A     		ldr	r2, [sp, #4]
 519 01b6 5A62     		str	r2, [r3, #36]
 520              		.loc 10 90 0
 521 01b8 039B     		ldr	r3, [sp, #12]
 522 01ba 0022     		movs	r2, #0
 523 01bc 9A62     		str	r2, [r3, #40]
 524              		.loc 10 91 0
 525 01be 039B     		ldr	r3, [sp, #12]
 526 01c0 0022     		movs	r2, #0
 527 01c2 DA62     		str	r2, [r3, #44]
 528              		.loc 10 92 0
 529 01c4 039B     		ldr	r3, [sp, #12]
 530 01c6 079A     		ldr	r2, [sp, #28]
 531 01c8 1A63     		str	r2, [r3, #48]
 532              		.loc 10 93 0
 533 01ca 039B     		ldr	r3, [sp, #12]
 534 01cc 089A     		ldr	r2, [sp, #32]
 535 01ce 5A63     		str	r2, [r3, #52]
 536              		.loc 10 94 0
 537 01d0 05B0     		add	sp, sp, #20
 538              		.cfi_def_cfa_offset 4
 539              		@ sp needed
 540 01d2 5DF804FB 		ldr	pc, [sp], #4
 541              		.cfi_endproc
 542              	.LFE279:
 543              		.size	ibqObjectInit, .-ibqObjectInit
 544 01d6 00BF     		.align	2
 545 01d8 AFF30080 		.p2align 4,,15
 545      AFF30080 
 546              		.global	ibqResetI
 547              		.thumb
 548              		.thumb_func
 549              		.type	ibqResetI, %function
 550              	ibqResetI:
 551              	.LFB280:
 552              		.loc 10 107 0
 553              		.cfi_startproc
 554              		@ args = 0, pretend = 0, frame = 8
 555              		@ frame_needed = 0, uses_anonymous_args = 0
 556 01e0 00B5     		push	{lr}
 557              		.cfi_def_cfa_offset 4
ARM GAS  /tmp/cc9hywgG.s 			page 11


 558              		.cfi_offset 14, -4
 559 01e2 83B0     		sub	sp, sp, #12
 560              		.cfi_def_cfa_offset 16
 561 01e4 0190     		str	r0, [sp, #4]
 562              		.loc 10 111 0
 563 01e6 019B     		ldr	r3, [sp, #4]
 564 01e8 0022     		movs	r2, #0
 565 01ea DA60     		str	r2, [r3, #12]
 566              		.loc 10 112 0
 567 01ec 019B     		ldr	r3, [sp, #4]
 568 01ee 5A6A     		ldr	r2, [r3, #36]
 569 01f0 019B     		ldr	r3, [sp, #4]
 570 01f2 5A61     		str	r2, [r3, #20]
 571              		.loc 10 113 0
 572 01f4 019B     		ldr	r3, [sp, #4]
 573 01f6 5A6A     		ldr	r2, [r3, #36]
 574 01f8 019B     		ldr	r3, [sp, #4]
 575 01fa 1A61     		str	r2, [r3, #16]
 576              		.loc 10 114 0
 577 01fc 019B     		ldr	r3, [sp, #4]
 578 01fe 0022     		movs	r2, #0
 579 0200 9A62     		str	r2, [r3, #40]
 580              		.loc 10 115 0
 581 0202 019B     		ldr	r3, [sp, #4]
 582 0204 0022     		movs	r2, #0
 583 0206 DA62     		str	r2, [r3, #44]
 584              		.loc 10 116 0
 585 0208 019B     		ldr	r3, [sp, #4]
 586 020a 1846     		mov	r0, r3
 587 020c 6FF00101 		mvn	r1, #1
 588 0210 FFF796FF 		bl	osalThreadDequeueAllI
 589              		.loc 10 117 0
 590 0214 03B0     		add	sp, sp, #12
 591              		.cfi_def_cfa_offset 4
 592              		@ sp needed
 593 0216 5DF804FB 		ldr	pc, [sp], #4
 594              		.cfi_endproc
 595              	.LFE280:
 596              		.size	ibqResetI, .-ibqResetI
 597 021a 00BF     		.align	2
 598 021c AFF30080 		.p2align 4,,15
 599              		.global	ibqGetEmptyBufferI
 600              		.thumb
 601              		.thumb_func
 602              		.type	ibqGetEmptyBufferI, %function
 603              	ibqGetEmptyBufferI:
 604              	.LFB281:
 605              		.loc 10 129 0
 606              		.cfi_startproc
 607              		@ args = 0, pretend = 0, frame = 8
 608              		@ frame_needed = 0, uses_anonymous_args = 0
 609              		@ link register save eliminated.
 610 0220 82B0     		sub	sp, sp, #8
 611              		.cfi_def_cfa_offset 8
 612 0222 0190     		str	r0, [sp, #4]
 613              		.loc 10 133 0
 614 0224 019B     		ldr	r3, [sp, #4]
ARM GAS  /tmp/cc9hywgG.s 			page 12


 615 0226 1A69     		ldr	r2, [r3, #16]
 616 0228 019B     		ldr	r3, [sp, #4]
 617 022a 5B69     		ldr	r3, [r3, #20]
 618 022c 9A42     		cmp	r2, r3
 619 022e 05D1     		bne	.L25
 620              		.loc 10 133 0 is_stmt 0 discriminator 1
 621 0230 019B     		ldr	r3, [sp, #4]
 622 0232 DB68     		ldr	r3, [r3, #12]
 623 0234 002B     		cmp	r3, #0
 624 0236 01D0     		beq	.L25
 625              		.loc 10 133 0 discriminator 3
 626 0238 0123     		movs	r3, #1
 627 023a 00E0     		b	.L26
 628              	.L25:
 629              		.loc 10 133 0 discriminator 4
 630 023c 0023     		movs	r3, #0
 631              	.L26:
 632              		.loc 10 133 0 discriminator 6
 633 023e 03F00103 		and	r3, r3, #1
 634 0242 DBB2     		uxtb	r3, r3
 635 0244 002B     		cmp	r3, #0
 636 0246 01D0     		beq	.L27
 637              		.loc 10 134 0 is_stmt 1
 638 0248 0023     		movs	r3, #0
 639 024a 02E0     		b	.L28
 640              	.L27:
 641              		.loc 10 137 0
 642 024c 019B     		ldr	r3, [sp, #4]
 643 024e 1B69     		ldr	r3, [r3, #16]
 644 0250 0433     		adds	r3, r3, #4
 645              	.L28:
 646              		.loc 10 138 0
 647 0252 1846     		mov	r0, r3
 648 0254 02B0     		add	sp, sp, #8
 649              		.cfi_def_cfa_offset 0
 650              		@ sp needed
 651 0256 7047     		bx	lr
 652              		.cfi_endproc
 653              	.LFE281:
 654              		.size	ibqGetEmptyBufferI, .-ibqGetEmptyBufferI
 655              		.align	2
 656 0258 AFF30080 		.p2align 4,,15
 656      AFF30080 
 657              		.global	ibqPostFullBufferI
 658              		.thumb
 659              		.thumb_func
 660              		.type	ibqPostFullBufferI, %function
 661              	ibqPostFullBufferI:
 662              	.LFB282:
 663              		.loc 10 148 0
 664              		.cfi_startproc
 665              		@ args = 0, pretend = 0, frame = 8
 666              		@ frame_needed = 0, uses_anonymous_args = 0
 667 0260 00B5     		push	{lr}
 668              		.cfi_def_cfa_offset 4
 669              		.cfi_offset 14, -4
 670 0262 83B0     		sub	sp, sp, #12
ARM GAS  /tmp/cc9hywgG.s 			page 13


 671              		.cfi_def_cfa_offset 16
 672 0264 0190     		str	r0, [sp, #4]
 673 0266 0091     		str	r1, [sp]
 674              		.loc 10 156 0
 675 0268 019B     		ldr	r3, [sp, #4]
 676 026a 1B69     		ldr	r3, [r3, #16]
 677 026c 009A     		ldr	r2, [sp]
 678 026e 1A60     		str	r2, [r3]
 679              		.loc 10 159 0
 680 0270 019B     		ldr	r3, [sp, #4]
 681 0272 DB68     		ldr	r3, [r3, #12]
 682 0274 5A1C     		adds	r2, r3, #1
 683 0276 019B     		ldr	r3, [sp, #4]
 684 0278 DA60     		str	r2, [r3, #12]
 685              		.loc 10 160 0
 686 027a 019B     		ldr	r3, [sp, #4]
 687 027c 1A69     		ldr	r2, [r3, #16]
 688 027e 019B     		ldr	r3, [sp, #4]
 689 0280 DB69     		ldr	r3, [r3, #28]
 690 0282 1A44     		add	r2, r2, r3
 691 0284 019B     		ldr	r3, [sp, #4]
 692 0286 1A61     		str	r2, [r3, #16]
 693              		.loc 10 161 0
 694 0288 019B     		ldr	r3, [sp, #4]
 695 028a 1A69     		ldr	r2, [r3, #16]
 696 028c 019B     		ldr	r3, [sp, #4]
 697 028e 9B69     		ldr	r3, [r3, #24]
 698 0290 9A42     		cmp	r2, r3
 699 0292 03D3     		bcc	.L30
 700              		.loc 10 162 0
 701 0294 019B     		ldr	r3, [sp, #4]
 702 0296 5A6A     		ldr	r2, [r3, #36]
 703 0298 019B     		ldr	r3, [sp, #4]
 704 029a 1A61     		str	r2, [r3, #16]
 705              	.L30:
 706              		.loc 10 166 0
 707 029c 019B     		ldr	r3, [sp, #4]
 708 029e 1846     		mov	r0, r3
 709 02a0 0021     		movs	r1, #0
 710 02a2 FFF73DFF 		bl	osalThreadDequeueNextI
 711              		.loc 10 167 0
 712 02a6 03B0     		add	sp, sp, #12
 713              		.cfi_def_cfa_offset 4
 714              		@ sp needed
 715 02a8 5DF804FB 		ldr	pc, [sp], #4
 716              		.cfi_endproc
 717              	.LFE282:
 718              		.size	ibqPostFullBufferI, .-ibqPostFullBufferI
 719              		.align	2
 720 02ac AFF30080 		.p2align 4,,15
 721              		.global	ibqGetFullBufferTimeout
 722              		.thumb
 723              		.thumb_func
 724              		.type	ibqGetFullBufferTimeout, %function
 725              	ibqGetFullBufferTimeout:
 726              	.LFB283:
 727              		.loc 10 191 0
ARM GAS  /tmp/cc9hywgG.s 			page 14


 728              		.cfi_startproc
 729              		@ args = 0, pretend = 0, frame = 16
 730              		@ frame_needed = 0, uses_anonymous_args = 0
 731 02b0 00B5     		push	{lr}
 732              		.cfi_def_cfa_offset 4
 733              		.cfi_offset 14, -4
 734 02b2 85B0     		sub	sp, sp, #20
 735              		.cfi_def_cfa_offset 24
 736 02b4 0190     		str	r0, [sp, #4]
 737 02b6 0091     		str	r1, [sp]
 738              		.loc 10 194 0
 739 02b8 FFF7FAFE 		bl	osalSysLock
 740              		.loc 10 195 0
 741 02bc 0198     		ldr	r0, [sp, #4]
 742 02be 0099     		ldr	r1, [sp]
 743 02c0 FFF7FEFF 		bl	ibqGetFullBufferTimeoutS
 744 02c4 0390     		str	r0, [sp, #12]
 745              		.loc 10 196 0
 746 02c6 FFF7FBFE 		bl	osalSysUnlock
 747              		.loc 10 198 0
 748 02ca 039B     		ldr	r3, [sp, #12]
 749              		.loc 10 199 0
 750 02cc 1846     		mov	r0, r3
 751 02ce 05B0     		add	sp, sp, #20
 752              		.cfi_def_cfa_offset 4
 753              		@ sp needed
 754 02d0 5DF804FB 		ldr	pc, [sp], #4
 755              		.cfi_endproc
 756              	.LFE283:
 757              		.size	ibqGetFullBufferTimeout, .-ibqGetFullBufferTimeout
 758              		.align	2
 759 02d4 AFF30080 		.p2align 4,,15
 759      AFF30080 
 759      AFF30080 
 760              		.global	ibqGetFullBufferTimeoutS
 761              		.thumb
 762              		.thumb_func
 763              		.type	ibqGetFullBufferTimeoutS, %function
 764              	ibqGetFullBufferTimeoutS:
 765              	.LFB284:
 766              		.loc 10 223 0
 767              		.cfi_startproc
 768              		@ args = 0, pretend = 0, frame = 16
 769              		@ frame_needed = 0, uses_anonymous_args = 0
 770 02e0 00B5     		push	{lr}
 771              		.cfi_def_cfa_offset 4
 772              		.cfi_offset 14, -4
 773 02e2 85B0     		sub	sp, sp, #20
 774              		.cfi_def_cfa_offset 24
 775 02e4 0190     		str	r0, [sp, #4]
 776 02e6 0091     		str	r1, [sp]
 777              		.loc 10 227 0
 778 02e8 11E0     		b	.L34
 779              	.L37:
 780              	.LBB10:
 781              		.loc 10 228 0
 782 02ea 019B     		ldr	r3, [sp, #4]
ARM GAS  /tmp/cc9hywgG.s 			page 15


 783 02ec 1B7A     		ldrb	r3, [r3, #8]	@ zero_extendqisi2
 784 02ee 002B     		cmp	r3, #0
 785 02f0 02D0     		beq	.L35
 786              		.loc 10 229 0
 787 02f2 6FF00103 		mvn	r3, #1
 788 02f6 1CE0     		b	.L36
 789              	.L35:
 790              		.loc 10 231 0
 791 02f8 019B     		ldr	r3, [sp, #4]
 792 02fa 1846     		mov	r0, r3
 793 02fc 0099     		ldr	r1, [sp]
 794 02fe FFF7FFFE 		bl	osalThreadEnqueueTimeoutS
 795 0302 0390     		str	r0, [sp, #12]
 796              		.loc 10 232 0
 797 0304 039B     		ldr	r3, [sp, #12]
 798 0306 002B     		cmp	r3, #0
 799 0308 01DA     		bge	.L34
 800              		.loc 10 233 0
 801 030a 039B     		ldr	r3, [sp, #12]
 802 030c 11E0     		b	.L36
 803              	.L34:
 804              	.LBE10:
 805              		.loc 10 227 0
 806 030e 019B     		ldr	r3, [sp, #4]
 807 0310 DB68     		ldr	r3, [r3, #12]
 808 0312 002B     		cmp	r3, #0
 809 0314 E9D0     		beq	.L37
 810              		.loc 10 240 0
 811 0316 019B     		ldr	r3, [sp, #4]
 812 0318 5B69     		ldr	r3, [r3, #20]
 813 031a 1A1D     		adds	r2, r3, #4
 814 031c 019B     		ldr	r3, [sp, #4]
 815 031e 9A62     		str	r2, [r3, #40]
 816              		.loc 10 241 0
 817 0320 019B     		ldr	r3, [sp, #4]
 818 0322 9A6A     		ldr	r2, [r3, #40]
 819 0324 019B     		ldr	r3, [sp, #4]
 820 0326 5B69     		ldr	r3, [r3, #20]
 821 0328 1B68     		ldr	r3, [r3]
 822 032a 1A44     		add	r2, r2, r3
 823 032c 019B     		ldr	r3, [sp, #4]
 824 032e DA62     		str	r2, [r3, #44]
 825              		.loc 10 243 0
 826 0330 0023     		movs	r3, #0
 827              	.L36:
 828              		.loc 10 244 0
 829 0332 1846     		mov	r0, r3
 830 0334 05B0     		add	sp, sp, #20
 831              		.cfi_def_cfa_offset 4
 832              		@ sp needed
 833 0336 5DF804FB 		ldr	pc, [sp], #4
 834              		.cfi_endproc
 835              	.LFE284:
 836              		.size	ibqGetFullBufferTimeoutS, .-ibqGetFullBufferTimeoutS
 837 033a 00BF     		.align	2
 838 033c AFF30080 		.p2align 4,,15
 839              		.global	ibqReleaseEmptyBuffer
ARM GAS  /tmp/cc9hywgG.s 			page 16


 840              		.thumb
 841              		.thumb_func
 842              		.type	ibqReleaseEmptyBuffer, %function
 843              	ibqReleaseEmptyBuffer:
 844              	.LFB285:
 845              		.loc 10 254 0
 846              		.cfi_startproc
 847              		@ args = 0, pretend = 0, frame = 8
 848              		@ frame_needed = 0, uses_anonymous_args = 0
 849 0340 00B5     		push	{lr}
 850              		.cfi_def_cfa_offset 4
 851              		.cfi_offset 14, -4
 852 0342 83B0     		sub	sp, sp, #12
 853              		.cfi_def_cfa_offset 16
 854 0344 0190     		str	r0, [sp, #4]
 855              		.loc 10 256 0
 856 0346 FFF7B3FE 		bl	osalSysLock
 857              		.loc 10 257 0
 858 034a 0198     		ldr	r0, [sp, #4]
 859 034c FFF7FEFF 		bl	ibqReleaseEmptyBufferS
 860              		.loc 10 258 0
 861 0350 FFF7B6FE 		bl	osalSysUnlock
 862              		.loc 10 259 0
 863 0354 03B0     		add	sp, sp, #12
 864              		.cfi_def_cfa_offset 4
 865              		@ sp needed
 866 0356 5DF804FB 		ldr	pc, [sp], #4
 867              		.cfi_endproc
 868              	.LFE285:
 869              		.size	ibqReleaseEmptyBuffer, .-ibqReleaseEmptyBuffer
 870 035a 00BF     		.align	2
 871 035c AFF30080 		.p2align 4,,15
 872              		.global	ibqReleaseEmptyBufferS
 873              		.thumb
 874              		.thumb_func
 875              		.type	ibqReleaseEmptyBufferS, %function
 876              	ibqReleaseEmptyBufferS:
 877              	.LFB286:
 878              		.loc 10 269 0
 879              		.cfi_startproc
 880              		@ args = 0, pretend = 0, frame = 8
 881              		@ frame_needed = 0, uses_anonymous_args = 0
 882 0360 00B5     		push	{lr}
 883              		.cfi_def_cfa_offset 4
 884              		.cfi_offset 14, -4
 885 0362 83B0     		sub	sp, sp, #12
 886              		.cfi_def_cfa_offset 16
 887 0364 0190     		str	r0, [sp, #4]
 888              		.loc 10 275 0
 889 0366 019B     		ldr	r3, [sp, #4]
 890 0368 DB68     		ldr	r3, [r3, #12]
 891 036a 5A1E     		subs	r2, r3, #1
 892 036c 019B     		ldr	r3, [sp, #4]
 893 036e DA60     		str	r2, [r3, #12]
 894              		.loc 10 276 0
 895 0370 019B     		ldr	r3, [sp, #4]
 896 0372 5A69     		ldr	r2, [r3, #20]
ARM GAS  /tmp/cc9hywgG.s 			page 17


 897 0374 019B     		ldr	r3, [sp, #4]
 898 0376 DB69     		ldr	r3, [r3, #28]
 899 0378 1A44     		add	r2, r2, r3
 900 037a 019B     		ldr	r3, [sp, #4]
 901 037c 5A61     		str	r2, [r3, #20]
 902              		.loc 10 277 0
 903 037e 019B     		ldr	r3, [sp, #4]
 904 0380 5A69     		ldr	r2, [r3, #20]
 905 0382 019B     		ldr	r3, [sp, #4]
 906 0384 9B69     		ldr	r3, [r3, #24]
 907 0386 9A42     		cmp	r2, r3
 908 0388 03D3     		bcc	.L40
 909              		.loc 10 278 0
 910 038a 019B     		ldr	r3, [sp, #4]
 911 038c 5A6A     		ldr	r2, [r3, #36]
 912 038e 019B     		ldr	r3, [sp, #4]
 913 0390 5A61     		str	r2, [r3, #20]
 914              	.L40:
 915              		.loc 10 282 0
 916 0392 019B     		ldr	r3, [sp, #4]
 917 0394 0022     		movs	r2, #0
 918 0396 9A62     		str	r2, [r3, #40]
 919              		.loc 10 285 0
 920 0398 019B     		ldr	r3, [sp, #4]
 921 039a 1B6B     		ldr	r3, [r3, #48]
 922 039c 002B     		cmp	r3, #0
 923 039e 03D0     		beq	.L39
 924              		.loc 10 286 0
 925 03a0 019B     		ldr	r3, [sp, #4]
 926 03a2 1B6B     		ldr	r3, [r3, #48]
 927 03a4 0198     		ldr	r0, [sp, #4]
 928 03a6 9847     		blx	r3
 929              	.L39:
 930              		.loc 10 288 0
 931 03a8 03B0     		add	sp, sp, #12
 932              		.cfi_def_cfa_offset 4
 933              		@ sp needed
 934 03aa 5DF804FB 		ldr	pc, [sp], #4
 935              		.cfi_endproc
 936              	.LFE286:
 937              		.size	ibqReleaseEmptyBufferS, .-ibqReleaseEmptyBufferS
 938 03ae 00BF     		.align	2
 939              		.p2align 4,,15
 940              		.global	ibqGetTimeout
 941              		.thumb
 942              		.thumb_func
 943              		.type	ibqGetTimeout, %function
 944              	ibqGetTimeout:
 945              	.LFB287:
 946              		.loc 10 309 0
 947              		.cfi_startproc
 948              		@ args = 0, pretend = 0, frame = 16
 949              		@ frame_needed = 0, uses_anonymous_args = 0
 950 03b0 00B5     		push	{lr}
 951              		.cfi_def_cfa_offset 4
 952              		.cfi_offset 14, -4
 953 03b2 85B0     		sub	sp, sp, #20
ARM GAS  /tmp/cc9hywgG.s 			page 18


 954              		.cfi_def_cfa_offset 24
 955 03b4 0190     		str	r0, [sp, #4]
 956 03b6 0091     		str	r1, [sp]
 957              		.loc 10 312 0
 958 03b8 FFF77AFE 		bl	osalSysLock
 959              		.loc 10 315 0
 960 03bc 019B     		ldr	r3, [sp, #4]
 961 03be 9B6A     		ldr	r3, [r3, #40]
 962 03c0 002B     		cmp	r3, #0
 963 03c2 0BD1     		bne	.L43
 964              		.loc 10 316 0
 965 03c4 0198     		ldr	r0, [sp, #4]
 966 03c6 0099     		ldr	r1, [sp]
 967 03c8 FFF7FEFF 		bl	ibqGetFullBufferTimeoutS
 968 03cc 0390     		str	r0, [sp, #12]
 969              		.loc 10 317 0
 970 03ce 039B     		ldr	r3, [sp, #12]
 971 03d0 002B     		cmp	r3, #0
 972 03d2 03D0     		beq	.L43
 973              		.loc 10 318 0
 974 03d4 FFF774FE 		bl	osalSysUnlock
 975              		.loc 10 319 0
 976 03d8 039B     		ldr	r3, [sp, #12]
 977 03da 14E0     		b	.L44
 978              	.L43:
 979              		.loc 10 324 0
 980 03dc 019B     		ldr	r3, [sp, #4]
 981 03de 9B6A     		ldr	r3, [r3, #40]
 982 03e0 1B78     		ldrb	r3, [r3]	@ zero_extendqisi2
 983 03e2 0393     		str	r3, [sp, #12]
 984              		.loc 10 325 0
 985 03e4 019B     		ldr	r3, [sp, #4]
 986 03e6 9B6A     		ldr	r3, [r3, #40]
 987 03e8 5A1C     		adds	r2, r3, #1
 988 03ea 019B     		ldr	r3, [sp, #4]
 989 03ec 9A62     		str	r2, [r3, #40]
 990              		.loc 10 329 0
 991 03ee 019B     		ldr	r3, [sp, #4]
 992 03f0 9A6A     		ldr	r2, [r3, #40]
 993 03f2 019B     		ldr	r3, [sp, #4]
 994 03f4 DB6A     		ldr	r3, [r3, #44]
 995 03f6 9A42     		cmp	r2, r3
 996 03f8 02D3     		bcc	.L45
 997              		.loc 10 330 0
 998 03fa 0198     		ldr	r0, [sp, #4]
 999 03fc FFF7FEFF 		bl	ibqReleaseEmptyBufferS
 1000              	.L45:
 1001              		.loc 10 333 0
 1002 0400 FFF75EFE 		bl	osalSysUnlock
 1003              		.loc 10 334 0
 1004 0404 039B     		ldr	r3, [sp, #12]
 1005              	.L44:
 1006              		.loc 10 335 0
 1007 0406 1846     		mov	r0, r3
 1008 0408 05B0     		add	sp, sp, #20
 1009              		.cfi_def_cfa_offset 4
 1010              		@ sp needed
ARM GAS  /tmp/cc9hywgG.s 			page 19


 1011 040a 5DF804FB 		ldr	pc, [sp], #4
 1012              		.cfi_endproc
 1013              	.LFE287:
 1014              		.size	ibqGetTimeout, .-ibqGetTimeout
 1015 040e 00BF     		.align	2
 1016              		.p2align 4,,15
 1017              		.global	ibqReadTimeout
 1018              		.thumb
 1019              		.thumb_func
 1020              		.type	ibqReadTimeout, %function
 1021              	ibqReadTimeout:
 1022              	.LFB288:
 1023              		.loc 10 359 0
 1024              		.cfi_startproc
 1025              		@ args = 0, pretend = 0, frame = 40
 1026              		@ frame_needed = 0, uses_anonymous_args = 0
 1027 0410 00B5     		push	{lr}
 1028              		.cfi_def_cfa_offset 4
 1029              		.cfi_offset 14, -4
 1030 0412 8BB0     		sub	sp, sp, #44
 1031              		.cfi_def_cfa_offset 48
 1032 0414 0390     		str	r0, [sp, #12]
 1033 0416 0291     		str	r1, [sp, #8]
 1034 0418 0192     		str	r2, [sp, #4]
 1035 041a 0093     		str	r3, [sp]
 1036              		.loc 10 360 0
 1037 041c 0023     		movs	r3, #0
 1038 041e 0993     		str	r3, [sp, #36]
 1039              		.loc 10 365 0
 1040 0420 FFF746FE 		bl	osalSysLock
 1041              		.loc 10 368 0
 1042 0424 FFF754FE 		bl	osalOsGetSystemTimeX
 1043 0428 0246     		mov	r2, r0
 1044 042a 009B     		ldr	r3, [sp]
 1045 042c 1344     		add	r3, r3, r2
 1046 042e 0693     		str	r3, [sp, #24]
 1047              	.L58:
 1048              	.LBB11:
 1049              		.loc 10 374 0
 1050 0430 039B     		ldr	r3, [sp, #12]
 1051 0432 9B6A     		ldr	r3, [r3, #40]
 1052 0434 002B     		cmp	r3, #0
 1053 0436 26D1     		bne	.L47
 1054              	.LBB12:
 1055              		.loc 10 379 0
 1056 0438 009B     		ldr	r3, [sp]
 1057 043a B3F1FF3F 		cmp	r3, #-1
 1058 043e 02D0     		beq	.L48
 1059              		.loc 10 379 0 is_stmt 0 discriminator 1
 1060 0440 009B     		ldr	r3, [sp]
 1061 0442 002B     		cmp	r3, #0
 1062 0444 05D1     		bne	.L49
 1063              	.L48:
 1064              		.loc 10 380 0 is_stmt 1
 1065 0446 0398     		ldr	r0, [sp, #12]
 1066 0448 0099     		ldr	r1, [sp]
 1067 044a FFF7FEFF 		bl	ibqGetFullBufferTimeoutS
ARM GAS  /tmp/cc9hywgG.s 			page 20


 1068 044e 0790     		str	r0, [sp, #28]
 1069 0450 12E0     		b	.L50
 1070              	.L49:
 1071              	.LBB13:
 1072              		.loc 10 383 0
 1073 0452 FFF73DFE 		bl	osalOsGetSystemTimeX
 1074 0456 0246     		mov	r2, r0
 1075 0458 069B     		ldr	r3, [sp, #24]
 1076 045a 9B1A     		subs	r3, r3, r2
 1077 045c 0593     		str	r3, [sp, #20]
 1078              		.loc 10 388 0
 1079 045e 059A     		ldr	r2, [sp, #20]
 1080 0460 009B     		ldr	r3, [sp]
 1081 0462 9A42     		cmp	r2, r3
 1082 0464 03D9     		bls	.L51
 1083              		.loc 10 389 0
 1084 0466 FFF72BFE 		bl	osalSysUnlock
 1085              		.loc 10 390 0
 1086 046a 099B     		ldr	r3, [sp, #36]
 1087 046c 5CE0     		b	.L52
 1088              	.L51:
 1089              		.loc 10 392 0
 1090 046e 0398     		ldr	r0, [sp, #12]
 1091 0470 0599     		ldr	r1, [sp, #20]
 1092 0472 FFF7FEFF 		bl	ibqGetFullBufferTimeoutS
 1093 0476 0790     		str	r0, [sp, #28]
 1094              	.L50:
 1095              	.LBE13:
 1096              		.loc 10 396 0
 1097 0478 079B     		ldr	r3, [sp, #28]
 1098 047a 002B     		cmp	r3, #0
 1099 047c 03D0     		beq	.L47
 1100              		.loc 10 397 0
 1101 047e FFF71FFE 		bl	osalSysUnlock
 1102              		.loc 10 398 0
 1103 0482 099B     		ldr	r3, [sp, #36]
 1104 0484 50E0     		b	.L52
 1105              	.L47:
 1106              	.LBE12:
 1107              		.loc 10 403 0
 1108 0486 039B     		ldr	r3, [sp, #12]
 1109 0488 DB6A     		ldr	r3, [r3, #44]
 1110 048a 1A46     		mov	r2, r3
 1111 048c 039B     		ldr	r3, [sp, #12]
 1112 048e 9B6A     		ldr	r3, [r3, #40]
 1113 0490 D31A     		subs	r3, r2, r3
 1114 0492 0893     		str	r3, [sp, #32]
 1115              		.loc 10 404 0
 1116 0494 019A     		ldr	r2, [sp, #4]
 1117 0496 099B     		ldr	r3, [sp, #36]
 1118 0498 D21A     		subs	r2, r2, r3
 1119 049a 089B     		ldr	r3, [sp, #32]
 1120 049c 9A42     		cmp	r2, r3
 1121 049e 03D2     		bcs	.L53
 1122              		.loc 10 405 0
 1123 04a0 019A     		ldr	r2, [sp, #4]
 1124 04a2 099B     		ldr	r3, [sp, #36]
ARM GAS  /tmp/cc9hywgG.s 			page 21


 1125 04a4 D31A     		subs	r3, r2, r3
 1126 04a6 0893     		str	r3, [sp, #32]
 1127              	.L53:
 1128              		.loc 10 410 0
 1129 04a8 089B     		ldr	r3, [sp, #32]
 1130 04aa 402B     		cmp	r3, #64
 1131 04ac 13D9     		bls	.L54
 1132              		.loc 10 412 0
 1133 04ae 039B     		ldr	r3, [sp, #12]
 1134 04b0 9B6A     		ldr	r3, [r3, #40]
 1135 04b2 0298     		ldr	r0, [sp, #8]
 1136 04b4 1946     		mov	r1, r3
 1137 04b6 4022     		movs	r2, #64
 1138 04b8 FFF7FEFF 		bl	memcpy
 1139              		.loc 10 413 0
 1140 04bc 029B     		ldr	r3, [sp, #8]
 1141 04be 4033     		adds	r3, r3, #64
 1142 04c0 0293     		str	r3, [sp, #8]
 1143              		.loc 10 414 0
 1144 04c2 039B     		ldr	r3, [sp, #12]
 1145 04c4 9B6A     		ldr	r3, [r3, #40]
 1146 04c6 03F14002 		add	r2, r3, #64
 1147 04ca 039B     		ldr	r3, [sp, #12]
 1148 04cc 9A62     		str	r2, [r3, #40]
 1149              		.loc 10 415 0
 1150 04ce 099B     		ldr	r3, [sp, #36]
 1151 04d0 4033     		adds	r3, r3, #64
 1152 04d2 0993     		str	r3, [sp, #36]
 1153 04d4 14E0     		b	.L55
 1154              	.L54:
 1155              		.loc 10 418 0
 1156 04d6 039B     		ldr	r3, [sp, #12]
 1157 04d8 9B6A     		ldr	r3, [r3, #40]
 1158 04da 0298     		ldr	r0, [sp, #8]
 1159 04dc 1946     		mov	r1, r3
 1160 04de 089A     		ldr	r2, [sp, #32]
 1161 04e0 FFF7FEFF 		bl	memcpy
 1162              		.loc 10 419 0
 1163 04e4 029A     		ldr	r2, [sp, #8]
 1164 04e6 089B     		ldr	r3, [sp, #32]
 1165 04e8 1344     		add	r3, r3, r2
 1166 04ea 0293     		str	r3, [sp, #8]
 1167              		.loc 10 420 0
 1168 04ec 039B     		ldr	r3, [sp, #12]
 1169 04ee 9A6A     		ldr	r2, [r3, #40]
 1170 04f0 089B     		ldr	r3, [sp, #32]
 1171 04f2 1A44     		add	r2, r2, r3
 1172 04f4 039B     		ldr	r3, [sp, #12]
 1173 04f6 9A62     		str	r2, [r3, #40]
 1174              		.loc 10 421 0
 1175 04f8 099A     		ldr	r2, [sp, #36]
 1176 04fa 089B     		ldr	r3, [sp, #32]
 1177 04fc 1344     		add	r3, r3, r2
 1178 04fe 0993     		str	r3, [sp, #36]
 1179              	.L55:
 1180              		.loc 10 425 0
 1181 0500 039B     		ldr	r3, [sp, #12]
ARM GAS  /tmp/cc9hywgG.s 			page 22


 1182 0502 9A6A     		ldr	r2, [r3, #40]
 1183 0504 039B     		ldr	r3, [sp, #12]
 1184 0506 DB6A     		ldr	r3, [r3, #44]
 1185 0508 9A42     		cmp	r2, r3
 1186 050a 02D3     		bcc	.L56
 1187              		.loc 10 426 0
 1188 050c 0398     		ldr	r0, [sp, #12]
 1189 050e FFF7FEFF 		bl	ibqReleaseEmptyBufferS
 1190              	.L56:
 1191              		.loc 10 430 0
 1192 0512 FFF7D5FD 		bl	osalSysUnlock
 1193              		.loc 10 431 0
 1194 0516 099A     		ldr	r2, [sp, #36]
 1195 0518 019B     		ldr	r3, [sp, #4]
 1196 051a 9A42     		cmp	r2, r3
 1197 051c 01D3     		bcc	.L57
 1198              		.loc 10 432 0
 1199 051e 099B     		ldr	r3, [sp, #36]
 1200 0520 02E0     		b	.L52
 1201              	.L57:
 1202              		.loc 10 434 0
 1203 0522 FFF7C5FD 		bl	osalSysLock
 1204              	.LBE11:
 1205              		.loc 10 435 0
 1206 0526 83E7     		b	.L58
 1207              	.L52:
 1208              		.loc 10 436 0
 1209 0528 1846     		mov	r0, r3
 1210 052a 0BB0     		add	sp, sp, #44
 1211              		.cfi_def_cfa_offset 4
 1212              		@ sp needed
 1213 052c 5DF804FB 		ldr	pc, [sp], #4
 1214              		.cfi_endproc
 1215              	.LFE288:
 1216              		.size	ibqReadTimeout, .-ibqReadTimeout
 1217              		.align	2
 1218              		.p2align 4,,15
 1219              		.global	obqObjectInit
 1220              		.thumb
 1221              		.thumb_func
 1222              		.type	obqObjectInit, %function
 1223              	obqObjectInit:
 1224              	.LFB289:
 1225              		.loc 10 452 0
 1226              		.cfi_startproc
 1227              		@ args = 12, pretend = 0, frame = 16
 1228              		@ frame_needed = 0, uses_anonymous_args = 0
 1229 0530 00B5     		push	{lr}
 1230              		.cfi_def_cfa_offset 4
 1231              		.cfi_offset 14, -4
 1232 0532 85B0     		sub	sp, sp, #20
 1233              		.cfi_def_cfa_offset 24
 1234 0534 0390     		str	r0, [sp, #12]
 1235 0536 0192     		str	r2, [sp, #4]
 1236 0538 0093     		str	r3, [sp]
 1237 053a 0B46     		mov	r3, r1
 1238 053c 8DF80B30 		strb	r3, [sp, #11]
ARM GAS  /tmp/cc9hywgG.s 			page 23


 1239              		.loc 10 456 0
 1240 0540 039B     		ldr	r3, [sp, #12]
 1241 0542 1846     		mov	r0, r3
 1242 0544 FFF7CCFD 		bl	osalThreadQueueObjectInit
 1243              		.loc 10 457 0
 1244 0548 039B     		ldr	r3, [sp, #12]
 1245 054a 9DF80B20 		ldrb	r2, [sp, #11]
 1246 054e 1A72     		strb	r2, [r3, #8]
 1247              		.loc 10 458 0
 1248 0550 039B     		ldr	r3, [sp, #12]
 1249 0552 069A     		ldr	r2, [sp, #24]
 1250 0554 DA60     		str	r2, [r3, #12]
 1251              		.loc 10 459 0
 1252 0556 039B     		ldr	r3, [sp, #12]
 1253 0558 019A     		ldr	r2, [sp, #4]
 1254 055a 5A61     		str	r2, [r3, #20]
 1255              		.loc 10 460 0
 1256 055c 039B     		ldr	r3, [sp, #12]
 1257 055e 019A     		ldr	r2, [sp, #4]
 1258 0560 1A61     		str	r2, [r3, #16]
 1259              		.loc 10 461 0
 1260 0562 009B     		ldr	r3, [sp]
 1261 0564 0433     		adds	r3, r3, #4
 1262 0566 069A     		ldr	r2, [sp, #24]
 1263 0568 02FB03F3 		mul	r3, r2, r3
 1264 056c 019A     		ldr	r2, [sp, #4]
 1265 056e 1A44     		add	r2, r2, r3
 1266 0570 039B     		ldr	r3, [sp, #12]
 1267 0572 9A61     		str	r2, [r3, #24]
 1268              		.loc 10 462 0
 1269 0574 009B     		ldr	r3, [sp]
 1270 0576 1A1D     		adds	r2, r3, #4
 1271 0578 039B     		ldr	r3, [sp, #12]
 1272 057a DA61     		str	r2, [r3, #28]
 1273              		.loc 10 463 0
 1274 057c 039B     		ldr	r3, [sp, #12]
 1275 057e 069A     		ldr	r2, [sp, #24]
 1276 0580 1A62     		str	r2, [r3, #32]
 1277              		.loc 10 464 0
 1278 0582 039B     		ldr	r3, [sp, #12]
 1279 0584 019A     		ldr	r2, [sp, #4]
 1280 0586 5A62     		str	r2, [r3, #36]
 1281              		.loc 10 465 0
 1282 0588 039B     		ldr	r3, [sp, #12]
 1283 058a 0022     		movs	r2, #0
 1284 058c 9A62     		str	r2, [r3, #40]
 1285              		.loc 10 466 0
 1286 058e 039B     		ldr	r3, [sp, #12]
 1287 0590 0022     		movs	r2, #0
 1288 0592 DA62     		str	r2, [r3, #44]
 1289              		.loc 10 467 0
 1290 0594 039B     		ldr	r3, [sp, #12]
 1291 0596 079A     		ldr	r2, [sp, #28]
 1292 0598 1A63     		str	r2, [r3, #48]
 1293              		.loc 10 468 0
 1294 059a 039B     		ldr	r3, [sp, #12]
 1295 059c 089A     		ldr	r2, [sp, #32]
ARM GAS  /tmp/cc9hywgG.s 			page 24


 1296 059e 5A63     		str	r2, [r3, #52]
 1297              		.loc 10 469 0
 1298 05a0 05B0     		add	sp, sp, #20
 1299              		.cfi_def_cfa_offset 4
 1300              		@ sp needed
 1301 05a2 5DF804FB 		ldr	pc, [sp], #4
 1302              		.cfi_endproc
 1303              	.LFE289:
 1304              		.size	obqObjectInit, .-obqObjectInit
 1305 05a6 00BF     		.align	2
 1306 05a8 AFF30080 		.p2align 4,,15
 1306      AFF30080 
 1307              		.global	obqResetI
 1308              		.thumb
 1309              		.thumb_func
 1310              		.type	obqResetI, %function
 1311              	obqResetI:
 1312              	.LFB290:
 1313              		.loc 10 482 0
 1314              		.cfi_startproc
 1315              		@ args = 0, pretend = 0, frame = 8
 1316              		@ frame_needed = 0, uses_anonymous_args = 0
 1317 05b0 00B5     		push	{lr}
 1318              		.cfi_def_cfa_offset 4
 1319              		.cfi_offset 14, -4
 1320 05b2 83B0     		sub	sp, sp, #12
 1321              		.cfi_def_cfa_offset 16
 1322 05b4 0190     		str	r0, [sp, #4]
 1323              		.loc 10 486 0
 1324 05b6 019B     		ldr	r3, [sp, #4]
 1325 05b8 1A6A     		ldr	r2, [r3, #32]
 1326 05ba 019B     		ldr	r3, [sp, #4]
 1327 05bc DA60     		str	r2, [r3, #12]
 1328              		.loc 10 487 0
 1329 05be 019B     		ldr	r3, [sp, #4]
 1330 05c0 5A6A     		ldr	r2, [r3, #36]
 1331 05c2 019B     		ldr	r3, [sp, #4]
 1332 05c4 5A61     		str	r2, [r3, #20]
 1333              		.loc 10 488 0
 1334 05c6 019B     		ldr	r3, [sp, #4]
 1335 05c8 5A6A     		ldr	r2, [r3, #36]
 1336 05ca 019B     		ldr	r3, [sp, #4]
 1337 05cc 1A61     		str	r2, [r3, #16]
 1338              		.loc 10 489 0
 1339 05ce 019B     		ldr	r3, [sp, #4]
 1340 05d0 0022     		movs	r2, #0
 1341 05d2 9A62     		str	r2, [r3, #40]
 1342              		.loc 10 490 0
 1343 05d4 019B     		ldr	r3, [sp, #4]
 1344 05d6 0022     		movs	r2, #0
 1345 05d8 DA62     		str	r2, [r3, #44]
 1346              		.loc 10 491 0
 1347 05da 019B     		ldr	r3, [sp, #4]
 1348 05dc 1846     		mov	r0, r3
 1349 05de 6FF00101 		mvn	r1, #1
 1350 05e2 FFF7ADFD 		bl	osalThreadDequeueAllI
 1351              		.loc 10 492 0
ARM GAS  /tmp/cc9hywgG.s 			page 25


 1352 05e6 03B0     		add	sp, sp, #12
 1353              		.cfi_def_cfa_offset 4
 1354              		@ sp needed
 1355 05e8 5DF804FB 		ldr	pc, [sp], #4
 1356              		.cfi_endproc
 1357              	.LFE290:
 1358              		.size	obqResetI, .-obqResetI
 1359              		.align	2
 1360 05ec AFF30080 		.p2align 4,,15
 1361              		.global	obqGetFullBufferI
 1362              		.thumb
 1363              		.thumb_func
 1364              		.type	obqGetFullBufferI, %function
 1365              	obqGetFullBufferI:
 1366              	.LFB291:
 1367              		.loc 10 506 0
 1368              		.cfi_startproc
 1369              		@ args = 0, pretend = 0, frame = 8
 1370              		@ frame_needed = 0, uses_anonymous_args = 0
 1371              		@ link register save eliminated.
 1372 05f0 82B0     		sub	sp, sp, #8
 1373              		.cfi_def_cfa_offset 8
 1374 05f2 0190     		str	r0, [sp, #4]
 1375 05f4 0091     		str	r1, [sp]
 1376              		.loc 10 510 0
 1377 05f6 019B     		ldr	r3, [sp, #4]
 1378 05f8 1A69     		ldr	r2, [r3, #16]
 1379 05fa 019B     		ldr	r3, [sp, #4]
 1380 05fc 5B69     		ldr	r3, [r3, #20]
 1381 05fe 9A42     		cmp	r2, r3
 1382 0600 05D1     		bne	.L62
 1383              		.loc 10 510 0 is_stmt 0 discriminator 1
 1384 0602 019B     		ldr	r3, [sp, #4]
 1385 0604 DB68     		ldr	r3, [r3, #12]
 1386 0606 002B     		cmp	r3, #0
 1387 0608 01D0     		beq	.L62
 1388              		.loc 10 510 0 discriminator 3
 1389 060a 0123     		movs	r3, #1
 1390 060c 00E0     		b	.L63
 1391              	.L62:
 1392              		.loc 10 510 0 discriminator 4
 1393 060e 0023     		movs	r3, #0
 1394              	.L63:
 1395              		.loc 10 510 0 discriminator 6
 1396 0610 03F00103 		and	r3, r3, #1
 1397 0614 DBB2     		uxtb	r3, r3
 1398 0616 002B     		cmp	r3, #0
 1399 0618 01D0     		beq	.L64
 1400              		.loc 10 511 0 is_stmt 1
 1401 061a 0023     		movs	r3, #0
 1402 061c 07E0     		b	.L65
 1403              	.L64:
 1404              		.loc 10 515 0
 1405 061e 019B     		ldr	r3, [sp, #4]
 1406 0620 5B69     		ldr	r3, [r3, #20]
 1407 0622 1A68     		ldr	r2, [r3]
 1408 0624 009B     		ldr	r3, [sp]
ARM GAS  /tmp/cc9hywgG.s 			page 26


 1409 0626 1A60     		str	r2, [r3]
 1410              		.loc 10 517 0
 1411 0628 019B     		ldr	r3, [sp, #4]
 1412 062a 5B69     		ldr	r3, [r3, #20]
 1413 062c 0433     		adds	r3, r3, #4
 1414              	.L65:
 1415              		.loc 10 518 0
 1416 062e 1846     		mov	r0, r3
 1417 0630 02B0     		add	sp, sp, #8
 1418              		.cfi_def_cfa_offset 0
 1419              		@ sp needed
 1420 0632 7047     		bx	lr
 1421              		.cfi_endproc
 1422              	.LFE291:
 1423              		.size	obqGetFullBufferI, .-obqGetFullBufferI
 1424              		.align	2
 1425 0634 AFF30080 		.p2align 4,,15
 1425      AFF30080 
 1425      AFF30080 
 1426              		.global	obqReleaseEmptyBufferI
 1427              		.thumb
 1428              		.thumb_func
 1429              		.type	obqReleaseEmptyBufferI, %function
 1430              	obqReleaseEmptyBufferI:
 1431              	.LFB292:
 1432              		.loc 10 527 0
 1433              		.cfi_startproc
 1434              		@ args = 0, pretend = 0, frame = 8
 1435              		@ frame_needed = 0, uses_anonymous_args = 0
 1436 0640 00B5     		push	{lr}
 1437              		.cfi_def_cfa_offset 4
 1438              		.cfi_offset 14, -4
 1439 0642 83B0     		sub	sp, sp, #12
 1440              		.cfi_def_cfa_offset 16
 1441 0644 0190     		str	r0, [sp, #4]
 1442              		.loc 10 533 0
 1443 0646 019B     		ldr	r3, [sp, #4]
 1444 0648 DB68     		ldr	r3, [r3, #12]
 1445 064a 5A1C     		adds	r2, r3, #1
 1446 064c 019B     		ldr	r3, [sp, #4]
 1447 064e DA60     		str	r2, [r3, #12]
 1448              		.loc 10 534 0
 1449 0650 019B     		ldr	r3, [sp, #4]
 1450 0652 5A69     		ldr	r2, [r3, #20]
 1451 0654 019B     		ldr	r3, [sp, #4]
 1452 0656 DB69     		ldr	r3, [r3, #28]
 1453 0658 1A44     		add	r2, r2, r3
 1454 065a 019B     		ldr	r3, [sp, #4]
 1455 065c 5A61     		str	r2, [r3, #20]
 1456              		.loc 10 535 0
 1457 065e 019B     		ldr	r3, [sp, #4]
 1458 0660 5A69     		ldr	r2, [r3, #20]
 1459 0662 019B     		ldr	r3, [sp, #4]
 1460 0664 9B69     		ldr	r3, [r3, #24]
 1461 0666 9A42     		cmp	r2, r3
 1462 0668 03D3     		bcc	.L67
 1463              		.loc 10 536 0
ARM GAS  /tmp/cc9hywgG.s 			page 27


 1464 066a 019B     		ldr	r3, [sp, #4]
 1465 066c 5A6A     		ldr	r2, [r3, #36]
 1466 066e 019B     		ldr	r3, [sp, #4]
 1467 0670 5A61     		str	r2, [r3, #20]
 1468              	.L67:
 1469              		.loc 10 540 0
 1470 0672 019B     		ldr	r3, [sp, #4]
 1471 0674 1846     		mov	r0, r3
 1472 0676 0021     		movs	r1, #0
 1473 0678 FFF752FD 		bl	osalThreadDequeueNextI
 1474              		.loc 10 541 0
 1475 067c 03B0     		add	sp, sp, #12
 1476              		.cfi_def_cfa_offset 4
 1477              		@ sp needed
 1478 067e 5DF804FB 		ldr	pc, [sp], #4
 1479              		.cfi_endproc
 1480              	.LFE292:
 1481              		.size	obqReleaseEmptyBufferI, .-obqReleaseEmptyBufferI
 1482 0682 00BF     		.align	2
 1483 0684 AFF30080 		.p2align 4,,15
 1483      AFF30080 
 1483      AFF30080 
 1484              		.global	obqGetEmptyBufferTimeout
 1485              		.thumb
 1486              		.thumb_func
 1487              		.type	obqGetEmptyBufferTimeout, %function
 1488              	obqGetEmptyBufferTimeout:
 1489              	.LFB293:
 1490              		.loc 10 565 0
 1491              		.cfi_startproc
 1492              		@ args = 0, pretend = 0, frame = 16
 1493              		@ frame_needed = 0, uses_anonymous_args = 0
 1494 0690 00B5     		push	{lr}
 1495              		.cfi_def_cfa_offset 4
 1496              		.cfi_offset 14, -4
 1497 0692 85B0     		sub	sp, sp, #20
 1498              		.cfi_def_cfa_offset 24
 1499 0694 0190     		str	r0, [sp, #4]
 1500 0696 0091     		str	r1, [sp]
 1501              		.loc 10 568 0
 1502 0698 FFF70AFD 		bl	osalSysLock
 1503              		.loc 10 569 0
 1504 069c 0198     		ldr	r0, [sp, #4]
 1505 069e 0099     		ldr	r1, [sp]
 1506 06a0 FFF7FEFF 		bl	obqGetEmptyBufferTimeoutS
 1507 06a4 0390     		str	r0, [sp, #12]
 1508              		.loc 10 570 0
 1509 06a6 FFF70BFD 		bl	osalSysUnlock
 1510              		.loc 10 572 0
 1511 06aa 039B     		ldr	r3, [sp, #12]
 1512              		.loc 10 573 0
 1513 06ac 1846     		mov	r0, r3
 1514 06ae 05B0     		add	sp, sp, #20
 1515              		.cfi_def_cfa_offset 4
 1516              		@ sp needed
 1517 06b0 5DF804FB 		ldr	pc, [sp], #4
 1518              		.cfi_endproc
ARM GAS  /tmp/cc9hywgG.s 			page 28


 1519              	.LFE293:
 1520              		.size	obqGetEmptyBufferTimeout, .-obqGetEmptyBufferTimeout
 1521              		.align	2
 1522 06b4 AFF30080 		.p2align 4,,15
 1522      AFF30080 
 1522      AFF30080 
 1523              		.global	obqGetEmptyBufferTimeoutS
 1524              		.thumb
 1525              		.thumb_func
 1526              		.type	obqGetEmptyBufferTimeoutS, %function
 1527              	obqGetEmptyBufferTimeoutS:
 1528              	.LFB294:
 1529              		.loc 10 597 0
 1530              		.cfi_startproc
 1531              		@ args = 0, pretend = 0, frame = 16
 1532              		@ frame_needed = 0, uses_anonymous_args = 0
 1533 06c0 00B5     		push	{lr}
 1534              		.cfi_def_cfa_offset 4
 1535              		.cfi_offset 14, -4
 1536 06c2 85B0     		sub	sp, sp, #20
 1537              		.cfi_def_cfa_offset 24
 1538 06c4 0190     		str	r0, [sp, #4]
 1539 06c6 0091     		str	r1, [sp]
 1540              		.loc 10 601 0
 1541 06c8 11E0     		b	.L71
 1542              	.L74:
 1543              	.LBB14:
 1544              		.loc 10 602 0
 1545 06ca 019B     		ldr	r3, [sp, #4]
 1546 06cc 1B7A     		ldrb	r3, [r3, #8]	@ zero_extendqisi2
 1547 06ce 002B     		cmp	r3, #0
 1548 06d0 02D0     		beq	.L72
 1549              		.loc 10 603 0
 1550 06d2 6FF00103 		mvn	r3, #1
 1551 06d6 1BE0     		b	.L73
 1552              	.L72:
 1553              		.loc 10 605 0
 1554 06d8 019B     		ldr	r3, [sp, #4]
 1555 06da 1846     		mov	r0, r3
 1556 06dc 0099     		ldr	r1, [sp]
 1557 06de FFF70FFD 		bl	osalThreadEnqueueTimeoutS
 1558 06e2 0390     		str	r0, [sp, #12]
 1559              		.loc 10 606 0
 1560 06e4 039B     		ldr	r3, [sp, #12]
 1561 06e6 002B     		cmp	r3, #0
 1562 06e8 01DA     		bge	.L71
 1563              		.loc 10 607 0
 1564 06ea 039B     		ldr	r3, [sp, #12]
 1565 06ec 10E0     		b	.L73
 1566              	.L71:
 1567              	.LBE14:
 1568              		.loc 10 601 0
 1569 06ee 019B     		ldr	r3, [sp, #4]
 1570 06f0 DB68     		ldr	r3, [r3, #12]
 1571 06f2 002B     		cmp	r3, #0
 1572 06f4 E9D0     		beq	.L74
 1573              		.loc 10 614 0
ARM GAS  /tmp/cc9hywgG.s 			page 29


 1574 06f6 019B     		ldr	r3, [sp, #4]
 1575 06f8 1B69     		ldr	r3, [r3, #16]
 1576 06fa 1A1D     		adds	r2, r3, #4
 1577 06fc 019B     		ldr	r3, [sp, #4]
 1578 06fe 9A62     		str	r2, [r3, #40]
 1579              		.loc 10 615 0
 1580 0700 019B     		ldr	r3, [sp, #4]
 1581 0702 1A69     		ldr	r2, [r3, #16]
 1582 0704 019B     		ldr	r3, [sp, #4]
 1583 0706 DB69     		ldr	r3, [r3, #28]
 1584 0708 1A44     		add	r2, r2, r3
 1585 070a 019B     		ldr	r3, [sp, #4]
 1586 070c DA62     		str	r2, [r3, #44]
 1587              		.loc 10 617 0
 1588 070e 0023     		movs	r3, #0
 1589              	.L73:
 1590              		.loc 10 618 0
 1591 0710 1846     		mov	r0, r3
 1592 0712 05B0     		add	sp, sp, #20
 1593              		.cfi_def_cfa_offset 4
 1594              		@ sp needed
 1595 0714 5DF804FB 		ldr	pc, [sp], #4
 1596              		.cfi_endproc
 1597              	.LFE294:
 1598              		.size	obqGetEmptyBufferTimeoutS, .-obqGetEmptyBufferTimeoutS
 1599              		.align	2
 1600 0718 AFF30080 		.p2align 4,,15
 1600      AFF30080 
 1601              		.global	obqPostFullBuffer
 1602              		.thumb
 1603              		.thumb_func
 1604              		.type	obqPostFullBuffer, %function
 1605              	obqPostFullBuffer:
 1606              	.LFB295:
 1607              		.loc 10 629 0
 1608              		.cfi_startproc
 1609              		@ args = 0, pretend = 0, frame = 8
 1610              		@ frame_needed = 0, uses_anonymous_args = 0
 1611 0720 00B5     		push	{lr}
 1612              		.cfi_def_cfa_offset 4
 1613              		.cfi_offset 14, -4
 1614 0722 83B0     		sub	sp, sp, #12
 1615              		.cfi_def_cfa_offset 16
 1616 0724 0190     		str	r0, [sp, #4]
 1617 0726 0091     		str	r1, [sp]
 1618              		.loc 10 631 0
 1619 0728 FFF7C2FC 		bl	osalSysLock
 1620              		.loc 10 632 0
 1621 072c 0198     		ldr	r0, [sp, #4]
 1622 072e 0099     		ldr	r1, [sp]
 1623 0730 FFF7FEFF 		bl	obqPostFullBufferS
 1624              		.loc 10 633 0
 1625 0734 FFF7C4FC 		bl	osalSysUnlock
 1626              		.loc 10 634 0
 1627 0738 03B0     		add	sp, sp, #12
 1628              		.cfi_def_cfa_offset 4
 1629              		@ sp needed
ARM GAS  /tmp/cc9hywgG.s 			page 30


 1630 073a 5DF804FB 		ldr	pc, [sp], #4
 1631              		.cfi_endproc
 1632              	.LFE295:
 1633              		.size	obqPostFullBuffer, .-obqPostFullBuffer
 1634 073e 00BF     		.align	2
 1635              		.p2align 4,,15
 1636              		.global	obqPostFullBufferS
 1637              		.thumb
 1638              		.thumb_func
 1639              		.type	obqPostFullBufferS, %function
 1640              	obqPostFullBufferS:
 1641              	.LFB296:
 1642              		.loc 10 645 0
 1643              		.cfi_startproc
 1644              		@ args = 0, pretend = 0, frame = 8
 1645              		@ frame_needed = 0, uses_anonymous_args = 0
 1646 0740 00B5     		push	{lr}
 1647              		.cfi_def_cfa_offset 4
 1648              		.cfi_offset 14, -4
 1649 0742 83B0     		sub	sp, sp, #12
 1650              		.cfi_def_cfa_offset 16
 1651 0744 0190     		str	r0, [sp, #4]
 1652 0746 0091     		str	r1, [sp]
 1653              		.loc 10 652 0
 1654 0748 019B     		ldr	r3, [sp, #4]
 1655 074a 1B69     		ldr	r3, [r3, #16]
 1656 074c 009A     		ldr	r2, [sp]
 1657 074e 1A60     		str	r2, [r3]
 1658              		.loc 10 655 0
 1659 0750 019B     		ldr	r3, [sp, #4]
 1660 0752 DB68     		ldr	r3, [r3, #12]
 1661 0754 5A1E     		subs	r2, r3, #1
 1662 0756 019B     		ldr	r3, [sp, #4]
 1663 0758 DA60     		str	r2, [r3, #12]
 1664              		.loc 10 656 0
 1665 075a 019B     		ldr	r3, [sp, #4]
 1666 075c 1A69     		ldr	r2, [r3, #16]
 1667 075e 019B     		ldr	r3, [sp, #4]
 1668 0760 DB69     		ldr	r3, [r3, #28]
 1669 0762 1A44     		add	r2, r2, r3
 1670 0764 019B     		ldr	r3, [sp, #4]
 1671 0766 1A61     		str	r2, [r3, #16]
 1672              		.loc 10 657 0
 1673 0768 019B     		ldr	r3, [sp, #4]
 1674 076a 1A69     		ldr	r2, [r3, #16]
 1675 076c 019B     		ldr	r3, [sp, #4]
 1676 076e 9B69     		ldr	r3, [r3, #24]
 1677 0770 9A42     		cmp	r2, r3
 1678 0772 03D3     		bcc	.L77
 1679              		.loc 10 658 0
 1680 0774 019B     		ldr	r3, [sp, #4]
 1681 0776 5A6A     		ldr	r2, [r3, #36]
 1682 0778 019B     		ldr	r3, [sp, #4]
 1683 077a 1A61     		str	r2, [r3, #16]
 1684              	.L77:
 1685              		.loc 10 662 0
 1686 077c 019B     		ldr	r3, [sp, #4]
ARM GAS  /tmp/cc9hywgG.s 			page 31


 1687 077e 0022     		movs	r2, #0
 1688 0780 9A62     		str	r2, [r3, #40]
 1689              		.loc 10 665 0
 1690 0782 019B     		ldr	r3, [sp, #4]
 1691 0784 1B6B     		ldr	r3, [r3, #48]
 1692 0786 002B     		cmp	r3, #0
 1693 0788 03D0     		beq	.L76
 1694              		.loc 10 666 0
 1695 078a 019B     		ldr	r3, [sp, #4]
 1696 078c 1B6B     		ldr	r3, [r3, #48]
 1697 078e 0198     		ldr	r0, [sp, #4]
 1698 0790 9847     		blx	r3
 1699              	.L76:
 1700              		.loc 10 668 0
 1701 0792 03B0     		add	sp, sp, #12
 1702              		.cfi_def_cfa_offset 4
 1703              		@ sp needed
 1704 0794 5DF804FB 		ldr	pc, [sp], #4
 1705              		.cfi_endproc
 1706              	.LFE296:
 1707              		.size	obqPostFullBufferS, .-obqPostFullBufferS
 1708              		.align	2
 1709 0798 AFF30080 		.p2align 4,,15
 1709      AFF30080 
 1710              		.global	obqPutTimeout
 1711              		.thumb
 1712              		.thumb_func
 1713              		.type	obqPutTimeout, %function
 1714              	obqPutTimeout:
 1715              	.LFB297:
 1716              		.loc 10 691 0
 1717              		.cfi_startproc
 1718              		@ args = 0, pretend = 0, frame = 24
 1719              		@ frame_needed = 0, uses_anonymous_args = 0
 1720 07a0 00B5     		push	{lr}
 1721              		.cfi_def_cfa_offset 4
 1722              		.cfi_offset 14, -4
 1723 07a2 87B0     		sub	sp, sp, #28
 1724              		.cfi_def_cfa_offset 32
 1725 07a4 0390     		str	r0, [sp, #12]
 1726 07a6 0B46     		mov	r3, r1
 1727 07a8 0192     		str	r2, [sp, #4]
 1728 07aa 8DF80B30 		strb	r3, [sp, #11]
 1729              		.loc 10 694 0
 1730 07ae FFF77FFC 		bl	osalSysLock
 1731              		.loc 10 697 0
 1732 07b2 039B     		ldr	r3, [sp, #12]
 1733 07b4 9B6A     		ldr	r3, [r3, #40]
 1734 07b6 002B     		cmp	r3, #0
 1735 07b8 0BD1     		bne	.L80
 1736              		.loc 10 698 0
 1737 07ba 0398     		ldr	r0, [sp, #12]
 1738 07bc 0199     		ldr	r1, [sp, #4]
 1739 07be FFF7FEFF 		bl	obqGetEmptyBufferTimeoutS
 1740 07c2 0590     		str	r0, [sp, #20]
 1741              		.loc 10 699 0
 1742 07c4 059B     		ldr	r3, [sp, #20]
ARM GAS  /tmp/cc9hywgG.s 			page 32


 1743 07c6 002B     		cmp	r3, #0
 1744 07c8 03D0     		beq	.L80
 1745              		.loc 10 700 0
 1746 07ca FFF779FC 		bl	osalSysUnlock
 1747              		.loc 10 701 0
 1748 07ce 059B     		ldr	r3, [sp, #20]
 1749 07d0 19E0     		b	.L81
 1750              	.L80:
 1751              		.loc 10 706 0
 1752 07d2 039B     		ldr	r3, [sp, #12]
 1753 07d4 9B6A     		ldr	r3, [r3, #40]
 1754 07d6 9DF80B20 		ldrb	r2, [sp, #11]
 1755 07da 1A70     		strb	r2, [r3]
 1756              		.loc 10 707 0
 1757 07dc 039B     		ldr	r3, [sp, #12]
 1758 07de 9B6A     		ldr	r3, [r3, #40]
 1759 07e0 5A1C     		adds	r2, r3, #1
 1760 07e2 039B     		ldr	r3, [sp, #12]
 1761 07e4 9A62     		str	r2, [r3, #40]
 1762              		.loc 10 711 0
 1763 07e6 039B     		ldr	r3, [sp, #12]
 1764 07e8 9A6A     		ldr	r2, [r3, #40]
 1765 07ea 039B     		ldr	r3, [sp, #12]
 1766 07ec DB6A     		ldr	r3, [r3, #44]
 1767 07ee 9A42     		cmp	r2, r3
 1768 07f0 06D3     		bcc	.L82
 1769              		.loc 10 712 0
 1770 07f2 039B     		ldr	r3, [sp, #12]
 1771 07f4 DB69     		ldr	r3, [r3, #28]
 1772 07f6 043B     		subs	r3, r3, #4
 1773 07f8 0398     		ldr	r0, [sp, #12]
 1774 07fa 1946     		mov	r1, r3
 1775 07fc FFF7FEFF 		bl	obqPostFullBufferS
 1776              	.L82:
 1777              		.loc 10 715 0
 1778 0800 FFF75EFC 		bl	osalSysUnlock
 1779              		.loc 10 716 0
 1780 0804 0023     		movs	r3, #0
 1781              	.L81:
 1782              		.loc 10 717 0
 1783 0806 1846     		mov	r0, r3
 1784 0808 07B0     		add	sp, sp, #28
 1785              		.cfi_def_cfa_offset 4
 1786              		@ sp needed
 1787 080a 5DF804FB 		ldr	pc, [sp], #4
 1788              		.cfi_endproc
 1789              	.LFE297:
 1790              		.size	obqPutTimeout, .-obqPutTimeout
 1791 080e 00BF     		.align	2
 1792              		.p2align 4,,15
 1793              		.global	obqWriteTimeout
 1794              		.thumb
 1795              		.thumb_func
 1796              		.type	obqWriteTimeout, %function
 1797              	obqWriteTimeout:
 1798              	.LFB298:
 1799              		.loc 10 741 0
ARM GAS  /tmp/cc9hywgG.s 			page 33


 1800              		.cfi_startproc
 1801              		@ args = 0, pretend = 0, frame = 40
 1802              		@ frame_needed = 0, uses_anonymous_args = 0
 1803 0810 00B5     		push	{lr}
 1804              		.cfi_def_cfa_offset 4
 1805              		.cfi_offset 14, -4
 1806 0812 8BB0     		sub	sp, sp, #44
 1807              		.cfi_def_cfa_offset 48
 1808 0814 0390     		str	r0, [sp, #12]
 1809 0816 0291     		str	r1, [sp, #8]
 1810 0818 0192     		str	r2, [sp, #4]
 1811 081a 0093     		str	r3, [sp]
 1812              		.loc 10 742 0
 1813 081c 0023     		movs	r3, #0
 1814 081e 0993     		str	r3, [sp, #36]
 1815              		.loc 10 747 0
 1816 0820 FFF746FC 		bl	osalSysLock
 1817              		.loc 10 750 0
 1818 0824 FFF754FC 		bl	osalOsGetSystemTimeX
 1819 0828 0246     		mov	r2, r0
 1820 082a 009B     		ldr	r3, [sp]
 1821 082c 1344     		add	r3, r3, r2
 1822 082e 0693     		str	r3, [sp, #24]
 1823              	.L95:
 1824              	.LBB15:
 1825              		.loc 10 756 0
 1826 0830 039B     		ldr	r3, [sp, #12]
 1827 0832 9B6A     		ldr	r3, [r3, #40]
 1828 0834 002B     		cmp	r3, #0
 1829 0836 26D1     		bne	.L84
 1830              	.LBB16:
 1831              		.loc 10 761 0
 1832 0838 009B     		ldr	r3, [sp]
 1833 083a B3F1FF3F 		cmp	r3, #-1
 1834 083e 02D0     		beq	.L85
 1835              		.loc 10 761 0 is_stmt 0 discriminator 1
 1836 0840 009B     		ldr	r3, [sp]
 1837 0842 002B     		cmp	r3, #0
 1838 0844 05D1     		bne	.L86
 1839              	.L85:
 1840              		.loc 10 762 0 is_stmt 1
 1841 0846 0398     		ldr	r0, [sp, #12]
 1842 0848 0099     		ldr	r1, [sp]
 1843 084a FFF7FEFF 		bl	obqGetEmptyBufferTimeoutS
 1844 084e 0790     		str	r0, [sp, #28]
 1845 0850 12E0     		b	.L87
 1846              	.L86:
 1847              	.LBB17:
 1848              		.loc 10 765 0
 1849 0852 FFF73DFC 		bl	osalOsGetSystemTimeX
 1850 0856 0246     		mov	r2, r0
 1851 0858 069B     		ldr	r3, [sp, #24]
 1852 085a 9B1A     		subs	r3, r3, r2
 1853 085c 0593     		str	r3, [sp, #20]
 1854              		.loc 10 770 0
 1855 085e 059A     		ldr	r2, [sp, #20]
 1856 0860 009B     		ldr	r3, [sp]
ARM GAS  /tmp/cc9hywgG.s 			page 34


 1857 0862 9A42     		cmp	r2, r3
 1858 0864 03D9     		bls	.L88
 1859              		.loc 10 771 0
 1860 0866 FFF72BFC 		bl	osalSysUnlock
 1861              		.loc 10 772 0
 1862 086a 099B     		ldr	r3, [sp, #36]
 1863 086c 60E0     		b	.L89
 1864              	.L88:
 1865              		.loc 10 774 0
 1866 086e 0398     		ldr	r0, [sp, #12]
 1867 0870 0599     		ldr	r1, [sp, #20]
 1868 0872 FFF7FEFF 		bl	obqGetEmptyBufferTimeoutS
 1869 0876 0790     		str	r0, [sp, #28]
 1870              	.L87:
 1871              	.LBE17:
 1872              		.loc 10 778 0
 1873 0878 079B     		ldr	r3, [sp, #28]
 1874 087a 002B     		cmp	r3, #0
 1875 087c 03D0     		beq	.L84
 1876              		.loc 10 779 0
 1877 087e FFF71FFC 		bl	osalSysUnlock
 1878              		.loc 10 780 0
 1879 0882 099B     		ldr	r3, [sp, #36]
 1880 0884 54E0     		b	.L89
 1881              	.L84:
 1882              	.LBE16:
 1883              		.loc 10 785 0
 1884 0886 039B     		ldr	r3, [sp, #12]
 1885 0888 DB6A     		ldr	r3, [r3, #44]
 1886 088a 1A46     		mov	r2, r3
 1887 088c 039B     		ldr	r3, [sp, #12]
 1888 088e 9B6A     		ldr	r3, [r3, #40]
 1889 0890 D31A     		subs	r3, r2, r3
 1890 0892 0893     		str	r3, [sp, #32]
 1891              		.loc 10 786 0
 1892 0894 019A     		ldr	r2, [sp, #4]
 1893 0896 099B     		ldr	r3, [sp, #36]
 1894 0898 D21A     		subs	r2, r2, r3
 1895 089a 089B     		ldr	r3, [sp, #32]
 1896 089c 9A42     		cmp	r2, r3
 1897 089e 03D2     		bcs	.L90
 1898              		.loc 10 787 0
 1899 08a0 019A     		ldr	r2, [sp, #4]
 1900 08a2 099B     		ldr	r3, [sp, #36]
 1901 08a4 D31A     		subs	r3, r2, r3
 1902 08a6 0893     		str	r3, [sp, #32]
 1903              	.L90:
 1904              		.loc 10 792 0
 1905 08a8 089B     		ldr	r3, [sp, #32]
 1906 08aa 402B     		cmp	r3, #64
 1907 08ac 13D9     		bls	.L91
 1908              		.loc 10 794 0
 1909 08ae 039B     		ldr	r3, [sp, #12]
 1910 08b0 9B6A     		ldr	r3, [r3, #40]
 1911 08b2 1846     		mov	r0, r3
 1912 08b4 0299     		ldr	r1, [sp, #8]
 1913 08b6 4022     		movs	r2, #64
ARM GAS  /tmp/cc9hywgG.s 			page 35


 1914 08b8 FFF7FEFF 		bl	memcpy
 1915              		.loc 10 795 0
 1916 08bc 029B     		ldr	r3, [sp, #8]
 1917 08be 4033     		adds	r3, r3, #64
 1918 08c0 0293     		str	r3, [sp, #8]
 1919              		.loc 10 796 0
 1920 08c2 039B     		ldr	r3, [sp, #12]
 1921 08c4 9B6A     		ldr	r3, [r3, #40]
 1922 08c6 03F14002 		add	r2, r3, #64
 1923 08ca 039B     		ldr	r3, [sp, #12]
 1924 08cc 9A62     		str	r2, [r3, #40]
 1925              		.loc 10 797 0
 1926 08ce 099B     		ldr	r3, [sp, #36]
 1927 08d0 4033     		adds	r3, r3, #64
 1928 08d2 0993     		str	r3, [sp, #36]
 1929 08d4 14E0     		b	.L92
 1930              	.L91:
 1931              		.loc 10 800 0
 1932 08d6 039B     		ldr	r3, [sp, #12]
 1933 08d8 9B6A     		ldr	r3, [r3, #40]
 1934 08da 1846     		mov	r0, r3
 1935 08dc 0299     		ldr	r1, [sp, #8]
 1936 08de 089A     		ldr	r2, [sp, #32]
 1937 08e0 FFF7FEFF 		bl	memcpy
 1938              		.loc 10 801 0
 1939 08e4 029A     		ldr	r2, [sp, #8]
 1940 08e6 089B     		ldr	r3, [sp, #32]
 1941 08e8 1344     		add	r3, r3, r2
 1942 08ea 0293     		str	r3, [sp, #8]
 1943              		.loc 10 802 0
 1944 08ec 039B     		ldr	r3, [sp, #12]
 1945 08ee 9A6A     		ldr	r2, [r3, #40]
 1946 08f0 089B     		ldr	r3, [sp, #32]
 1947 08f2 1A44     		add	r2, r2, r3
 1948 08f4 039B     		ldr	r3, [sp, #12]
 1949 08f6 9A62     		str	r2, [r3, #40]
 1950              		.loc 10 803 0
 1951 08f8 099A     		ldr	r2, [sp, #36]
 1952 08fa 089B     		ldr	r3, [sp, #32]
 1953 08fc 1344     		add	r3, r3, r2
 1954 08fe 0993     		str	r3, [sp, #36]
 1955              	.L92:
 1956              		.loc 10 807 0
 1957 0900 039B     		ldr	r3, [sp, #12]
 1958 0902 9A6A     		ldr	r2, [r3, #40]
 1959 0904 039B     		ldr	r3, [sp, #12]
 1960 0906 DB6A     		ldr	r3, [r3, #44]
 1961 0908 9A42     		cmp	r2, r3
 1962 090a 06D3     		bcc	.L93
 1963              		.loc 10 808 0
 1964 090c 039B     		ldr	r3, [sp, #12]
 1965 090e DB69     		ldr	r3, [r3, #28]
 1966 0910 043B     		subs	r3, r3, #4
 1967 0912 0398     		ldr	r0, [sp, #12]
 1968 0914 1946     		mov	r1, r3
 1969 0916 FFF7FEFF 		bl	obqPostFullBufferS
 1970              	.L93:
ARM GAS  /tmp/cc9hywgG.s 			page 36


 1971              		.loc 10 812 0
 1972 091a FFF7D1FB 		bl	osalSysUnlock
 1973              		.loc 10 813 0
 1974 091e 099A     		ldr	r2, [sp, #36]
 1975 0920 019B     		ldr	r3, [sp, #4]
 1976 0922 9A42     		cmp	r2, r3
 1977 0924 01D3     		bcc	.L94
 1978              		.loc 10 814 0
 1979 0926 099B     		ldr	r3, [sp, #36]
 1980 0928 02E0     		b	.L89
 1981              	.L94:
 1982              		.loc 10 816 0
 1983 092a FFF7C1FB 		bl	osalSysLock
 1984              	.LBE15:
 1985              		.loc 10 817 0
 1986 092e 7FE7     		b	.L95
 1987              	.L89:
 1988              		.loc 10 818 0
 1989 0930 1846     		mov	r0, r3
 1990 0932 0BB0     		add	sp, sp, #44
 1991              		.cfi_def_cfa_offset 4
 1992              		@ sp needed
 1993 0934 5DF804FB 		ldr	pc, [sp], #4
 1994              		.cfi_endproc
 1995              	.LFE298:
 1996              		.size	obqWriteTimeout, .-obqWriteTimeout
 1997              		.align	2
 1998 0938 AFF30080 		.p2align 4,,15
 1998      AFF30080 
 1999              		.global	obqTryFlushI
 2000              		.thumb
 2001              		.thumb_func
 2002              		.type	obqTryFlushI, %function
 2003              	obqTryFlushI:
 2004              	.LFB299:
 2005              		.loc 10 833 0
 2006              		.cfi_startproc
 2007              		@ args = 0, pretend = 0, frame = 16
 2008              		@ frame_needed = 0, uses_anonymous_args = 0
 2009              		@ link register save eliminated.
 2010 0940 84B0     		sub	sp, sp, #16
 2011              		.cfi_def_cfa_offset 16
 2012 0942 0190     		str	r0, [sp, #4]
 2013              		.loc 10 839 0
 2014 0944 019B     		ldr	r3, [sp, #4]
 2015 0946 1A69     		ldr	r2, [r3, #16]
 2016 0948 019B     		ldr	r3, [sp, #4]
 2017 094a 5B69     		ldr	r3, [r3, #20]
 2018 094c 9A42     		cmp	r2, r3
 2019 094e 05D1     		bne	.L97
 2020              		.loc 10 839 0 is_stmt 0 discriminator 1
 2021 0950 019B     		ldr	r3, [sp, #4]
 2022 0952 DB68     		ldr	r3, [r3, #12]
 2023 0954 002B     		cmp	r3, #0
 2024 0956 01D0     		beq	.L97
 2025              		.loc 10 839 0 discriminator 3
 2026 0958 0123     		movs	r3, #1
ARM GAS  /tmp/cc9hywgG.s 			page 37


 2027 095a 00E0     		b	.L98
 2028              	.L97:
 2029              		.loc 10 839 0 discriminator 4
 2030 095c 0023     		movs	r3, #0
 2031              	.L98:
 2032              		.loc 10 839 0 discriminator 6
 2033 095e 03F00103 		and	r3, r3, #1
 2034 0962 DBB2     		uxtb	r3, r3
 2035 0964 002B     		cmp	r3, #0
 2036 0966 2DD0     		beq	.L99
 2037              		.loc 10 839 0 discriminator 7
 2038 0968 019B     		ldr	r3, [sp, #4]
 2039 096a 9B6A     		ldr	r3, [r3, #40]
 2040 096c 002B     		cmp	r3, #0
 2041 096e 29D0     		beq	.L99
 2042              	.LBB18:
 2043              		.loc 10 840 0 is_stmt 1
 2044 0970 019B     		ldr	r3, [sp, #4]
 2045 0972 9B6A     		ldr	r3, [r3, #40]
 2046 0974 1A46     		mov	r2, r3
 2047 0976 019B     		ldr	r3, [sp, #4]
 2048 0978 1B69     		ldr	r3, [r3, #16]
 2049 097a D31A     		subs	r3, r2, r3
 2050 097c 043B     		subs	r3, r3, #4
 2051 097e 0393     		str	r3, [sp, #12]
 2052              		.loc 10 842 0
 2053 0980 039B     		ldr	r3, [sp, #12]
 2054 0982 002B     		cmp	r3, #0
 2055 0984 1ED0     		beq	.L99
 2056              		.loc 10 845 0
 2057 0986 019B     		ldr	r3, [sp, #4]
 2058 0988 1B69     		ldr	r3, [r3, #16]
 2059 098a 039A     		ldr	r2, [sp, #12]
 2060 098c 1A60     		str	r2, [r3]
 2061              		.loc 10 848 0
 2062 098e 019B     		ldr	r3, [sp, #4]
 2063 0990 DB68     		ldr	r3, [r3, #12]
 2064 0992 5A1E     		subs	r2, r3, #1
 2065 0994 019B     		ldr	r3, [sp, #4]
 2066 0996 DA60     		str	r2, [r3, #12]
 2067              		.loc 10 849 0
 2068 0998 019B     		ldr	r3, [sp, #4]
 2069 099a 1A69     		ldr	r2, [r3, #16]
 2070 099c 019B     		ldr	r3, [sp, #4]
 2071 099e DB69     		ldr	r3, [r3, #28]
 2072 09a0 1A44     		add	r2, r2, r3
 2073 09a2 019B     		ldr	r3, [sp, #4]
 2074 09a4 1A61     		str	r2, [r3, #16]
 2075              		.loc 10 850 0
 2076 09a6 019B     		ldr	r3, [sp, #4]
 2077 09a8 1A69     		ldr	r2, [r3, #16]
 2078 09aa 019B     		ldr	r3, [sp, #4]
 2079 09ac 9B69     		ldr	r3, [r3, #24]
 2080 09ae 9A42     		cmp	r2, r3
 2081 09b0 03D3     		bcc	.L100
 2082              		.loc 10 851 0
 2083 09b2 019B     		ldr	r3, [sp, #4]
ARM GAS  /tmp/cc9hywgG.s 			page 38


 2084 09b4 5A6A     		ldr	r2, [r3, #36]
 2085 09b6 019B     		ldr	r3, [sp, #4]
 2086 09b8 1A61     		str	r2, [r3, #16]
 2087              	.L100:
 2088              		.loc 10 855 0
 2089 09ba 019B     		ldr	r3, [sp, #4]
 2090 09bc 0022     		movs	r2, #0
 2091 09be 9A62     		str	r2, [r3, #40]
 2092              		.loc 10 857 0
 2093 09c0 0123     		movs	r3, #1
 2094 09c2 00E0     		b	.L101
 2095              	.L99:
 2096              	.LBE18:
 2097              		.loc 10 860 0
 2098 09c4 0023     		movs	r3, #0
 2099              	.L101:
 2100              		.loc 10 861 0
 2101 09c6 1846     		mov	r0, r3
 2102 09c8 04B0     		add	sp, sp, #16
 2103              		.cfi_def_cfa_offset 0
 2104              		@ sp needed
 2105 09ca 7047     		bx	lr
 2106              		.cfi_endproc
 2107              	.LFE299:
 2108              		.size	obqTryFlushI, .-obqTryFlushI
 2109              		.align	2
 2110 09cc AFF30080 		.p2align 4,,15
 2111              		.global	obqFlush
 2112              		.thumb
 2113              		.thumb_func
 2114              		.type	obqFlush, %function
 2115              	obqFlush:
 2116              	.LFB300:
 2117              		.loc 10 870 0
 2118              		.cfi_startproc
 2119              		@ args = 0, pretend = 0, frame = 16
 2120              		@ frame_needed = 0, uses_anonymous_args = 0
 2121 09d0 00B5     		push	{lr}
 2122              		.cfi_def_cfa_offset 4
 2123              		.cfi_offset 14, -4
 2124 09d2 85B0     		sub	sp, sp, #20
 2125              		.cfi_def_cfa_offset 24
 2126 09d4 0190     		str	r0, [sp, #4]
 2127              		.loc 10 872 0
 2128 09d6 FFF76BFB 		bl	osalSysLock
 2129              		.loc 10 875 0
 2130 09da 019B     		ldr	r3, [sp, #4]
 2131 09dc 9B6A     		ldr	r3, [r3, #40]
 2132 09de 002B     		cmp	r3, #0
 2133 09e0 0ED0     		beq	.L103
 2134              	.LBB19:
 2135              		.loc 10 876 0
 2136 09e2 019B     		ldr	r3, [sp, #4]
 2137 09e4 9B6A     		ldr	r3, [r3, #40]
 2138 09e6 1A46     		mov	r2, r3
 2139 09e8 019B     		ldr	r3, [sp, #4]
 2140 09ea 1B69     		ldr	r3, [r3, #16]
ARM GAS  /tmp/cc9hywgG.s 			page 39


 2141 09ec D31A     		subs	r3, r2, r3
 2142 09ee 043B     		subs	r3, r3, #4
 2143 09f0 0393     		str	r3, [sp, #12]
 2144              		.loc 10 878 0
 2145 09f2 039B     		ldr	r3, [sp, #12]
 2146 09f4 002B     		cmp	r3, #0
 2147 09f6 03D0     		beq	.L103
 2148              		.loc 10 879 0
 2149 09f8 0198     		ldr	r0, [sp, #4]
 2150 09fa 0399     		ldr	r1, [sp, #12]
 2151 09fc FFF7FEFF 		bl	obqPostFullBufferS
 2152              	.L103:
 2153              	.LBE19:
 2154              		.loc 10 883 0
 2155 0a00 FFF75EFB 		bl	osalSysUnlock
 2156              		.loc 10 884 0
 2157 0a04 05B0     		add	sp, sp, #20
 2158              		.cfi_def_cfa_offset 4
 2159              		@ sp needed
 2160 0a06 5DF804FB 		ldr	pc, [sp], #4
 2161              		.cfi_endproc
 2162              	.LFE300:
 2163              		.size	obqFlush, .-obqFlush
 2164              	.Letext0:
 2165              		.file 11 "/usr/lib/gcc/arm-none-eabi/4.9.3/include/stddef.h"
 2166              		.file 12 "/usr/include/newlib/machine/_default_types.h"
 2167              		.file 13 "/usr/include/newlib/sys/_stdint.h"
 2168              		.file 14 "../../../os/common/ports/ARMCMx/compilers/GCC/chtypes.h"
 2169              		.file 15 "../../../os/rt/include/chsystypes.h"
 2170              		.file 16 "../../../os/common/ports/ARMCMx/chcore.h"
 2171              		.file 17 "../../../os/hal/ports/STM32/LLD/TIMv1/stm32_tim.h"
 2172              		.file 18 "../../../os/rt/include/chtm.h"
 2173              		.file 19 "../../../os/rt/include/chsem.h"
 2174              		.file 20 "../../../os/rt/include/chmtx.h"
 2175              		.file 21 "../../../os/hal/include/hal_buffers.h"
 2176              		.file 22 "../../../os/common/ext/CMSIS/include/core_cm4.h"