ARM GAS  /tmp/ccqZLEFm.s 			page 1


   1              		.syntax unified
   2              		.cpu cortex-m4
   3              		.fpu softvfp
   4              		.eabi_attribute 20, 1
   5              		.eabi_attribute 21, 1
   6              		.eabi_attribute 23, 3
   7              		.eabi_attribute 24, 1
   8              		.eabi_attribute 25, 1
   9              		.eabi_attribute 26, 1
  10              		.eabi_attribute 30, 6
  11              		.eabi_attribute 34, 1
  12              		.eabi_attribute 18, 4
  13              		.thumb
  14              		.file	"hal_serial.c"
  15              		.text
  16              	.Ltext0:
  17              		.cfi_sections	.debug_frame
  18              		.align	2
  19              		.p2align 4,,15
  20              		.thumb
  21              		.thumb_func
  22              		.type	port_lock, %function
  23              	port_lock:
  24              	.LFB127:
  25              		.file 1 "../../../os/common/ports/ARMCMx/chcore_v7m.h"
  26              		.loc 1 594 0
  27              		.cfi_startproc
  28              		@ args = 0, pretend = 0, frame = 8
  29              		@ frame_needed = 0, uses_anonymous_args = 0
  30              		@ link register save eliminated.
  31 0000 82B0     		sub	sp, sp, #8
  32              		.cfi_def_cfa_offset 8
  33 0002 2023     		movs	r3, #32
  34 0004 0193     		str	r3, [sp, #4]
  35              	.LBB6:
  36              	.LBB7:
  37              		.file 2 "../../../os/common/ext/CMSIS/include/cmsis_gcc.h"
  38              		.loc 2 264 0
  39 0006 019B     		ldr	r3, [sp, #4]
  40              	@ 264 "../../../os/common/ext/CMSIS/include/cmsis_gcc.h" 1
  41 0008 83F31188 		MSR basepri, r3
  42              	@ 0 "" 2
  43              		.thumb
  44              	.LBE7:
  45              	.LBE6:
  46              		.loc 1 611 0
  47 000c 02B0     		add	sp, sp, #8
  48              		.cfi_def_cfa_offset 0
  49              		@ sp needed
  50 000e 7047     		bx	lr
  51              		.cfi_endproc
  52              	.LFE127:
  53              		.size	port_lock, .-port_lock
  54              		.align	2
  55              		.p2align 4,,15
  56              		.thumb
  57              		.thumb_func
ARM GAS  /tmp/ccqZLEFm.s 			page 2


  58              		.type	port_unlock, %function
  59              	port_unlock:
  60              	.LFB128:
  61              		.loc 1 618 0
  62              		.cfi_startproc
  63              		@ args = 0, pretend = 0, frame = 8
  64              		@ frame_needed = 0, uses_anonymous_args = 0
  65              		@ link register save eliminated.
  66 0010 82B0     		sub	sp, sp, #8
  67              		.cfi_def_cfa_offset 8
  68 0012 0023     		movs	r3, #0
  69 0014 0193     		str	r3, [sp, #4]
  70              	.LBB8:
  71              	.LBB9:
  72              		.loc 2 264 0
  73 0016 019B     		ldr	r3, [sp, #4]
  74              	@ 264 "../../../os/common/ext/CMSIS/include/cmsis_gcc.h" 1
  75 0018 83F31188 		MSR basepri, r3
  76              	@ 0 "" 2
  77              		.thumb
  78              	.LBE9:
  79              	.LBE8:
  80              		.loc 1 625 0
  81 001c 02B0     		add	sp, sp, #8
  82              		.cfi_def_cfa_offset 0
  83              		@ sp needed
  84 001e 7047     		bx	lr
  85              		.cfi_endproc
  86              	.LFE128:
  87              		.size	port_unlock, .-port_unlock
  88              		.align	2
  89              		.p2align 4,,15
  90              		.thumb
  91              		.thumb_func
  92              		.type	chSysLock, %function
  93              	chSysLock:
  94              	.LFB167:
  95              		.file 3 "../../../os/rt/include/chsys.h"
  96              		.loc 3 374 0
  97              		.cfi_startproc
  98              		@ args = 0, pretend = 0, frame = 0
  99              		@ frame_needed = 0, uses_anonymous_args = 0
 100 0020 08B5     		push	{r3, lr}
 101              		.cfi_def_cfa_offset 8
 102              		.cfi_offset 3, -8
 103              		.cfi_offset 14, -4
 104              		.loc 3 376 0
 105 0022 FFF7EDFF 		bl	port_lock
 106              		.loc 3 379 0
 107 0026 08BD     		pop	{r3, pc}
 108              		.cfi_endproc
 109              	.LFE167:
 110              		.size	chSysLock, .-chSysLock
 111              		.align	2
 112 0028 AFF30080 		.p2align 4,,15
 112      AFF30080 
 113              		.thumb
ARM GAS  /tmp/ccqZLEFm.s 			page 3


 114              		.thumb_func
 115              		.type	chSysUnlock, %function
 116              	chSysUnlock:
 117              	.LFB168:
 118              		.loc 3 386 0
 119              		.cfi_startproc
 120              		@ args = 0, pretend = 0, frame = 0
 121              		@ frame_needed = 0, uses_anonymous_args = 0
 122 0030 08B5     		push	{r3, lr}
 123              		.cfi_def_cfa_offset 8
 124              		.cfi_offset 3, -8
 125              		.cfi_offset 14, -4
 126              		.loc 3 399 0
 127 0032 FFF7EDFF 		bl	port_unlock
 128              		.loc 3 400 0
 129 0036 08BD     		pop	{r3, pc}
 130              		.cfi_endproc
 131              	.LFE168:
 132              		.size	chSysUnlock, .-chSysUnlock
 133              		.align	2
 134 0038 AFF30080 		.p2align 4,,15
 134      AFF30080 
 135              		.thumb
 136              		.thumb_func
 137              		.type	chEvtObjectInit, %function
 138              	chEvtObjectInit:
 139              	.LFB223:
 140              		.file 4 "../../../os/rt/include/chevents.h"
 141              		.loc 4 170 0
 142              		.cfi_startproc
 143              		@ args = 0, pretend = 0, frame = 8
 144              		@ frame_needed = 0, uses_anonymous_args = 0
 145              		@ link register save eliminated.
 146 0040 82B0     		sub	sp, sp, #8
 147              		.cfi_def_cfa_offset 8
 148 0042 0190     		str	r0, [sp, #4]
 149              		.loc 4 172 0
 150 0044 019B     		ldr	r3, [sp, #4]
 151 0046 019A     		ldr	r2, [sp, #4]
 152 0048 1A60     		str	r2, [r3]
 153              		.loc 4 173 0
 154 004a 02B0     		add	sp, sp, #8
 155              		.cfi_def_cfa_offset 0
 156              		@ sp needed
 157 004c 7047     		bx	lr
 158              		.cfi_endproc
 159              	.LFE223:
 160              		.size	chEvtObjectInit, .-chEvtObjectInit
 161 004e 00BF     		.align	2
 162              		.p2align 4,,15
 163              		.thumb
 164              		.thumb_func
 165              		.type	osalSysLock, %function
 166              	osalSysLock:
 167              	.LFB252:
 168              		.file 5 "../../../os/hal/osal/rt/osal.h"
 169              		.loc 5 491 0
ARM GAS  /tmp/ccqZLEFm.s 			page 4


 170              		.cfi_startproc
 171              		@ args = 0, pretend = 0, frame = 0
 172              		@ frame_needed = 0, uses_anonymous_args = 0
 173 0050 08B5     		push	{r3, lr}
 174              		.cfi_def_cfa_offset 8
 175              		.cfi_offset 3, -8
 176              		.cfi_offset 14, -4
 177              		.loc 5 493 0
 178 0052 FFF7E5FF 		bl	chSysLock
 179              		.loc 5 494 0
 180 0056 08BD     		pop	{r3, pc}
 181              		.cfi_endproc
 182              	.LFE252:
 183              		.size	osalSysLock, .-osalSysLock
 184              		.align	2
 185 0058 AFF30080 		.p2align 4,,15
 185      AFF30080 
 186              		.thumb
 187              		.thumb_func
 188              		.type	osalSysUnlock, %function
 189              	osalSysUnlock:
 190              	.LFB253:
 191              		.loc 5 502 0
 192              		.cfi_startproc
 193              		@ args = 0, pretend = 0, frame = 0
 194              		@ frame_needed = 0, uses_anonymous_args = 0
 195 0060 08B5     		push	{r3, lr}
 196              		.cfi_def_cfa_offset 8
 197              		.cfi_offset 3, -8
 198              		.cfi_offset 14, -4
 199              		.loc 5 504 0
 200 0062 FFF7E5FF 		bl	chSysUnlock
 201              		.loc 5 505 0
 202 0066 08BD     		pop	{r3, pc}
 203              		.cfi_endproc
 204              	.LFE253:
 205              		.size	osalSysUnlock, .-osalSysUnlock
 206              		.align	2
 207 0068 AFF30080 		.p2align 4,,15
 207      AFF30080 
 208              		.thumb
 209              		.thumb_func
 210              		.type	osalOsRescheduleS, %function
 211              	osalOsRescheduleS:
 212              	.LFB260:
 213              		.loc 5 598 0
 214              		.cfi_startproc
 215              		@ args = 0, pretend = 0, frame = 0
 216              		@ frame_needed = 0, uses_anonymous_args = 0
 217 0070 08B5     		push	{r3, lr}
 218              		.cfi_def_cfa_offset 8
 219              		.cfi_offset 3, -8
 220              		.cfi_offset 14, -4
 221              		.loc 5 600 0
 222 0072 FFF7FEFF 		bl	chSchRescheduleS
 223              		.loc 5 601 0
 224 0076 08BD     		pop	{r3, pc}
ARM GAS  /tmp/ccqZLEFm.s 			page 5


 225              		.cfi_endproc
 226              	.LFE260:
 227              		.size	osalOsRescheduleS, .-osalOsRescheduleS
 228              		.align	2
 229 0078 AFF30080 		.p2align 4,,15
 229      AFF30080 
 230              		.thumb
 231              		.thumb_func
 232              		.type	osalEventObjectInit, %function
 233              	osalEventObjectInit:
 234              	.LFB273:
 235              		.loc 5 821 0
 236              		.cfi_startproc
 237              		@ args = 0, pretend = 0, frame = 8
 238              		@ frame_needed = 0, uses_anonymous_args = 0
 239 0080 00B5     		push	{lr}
 240              		.cfi_def_cfa_offset 4
 241              		.cfi_offset 14, -4
 242 0082 83B0     		sub	sp, sp, #12
 243              		.cfi_def_cfa_offset 16
 244 0084 0190     		str	r0, [sp, #4]
 245              		.loc 5 823 0
 246 0086 0198     		ldr	r0, [sp, #4]
 247 0088 FFF7DAFF 		bl	chEvtObjectInit
 248              		.loc 5 824 0
 249 008c 03B0     		add	sp, sp, #12
 250              		.cfi_def_cfa_offset 4
 251              		@ sp needed
 252 008e 5DF804FB 		ldr	pc, [sp], #4
 253              		.cfi_endproc
 254              	.LFE273:
 255              		.size	osalEventObjectInit, .-osalEventObjectInit
 256 0092 00BF     		.align	2
 257 0094 AFF30080 		.p2align 4,,15
 257      AFF30080 
 257      AFF30080 
 258              		.thumb
 259              		.thumb_func
 260              		.type	osalEventBroadcastFlagsI, %function
 261              	osalEventBroadcastFlagsI:
 262              	.LFB274:
 263              		.loc 5 842 0
 264              		.cfi_startproc
 265              		@ args = 0, pretend = 0, frame = 8
 266              		@ frame_needed = 0, uses_anonymous_args = 0
 267 00a0 00B5     		push	{lr}
 268              		.cfi_def_cfa_offset 4
 269              		.cfi_offset 14, -4
 270 00a2 83B0     		sub	sp, sp, #12
 271              		.cfi_def_cfa_offset 16
 272 00a4 0190     		str	r0, [sp, #4]
 273 00a6 0091     		str	r1, [sp]
 274              		.loc 5 844 0
 275 00a8 0198     		ldr	r0, [sp, #4]
 276 00aa 0099     		ldr	r1, [sp]
 277 00ac FFF7FEFF 		bl	chEvtBroadcastFlagsI
 278              		.loc 5 845 0
ARM GAS  /tmp/ccqZLEFm.s 			page 6


 279 00b0 03B0     		add	sp, sp, #12
 280              		.cfi_def_cfa_offset 4
 281              		@ sp needed
 282 00b2 5DF804FB 		ldr	pc, [sp], #4
 283              		.cfi_endproc
 284              	.LFE274:
 285              		.size	osalEventBroadcastFlagsI, .-osalEventBroadcastFlagsI
 286 00b6 00BF     		.align	2
 287 00b8 AFF30080 		.p2align 4,,15
 287      AFF30080 
 288              		.thumb
 289              		.thumb_func
 290              		.type	_write, %function
 291              	_write:
 292              	.LFB279:
 293              		.file 6 "../../../os/hal/src/hal_serial.c"
 294              		.loc 6 50 0
 295              		.cfi_startproc
 296              		@ args = 0, pretend = 0, frame = 16
 297              		@ frame_needed = 0, uses_anonymous_args = 0
 298 00c0 00B5     		push	{lr}
 299              		.cfi_def_cfa_offset 4
 300              		.cfi_offset 14, -4
 301 00c2 85B0     		sub	sp, sp, #20
 302              		.cfi_def_cfa_offset 24
 303 00c4 0390     		str	r0, [sp, #12]
 304 00c6 0291     		str	r1, [sp, #8]
 305 00c8 0192     		str	r2, [sp, #4]
 306              		.loc 6 52 0
 307 00ca 039B     		ldr	r3, [sp, #12]
 308 00cc 3033     		adds	r3, r3, #48
 309 00ce 1846     		mov	r0, r3
 310 00d0 0299     		ldr	r1, [sp, #8]
 311 00d2 019A     		ldr	r2, [sp, #4]
 312 00d4 4FF0FF33 		mov	r3, #-1
 313 00d8 FFF7FEFF 		bl	oqWriteTimeout
 314 00dc 0346     		mov	r3, r0
 315              		.loc 6 54 0
 316 00de 1846     		mov	r0, r3
 317 00e0 05B0     		add	sp, sp, #20
 318              		.cfi_def_cfa_offset 4
 319              		@ sp needed
 320 00e2 5DF804FB 		ldr	pc, [sp], #4
 321              		.cfi_endproc
 322              	.LFE279:
 323              		.size	_write, .-_write
 324 00e6 00BF     		.align	2
 325 00e8 AFF30080 		.p2align 4,,15
 325      AFF30080 
 326              		.thumb
 327              		.thumb_func
 328              		.type	_read, %function
 329              	_read:
 330              	.LFB280:
 331              		.loc 6 56 0
 332              		.cfi_startproc
 333              		@ args = 0, pretend = 0, frame = 16
ARM GAS  /tmp/ccqZLEFm.s 			page 7


 334              		@ frame_needed = 0, uses_anonymous_args = 0
 335 00f0 00B5     		push	{lr}
 336              		.cfi_def_cfa_offset 4
 337              		.cfi_offset 14, -4
 338 00f2 85B0     		sub	sp, sp, #20
 339              		.cfi_def_cfa_offset 24
 340 00f4 0390     		str	r0, [sp, #12]
 341 00f6 0291     		str	r1, [sp, #8]
 342 00f8 0192     		str	r2, [sp, #4]
 343              		.loc 6 58 0
 344 00fa 039B     		ldr	r3, [sp, #12]
 345 00fc 0C33     		adds	r3, r3, #12
 346 00fe 1846     		mov	r0, r3
 347 0100 0299     		ldr	r1, [sp, #8]
 348 0102 019A     		ldr	r2, [sp, #4]
 349 0104 4FF0FF33 		mov	r3, #-1
 350 0108 FFF7FEFF 		bl	iqReadTimeout
 351 010c 0346     		mov	r3, r0
 352              		.loc 6 60 0
 353 010e 1846     		mov	r0, r3
 354 0110 05B0     		add	sp, sp, #20
 355              		.cfi_def_cfa_offset 4
 356              		@ sp needed
 357 0112 5DF804FB 		ldr	pc, [sp], #4
 358              		.cfi_endproc
 359              	.LFE280:
 360              		.size	_read, .-_read
 361 0116 00BF     		.align	2
 362 0118 AFF30080 		.p2align 4,,15
 362      AFF30080 
 363              		.thumb
 364              		.thumb_func
 365              		.type	_put, %function
 366              	_put:
 367              	.LFB281:
 368              		.loc 6 62 0
 369              		.cfi_startproc
 370              		@ args = 0, pretend = 0, frame = 8
 371              		@ frame_needed = 0, uses_anonymous_args = 0
 372 0120 00B5     		push	{lr}
 373              		.cfi_def_cfa_offset 4
 374              		.cfi_offset 14, -4
 375 0122 83B0     		sub	sp, sp, #12
 376              		.cfi_def_cfa_offset 16
 377 0124 0190     		str	r0, [sp, #4]
 378 0126 0B46     		mov	r3, r1
 379 0128 8DF80330 		strb	r3, [sp, #3]
 380              		.loc 6 64 0
 381 012c 019B     		ldr	r3, [sp, #4]
 382 012e 03F13002 		add	r2, r3, #48
 383 0132 9DF80330 		ldrb	r3, [sp, #3]	@ zero_extendqisi2
 384 0136 1046     		mov	r0, r2
 385 0138 1946     		mov	r1, r3
 386 013a 4FF0FF32 		mov	r2, #-1
 387 013e FFF7FEFF 		bl	oqPutTimeout
 388 0142 0346     		mov	r3, r0
 389              		.loc 6 65 0
ARM GAS  /tmp/ccqZLEFm.s 			page 8


 390 0144 1846     		mov	r0, r3
 391 0146 03B0     		add	sp, sp, #12
 392              		.cfi_def_cfa_offset 4
 393              		@ sp needed
 394 0148 5DF804FB 		ldr	pc, [sp], #4
 395              		.cfi_endproc
 396              	.LFE281:
 397              		.size	_put, .-_put
 398              		.align	2
 399 014c AFF30080 		.p2align 4,,15
 400              		.thumb
 401              		.thumb_func
 402              		.type	_get, %function
 403              	_get:
 404              	.LFB282:
 405              		.loc 6 67 0
 406              		.cfi_startproc
 407              		@ args = 0, pretend = 0, frame = 8
 408              		@ frame_needed = 0, uses_anonymous_args = 0
 409 0150 00B5     		push	{lr}
 410              		.cfi_def_cfa_offset 4
 411              		.cfi_offset 14, -4
 412 0152 83B0     		sub	sp, sp, #12
 413              		.cfi_def_cfa_offset 16
 414 0154 0190     		str	r0, [sp, #4]
 415              		.loc 6 69 0
 416 0156 019B     		ldr	r3, [sp, #4]
 417 0158 0C33     		adds	r3, r3, #12
 418 015a 1846     		mov	r0, r3
 419 015c 4FF0FF31 		mov	r1, #-1
 420 0160 FFF7FEFF 		bl	iqGetTimeout
 421 0164 0346     		mov	r3, r0
 422              		.loc 6 70 0
 423 0166 1846     		mov	r0, r3
 424 0168 03B0     		add	sp, sp, #12
 425              		.cfi_def_cfa_offset 4
 426              		@ sp needed
 427 016a 5DF804FB 		ldr	pc, [sp], #4
 428              		.cfi_endproc
 429              	.LFE282:
 430              		.size	_get, .-_get
 431 016e 00BF     		.align	2
 432              		.p2align 4,,15
 433              		.thumb
 434              		.thumb_func
 435              		.type	_putt, %function
 436              	_putt:
 437              	.LFB283:
 438              		.loc 6 72 0
 439              		.cfi_startproc
 440              		@ args = 0, pretend = 0, frame = 16
 441              		@ frame_needed = 0, uses_anonymous_args = 0
 442 0170 00B5     		push	{lr}
 443              		.cfi_def_cfa_offset 4
 444              		.cfi_offset 14, -4
 445 0172 85B0     		sub	sp, sp, #20
 446              		.cfi_def_cfa_offset 24
ARM GAS  /tmp/ccqZLEFm.s 			page 9


 447 0174 0390     		str	r0, [sp, #12]
 448 0176 0B46     		mov	r3, r1
 449 0178 0192     		str	r2, [sp, #4]
 450 017a 8DF80B30 		strb	r3, [sp, #11]
 451              		.loc 6 74 0
 452 017e 039B     		ldr	r3, [sp, #12]
 453 0180 03F13002 		add	r2, r3, #48
 454 0184 9DF80B30 		ldrb	r3, [sp, #11]	@ zero_extendqisi2
 455 0188 1046     		mov	r0, r2
 456 018a 1946     		mov	r1, r3
 457 018c 019A     		ldr	r2, [sp, #4]
 458 018e FFF7FEFF 		bl	oqPutTimeout
 459 0192 0346     		mov	r3, r0
 460              		.loc 6 75 0
 461 0194 1846     		mov	r0, r3
 462 0196 05B0     		add	sp, sp, #20
 463              		.cfi_def_cfa_offset 4
 464              		@ sp needed
 465 0198 5DF804FB 		ldr	pc, [sp], #4
 466              		.cfi_endproc
 467              	.LFE283:
 468              		.size	_putt, .-_putt
 469              		.align	2
 470 019c AFF30080 		.p2align 4,,15
 471              		.thumb
 472              		.thumb_func
 473              		.type	_gett, %function
 474              	_gett:
 475              	.LFB284:
 476              		.loc 6 77 0
 477              		.cfi_startproc
 478              		@ args = 0, pretend = 0, frame = 8
 479              		@ frame_needed = 0, uses_anonymous_args = 0
 480 01a0 00B5     		push	{lr}
 481              		.cfi_def_cfa_offset 4
 482              		.cfi_offset 14, -4
 483 01a2 83B0     		sub	sp, sp, #12
 484              		.cfi_def_cfa_offset 16
 485 01a4 0190     		str	r0, [sp, #4]
 486 01a6 0091     		str	r1, [sp]
 487              		.loc 6 79 0
 488 01a8 019B     		ldr	r3, [sp, #4]
 489 01aa 0C33     		adds	r3, r3, #12
 490 01ac 1846     		mov	r0, r3
 491 01ae 0099     		ldr	r1, [sp]
 492 01b0 FFF7FEFF 		bl	iqGetTimeout
 493 01b4 0346     		mov	r3, r0
 494              		.loc 6 80 0
 495 01b6 1846     		mov	r0, r3
 496 01b8 03B0     		add	sp, sp, #12
 497              		.cfi_def_cfa_offset 4
 498              		@ sp needed
 499 01ba 5DF804FB 		ldr	pc, [sp], #4
 500              		.cfi_endproc
 501              	.LFE284:
 502              		.size	_gett, .-_gett
 503 01be 00BF     		.align	2
ARM GAS  /tmp/ccqZLEFm.s 			page 10


 504              		.p2align 4,,15
 505              		.thumb
 506              		.thumb_func
 507              		.type	_writet, %function
 508              	_writet:
 509              	.LFB285:
 510              		.loc 6 82 0
 511              		.cfi_startproc
 512              		@ args = 0, pretend = 0, frame = 16
 513              		@ frame_needed = 0, uses_anonymous_args = 0
 514 01c0 00B5     		push	{lr}
 515              		.cfi_def_cfa_offset 4
 516              		.cfi_offset 14, -4
 517 01c2 85B0     		sub	sp, sp, #20
 518              		.cfi_def_cfa_offset 24
 519 01c4 0390     		str	r0, [sp, #12]
 520 01c6 0291     		str	r1, [sp, #8]
 521 01c8 0192     		str	r2, [sp, #4]
 522 01ca 0093     		str	r3, [sp]
 523              		.loc 6 84 0
 524 01cc 039B     		ldr	r3, [sp, #12]
 525 01ce 3033     		adds	r3, r3, #48
 526 01d0 1846     		mov	r0, r3
 527 01d2 0299     		ldr	r1, [sp, #8]
 528 01d4 019A     		ldr	r2, [sp, #4]
 529 01d6 009B     		ldr	r3, [sp]
 530 01d8 FFF7FEFF 		bl	oqWriteTimeout
 531 01dc 0346     		mov	r3, r0
 532              		.loc 6 85 0
 533 01de 1846     		mov	r0, r3
 534 01e0 05B0     		add	sp, sp, #20
 535              		.cfi_def_cfa_offset 4
 536              		@ sp needed
 537 01e2 5DF804FB 		ldr	pc, [sp], #4
 538              		.cfi_endproc
 539              	.LFE285:
 540              		.size	_writet, .-_writet
 541 01e6 00BF     		.align	2
 542 01e8 AFF30080 		.p2align 4,,15
 542      AFF30080 
 543              		.thumb
 544              		.thumb_func
 545              		.type	_readt, %function
 546              	_readt:
 547              	.LFB286:
 548              		.loc 6 87 0
 549              		.cfi_startproc
 550              		@ args = 0, pretend = 0, frame = 16
 551              		@ frame_needed = 0, uses_anonymous_args = 0
 552 01f0 00B5     		push	{lr}
 553              		.cfi_def_cfa_offset 4
 554              		.cfi_offset 14, -4
 555 01f2 85B0     		sub	sp, sp, #20
 556              		.cfi_def_cfa_offset 24
 557 01f4 0390     		str	r0, [sp, #12]
 558 01f6 0291     		str	r1, [sp, #8]
 559 01f8 0192     		str	r2, [sp, #4]
ARM GAS  /tmp/ccqZLEFm.s 			page 11


 560 01fa 0093     		str	r3, [sp]
 561              		.loc 6 89 0
 562 01fc 039B     		ldr	r3, [sp, #12]
 563 01fe 0C33     		adds	r3, r3, #12
 564 0200 1846     		mov	r0, r3
 565 0202 0299     		ldr	r1, [sp, #8]
 566 0204 019A     		ldr	r2, [sp, #4]
 567 0206 009B     		ldr	r3, [sp]
 568 0208 FFF7FEFF 		bl	iqReadTimeout
 569 020c 0346     		mov	r3, r0
 570              		.loc 6 90 0
 571 020e 1846     		mov	r0, r3
 572 0210 05B0     		add	sp, sp, #20
 573              		.cfi_def_cfa_offset 4
 574              		@ sp needed
 575 0212 5DF804FB 		ldr	pc, [sp], #4
 576              		.cfi_endproc
 577              	.LFE286:
 578              		.size	_readt, .-_readt
 579              		.section	.rodata
 580              		.align	2
 581              		.type	vmt, %object
 582              		.size	vmt, 32
 583              	vmt:
 584 0000 00000000 		.word	_write
 585 0004 00000000 		.word	_read
 586 0008 00000000 		.word	_put
 587 000c 00000000 		.word	_get
 588 0010 00000000 		.word	_putt
 589 0014 00000000 		.word	_gett
 590 0018 00000000 		.word	_writet
 591 001c 00000000 		.word	_readt
 592              		.text
 593 0216 00BF     		.align	2
 594 0218 AFF30080 		.p2align 4,,15
 594      AFF30080 
 595              		.global	sdInit
 596              		.thumb
 597              		.thumb_func
 598              		.type	sdInit, %function
 599              	sdInit:
 600              	.LFB287:
 601              		.loc 6 108 0
 602              		.cfi_startproc
 603              		@ args = 0, pretend = 0, frame = 0
 604              		@ frame_needed = 0, uses_anonymous_args = 0
 605 0220 08B5     		push	{r3, lr}
 606              		.cfi_def_cfa_offset 8
 607              		.cfi_offset 3, -8
 608              		.cfi_offset 14, -4
 609              		.loc 6 110 0
 610 0222 FFF7FEFF 		bl	sd_lld_init
 611              		.loc 6 111 0
 612 0226 08BD     		pop	{r3, pc}
 613              		.cfi_endproc
 614              	.LFE287:
 615              		.size	sdInit, .-sdInit
ARM GAS  /tmp/ccqZLEFm.s 			page 12


 616              		.align	2
 617 0228 AFF30080 		.p2align 4,,15
 617      AFF30080 
 618              		.global	sdObjectInit
 619              		.thumb
 620              		.thumb_func
 621              		.type	sdObjectInit, %function
 622              	sdObjectInit:
 623              	.LFB288:
 624              		.loc 6 131 0
 625              		.cfi_startproc
 626              		@ args = 0, pretend = 0, frame = 16
 627              		@ frame_needed = 0, uses_anonymous_args = 0
 628 0230 00B5     		push	{lr}
 629              		.cfi_def_cfa_offset 4
 630              		.cfi_offset 14, -4
 631 0232 87B0     		sub	sp, sp, #28
 632              		.cfi_def_cfa_offset 32
 633 0234 0590     		str	r0, [sp, #20]
 634 0236 0491     		str	r1, [sp, #16]
 635 0238 0392     		str	r2, [sp, #12]
 636              		.loc 6 133 0
 637 023a 059B     		ldr	r3, [sp, #20]
 638 023c 144A     		ldr	r2, .L29
 639 023e 1A60     		str	r2, [r3]
 640              		.loc 6 134 0
 641 0240 059B     		ldr	r3, [sp, #20]
 642 0242 0433     		adds	r3, r3, #4
 643 0244 1846     		mov	r0, r3
 644 0246 FFF71BFF 		bl	osalEventObjectInit
 645              		.loc 6 135 0
 646 024a 059B     		ldr	r3, [sp, #20]
 647 024c 0122     		movs	r2, #1
 648 024e 1A72     		strb	r2, [r3, #8]
 649              		.loc 6 136 0
 650 0250 059B     		ldr	r3, [sp, #20]
 651 0252 03F10C01 		add	r1, r3, #12
 652 0256 059B     		ldr	r3, [sp, #20]
 653 0258 03F15402 		add	r2, r3, #84
 654 025c 059B     		ldr	r3, [sp, #20]
 655 025e 0093     		str	r3, [sp]
 656 0260 0846     		mov	r0, r1
 657 0262 1146     		mov	r1, r2
 658 0264 1022     		movs	r2, #16
 659 0266 049B     		ldr	r3, [sp, #16]
 660 0268 FFF7FEFF 		bl	iqObjectInit
 661              		.loc 6 137 0
 662 026c 059B     		ldr	r3, [sp, #20]
 663 026e 03F13001 		add	r1, r3, #48
 664 0272 059B     		ldr	r3, [sp, #20]
 665 0274 03F16402 		add	r2, r3, #100
 666 0278 059B     		ldr	r3, [sp, #20]
 667 027a 0093     		str	r3, [sp]
 668 027c 0846     		mov	r0, r1
 669 027e 1146     		mov	r1, r2
 670 0280 1022     		movs	r2, #16
 671 0282 039B     		ldr	r3, [sp, #12]
ARM GAS  /tmp/ccqZLEFm.s 			page 13


 672 0284 FFF7FEFF 		bl	oqObjectInit
 673              		.loc 6 138 0
 674 0288 07B0     		add	sp, sp, #28
 675              		.cfi_def_cfa_offset 4
 676              		@ sp needed
 677 028a 5DF804FB 		ldr	pc, [sp], #4
 678              	.L30:
 679 028e 00BF     		.align	2
 680              	.L29:
 681 0290 00000000 		.word	vmt
 682              		.cfi_endproc
 683              	.LFE288:
 684              		.size	sdObjectInit, .-sdObjectInit
 685              		.align	2
 686 0294 AFF30080 		.p2align 4,,15
 686      AFF30080 
 686      AFF30080 
 687              		.global	sdStart
 688              		.thumb
 689              		.thumb_func
 690              		.type	sdStart, %function
 691              	sdStart:
 692              	.LFB289:
 693              		.loc 6 158 0
 694              		.cfi_startproc
 695              		@ args = 0, pretend = 0, frame = 8
 696              		@ frame_needed = 0, uses_anonymous_args = 0
 697 02a0 00B5     		push	{lr}
 698              		.cfi_def_cfa_offset 4
 699              		.cfi_offset 14, -4
 700 02a2 83B0     		sub	sp, sp, #12
 701              		.cfi_def_cfa_offset 16
 702 02a4 0190     		str	r0, [sp, #4]
 703 02a6 0091     		str	r1, [sp]
 704              		.loc 6 162 0
 705 02a8 FFF7D2FE 		bl	osalSysLock
 706              		.loc 6 165 0
 707 02ac 0198     		ldr	r0, [sp, #4]
 708 02ae 0099     		ldr	r1, [sp]
 709 02b0 FFF7FEFF 		bl	sd_lld_start
 710              		.loc 6 166 0
 711 02b4 019B     		ldr	r3, [sp, #4]
 712 02b6 0222     		movs	r2, #2
 713 02b8 1A72     		strb	r2, [r3, #8]
 714              		.loc 6 167 0
 715 02ba FFF7D1FE 		bl	osalSysUnlock
 716              		.loc 6 168 0
 717 02be 03B0     		add	sp, sp, #12
 718              		.cfi_def_cfa_offset 4
 719              		@ sp needed
 720 02c0 5DF804FB 		ldr	pc, [sp], #4
 721              		.cfi_endproc
 722              	.LFE289:
 723              		.size	sdStart, .-sdStart
 724              		.align	2
 725 02c4 AFF30080 		.p2align 4,,15
 725      AFF30080 
ARM GAS  /tmp/ccqZLEFm.s 			page 14


 725      AFF30080 
 726              		.global	sdStop
 727              		.thumb
 728              		.thumb_func
 729              		.type	sdStop, %function
 730              	sdStop:
 731              	.LFB290:
 732              		.loc 6 179 0
 733              		.cfi_startproc
 734              		@ args = 0, pretend = 0, frame = 8
 735              		@ frame_needed = 0, uses_anonymous_args = 0
 736 02d0 00B5     		push	{lr}
 737              		.cfi_def_cfa_offset 4
 738              		.cfi_offset 14, -4
 739 02d2 83B0     		sub	sp, sp, #12
 740              		.cfi_def_cfa_offset 16
 741 02d4 0190     		str	r0, [sp, #4]
 742              		.loc 6 183 0
 743 02d6 FFF7BBFE 		bl	osalSysLock
 744              		.loc 6 188 0
 745 02da 0198     		ldr	r0, [sp, #4]
 746 02dc FFF7FEFF 		bl	sd_lld_stop
 747              		.loc 6 189 0
 748 02e0 019B     		ldr	r3, [sp, #4]
 749 02e2 0122     		movs	r2, #1
 750 02e4 1A72     		strb	r2, [r3, #8]
 751              		.loc 6 190 0
 752 02e6 019B     		ldr	r3, [sp, #4]
 753 02e8 3033     		adds	r3, r3, #48
 754 02ea 1846     		mov	r0, r3
 755 02ec FFF7FEFF 		bl	oqResetI
 756              		.loc 6 191 0
 757 02f0 019B     		ldr	r3, [sp, #4]
 758 02f2 0C33     		adds	r3, r3, #12
 759 02f4 1846     		mov	r0, r3
 760 02f6 FFF7FEFF 		bl	iqResetI
 761              		.loc 6 192 0
 762 02fa FFF7B9FE 		bl	osalOsRescheduleS
 763              		.loc 6 194 0
 764 02fe FFF7AFFE 		bl	osalSysUnlock
 765              		.loc 6 195 0
 766 0302 03B0     		add	sp, sp, #12
 767              		.cfi_def_cfa_offset 4
 768              		@ sp needed
 769 0304 5DF804FB 		ldr	pc, [sp], #4
 770              		.cfi_endproc
 771              	.LFE290:
 772              		.size	sdStop, .-sdStop
 773              		.align	2
 774 0308 AFF30080 		.p2align 4,,15
 774      AFF30080 
 775              		.global	sdIncomingDataI
 776              		.thumb
 777              		.thumb_func
 778              		.type	sdIncomingDataI, %function
 779              	sdIncomingDataI:
 780              	.LFB291:
ARM GAS  /tmp/ccqZLEFm.s 			page 15


 781              		.loc 6 213 0
 782              		.cfi_startproc
 783              		@ args = 0, pretend = 0, frame = 8
 784              		@ frame_needed = 0, uses_anonymous_args = 0
 785 0310 00B5     		push	{lr}
 786              		.cfi_def_cfa_offset 4
 787              		.cfi_offset 14, -4
 788 0312 83B0     		sub	sp, sp, #12
 789              		.cfi_def_cfa_offset 16
 790 0314 0190     		str	r0, [sp, #4]
 791 0316 0B46     		mov	r3, r1
 792 0318 8DF80330 		strb	r3, [sp, #3]
 793              		.loc 6 218 0
 794 031c 019B     		ldr	r3, [sp, #4]
 795 031e 5B69     		ldr	r3, [r3, #20]
 796 0320 002B     		cmp	r3, #0
 797 0322 05D1     		bne	.L34
 798              		.loc 6 219 0
 799 0324 019B     		ldr	r3, [sp, #4]
 800 0326 0433     		adds	r3, r3, #4
 801 0328 1846     		mov	r0, r3
 802 032a 0421     		movs	r1, #4
 803 032c FFF7B8FE 		bl	osalEventBroadcastFlagsI
 804              	.L34:
 805              		.loc 6 220 0
 806 0330 019B     		ldr	r3, [sp, #4]
 807 0332 03F10C02 		add	r2, r3, #12
 808 0336 9DF80330 		ldrb	r3, [sp, #3]	@ zero_extendqisi2
 809 033a 1046     		mov	r0, r2
 810 033c 1946     		mov	r1, r3
 811 033e FFF7FEFF 		bl	iqPutI
 812 0342 0346     		mov	r3, r0
 813 0344 002B     		cmp	r3, #0
 814 0346 06DA     		bge	.L33
 815              		.loc 6 221 0
 816 0348 019B     		ldr	r3, [sp, #4]
 817 034a 0433     		adds	r3, r3, #4
 818 034c 1846     		mov	r0, r3
 819 034e 4FF48061 		mov	r1, #1024
 820 0352 FFF7A5FE 		bl	osalEventBroadcastFlagsI
 821              	.L33:
 822              		.loc 6 222 0
 823 0356 03B0     		add	sp, sp, #12
 824              		.cfi_def_cfa_offset 4
 825              		@ sp needed
 826 0358 5DF804FB 		ldr	pc, [sp], #4
 827              		.cfi_endproc
 828              	.LFE291:
 829              		.size	sdIncomingDataI, .-sdIncomingDataI
 830              		.align	2
 831 035c AFF30080 		.p2align 4,,15
 832              		.global	sdRequestDataI
 833              		.thumb
 834              		.thumb_func
 835              		.type	sdRequestDataI, %function
 836              	sdRequestDataI:
 837              	.LFB292:
ARM GAS  /tmp/ccqZLEFm.s 			page 16


 838              		.loc 6 239 0
 839              		.cfi_startproc
 840              		@ args = 0, pretend = 0, frame = 16
 841              		@ frame_needed = 0, uses_anonymous_args = 0
 842 0360 00B5     		push	{lr}
 843              		.cfi_def_cfa_offset 4
 844              		.cfi_offset 14, -4
 845 0362 85B0     		sub	sp, sp, #20
 846              		.cfi_def_cfa_offset 24
 847 0364 0190     		str	r0, [sp, #4]
 848              		.loc 6 245 0
 849 0366 019B     		ldr	r3, [sp, #4]
 850 0368 3033     		adds	r3, r3, #48
 851 036a 1846     		mov	r0, r3
 852 036c FFF7FEFF 		bl	oqGetI
 853 0370 0390     		str	r0, [sp, #12]
 854              		.loc 6 246 0
 855 0372 039B     		ldr	r3, [sp, #12]
 856 0374 002B     		cmp	r3, #0
 857 0376 05DA     		bge	.L37
 858              		.loc 6 247 0
 859 0378 019B     		ldr	r3, [sp, #4]
 860 037a 0433     		adds	r3, r3, #4
 861 037c 1846     		mov	r0, r3
 862 037e 0821     		movs	r1, #8
 863 0380 FFF78EFE 		bl	osalEventBroadcastFlagsI
 864              	.L37:
 865              		.loc 6 248 0
 866 0384 039B     		ldr	r3, [sp, #12]
 867              		.loc 6 249 0
 868 0386 1846     		mov	r0, r3
 869 0388 05B0     		add	sp, sp, #20
 870              		.cfi_def_cfa_offset 4
 871              		@ sp needed
 872 038a 5DF804FB 		ldr	pc, [sp], #4
 873              		.cfi_endproc
 874              	.LFE292:
 875              		.size	sdRequestDataI, .-sdRequestDataI
 876 038e 00BF     		.align	2
 877              		.p2align 4,,15
 878              		.global	sdPutWouldBlock
 879              		.thumb
 880              		.thumb_func
 881              		.type	sdPutWouldBlock, %function
 882              	sdPutWouldBlock:
 883              	.LFB293:
 884              		.loc 6 266 0
 885              		.cfi_startproc
 886              		@ args = 0, pretend = 0, frame = 16
 887              		@ frame_needed = 0, uses_anonymous_args = 0
 888 0390 00B5     		push	{lr}
 889              		.cfi_def_cfa_offset 4
 890              		.cfi_offset 14, -4
 891 0392 85B0     		sub	sp, sp, #20
 892              		.cfi_def_cfa_offset 24
 893 0394 0190     		str	r0, [sp, #4]
 894              		.loc 6 269 0
ARM GAS  /tmp/ccqZLEFm.s 			page 17


 895 0396 FFF75BFE 		bl	osalSysLock
 896              		.loc 6 270 0
 897 039a 019B     		ldr	r3, [sp, #4]
 898 039c 9B6B     		ldr	r3, [r3, #56]
 899 039e 002B     		cmp	r3, #0
 900 03a0 0CBF     		ite	eq
 901 03a2 0123     		moveq	r3, #1
 902 03a4 0023     		movne	r3, #0
 903 03a6 8DF80F30 		strb	r3, [sp, #15]
 904              		.loc 6 271 0
 905 03aa FFF759FE 		bl	osalSysUnlock
 906              		.loc 6 273 0
 907 03ae 9DF80F30 		ldrb	r3, [sp, #15]	@ zero_extendqisi2
 908              		.loc 6 274 0
 909 03b2 1846     		mov	r0, r3
 910 03b4 05B0     		add	sp, sp, #20
 911              		.cfi_def_cfa_offset 4
 912              		@ sp needed
 913 03b6 5DF804FB 		ldr	pc, [sp], #4
 914              		.cfi_endproc
 915              	.LFE293:
 916              		.size	sdPutWouldBlock, .-sdPutWouldBlock
 917 03ba 00BF     		.align	2
 918 03bc AFF30080 		.p2align 4,,15
 919              		.global	sdGetWouldBlock
 920              		.thumb
 921              		.thumb_func
 922              		.type	sdGetWouldBlock, %function
 923              	sdGetWouldBlock:
 924              	.LFB294:
 925              		.loc 6 291 0
 926              		.cfi_startproc
 927              		@ args = 0, pretend = 0, frame = 16
 928              		@ frame_needed = 0, uses_anonymous_args = 0
 929 03c0 00B5     		push	{lr}
 930              		.cfi_def_cfa_offset 4
 931              		.cfi_offset 14, -4
 932 03c2 85B0     		sub	sp, sp, #20
 933              		.cfi_def_cfa_offset 24
 934 03c4 0190     		str	r0, [sp, #4]
 935              		.loc 6 294 0
 936 03c6 FFF743FE 		bl	osalSysLock
 937              		.loc 6 295 0
 938 03ca 019B     		ldr	r3, [sp, #4]
 939 03cc 5B69     		ldr	r3, [r3, #20]
 940 03ce 002B     		cmp	r3, #0
 941 03d0 0CBF     		ite	eq
 942 03d2 0123     		moveq	r3, #1
 943 03d4 0023     		movne	r3, #0
 944 03d6 8DF80F30 		strb	r3, [sp, #15]
 945              		.loc 6 296 0
 946 03da FFF741FE 		bl	osalSysUnlock
 947              		.loc 6 298 0
 948 03de 9DF80F30 		ldrb	r3, [sp, #15]	@ zero_extendqisi2
 949              		.loc 6 299 0
 950 03e2 1846     		mov	r0, r3
 951 03e4 05B0     		add	sp, sp, #20
ARM GAS  /tmp/ccqZLEFm.s 			page 18


 952              		.cfi_def_cfa_offset 4
 953              		@ sp needed
 954 03e6 5DF804FB 		ldr	pc, [sp], #4
 955              		.cfi_endproc
 956              	.LFE294:
 957              		.size	sdGetWouldBlock, .-sdGetWouldBlock
 958              	.Letext0:
 959              		.file 7 "/usr/lib/gcc/arm-none-eabi/4.9.3/include/stddef.h"
 960              		.file 8 "/usr/include/newlib/machine/_default_types.h"
 961              		.file 9 "/usr/include/newlib/sys/_stdint.h"
 962              		.file 10 "../../../os/common/ports/ARMCMx/compilers/GCC/chtypes.h"
 963              		.file 11 "../../../os/rt/include/chsystypes.h"
 964              		.file 12 "../../../os/rt/include/chschd.h"
 965              		.file 13 "../../../os/common/ext/CMSIS/ST/STM32F4xx/stm32f407xx.h"
 966              		.file 14 "../../../os/common/ports/ARMCMx/chcore.h"
 967              		.file 15 "../../../os/rt/include/chtm.h"
 968              		.file 16 "../../../os/rt/include/chsem.h"
 969              		.file 17 "../../../os/rt/include/chmtx.h"
 970              		.file 18 "../../../os/hal/include/hal_queues.h"
 971              		.file 19 "../../../os/hal/include/hal_serial.h"
 972              		.file 20 "../../../os/hal/ports/STM32/LLD/USARTv1/hal_serial_lld.h"
 973              		.file 21 "../../../os/common/ext/CMSIS/include/core_cm4.h"
 974 03ea 00BF     		.section	.debug_info,"",%progbits
 975              	.Ldebug_info0:
 976 0000 E20F0000 		.4byte	0xfe2
 977 0004 0400     		.2byte	0x4
 978 0006 00000000 		.4byte	.Ldebug_abbrev0
 979 000a 04       		.byte	0x4
 980 000b 01       		.uleb128 0x1
 981 000c 4E050000 		.4byte	.LASF166
 982 0010 01       		.byte	0x1
 983 0011 2D050000 		.4byte	.LASF167
 984 0015 0B060000 		.4byte	.LASF168
 985 0019 00000000 		.4byte	.Ltext0
 986 001d EA030000 		.4byte	.Letext0-.Ltext0
 987 0021 00000000 		.4byte	.Ldebug_line0
 988 0025 02       		.uleb128 0x2
 989 0026 04       		.byte	0x4
 990 0027 05       		.byte	0x5
 991 0028 696E7400 		.ascii	"int\000"
 992 002c 03       		.uleb128 0x3
 993 002d 0D000000 		.4byte	.LASF2
 994 0031 07       		.byte	0x7
 995 0032 D4       		.byte	0xd4
 996 0033 37000000 		.4byte	0x37
 997 0037 04       		.uleb128 0x4
 998 0038 04       		.byte	0x4
 999 0039 07       		.byte	0x7
 1000 003a 28020000 		.4byte	.LASF0
 1001 003e 04       		.uleb128 0x4
 1002 003f 01       		.byte	0x1
 1003 0040 06       		.byte	0x6
 1004 0041 30010000 		.4byte	.LASF1
 1005 0045 03       		.uleb128 0x3
 1006 0046 39000000 		.4byte	.LASF3
 1007 004a 08       		.byte	0x8
 1008 004b 1D       		.byte	0x1d
ARM GAS  /tmp/ccqZLEFm.s 			page 19


 1009 004c 50000000 		.4byte	0x50
 1010 0050 04       		.uleb128 0x4
 1011 0051 01       		.byte	0x1
 1012 0052 08       		.byte	0x8
 1013 0053 3F040000 		.4byte	.LASF4
 1014 0057 04       		.uleb128 0x4
 1015 0058 02       		.byte	0x2
 1016 0059 05       		.byte	0x5
 1017 005a 54040000 		.4byte	.LASF5
 1018 005e 03       		.uleb128 0x3
 1019 005f 00060000 		.4byte	.LASF6
 1020 0063 08       		.byte	0x8
 1021 0064 2B       		.byte	0x2b
 1022 0065 69000000 		.4byte	0x69
 1023 0069 04       		.uleb128 0x4
 1024 006a 02       		.byte	0x2
 1025 006b 07       		.byte	0x7
 1026 006c 98060000 		.4byte	.LASF7
 1027 0070 03       		.uleb128 0x3
 1028 0071 C4040000 		.4byte	.LASF8
 1029 0075 08       		.byte	0x8
 1030 0076 3F       		.byte	0x3f
 1031 0077 7B000000 		.4byte	0x7b
 1032 007b 04       		.uleb128 0x4
 1033 007c 04       		.byte	0x4
 1034 007d 05       		.byte	0x5
 1035 007e A0010000 		.4byte	.LASF9
 1036 0082 03       		.uleb128 0x3
 1037 0083 D0010000 		.4byte	.LASF10
 1038 0087 08       		.byte	0x8
 1039 0088 41       		.byte	0x41
 1040 0089 8D000000 		.4byte	0x8d
 1041 008d 04       		.uleb128 0x4
 1042 008e 04       		.byte	0x4
 1043 008f 07       		.byte	0x7
 1044 0090 41010000 		.4byte	.LASF11
 1045 0094 04       		.uleb128 0x4
 1046 0095 08       		.byte	0x8
 1047 0096 05       		.byte	0x5
 1048 0097 22010000 		.4byte	.LASF12
 1049 009b 03       		.uleb128 0x3
 1050 009c DC030000 		.4byte	.LASF13
 1051 00a0 08       		.byte	0x8
 1052 00a1 5B       		.byte	0x5b
 1053 00a2 A6000000 		.4byte	0xa6
 1054 00a6 04       		.uleb128 0x4
 1055 00a7 08       		.byte	0x8
 1056 00a8 07       		.byte	0x7
 1057 00a9 7E000000 		.4byte	.LASF14
 1058 00ad 03       		.uleb128 0x3
 1059 00ae 15070000 		.4byte	.LASF15
 1060 00b2 09       		.byte	0x9
 1061 00b3 14       		.byte	0x14
 1062 00b4 45000000 		.4byte	0x45
 1063 00b8 03       		.uleb128 0x3
 1064 00b9 C0010000 		.4byte	.LASF16
 1065 00bd 09       		.byte	0x9
ARM GAS  /tmp/ccqZLEFm.s 			page 20


 1066 00be 1A       		.byte	0x1a
 1067 00bf 5E000000 		.4byte	0x5e
 1068 00c3 03       		.uleb128 0x3
 1069 00c4 37040000 		.4byte	.LASF17
 1070 00c8 09       		.byte	0x9
 1071 00c9 1F       		.byte	0x1f
 1072 00ca 70000000 		.4byte	0x70
 1073 00ce 03       		.uleb128 0x3
 1074 00cf CE040000 		.4byte	.LASF18
 1075 00d3 09       		.byte	0x9
 1076 00d4 20       		.byte	0x20
 1077 00d5 82000000 		.4byte	0x82
 1078 00d9 03       		.uleb128 0x3
 1079 00da 2A000000 		.4byte	.LASF19
 1080 00de 09       		.byte	0x9
 1081 00df 26       		.byte	0x26
 1082 00e0 9B000000 		.4byte	0x9b
 1083 00e4 03       		.uleb128 0x3
 1084 00e5 AB060000 		.4byte	.LASF20
 1085 00e9 0A       		.byte	0xa
 1086 00ea 39       		.byte	0x39
 1087 00eb CE000000 		.4byte	0xce
 1088 00ef 03       		.uleb128 0x3
 1089 00f0 E7020000 		.4byte	.LASF21
 1090 00f4 0A       		.byte	0xa
 1091 00f5 3C       		.byte	0x3c
 1092 00f6 AD000000 		.4byte	0xad
 1093 00fa 03       		.uleb128 0x3
 1094 00fb A9010000 		.4byte	.LASF22
 1095 00ff 0A       		.byte	0xa
 1096 0100 3D       		.byte	0x3d
 1097 0101 AD000000 		.4byte	0xad
 1098 0105 03       		.uleb128 0x3
 1099 0106 EF060000 		.4byte	.LASF23
 1100 010a 0A       		.byte	0xa
 1101 010b 3E       		.byte	0x3e
 1102 010c AD000000 		.4byte	0xad
 1103 0110 03       		.uleb128 0x3
 1104 0111 11040000 		.4byte	.LASF24
 1105 0115 0A       		.byte	0xa
 1106 0116 40       		.byte	0x40
 1107 0117 CE000000 		.4byte	0xce
 1108 011b 03       		.uleb128 0x3
 1109 011c B7020000 		.4byte	.LASF25
 1110 0120 0A       		.byte	0xa
 1111 0121 41       		.byte	0x41
 1112 0122 C3000000 		.4byte	0xc3
 1113 0126 03       		.uleb128 0x3
 1114 0127 FD020000 		.4byte	.LASF26
 1115 012b 0A       		.byte	0xa
 1116 012c 43       		.byte	0x43
 1117 012d CE000000 		.4byte	0xce
 1118 0131 03       		.uleb128 0x3
 1119 0132 BC060000 		.4byte	.LASF27
 1120 0136 0A       		.byte	0xa
 1121 0137 44       		.byte	0x44
 1122 0138 CE000000 		.4byte	0xce
ARM GAS  /tmp/ccqZLEFm.s 			page 21


 1123 013c 03       		.uleb128 0x3
 1124 013d 1C020000 		.4byte	.LASF28
 1125 0141 0A       		.byte	0xa
 1126 0142 45       		.byte	0x45
 1127 0143 C3000000 		.4byte	0xc3
 1128 0147 03       		.uleb128 0x3
 1129 0148 55060000 		.4byte	.LASF29
 1130 014c 0B       		.byte	0xb
 1131 014d 33       		.byte	0x33
 1132 014e CE000000 		.4byte	0xce
 1133 0152 03       		.uleb128 0x3
 1134 0153 4C060000 		.4byte	.LASF30
 1135 0157 0B       		.byte	0xb
 1136 0158 3F       		.byte	0x3f
 1137 0159 5D010000 		.4byte	0x15d
 1138 015d 05       		.uleb128 0x5
 1139 015e A2020000 		.4byte	.LASF48
 1140 0162 44       		.byte	0x44
 1141 0163 0C       		.byte	0xc
 1142 0164 9A       		.byte	0x9a
 1143 0165 3B020000 		.4byte	0x23b
 1144 0169 06       		.uleb128 0x6
 1145 016a 73020000 		.4byte	.LASF31
 1146 016e 0C       		.byte	0xc
 1147 016f 9B       		.byte	0x9b
 1148 0170 70020000 		.4byte	0x270
 1149 0174 00       		.byte	0
 1150 0175 06       		.uleb128 0x6
 1151 0176 C2030000 		.4byte	.LASF32
 1152 017a 0C       		.byte	0xc
 1153 017b 9C       		.byte	0x9c
 1154 017c 10010000 		.4byte	0x110
 1155 0180 08       		.byte	0x8
 1156 0181 07       		.uleb128 0x7
 1157 0182 63747800 		.ascii	"ctx\000"
 1158 0186 0C       		.byte	0xc
 1159 0187 9D       		.byte	0x9d
 1160 0188 DC040000 		.4byte	0x4dc
 1161 018c 0C       		.byte	0xc
 1162 018d 06       		.uleb128 0x6
 1163 018e 24030000 		.4byte	.LASF33
 1164 0192 0C       		.byte	0xc
 1165 0193 9F       		.byte	0x9f
 1166 0194 46020000 		.4byte	0x246
 1167 0198 10       		.byte	0x10
 1168 0199 06       		.uleb128 0x6
 1169 019a DB050000 		.4byte	.LASF34
 1170 019e 0C       		.byte	0xc
 1171 019f A0       		.byte	0xa0
 1172 01a0 46020000 		.4byte	0x246
 1173 01a4 14       		.byte	0x14
 1174 01a5 06       		.uleb128 0x6
 1175 01a6 6E020000 		.4byte	.LASF35
 1176 01aa 0C       		.byte	0xc
 1177 01ab A7       		.byte	0xa7
 1178 01ac 61060000 		.4byte	0x661
 1179 01b0 18       		.byte	0x18
ARM GAS  /tmp/ccqZLEFm.s 			page 22


 1180 01b1 06       		.uleb128 0x6
 1181 01b2 89010000 		.4byte	.LASF36
 1182 01b6 0C       		.byte	0xc
 1183 01b7 B0       		.byte	0xb0
 1184 01b8 73060000 		.4byte	0x673
 1185 01bc 1C       		.byte	0x1c
 1186 01bd 06       		.uleb128 0x6
 1187 01be 90010000 		.4byte	.LASF37
 1188 01c2 0C       		.byte	0xc
 1189 01c3 B5       		.byte	0xb5
 1190 01c4 FA000000 		.4byte	0xfa
 1191 01c8 20       		.byte	0x20
 1192 01c9 06       		.uleb128 0x6
 1193 01ca 1D070000 		.4byte	.LASF38
 1194 01ce 0C       		.byte	0xc
 1195 01cf B9       		.byte	0xb9
 1196 01d0 EF000000 		.4byte	0xef
 1197 01d4 21       		.byte	0x21
 1198 01d5 06       		.uleb128 0x6
 1199 01d6 0B010000 		.4byte	.LASF39
 1200 01da 0C       		.byte	0xc
 1201 01db BE       		.byte	0xbe
 1202 01dc 05010000 		.4byte	0x105
 1203 01e0 22       		.byte	0x22
 1204 01e1 08       		.uleb128 0x8
 1205 01e2 7500     		.ascii	"u\000"
 1206 01e4 0C       		.byte	0xc
 1207 01e5 0F01     		.2byte	0x10f
 1208 01e7 96050000 		.4byte	0x596
 1209 01eb 24       		.byte	0x24
 1210 01ec 09       		.uleb128 0x9
 1211 01ed E4010000 		.4byte	.LASF40
 1212 01f1 0C       		.byte	0xc
 1213 01f2 1401     		.2byte	0x114
 1214 01f4 4C020000 		.4byte	0x24c
 1215 01f8 28       		.byte	0x28
 1216 01f9 09       		.uleb128 0x9
 1217 01fa 80010000 		.4byte	.LASF41
 1218 01fe 0C       		.byte	0xc
 1219 01ff 1A01     		.2byte	0x11a
 1220 0201 70020000 		.4byte	0x270
 1221 0205 2C       		.byte	0x2c
 1222 0206 09       		.uleb128 0x9
 1223 0207 BD020000 		.4byte	.LASF42
 1224 020b 0C       		.byte	0xc
 1225 020c 2001     		.2byte	0x120
 1226 020e 26010000 		.4byte	0x126
 1227 0212 34       		.byte	0x34
 1228 0213 09       		.uleb128 0x9
 1229 0214 70070000 		.4byte	.LASF43
 1230 0218 0C       		.byte	0xc
 1231 0219 2701     		.2byte	0x127
 1232 021b 5B060000 		.4byte	0x65b
 1233 021f 38       		.byte	0x38
 1234 0220 09       		.uleb128 0x9
 1235 0221 24050000 		.4byte	.LASF44
 1236 0225 0C       		.byte	0xc
ARM GAS  /tmp/ccqZLEFm.s 			page 23


 1237 0226 2B01     		.2byte	0x12b
 1238 0228 10010000 		.4byte	0x110
 1239 022c 3C       		.byte	0x3c
 1240 022d 09       		.uleb128 0x9
 1241 022e 79020000 		.4byte	.LASF45
 1242 0232 0C       		.byte	0xc
 1243 0233 3201     		.2byte	0x132
 1244 0235 23030000 		.4byte	0x323
 1245 0239 40       		.byte	0x40
 1246 023a 00       		.byte	0
 1247 023b 03       		.uleb128 0x3
 1248 023c 53030000 		.4byte	.LASF46
 1249 0240 0B       		.byte	0xb
 1250 0241 44       		.byte	0x44
 1251 0242 46020000 		.4byte	0x246
 1252 0246 0A       		.uleb128 0xa
 1253 0247 04       		.byte	0x4
 1254 0248 52010000 		.4byte	0x152
 1255 024c 03       		.uleb128 0x3
 1256 024d 37070000 		.4byte	.LASF47
 1257 0251 0B       		.byte	0xb
 1258 0252 49       		.byte	0x49
 1259 0253 57020000 		.4byte	0x257
 1260 0257 05       		.uleb128 0x5
 1261 0258 01050000 		.4byte	.LASF49
 1262 025c 04       		.byte	0x4
 1263 025d 0C       		.byte	0xc
 1264 025e 88       		.byte	0x88
 1265 025f 70020000 		.4byte	0x270
 1266 0263 06       		.uleb128 0x6
 1267 0264 DB000000 		.4byte	.LASF50
 1268 0268 0C       		.byte	0xc
 1269 0269 89       		.byte	0x89
 1270 026a 46020000 		.4byte	0x246
 1271 026e 00       		.byte	0
 1272 026f 00       		.byte	0
 1273 0270 03       		.uleb128 0x3
 1274 0271 9D040000 		.4byte	.LASF51
 1275 0275 0B       		.byte	0xb
 1276 0276 50       		.byte	0x50
 1277 0277 7B020000 		.4byte	0x27b
 1278 027b 05       		.uleb128 0x5
 1279 027c E0000000 		.4byte	.LASF52
 1280 0280 08       		.byte	0x8
 1281 0281 0C       		.byte	0xc
 1282 0282 8F       		.byte	0x8f
 1283 0283 A0020000 		.4byte	0x2a0
 1284 0287 06       		.uleb128 0x6
 1285 0288 DB000000 		.4byte	.LASF50
 1286 028c 0C       		.byte	0xc
 1287 028d 90       		.byte	0x90
 1288 028e 46020000 		.4byte	0x246
 1289 0292 00       		.byte	0
 1290 0293 06       		.uleb128 0x6
 1291 0294 43000000 		.4byte	.LASF53
 1292 0298 0C       		.byte	0xc
 1293 0299 91       		.byte	0x91
ARM GAS  /tmp/ccqZLEFm.s 			page 24


 1294 029a 46020000 		.4byte	0x246
 1295 029e 04       		.byte	0x4
 1296 029f 00       		.byte	0
 1297 02a0 03       		.uleb128 0x3
 1298 02a1 00000000 		.4byte	.LASF54
 1299 02a5 0B       		.byte	0xb
 1300 02a6 57       		.byte	0x57
 1301 02a7 AB020000 		.4byte	0x2ab
 1302 02ab 0B       		.uleb128 0xb
 1303 02ac EF020000 		.4byte	.LASF55
 1304 02b0 1C       		.byte	0x1c
 1305 02b1 0C       		.byte	0xc
 1306 02b2 6A01     		.2byte	0x16a
 1307 02b4 07030000 		.4byte	0x307
 1308 02b8 09       		.uleb128 0x9
 1309 02b9 73020000 		.4byte	.LASF31
 1310 02bd 0C       		.byte	0xc
 1311 02be 6B01     		.2byte	0x16b
 1312 02c0 70020000 		.4byte	0x270
 1313 02c4 00       		.byte	0
 1314 02c5 09       		.uleb128 0x9
 1315 02c6 C2030000 		.4byte	.LASF32
 1316 02ca 0C       		.byte	0xc
 1317 02cb 6C01     		.2byte	0x16c
 1318 02cd 10010000 		.4byte	0x110
 1319 02d1 08       		.byte	0x8
 1320 02d2 08       		.uleb128 0x8
 1321 02d3 63747800 		.ascii	"ctx\000"
 1322 02d7 0C       		.byte	0xc
 1323 02d8 6E01     		.2byte	0x16e
 1324 02da DC040000 		.4byte	0x4dc
 1325 02de 0C       		.byte	0xc
 1326 02df 09       		.uleb128 0x9
 1327 02e0 24030000 		.4byte	.LASF33
 1328 02e4 0C       		.byte	0xc
 1329 02e5 7101     		.2byte	0x171
 1330 02e7 46020000 		.4byte	0x246
 1331 02eb 10       		.byte	0x10
 1332 02ec 09       		.uleb128 0x9
 1333 02ed DB050000 		.4byte	.LASF34
 1334 02f1 0C       		.byte	0xc
 1335 02f2 7201     		.2byte	0x172
 1336 02f4 46020000 		.4byte	0x246
 1337 02f8 14       		.byte	0x14
 1338 02f9 09       		.uleb128 0x9
 1339 02fa C7030000 		.4byte	.LASF56
 1340 02fe 0C       		.byte	0xc
 1341 02ff 7501     		.2byte	0x175
 1342 0301 46020000 		.4byte	0x246
 1343 0305 18       		.byte	0x18
 1344 0306 00       		.byte	0
 1345 0307 03       		.uleb128 0x3
 1346 0308 5F060000 		.4byte	.LASF57
 1347 030c 0B       		.byte	0xb
 1348 030d 5C       		.byte	0x5c
 1349 030e 12030000 		.4byte	0x312
 1350 0312 0A       		.uleb128 0xa
ARM GAS  /tmp/ccqZLEFm.s 			page 25


 1351 0313 04       		.byte	0x4
 1352 0314 18030000 		.4byte	0x318
 1353 0318 0C       		.uleb128 0xc
 1354 0319 23030000 		.4byte	0x323
 1355 031d 0D       		.uleb128 0xd
 1356 031e 23030000 		.4byte	0x323
 1357 0322 00       		.byte	0
 1358 0323 0E       		.uleb128 0xe
 1359 0324 04       		.byte	0x4
 1360 0325 03       		.uleb128 0x3
 1361 0326 F9030000 		.4byte	.LASF58
 1362 032a 0B       		.byte	0xb
 1363 032b 61       		.byte	0x61
 1364 032c 30030000 		.4byte	0x330
 1365 0330 0B       		.uleb128 0xb
 1366 0331 63000000 		.4byte	.LASF59
 1367 0335 14       		.byte	0x14
 1368 0336 0C       		.byte	0xc
 1369 0337 4501     		.2byte	0x145
 1370 0339 7F030000 		.4byte	0x37f
 1371 033d 09       		.uleb128 0x9
 1372 033e DB000000 		.4byte	.LASF50
 1373 0342 0C       		.byte	0xc
 1374 0343 4601     		.2byte	0x146
 1375 0345 79060000 		.4byte	0x679
 1376 0349 00       		.byte	0
 1377 034a 09       		.uleb128 0x9
 1378 034b 43000000 		.4byte	.LASF53
 1379 034f 0C       		.byte	0xc
 1380 0350 4701     		.2byte	0x147
 1381 0352 79060000 		.4byte	0x679
 1382 0356 04       		.byte	0x4
 1383 0357 09       		.uleb128 0x9
 1384 0358 14000000 		.4byte	.LASF60
 1385 035c 0C       		.byte	0xc
 1386 035d 4801     		.2byte	0x148
 1387 035f 47010000 		.4byte	0x147
 1388 0363 08       		.byte	0x8
 1389 0364 09       		.uleb128 0x9
 1390 0365 B2010000 		.4byte	.LASF61
 1391 0369 0C       		.byte	0xc
 1392 036a 4901     		.2byte	0x149
 1393 036c 07030000 		.4byte	0x307
 1394 0370 0C       		.byte	0xc
 1395 0371 08       		.uleb128 0x8
 1396 0372 70617200 		.ascii	"par\000"
 1397 0376 0C       		.byte	0xc
 1398 0377 4B01     		.2byte	0x14b
 1399 0379 23030000 		.4byte	0x323
 1400 037d 10       		.byte	0x10
 1401 037e 00       		.byte	0
 1402 037f 03       		.uleb128 0x3
 1403 0380 AD000000 		.4byte	.LASF62
 1404 0384 0B       		.byte	0xb
 1405 0385 66       		.byte	0x66
 1406 0386 8A030000 		.4byte	0x38a
 1407 038a 0B       		.uleb128 0xb
ARM GAS  /tmp/ccqZLEFm.s 			page 26


 1408 038b 6F030000 		.4byte	.LASF63
 1409 038f 10       		.byte	0x10
 1410 0390 0C       		.byte	0xc
 1411 0391 5501     		.2byte	0x155
 1412 0393 CC030000 		.4byte	0x3cc
 1413 0397 09       		.uleb128 0x9
 1414 0398 DB000000 		.4byte	.LASF50
 1415 039c 0C       		.byte	0xc
 1416 039d 5601     		.2byte	0x156
 1417 039f 79060000 		.4byte	0x679
 1418 03a3 00       		.byte	0
 1419 03a4 09       		.uleb128 0x9
 1420 03a5 43000000 		.4byte	.LASF53
 1421 03a9 0C       		.byte	0xc
 1422 03aa 5801     		.2byte	0x158
 1423 03ac 79060000 		.4byte	0x679
 1424 03b0 04       		.byte	0x4
 1425 03b1 09       		.uleb128 0x9
 1426 03b2 14000000 		.4byte	.LASF60
 1427 03b6 0C       		.byte	0xc
 1428 03b7 5A01     		.2byte	0x15a
 1429 03b9 47010000 		.4byte	0x147
 1430 03bd 08       		.byte	0x8
 1431 03be 09       		.uleb128 0x9
 1432 03bf 5E040000 		.4byte	.LASF64
 1433 03c3 0C       		.byte	0xc
 1434 03c4 6201     		.2byte	0x162
 1435 03c6 47010000 		.4byte	0x147
 1436 03ca 0C       		.byte	0xc
 1437 03cb 00       		.byte	0
 1438 03cc 03       		.uleb128 0x3
 1439 03cd 54000000 		.4byte	.LASF65
 1440 03d1 0B       		.byte	0xb
 1441 03d2 6B       		.byte	0x6b
 1442 03d3 D7030000 		.4byte	0x3d7
 1443 03d7 0B       		.uleb128 0xb
 1444 03d8 21040000 		.4byte	.LASF66
 1445 03dc 04       		.byte	0x4
 1446 03dd 0C       		.byte	0xc
 1447 03de 7C01     		.2byte	0x17c
 1448 03e0 F2030000 		.4byte	0x3f2
 1449 03e4 09       		.uleb128 0x9
 1450 03e5 76060000 		.4byte	.LASF67
 1451 03e9 0C       		.byte	0xc
 1452 03ea 8401     		.2byte	0x184
 1453 03ec 7F060000 		.4byte	0x67f
 1454 03f0 00       		.byte	0
 1455 03f1 00       		.byte	0
 1456 03f2 03       		.uleb128 0x3
 1457 03f3 C6020000 		.4byte	.LASF68
 1458 03f7 0B       		.byte	0xb
 1459 03f8 70       		.byte	0x70
 1460 03f9 FD030000 		.4byte	0x3fd
 1461 03fd 0B       		.uleb128 0xb
 1462 03fe 96010000 		.4byte	.LASF69
 1463 0402 78       		.byte	0x78
 1464 0403 0C       		.byte	0xc
ARM GAS  /tmp/ccqZLEFm.s 			page 27


 1465 0404 9C01     		.2byte	0x19c
 1466 0406 4B040000 		.4byte	0x44b
 1467 040a 09       		.uleb128 0x9
 1468 040b 00070000 		.4byte	.LASF70
 1469 040f 0C       		.byte	0xc
 1470 0410 A001     		.2byte	0x1a0
 1471 0412 A0020000 		.4byte	0x2a0
 1472 0416 00       		.byte	0
 1473 0417 09       		.uleb128 0x9
 1474 0418 6D010000 		.4byte	.LASF71
 1475 041c 0C       		.byte	0xc
 1476 041d A401     		.2byte	0x1a4
 1477 041f 7F030000 		.4byte	0x37f
 1478 0423 1C       		.byte	0x1c
 1479 0424 08       		.uleb128 0x8
 1480 0425 64626700 		.ascii	"dbg\000"
 1481 0429 0C       		.byte	0xc
 1482 042a A801     		.2byte	0x1a8
 1483 042c CC030000 		.4byte	0x3cc
 1484 0430 2C       		.byte	0x2c
 1485 0431 09       		.uleb128 0x9
 1486 0432 AC020000 		.4byte	.LASF72
 1487 0436 0C       		.byte	0xc
 1488 0437 AC01     		.2byte	0x1ac
 1489 0439 52010000 		.4byte	0x152
 1490 043d 30       		.byte	0x30
 1491 043e 08       		.uleb128 0x8
 1492 043f 746D00   		.ascii	"tm\000"
 1493 0442 0C       		.byte	0xc
 1494 0443 B101     		.2byte	0x1b1
 1495 0445 8B050000 		.4byte	0x58b
 1496 0449 74       		.byte	0x74
 1497 044a 00       		.byte	0
 1498 044b 04       		.uleb128 0x4
 1499 044c 04       		.byte	0x4
 1500 044d 07       		.byte	0x7
 1501 044e 4A030000 		.4byte	.LASF73
 1502 0452 0F       		.uleb128 0xf
 1503 0453 CE000000 		.4byte	0xce
 1504 0457 10       		.uleb128 0x10
 1505 0458 1C       		.byte	0x1c
 1506 0459 0D       		.byte	0xd
 1507 045a 0803     		.2byte	0x308
 1508 045c BA040000 		.4byte	0x4ba
 1509 0460 08       		.uleb128 0x8
 1510 0461 535200   		.ascii	"SR\000"
 1511 0464 0D       		.byte	0xd
 1512 0465 0A03     		.2byte	0x30a
 1513 0467 52040000 		.4byte	0x452
 1514 046b 00       		.byte	0
 1515 046c 08       		.uleb128 0x8
 1516 046d 445200   		.ascii	"DR\000"
 1517 0470 0D       		.byte	0xd
 1518 0471 0B03     		.2byte	0x30b
 1519 0473 52040000 		.4byte	0x452
 1520 0477 04       		.byte	0x4
 1521 0478 08       		.uleb128 0x8
ARM GAS  /tmp/ccqZLEFm.s 			page 28


 1522 0479 42525200 		.ascii	"BRR\000"
 1523 047d 0D       		.byte	0xd
 1524 047e 0C03     		.2byte	0x30c
 1525 0480 52040000 		.4byte	0x452
 1526 0484 08       		.byte	0x8
 1527 0485 08       		.uleb128 0x8
 1528 0486 43523100 		.ascii	"CR1\000"
 1529 048a 0D       		.byte	0xd
 1530 048b 0D03     		.2byte	0x30d
 1531 048d 52040000 		.4byte	0x452
 1532 0491 0C       		.byte	0xc
 1533 0492 08       		.uleb128 0x8
 1534 0493 43523200 		.ascii	"CR2\000"
 1535 0497 0D       		.byte	0xd
 1536 0498 0E03     		.2byte	0x30e
 1537 049a 52040000 		.4byte	0x452
 1538 049e 10       		.byte	0x10
 1539 049f 08       		.uleb128 0x8
 1540 04a0 43523300 		.ascii	"CR3\000"
 1541 04a4 0D       		.byte	0xd
 1542 04a5 0F03     		.2byte	0x30f
 1543 04a7 52040000 		.4byte	0x452
 1544 04ab 14       		.byte	0x14
 1545 04ac 09       		.uleb128 0x9
 1546 04ad 3C010000 		.4byte	.LASF74
 1547 04b1 0D       		.byte	0xd
 1548 04b2 1003     		.2byte	0x310
 1549 04b4 52040000 		.4byte	0x452
 1550 04b8 18       		.byte	0x18
 1551 04b9 00       		.byte	0
 1552 04ba 11       		.uleb128 0x11
 1553 04bb D2020000 		.4byte	.LASF75
 1554 04bf 0D       		.byte	0xd
 1555 04c0 1103     		.2byte	0x311
 1556 04c2 57040000 		.4byte	0x457
 1557 04c6 03       		.uleb128 0x3
 1558 04c7 DB010000 		.4byte	.LASF76
 1559 04cb 0E       		.byte	0xe
 1560 04cc 65       		.byte	0x65
 1561 04cd 23030000 		.4byte	0x323
 1562 04d1 03       		.uleb128 0x3
 1563 04d2 19030000 		.4byte	.LASF77
 1564 04d6 0E       		.byte	0xe
 1565 04d7 6D       		.byte	0x6d
 1566 04d8 D9000000 		.4byte	0xd9
 1567 04dc 05       		.uleb128 0x5
 1568 04dd 9D030000 		.4byte	.LASF78
 1569 04e1 04       		.byte	0x4
 1570 04e2 0E       		.byte	0xe
 1571 04e3 89       		.byte	0x89
 1572 04e4 F4040000 		.4byte	0x4f4
 1573 04e8 07       		.uleb128 0x7
 1574 04e9 737000   		.ascii	"sp\000"
 1575 04ec 0E       		.byte	0xe
 1576 04ed 8A       		.byte	0x8a
 1577 04ee 70050000 		.4byte	0x570
 1578 04f2 00       		.byte	0
ARM GAS  /tmp/ccqZLEFm.s 			page 29


 1579 04f3 00       		.byte	0
 1580 04f4 0B       		.uleb128 0xb
 1581 04f5 48000000 		.4byte	.LASF79
 1582 04f9 24       		.byte	0x24
 1583 04fa 01       		.byte	0x1
 1584 04fb 5901     		.2byte	0x159
 1585 04fd 70050000 		.4byte	0x570
 1586 0501 08       		.uleb128 0x8
 1587 0502 723400   		.ascii	"r4\000"
 1588 0505 01       		.byte	0x1
 1589 0506 6C01     		.2byte	0x16c
 1590 0508 C6040000 		.4byte	0x4c6
 1591 050c 00       		.byte	0
 1592 050d 08       		.uleb128 0x8
 1593 050e 723500   		.ascii	"r5\000"
 1594 0511 01       		.byte	0x1
 1595 0512 6D01     		.2byte	0x16d
 1596 0514 C6040000 		.4byte	0x4c6
 1597 0518 04       		.byte	0x4
 1598 0519 08       		.uleb128 0x8
 1599 051a 723600   		.ascii	"r6\000"
 1600 051d 01       		.byte	0x1
 1601 051e 6E01     		.2byte	0x16e
 1602 0520 C6040000 		.4byte	0x4c6
 1603 0524 08       		.byte	0x8
 1604 0525 08       		.uleb128 0x8
 1605 0526 723700   		.ascii	"r7\000"
 1606 0529 01       		.byte	0x1
 1607 052a 6F01     		.2byte	0x16f
 1608 052c C6040000 		.4byte	0x4c6
 1609 0530 0C       		.byte	0xc
 1610 0531 08       		.uleb128 0x8
 1611 0532 723800   		.ascii	"r8\000"
 1612 0535 01       		.byte	0x1
 1613 0536 7001     		.2byte	0x170
 1614 0538 C6040000 		.4byte	0x4c6
 1615 053c 10       		.byte	0x10
 1616 053d 08       		.uleb128 0x8
 1617 053e 723900   		.ascii	"r9\000"
 1618 0541 01       		.byte	0x1
 1619 0542 7101     		.2byte	0x171
 1620 0544 C6040000 		.4byte	0x4c6
 1621 0548 14       		.byte	0x14
 1622 0549 08       		.uleb128 0x8
 1623 054a 72313000 		.ascii	"r10\000"
 1624 054e 01       		.byte	0x1
 1625 054f 7201     		.2byte	0x172
 1626 0551 C6040000 		.4byte	0x4c6
 1627 0555 18       		.byte	0x18
 1628 0556 08       		.uleb128 0x8
 1629 0557 72313100 		.ascii	"r11\000"
 1630 055b 01       		.byte	0x1
 1631 055c 7301     		.2byte	0x173
 1632 055e C6040000 		.4byte	0x4c6
 1633 0562 1C       		.byte	0x1c
 1634 0563 08       		.uleb128 0x8
 1635 0564 6C7200   		.ascii	"lr\000"
ARM GAS  /tmp/ccqZLEFm.s 			page 30


 1636 0567 01       		.byte	0x1
 1637 0568 7401     		.2byte	0x174
 1638 056a C6040000 		.4byte	0x4c6
 1639 056e 20       		.byte	0x20
 1640 056f 00       		.byte	0
 1641 0570 0A       		.uleb128 0xa
 1642 0571 04       		.byte	0x4
 1643 0572 F4040000 		.4byte	0x4f4
 1644 0576 12       		.uleb128 0x12
 1645 0577 04       		.byte	0x4
 1646 0578 0F       		.byte	0xf
 1647 0579 38       		.byte	0x38
 1648 057a 8B050000 		.4byte	0x58b
 1649 057e 06       		.uleb128 0x6
 1650 057f 80060000 		.4byte	.LASF80
 1651 0583 0F       		.byte	0xf
 1652 0584 3C       		.byte	0x3c
 1653 0585 E4000000 		.4byte	0xe4
 1654 0589 00       		.byte	0
 1655 058a 00       		.byte	0
 1656 058b 03       		.uleb128 0x3
 1657 058c AA030000 		.4byte	.LASF81
 1658 0590 0F       		.byte	0xf
 1659 0591 3D       		.byte	0x3d
 1660 0592 76050000 		.4byte	0x576
 1661 0596 13       		.uleb128 0x13
 1662 0597 04       		.byte	0x4
 1663 0598 0C       		.byte	0xc
 1664 0599 D2       		.byte	0xd2
 1665 059a F9050000 		.4byte	0x5f9
 1666 059e 14       		.uleb128 0x14
 1667 059f 96040000 		.4byte	.LASF82
 1668 05a3 0C       		.byte	0xc
 1669 05a4 D9       		.byte	0xd9
 1670 05a5 1B010000 		.4byte	0x11b
 1671 05a9 14       		.uleb128 0x14
 1672 05aa 95000000 		.4byte	.LASF83
 1673 05ae 0C       		.byte	0xc
 1674 05af E0       		.byte	0xe0
 1675 05b0 1B010000 		.4byte	0x11b
 1676 05b4 14       		.uleb128 0x14
 1677 05b5 30070000 		.4byte	.LASF84
 1678 05b9 0C       		.byte	0xc
 1679 05ba E7       		.byte	0xe7
 1680 05bb 23030000 		.4byte	0x323
 1681 05bf 14       		.uleb128 0x14
 1682 05c0 5B020000 		.4byte	.LASF85
 1683 05c4 0C       		.byte	0xc
 1684 05c5 EE       		.byte	0xee
 1685 05c6 F9050000 		.4byte	0x5f9
 1686 05ca 14       		.uleb128 0x14
 1687 05cb A5000000 		.4byte	.LASF86
 1688 05cf 0C       		.byte	0xc
 1689 05d0 F3       		.byte	0xf3
 1690 05d1 1B010000 		.4byte	0x11b
 1691 05d5 14       		.uleb128 0x14
 1692 05d6 4D020000 		.4byte	.LASF87
ARM GAS  /tmp/ccqZLEFm.s 			page 31


 1693 05da 0C       		.byte	0xc
 1694 05db FC       		.byte	0xfc
 1695 05dc 24060000 		.4byte	0x624
 1696 05e0 15       		.uleb128 0x15
 1697 05e1 D7040000 		.4byte	.LASF88
 1698 05e5 0C       		.byte	0xc
 1699 05e6 0501     		.2byte	0x105
 1700 05e8 5B060000 		.4byte	0x65b
 1701 05ec 15       		.uleb128 0x15
 1702 05ed 67040000 		.4byte	.LASF89
 1703 05f1 0C       		.byte	0xc
 1704 05f2 0D01     		.2byte	0x10d
 1705 05f4 26010000 		.4byte	0x126
 1706 05f8 00       		.byte	0
 1707 05f9 0A       		.uleb128 0xa
 1708 05fa 04       		.byte	0x4
 1709 05fb 3B020000 		.4byte	0x23b
 1710 05ff 05       		.uleb128 0x5
 1711 0600 AD040000 		.4byte	.LASF90
 1712 0604 0C       		.byte	0xc
 1713 0605 10       		.byte	0x10
 1714 0606 34       		.byte	0x34
 1715 0607 24060000 		.4byte	0x624
 1716 060b 06       		.uleb128 0x6
 1717 060c 73020000 		.4byte	.LASF31
 1718 0610 10       		.byte	0x10
 1719 0611 35       		.byte	0x35
 1720 0612 70020000 		.4byte	0x270
 1721 0616 00       		.byte	0
 1722 0617 07       		.uleb128 0x7
 1723 0618 636E7400 		.ascii	"cnt\000"
 1724 061c 10       		.byte	0x10
 1725 061d 37       		.byte	0x37
 1726 061e 3C010000 		.4byte	0x13c
 1727 0622 08       		.byte	0x8
 1728 0623 00       		.byte	0
 1729 0624 0A       		.uleb128 0xa
 1730 0625 04       		.byte	0x4
 1731 0626 FF050000 		.4byte	0x5ff
 1732 062a 05       		.uleb128 0x5
 1733 062b E6060000 		.4byte	.LASF91
 1734 062f 10       		.byte	0x10
 1735 0630 11       		.byte	0x11
 1736 0631 39       		.byte	0x39
 1737 0632 5B060000 		.4byte	0x65b
 1738 0636 06       		.uleb128 0x6
 1739 0637 73020000 		.4byte	.LASF31
 1740 063b 11       		.byte	0x11
 1741 063c 3A       		.byte	0x3a
 1742 063d 70020000 		.4byte	0x270
 1743 0641 00       		.byte	0
 1744 0642 06       		.uleb128 0x6
 1745 0643 11050000 		.4byte	.LASF92
 1746 0647 11       		.byte	0x11
 1747 0648 3C       		.byte	0x3c
 1748 0649 46020000 		.4byte	0x246
 1749 064d 08       		.byte	0x8
ARM GAS  /tmp/ccqZLEFm.s 			page 32


 1750 064e 06       		.uleb128 0x6
 1751 064f DB000000 		.4byte	.LASF50
 1752 0653 11       		.byte	0x11
 1753 0654 3E       		.byte	0x3e
 1754 0655 8F060000 		.4byte	0x68f
 1755 0659 0C       		.byte	0xc
 1756 065a 00       		.byte	0
 1757 065b 0A       		.uleb128 0xa
 1758 065c 04       		.byte	0x4
 1759 065d 2A060000 		.4byte	0x62a
 1760 0661 0A       		.uleb128 0xa
 1761 0662 04       		.byte	0x4
 1762 0663 67060000 		.4byte	0x667
 1763 0667 16       		.uleb128 0x16
 1764 0668 6C060000 		.4byte	0x66c
 1765 066c 04       		.uleb128 0x4
 1766 066d 01       		.byte	0x1
 1767 066e 08       		.byte	0x8
 1768 066f D6050000 		.4byte	.LASF93
 1769 0673 0A       		.uleb128 0xa
 1770 0674 04       		.byte	0x4
 1771 0675 D1040000 		.4byte	0x4d1
 1772 0679 0A       		.uleb128 0xa
 1773 067a 04       		.byte	0x4
 1774 067b 25030000 		.4byte	0x325
 1775 067f 0F       		.uleb128 0xf
 1776 0680 61060000 		.4byte	0x661
 1777 0684 03       		.uleb128 0x3
 1778 0685 1A010000 		.4byte	.LASF94
 1779 0689 11       		.byte	0x11
 1780 068a 34       		.byte	0x34
 1781 068b 2A060000 		.4byte	0x62a
 1782 068f 0A       		.uleb128 0xa
 1783 0690 04       		.byte	0x4
 1784 0691 84060000 		.4byte	0x684
 1785 0695 03       		.uleb128 0x3
 1786 0696 87060000 		.4byte	.LASF95
 1787 069a 04       		.byte	0x4
 1788 069b 34       		.byte	0x34
 1789 069c A0060000 		.4byte	0x6a0
 1790 06a0 05       		.uleb128 0x5
 1791 06a1 78070000 		.4byte	.LASF96
 1792 06a5 14       		.byte	0x14
 1793 06a6 04       		.byte	0x4
 1794 06a7 39       		.byte	0x39
 1795 06a8 E9060000 		.4byte	0x6e9
 1796 06ac 06       		.uleb128 0x6
 1797 06ad DB000000 		.4byte	.LASF50
 1798 06b1 04       		.byte	0x4
 1799 06b2 3A       		.byte	0x3a
 1800 06b3 E9060000 		.4byte	0x6e9
 1801 06b7 00       		.byte	0
 1802 06b8 06       		.uleb128 0x6
 1803 06b9 66030000 		.4byte	.LASF97
 1804 06bd 04       		.byte	0x4
 1805 06be 3D       		.byte	0x3d
 1806 06bf 46020000 		.4byte	0x246
ARM GAS  /tmp/ccqZLEFm.s 			page 33


 1807 06c3 04       		.byte	0x4
 1808 06c4 06       		.uleb128 0x6
 1809 06c5 4D040000 		.4byte	.LASF98
 1810 06c9 04       		.byte	0x4
 1811 06ca 3F       		.byte	0x3f
 1812 06cb 26010000 		.4byte	0x126
 1813 06cf 08       		.byte	0x8
 1814 06d0 06       		.uleb128 0x6
 1815 06d1 1D070000 		.4byte	.LASF38
 1816 06d5 04       		.byte	0x4
 1817 06d6 41       		.byte	0x41
 1818 06d7 31010000 		.4byte	0x131
 1819 06db 0C       		.byte	0xc
 1820 06dc 06       		.uleb128 0x6
 1821 06dd C9010000 		.4byte	.LASF99
 1822 06e1 04       		.byte	0x4
 1823 06e2 43       		.byte	0x43
 1824 06e3 31010000 		.4byte	0x131
 1825 06e7 10       		.byte	0x10
 1826 06e8 00       		.byte	0
 1827 06e9 0A       		.uleb128 0xa
 1828 06ea 04       		.byte	0x4
 1829 06eb 95060000 		.4byte	0x695
 1830 06ef 05       		.uleb128 0x5
 1831 06f0 90030000 		.4byte	.LASF100
 1832 06f4 04       		.byte	0x4
 1833 06f5 04       		.byte	0x4
 1834 06f6 4A       		.byte	0x4a
 1835 06f7 08070000 		.4byte	0x708
 1836 06fb 06       		.uleb128 0x6
 1837 06fc DB000000 		.4byte	.LASF50
 1838 0700 04       		.byte	0x4
 1839 0701 4B       		.byte	0x4b
 1840 0702 E9060000 		.4byte	0x6e9
 1841 0706 00       		.byte	0
 1842 0707 00       		.byte	0
 1843 0708 03       		.uleb128 0x3
 1844 0709 0D020000 		.4byte	.LASF101
 1845 070d 04       		.byte	0x4
 1846 070e 4E       		.byte	0x4e
 1847 070f EF060000 		.4byte	0x6ef
 1848 0713 04       		.uleb128 0x4
 1849 0714 01       		.byte	0x1
 1850 0715 02       		.byte	0x2
 1851 0716 31040000 		.4byte	.LASF102
 1852 071a 0A       		.uleb128 0xa
 1853 071b 04       		.byte	0x4
 1854 071c AD000000 		.4byte	0xad
 1855 0720 17       		.uleb128 0x17
 1856 0721 2C000000 		.4byte	0x2c
 1857 0725 39070000 		.4byte	0x739
 1858 0729 0D       		.uleb128 0xd
 1859 072a 23030000 		.4byte	0x323
 1860 072e 0D       		.uleb128 0xd
 1861 072f 39070000 		.4byte	0x739
 1862 0733 0D       		.uleb128 0xd
 1863 0734 2C000000 		.4byte	0x2c
ARM GAS  /tmp/ccqZLEFm.s 			page 34


 1864 0738 00       		.byte	0
 1865 0739 0A       		.uleb128 0xa
 1866 073a 04       		.byte	0x4
 1867 073b 3F070000 		.4byte	0x73f
 1868 073f 16       		.uleb128 0x16
 1869 0740 AD000000 		.4byte	0xad
 1870 0744 0A       		.uleb128 0xa
 1871 0745 04       		.byte	0x4
 1872 0746 20070000 		.4byte	0x720
 1873 074a 17       		.uleb128 0x17
 1874 074b 2C000000 		.4byte	0x2c
 1875 074f 63070000 		.4byte	0x763
 1876 0753 0D       		.uleb128 0xd
 1877 0754 23030000 		.4byte	0x323
 1878 0758 0D       		.uleb128 0xd
 1879 0759 1A070000 		.4byte	0x71a
 1880 075d 0D       		.uleb128 0xd
 1881 075e 2C000000 		.4byte	0x2c
 1882 0762 00       		.byte	0
 1883 0763 0A       		.uleb128 0xa
 1884 0764 04       		.byte	0x4
 1885 0765 4A070000 		.4byte	0x74a
 1886 0769 17       		.uleb128 0x17
 1887 076a 1B010000 		.4byte	0x11b
 1888 076e 7D070000 		.4byte	0x77d
 1889 0772 0D       		.uleb128 0xd
 1890 0773 23030000 		.4byte	0x323
 1891 0777 0D       		.uleb128 0xd
 1892 0778 AD000000 		.4byte	0xad
 1893 077c 00       		.byte	0
 1894 077d 0A       		.uleb128 0xa
 1895 077e 04       		.byte	0x4
 1896 077f 69070000 		.4byte	0x769
 1897 0783 17       		.uleb128 0x17
 1898 0784 1B010000 		.4byte	0x11b
 1899 0788 92070000 		.4byte	0x792
 1900 078c 0D       		.uleb128 0xd
 1901 078d 23030000 		.4byte	0x323
 1902 0791 00       		.byte	0
 1903 0792 0A       		.uleb128 0xa
 1904 0793 04       		.byte	0x4
 1905 0794 83070000 		.4byte	0x783
 1906 0798 17       		.uleb128 0x17
 1907 0799 1B010000 		.4byte	0x11b
 1908 079d B1070000 		.4byte	0x7b1
 1909 07a1 0D       		.uleb128 0xd
 1910 07a2 23030000 		.4byte	0x323
 1911 07a6 0D       		.uleb128 0xd
 1912 07a7 AD000000 		.4byte	0xad
 1913 07ab 0D       		.uleb128 0xd
 1914 07ac 47010000 		.4byte	0x147
 1915 07b0 00       		.byte	0
 1916 07b1 0A       		.uleb128 0xa
 1917 07b2 04       		.byte	0x4
 1918 07b3 98070000 		.4byte	0x798
 1919 07b7 17       		.uleb128 0x17
 1920 07b8 1B010000 		.4byte	0x11b
ARM GAS  /tmp/ccqZLEFm.s 			page 35


 1921 07bc CB070000 		.4byte	0x7cb
 1922 07c0 0D       		.uleb128 0xd
 1923 07c1 23030000 		.4byte	0x323
 1924 07c5 0D       		.uleb128 0xd
 1925 07c6 47010000 		.4byte	0x147
 1926 07ca 00       		.byte	0
 1927 07cb 0A       		.uleb128 0xa
 1928 07cc 04       		.byte	0x4
 1929 07cd B7070000 		.4byte	0x7b7
 1930 07d1 17       		.uleb128 0x17
 1931 07d2 2C000000 		.4byte	0x2c
 1932 07d6 EF070000 		.4byte	0x7ef
 1933 07da 0D       		.uleb128 0xd
 1934 07db 23030000 		.4byte	0x323
 1935 07df 0D       		.uleb128 0xd
 1936 07e0 39070000 		.4byte	0x739
 1937 07e4 0D       		.uleb128 0xd
 1938 07e5 2C000000 		.4byte	0x2c
 1939 07e9 0D       		.uleb128 0xd
 1940 07ea 47010000 		.4byte	0x147
 1941 07ee 00       		.byte	0
 1942 07ef 0A       		.uleb128 0xa
 1943 07f0 04       		.byte	0x4
 1944 07f1 D1070000 		.4byte	0x7d1
 1945 07f5 17       		.uleb128 0x17
 1946 07f6 2C000000 		.4byte	0x2c
 1947 07fa 13080000 		.4byte	0x813
 1948 07fe 0D       		.uleb128 0xd
 1949 07ff 23030000 		.4byte	0x323
 1950 0803 0D       		.uleb128 0xd
 1951 0804 1A070000 		.4byte	0x71a
 1952 0808 0D       		.uleb128 0xd
 1953 0809 2C000000 		.4byte	0x2c
 1954 080d 0D       		.uleb128 0xd
 1955 080e 47010000 		.4byte	0x147
 1956 0812 00       		.byte	0
 1957 0813 0A       		.uleb128 0xa
 1958 0814 04       		.byte	0x4
 1959 0815 F5070000 		.4byte	0x7f5
 1960 0819 0F       		.uleb128 0xf
 1961 081a 2C000000 		.4byte	0x2c
 1962 081e 03       		.uleb128 0x3
 1963 081f D0000000 		.4byte	.LASF103
 1964 0823 12       		.byte	0x12
 1965 0824 2A       		.byte	0x2a
 1966 0825 29080000 		.4byte	0x829
 1967 0829 05       		.uleb128 0x5
 1968 082a 04020000 		.4byte	.LASF104
 1969 082e 24       		.byte	0x24
 1970 082f 12       		.byte	0x12
 1971 0830 3B       		.byte	0x3b
 1972 0831 96080000 		.4byte	0x896
 1973 0835 06       		.uleb128 0x6
 1974 0836 10010000 		.4byte	.LASF105
 1975 083a 12       		.byte	0x12
 1976 083b 3C       		.byte	0x3c
 1977 083c 70020000 		.4byte	0x270
ARM GAS  /tmp/ccqZLEFm.s 			page 36


 1978 0840 00       		.byte	0
 1979 0841 06       		.uleb128 0x6
 1980 0842 86030000 		.4byte	.LASF106
 1981 0846 12       		.byte	0x12
 1982 0847 3D       		.byte	0x3d
 1983 0848 19080000 		.4byte	0x819
 1984 084c 08       		.byte	0x8
 1985 084d 06       		.uleb128 0x6
 1986 084e B7010000 		.4byte	.LASF107
 1987 0852 12       		.byte	0x12
 1988 0853 3E       		.byte	0x3e
 1989 0854 1A070000 		.4byte	0x71a
 1990 0858 0C       		.byte	0xc
 1991 0859 06       		.uleb128 0x6
 1992 085a E0060000 		.4byte	.LASF108
 1993 085e 12       		.byte	0x12
 1994 085f 3F       		.byte	0x3f
 1995 0860 1A070000 		.4byte	0x71a
 1996 0864 10       		.byte	0x10
 1997 0865 06       		.uleb128 0x6
 1998 0866 95020000 		.4byte	.LASF109
 1999 086a 12       		.byte	0x12
 2000 086b 41       		.byte	0x41
 2001 086c 1A070000 		.4byte	0x71a
 2002 0870 14       		.byte	0x14
 2003 0871 06       		.uleb128 0x6
 2004 0872 19040000 		.4byte	.LASF110
 2005 0876 12       		.byte	0x12
 2006 0877 42       		.byte	0x42
 2007 0878 1A070000 		.4byte	0x71a
 2008 087c 18       		.byte	0x18
 2009 087d 06       		.uleb128 0x6
 2010 087e F7060000 		.4byte	.LASF111
 2011 0882 12       		.byte	0x12
 2012 0883 43       		.byte	0x43
 2013 0884 96080000 		.4byte	0x896
 2014 0888 1C       		.byte	0x1c
 2015 0889 06       		.uleb128 0x6
 2016 088a 69070000 		.4byte	.LASF112
 2017 088e 12       		.byte	0x12
 2018 088f 44       		.byte	0x44
 2019 0890 23030000 		.4byte	0x323
 2020 0894 20       		.byte	0x20
 2021 0895 00       		.byte	0
 2022 0896 03       		.uleb128 0x3
 2023 0897 0F030000 		.4byte	.LASF113
 2024 089b 12       		.byte	0x12
 2025 089c 31       		.byte	0x31
 2026 089d A1080000 		.4byte	0x8a1
 2027 08a1 0A       		.uleb128 0xa
 2028 08a2 04       		.byte	0x4
 2029 08a3 A7080000 		.4byte	0x8a7
 2030 08a7 0C       		.uleb128 0xc
 2031 08a8 B2080000 		.4byte	0x8b2
 2032 08ac 0D       		.uleb128 0xd
 2033 08ad B2080000 		.4byte	0x8b2
 2034 08b1 00       		.byte	0
ARM GAS  /tmp/ccqZLEFm.s 			page 37


 2035 08b2 0A       		.uleb128 0xa
 2036 08b3 04       		.byte	0x4
 2037 08b4 1E080000 		.4byte	0x81e
 2038 08b8 03       		.uleb128 0x3
 2039 08b9 37030000 		.4byte	.LASF114
 2040 08bd 12       		.byte	0x12
 2041 08be 7A       		.byte	0x7a
 2042 08bf 1E080000 		.4byte	0x81e
 2043 08c3 03       		.uleb128 0x3
 2044 08c4 D1060000 		.4byte	.LASF115
 2045 08c8 12       		.byte	0x12
 2046 08c9 CA       		.byte	0xca
 2047 08ca 1E080000 		.4byte	0x81e
 2048 08ce 18       		.uleb128 0x18
 2049 08cf 01       		.byte	0x1
 2050 08d0 13       		.byte	0x13
 2051 08d1 58       		.byte	0x58
 2052 08d2 E9080000 		.4byte	0x8e9
 2053 08d6 19       		.uleb128 0x19
 2054 08d7 BA040000 		.4byte	.LASF116
 2055 08db 00       		.sleb128 0
 2056 08dc 19       		.uleb128 0x19
 2057 08dd 09040000 		.4byte	.LASF117
 2058 08e1 01       		.sleb128 1
 2059 08e2 19       		.uleb128 0x19
 2060 08e3 B3060000 		.4byte	.LASF118
 2061 08e7 02       		.sleb128 2
 2062 08e8 00       		.byte	0
 2063 08e9 03       		.uleb128 0x3
 2064 08ea F7040000 		.4byte	.LASF119
 2065 08ee 13       		.byte	0x13
 2066 08ef 5C       		.byte	0x5c
 2067 08f0 CE080000 		.4byte	0x8ce
 2068 08f4 03       		.uleb128 0x3
 2069 08f5 17050000 		.4byte	.LASF120
 2070 08f9 13       		.byte	0x13
 2071 08fa 61       		.byte	0x61
 2072 08fb FF080000 		.4byte	0x8ff
 2073 08ff 05       		.uleb128 0x5
 2074 0900 17050000 		.4byte	.LASF120
 2075 0904 7C       		.byte	0x7c
 2076 0905 13       		.byte	0x13
 2077 0906 7B       		.byte	0x7b
 2078 0907 76090000 		.4byte	0x976
 2079 090b 07       		.uleb128 0x7
 2080 090c 766D7400 		.ascii	"vmt\000"
 2081 0910 13       		.byte	0x13
 2082 0911 7D       		.byte	0x7d
 2083 0912 2D0A0000 		.4byte	0xa2d
 2084 0916 00       		.byte	0
 2085 0917 06       		.uleb128 0x6
 2086 0918 7F020000 		.4byte	.LASF121
 2087 091c 13       		.byte	0x13
 2088 091d 7E       		.byte	0x7e
 2089 091e 08070000 		.4byte	0x708
 2090 0922 04       		.byte	0x4
 2091 0923 06       		.uleb128 0x6
ARM GAS  /tmp/ccqZLEFm.s 			page 38


 2092 0924 90010000 		.4byte	.LASF37
 2093 0928 13       		.byte	0x13
 2094 0929 7E       		.byte	0x7e
 2095 092a E9080000 		.4byte	0x8e9
 2096 092e 08       		.byte	0x8
 2097 092f 06       		.uleb128 0x6
 2098 0930 54020000 		.4byte	.LASF122
 2099 0934 13       		.byte	0x13
 2100 0935 7E       		.byte	0x7e
 2101 0936 B8080000 		.4byte	0x8b8
 2102 093a 0C       		.byte	0xc
 2103 093b 06       		.uleb128 0x6
 2104 093c 6E040000 		.4byte	.LASF123
 2105 0940 13       		.byte	0x13
 2106 0941 7E       		.byte	0x7e
 2107 0942 C3080000 		.4byte	0x8c3
 2108 0946 30       		.byte	0x30
 2109 0947 07       		.uleb128 0x7
 2110 0948 696200   		.ascii	"ib\000"
 2111 094b 13       		.byte	0x13
 2112 094c 7E       		.byte	0x7e
 2113 094d 380A0000 		.4byte	0xa38
 2114 0951 54       		.byte	0x54
 2115 0952 07       		.uleb128 0x7
 2116 0953 6F6200   		.ascii	"ob\000"
 2117 0956 13       		.byte	0x13
 2118 0957 7E       		.byte	0x7e
 2119 0958 380A0000 		.4byte	0xa38
 2120 095c 64       		.byte	0x64
 2121 095d 06       		.uleb128 0x6
 2122 095e 22020000 		.4byte	.LASF124
 2123 0962 13       		.byte	0x13
 2124 0963 7E       		.byte	0x7e
 2125 0964 480A0000 		.4byte	0xa48
 2126 0968 74       		.byte	0x74
 2127 0969 06       		.uleb128 0x6
 2128 096a 9E000000 		.4byte	.LASF125
 2129 096e 13       		.byte	0x13
 2130 096f 7E       		.byte	0x7e
 2131 0970 AD000000 		.4byte	0xad
 2132 0974 78       		.byte	0x78
 2133 0975 00       		.byte	0
 2134 0976 10       		.uleb128 0x10
 2135 0977 0C       		.byte	0xc
 2136 0978 14       		.byte	0x14
 2137 0979 0A01     		.2byte	0x10a
 2138 097b B4090000 		.4byte	0x9b4
 2139 097f 09       		.uleb128 0x9
 2140 0980 09030000 		.4byte	.LASF126
 2141 0984 14       		.byte	0x14
 2142 0985 0E01     		.2byte	0x10e
 2143 0987 CE000000 		.4byte	0xce
 2144 098b 00       		.byte	0
 2145 098c 08       		.uleb128 0x8
 2146 098d 63723100 		.ascii	"cr1\000"
 2147 0991 14       		.byte	0x14
 2148 0992 1301     		.2byte	0x113
ARM GAS  /tmp/ccqZLEFm.s 			page 39


 2149 0994 B8000000 		.4byte	0xb8
 2150 0998 04       		.byte	0x4
 2151 0999 08       		.uleb128 0x8
 2152 099a 63723200 		.ascii	"cr2\000"
 2153 099e 14       		.byte	0x14
 2154 099f 1701     		.2byte	0x117
 2155 09a1 B8000000 		.4byte	0xb8
 2156 09a5 06       		.byte	0x6
 2157 09a6 08       		.uleb128 0x8
 2158 09a7 63723300 		.ascii	"cr3\000"
 2159 09ab 14       		.byte	0x14
 2160 09ac 1B01     		.2byte	0x11b
 2161 09ae B8000000 		.4byte	0xb8
 2162 09b2 08       		.byte	0x8
 2163 09b3 00       		.byte	0
 2164 09b4 11       		.uleb128 0x11
 2165 09b5 CF030000 		.4byte	.LASF127
 2166 09b9 14       		.byte	0x14
 2167 09ba 1C01     		.2byte	0x11c
 2168 09bc 76090000 		.4byte	0x976
 2169 09c0 05       		.uleb128 0x5
 2170 09c1 35020000 		.4byte	.LASF128
 2171 09c5 20       		.byte	0x20
 2172 09c6 13       		.byte	0x13
 2173 09c7 70       		.byte	0x70
 2174 09c8 2D0A0000 		.4byte	0xa2d
 2175 09cc 06       		.uleb128 0x6
 2176 09cd 31030000 		.4byte	.LASF129
 2177 09d1 13       		.byte	0x13
 2178 09d2 71       		.byte	0x71
 2179 09d3 44070000 		.4byte	0x744
 2180 09d7 00       		.byte	0
 2181 09d8 06       		.uleb128 0x6
 2182 09d9 D1050000 		.4byte	.LASF130
 2183 09dd 13       		.byte	0x13
 2184 09de 71       		.byte	0x71
 2185 09df 63070000 		.4byte	0x763
 2186 09e3 04       		.byte	0x4
 2187 09e4 07       		.uleb128 0x7
 2188 09e5 70757400 		.ascii	"put\000"
 2189 09e9 13       		.byte	0x13
 2190 09ea 71       		.byte	0x71
 2191 09eb 7D070000 		.4byte	0x77d
 2192 09ef 08       		.byte	0x8
 2193 09f0 07       		.uleb128 0x7
 2194 09f1 67657400 		.ascii	"get\000"
 2195 09f5 13       		.byte	0x13
 2196 09f6 71       		.byte	0x71
 2197 09f7 92070000 		.4byte	0x792
 2198 09fb 0C       		.byte	0xc
 2199 09fc 06       		.uleb128 0x6
 2200 09fd 45030000 		.4byte	.LASF131
 2201 0a01 13       		.byte	0x13
 2202 0a02 71       		.byte	0x71
 2203 0a03 B1070000 		.4byte	0x7b1
 2204 0a07 10       		.byte	0x10
 2205 0a08 06       		.uleb128 0x6
ARM GAS  /tmp/ccqZLEFm.s 			page 40


 2206 0a09 69020000 		.4byte	.LASF132
 2207 0a0d 13       		.byte	0x13
 2208 0a0e 71       		.byte	0x71
 2209 0a0f CB070000 		.4byte	0x7cb
 2210 0a13 14       		.byte	0x14
 2211 0a14 06       		.uleb128 0x6
 2212 0a15 E0020000 		.4byte	.LASF133
 2213 0a19 13       		.byte	0x13
 2214 0a1a 71       		.byte	0x71
 2215 0a1b EF070000 		.4byte	0x7ef
 2216 0a1f 18       		.byte	0x18
 2217 0a20 06       		.uleb128 0x6
 2218 0a21 05010000 		.4byte	.LASF134
 2219 0a25 13       		.byte	0x13
 2220 0a26 71       		.byte	0x71
 2221 0a27 13080000 		.4byte	0x813
 2222 0a2b 1C       		.byte	0x1c
 2223 0a2c 00       		.byte	0
 2224 0a2d 0A       		.uleb128 0xa
 2225 0a2e 04       		.byte	0x4
 2226 0a2f 330A0000 		.4byte	0xa33
 2227 0a33 16       		.uleb128 0x16
 2228 0a34 C0090000 		.4byte	0x9c0
 2229 0a38 1A       		.uleb128 0x1a
 2230 0a39 AD000000 		.4byte	0xad
 2231 0a3d 480A0000 		.4byte	0xa48
 2232 0a41 1B       		.uleb128 0x1b
 2233 0a42 4B040000 		.4byte	0x44b
 2234 0a46 0F       		.byte	0xf
 2235 0a47 00       		.byte	0
 2236 0a48 0A       		.uleb128 0xa
 2237 0a49 04       		.byte	0x4
 2238 0a4a BA040000 		.4byte	0x4ba
 2239 0a4e 1C       		.uleb128 0x1c
 2240 0a4f 68060000 		.4byte	.LASF169
 2241 0a53 02       		.byte	0x2
 2242 0a54 0601     		.2byte	0x106
 2243 0a56 03       		.byte	0x3
 2244 0a57 680A0000 		.4byte	0xa68
 2245 0a5b 1D       		.uleb128 0x1d
 2246 0a5c FE010000 		.4byte	.LASF170
 2247 0a60 02       		.byte	0x2
 2248 0a61 0601     		.2byte	0x106
 2249 0a63 CE000000 		.4byte	0xce
 2250 0a67 00       		.byte	0
 2251 0a68 1E       		.uleb128 0x1e
 2252 0a69 74000000 		.4byte	.LASF135
 2253 0a6d 01       		.byte	0x1
 2254 0a6e 5202     		.2byte	0x252
 2255 0a70 00000000 		.4byte	.LFB127
 2256 0a74 10000000 		.4byte	.LFE127-.LFB127
 2257 0a78 01       		.uleb128 0x1
 2258 0a79 9C       		.byte	0x9c
 2259 0a7a 980A0000 		.4byte	0xa98
 2260 0a7e 1F       		.uleb128 0x1f
 2261 0a7f 4E0A0000 		.4byte	0xa4e
 2262 0a83 06000000 		.4byte	.LBB6
ARM GAS  /tmp/ccqZLEFm.s 			page 41


 2263 0a87 06000000 		.4byte	.LBE6-.LBB6
 2264 0a8b 01       		.byte	0x1
 2265 0a8c 5A02     		.2byte	0x25a
 2266 0a8e 20       		.uleb128 0x20
 2267 0a8f 5B0A0000 		.4byte	0xa5b
 2268 0a93 02       		.uleb128 0x2
 2269 0a94 91       		.byte	0x91
 2270 0a95 7C       		.sleb128 -4
 2271 0a96 00       		.byte	0
 2272 0a97 00       		.byte	0
 2273 0a98 1E       		.uleb128 0x1e
 2274 0a99 74010000 		.4byte	.LASF136
 2275 0a9d 01       		.byte	0x1
 2276 0a9e 6A02     		.2byte	0x26a
 2277 0aa0 10000000 		.4byte	.LFB128
 2278 0aa4 10000000 		.4byte	.LFE128-.LFB128
 2279 0aa8 01       		.uleb128 0x1
 2280 0aa9 9C       		.byte	0x9c
 2281 0aaa C80A0000 		.4byte	0xac8
 2282 0aae 1F       		.uleb128 0x1f
 2283 0aaf 4E0A0000 		.4byte	0xa4e
 2284 0ab3 16000000 		.4byte	.LBB8
 2285 0ab7 06000000 		.4byte	.LBE8-.LBB8
 2286 0abb 01       		.byte	0x1
 2287 0abc 6D02     		.2byte	0x26d
 2288 0abe 20       		.uleb128 0x20
 2289 0abf 5B0A0000 		.4byte	0xa5b
 2290 0ac3 02       		.uleb128 0x2
 2291 0ac4 91       		.byte	0x91
 2292 0ac5 7C       		.sleb128 -4
 2293 0ac6 00       		.byte	0
 2294 0ac7 00       		.byte	0
 2295 0ac8 21       		.uleb128 0x21
 2296 0ac9 7E040000 		.4byte	.LASF139
 2297 0acd 03       		.byte	0x3
 2298 0ace 7601     		.2byte	0x176
 2299 0ad0 20000000 		.4byte	.LFB167
 2300 0ad4 08000000 		.4byte	.LFE167-.LFB167
 2301 0ad8 01       		.uleb128 0x1
 2302 0ad9 9C       		.byte	0x9c
 2303 0ada 22       		.uleb128 0x22
 2304 0adb 46070000 		.4byte	.LASF137
 2305 0adf 03       		.byte	0x3
 2306 0ae0 8201     		.2byte	0x182
 2307 0ae2 30000000 		.4byte	.LFB168
 2308 0ae6 08000000 		.4byte	.LFE168-.LFB168
 2309 0aea 01       		.uleb128 0x1
 2310 0aeb 9C       		.byte	0x9c
 2311 0aec FA0A0000 		.4byte	0xafa
 2312 0af0 23       		.uleb128 0x23
 2313 0af1 75040000 		.4byte	.LASF159
 2314 0af5 0A0B0000 		.4byte	0xb0a
 2315 0af9 00       		.byte	0
 2316 0afa 1A       		.uleb128 0x1a
 2317 0afb 6C060000 		.4byte	0x66c
 2318 0aff 0A0B0000 		.4byte	0xb0a
 2319 0b03 1B       		.uleb128 0x1b
ARM GAS  /tmp/ccqZLEFm.s 			page 42


 2320 0b04 4B040000 		.4byte	0x44b
 2321 0b08 0B       		.byte	0xb
 2322 0b09 00       		.byte	0
 2323 0b0a 16       		.uleb128 0x16
 2324 0b0b FA0A0000 		.4byte	0xafa
 2325 0b0f 24       		.uleb128 0x24
 2326 0b10 85020000 		.4byte	.LASF138
 2327 0b14 04       		.byte	0x4
 2328 0b15 AA       		.byte	0xaa
 2329 0b16 40000000 		.4byte	.LFB223
 2330 0b1a 0E000000 		.4byte	.LFE223-.LFB223
 2331 0b1e 01       		.uleb128 0x1
 2332 0b1f 9C       		.byte	0x9c
 2333 0b20 330B0000 		.4byte	0xb33
 2334 0b24 25       		.uleb128 0x25
 2335 0b25 65737000 		.ascii	"esp\000"
 2336 0b29 04       		.byte	0x4
 2337 0b2a AA       		.byte	0xaa
 2338 0b2b 330B0000 		.4byte	0xb33
 2339 0b2f 02       		.uleb128 0x2
 2340 0b30 91       		.byte	0x91
 2341 0b31 7C       		.sleb128 -4
 2342 0b32 00       		.byte	0
 2343 0b33 0A       		.uleb128 0xa
 2344 0b34 04       		.byte	0x4
 2345 0b35 08070000 		.4byte	0x708
 2346 0b39 21       		.uleb128 0x21
 2347 0b3a EC010000 		.4byte	.LASF140
 2348 0b3e 05       		.byte	0x5
 2349 0b3f EB01     		.2byte	0x1eb
 2350 0b41 50000000 		.4byte	.LFB252
 2351 0b45 08000000 		.4byte	.LFE252-.LFB252
 2352 0b49 01       		.uleb128 0x1
 2353 0b4a 9C       		.byte	0x9c
 2354 0b4b 21       		.uleb128 0x21
 2355 0b4c 88040000 		.4byte	.LASF141
 2356 0b50 05       		.byte	0x5
 2357 0b51 F601     		.2byte	0x1f6
 2358 0b53 60000000 		.4byte	.LFB253
 2359 0b57 08000000 		.4byte	.LFE253-.LFB253
 2360 0b5b 01       		.uleb128 0x1
 2361 0b5c 9C       		.byte	0x9c
 2362 0b5d 21       		.uleb128 0x21
 2363 0b5e E7030000 		.4byte	.LASF142
 2364 0b62 05       		.byte	0x5
 2365 0b63 5602     		.2byte	0x256
 2366 0b65 70000000 		.4byte	.LFB260
 2367 0b69 08000000 		.4byte	.LFE260-.LFB260
 2368 0b6d 01       		.uleb128 0x1
 2369 0b6e 9C       		.byte	0x9c
 2370 0b6f 22       		.uleb128 0x22
 2371 0b70 53010000 		.4byte	.LASF143
 2372 0b74 05       		.byte	0x5
 2373 0b75 3503     		.2byte	0x335
 2374 0b77 80000000 		.4byte	.LFB273
 2375 0b7b 12000000 		.4byte	.LFE273-.LFB273
 2376 0b7f 01       		.uleb128 0x1
ARM GAS  /tmp/ccqZLEFm.s 			page 43


 2377 0b80 9C       		.byte	0x9c
 2378 0b81 950B0000 		.4byte	0xb95
 2379 0b85 26       		.uleb128 0x26
 2380 0b86 65737000 		.ascii	"esp\000"
 2381 0b8a 05       		.byte	0x5
 2382 0b8b 3503     		.2byte	0x335
 2383 0b8d 330B0000 		.4byte	0xb33
 2384 0b91 02       		.uleb128 0x2
 2385 0b92 91       		.byte	0x91
 2386 0b93 74       		.sleb128 -12
 2387 0b94 00       		.byte	0
 2388 0b95 22       		.uleb128 0x22
 2389 0b96 DE040000 		.4byte	.LASF144
 2390 0b9a 05       		.byte	0x5
 2391 0b9b 4903     		.2byte	0x349
 2392 0b9d A0000000 		.4byte	.LFB274
 2393 0ba1 16000000 		.4byte	.LFE274-.LFB274
 2394 0ba5 01       		.uleb128 0x1
 2395 0ba6 9C       		.byte	0x9c
 2396 0ba7 CA0B0000 		.4byte	0xbca
 2397 0bab 26       		.uleb128 0x26
 2398 0bac 65737000 		.ascii	"esp\000"
 2399 0bb0 05       		.byte	0x5
 2400 0bb1 4903     		.2byte	0x349
 2401 0bb3 330B0000 		.4byte	0xb33
 2402 0bb7 02       		.uleb128 0x2
 2403 0bb8 91       		.byte	0x91
 2404 0bb9 74       		.sleb128 -12
 2405 0bba 27       		.uleb128 0x27
 2406 0bbb 1D070000 		.4byte	.LASF38
 2407 0bbf 05       		.byte	0x5
 2408 0bc0 4A03     		.2byte	0x34a
 2409 0bc2 31010000 		.4byte	0x131
 2410 0bc6 02       		.uleb128 0x2
 2411 0bc7 91       		.byte	0x91
 2412 0bc8 70       		.sleb128 -16
 2413 0bc9 00       		.byte	0
 2414 0bca 28       		.uleb128 0x28
 2415 0bcb 2A030000 		.4byte	.LASF145
 2416 0bcf 06       		.byte	0x6
 2417 0bd0 32       		.byte	0x32
 2418 0bd1 2C000000 		.4byte	0x2c
 2419 0bd5 C0000000 		.4byte	.LFB279
 2420 0bd9 26000000 		.4byte	.LFE279-.LFB279
 2421 0bdd 01       		.uleb128 0x1
 2422 0bde 9C       		.byte	0x9c
 2423 0bdf 0A0C0000 		.4byte	0xc0a
 2424 0be3 25       		.uleb128 0x25
 2425 0be4 697000   		.ascii	"ip\000"
 2426 0be7 06       		.byte	0x6
 2427 0be8 32       		.byte	0x32
 2428 0be9 23030000 		.4byte	0x323
 2429 0bed 02       		.uleb128 0x2
 2430 0bee 91       		.byte	0x91
 2431 0bef 74       		.sleb128 -12
 2432 0bf0 25       		.uleb128 0x25
 2433 0bf1 627000   		.ascii	"bp\000"
ARM GAS  /tmp/ccqZLEFm.s 			page 44


 2434 0bf4 06       		.byte	0x6
 2435 0bf5 32       		.byte	0x32
 2436 0bf6 39070000 		.4byte	0x739
 2437 0bfa 02       		.uleb128 0x2
 2438 0bfb 91       		.byte	0x91
 2439 0bfc 70       		.sleb128 -16
 2440 0bfd 25       		.uleb128 0x25
 2441 0bfe 6E00     		.ascii	"n\000"
 2442 0c00 06       		.byte	0x6
 2443 0c01 32       		.byte	0x32
 2444 0c02 2C000000 		.4byte	0x2c
 2445 0c06 02       		.uleb128 0x2
 2446 0c07 91       		.byte	0x91
 2447 0c08 6C       		.sleb128 -20
 2448 0c09 00       		.byte	0
 2449 0c0a 28       		.uleb128 0x28
 2450 0c0b F8010000 		.4byte	.LASF146
 2451 0c0f 06       		.byte	0x6
 2452 0c10 38       		.byte	0x38
 2453 0c11 2C000000 		.4byte	0x2c
 2454 0c15 F0000000 		.4byte	.LFB280
 2455 0c19 26000000 		.4byte	.LFE280-.LFB280
 2456 0c1d 01       		.uleb128 0x1
 2457 0c1e 9C       		.byte	0x9c
 2458 0c1f 4A0C0000 		.4byte	0xc4a
 2459 0c23 25       		.uleb128 0x25
 2460 0c24 697000   		.ascii	"ip\000"
 2461 0c27 06       		.byte	0x6
 2462 0c28 38       		.byte	0x38
 2463 0c29 23030000 		.4byte	0x323
 2464 0c2d 02       		.uleb128 0x2
 2465 0c2e 91       		.byte	0x91
 2466 0c2f 74       		.sleb128 -12
 2467 0c30 25       		.uleb128 0x25
 2468 0c31 627000   		.ascii	"bp\000"
 2469 0c34 06       		.byte	0x6
 2470 0c35 38       		.byte	0x38
 2471 0c36 1A070000 		.4byte	0x71a
 2472 0c3a 02       		.uleb128 0x2
 2473 0c3b 91       		.byte	0x91
 2474 0c3c 70       		.sleb128 -16
 2475 0c3d 25       		.uleb128 0x25
 2476 0c3e 6E00     		.ascii	"n\000"
 2477 0c40 06       		.byte	0x6
 2478 0c41 38       		.byte	0x38
 2479 0c42 2C000000 		.4byte	0x2c
 2480 0c46 02       		.uleb128 0x2
 2481 0c47 91       		.byte	0x91
 2482 0c48 6C       		.sleb128 -20
 2483 0c49 00       		.byte	0
 2484 0c4a 28       		.uleb128 0x28
 2485 0c4b 9D020000 		.4byte	.LASF147
 2486 0c4f 06       		.byte	0x6
 2487 0c50 3E       		.byte	0x3e
 2488 0c51 1B010000 		.4byte	0x11b
 2489 0c55 20010000 		.4byte	.LFB281
 2490 0c59 2C000000 		.4byte	.LFE281-.LFB281
ARM GAS  /tmp/ccqZLEFm.s 			page 45


 2491 0c5d 01       		.uleb128 0x1
 2492 0c5e 9C       		.byte	0x9c
 2493 0c5f 7D0C0000 		.4byte	0xc7d
 2494 0c63 25       		.uleb128 0x25
 2495 0c64 697000   		.ascii	"ip\000"
 2496 0c67 06       		.byte	0x6
 2497 0c68 3E       		.byte	0x3e
 2498 0c69 23030000 		.4byte	0x323
 2499 0c6d 02       		.uleb128 0x2
 2500 0c6e 91       		.byte	0x91
 2501 0c6f 74       		.sleb128 -12
 2502 0c70 25       		.uleb128 0x25
 2503 0c71 6200     		.ascii	"b\000"
 2504 0c73 06       		.byte	0x6
 2505 0c74 3E       		.byte	0x3e
 2506 0c75 AD000000 		.4byte	0xad
 2507 0c79 02       		.uleb128 0x2
 2508 0c7a 91       		.byte	0x91
 2509 0c7b 73       		.sleb128 -13
 2510 0c7c 00       		.byte	0
 2511 0c7d 28       		.uleb128 0x28
 2512 0c7e 23070000 		.4byte	.LASF148
 2513 0c82 06       		.byte	0x6
 2514 0c83 43       		.byte	0x43
 2515 0c84 1B010000 		.4byte	0x11b
 2516 0c88 50010000 		.4byte	.LFB282
 2517 0c8c 1E000000 		.4byte	.LFE282-.LFB282
 2518 0c90 01       		.uleb128 0x1
 2519 0c91 9C       		.byte	0x9c
 2520 0c92 A40C0000 		.4byte	0xca4
 2521 0c96 25       		.uleb128 0x25
 2522 0c97 697000   		.ascii	"ip\000"
 2523 0c9a 06       		.byte	0x6
 2524 0c9b 43       		.byte	0x43
 2525 0c9c 23030000 		.4byte	0x323
 2526 0ca0 02       		.uleb128 0x2
 2527 0ca1 91       		.byte	0x91
 2528 0ca2 74       		.sleb128 -12
 2529 0ca3 00       		.byte	0
 2530 0ca4 28       		.uleb128 0x28
 2531 0ca5 67010000 		.4byte	.LASF149
 2532 0ca9 06       		.byte	0x6
 2533 0caa 48       		.byte	0x48
 2534 0cab 1B010000 		.4byte	0x11b
 2535 0caf 70010000 		.4byte	.LFB283
 2536 0cb3 2C000000 		.4byte	.LFE283-.LFB283
 2537 0cb7 01       		.uleb128 0x1
 2538 0cb8 9C       		.byte	0x9c
 2539 0cb9 E50C0000 		.4byte	0xce5
 2540 0cbd 25       		.uleb128 0x25
 2541 0cbe 697000   		.ascii	"ip\000"
 2542 0cc1 06       		.byte	0x6
 2543 0cc2 48       		.byte	0x48
 2544 0cc3 23030000 		.4byte	0x323
 2545 0cc7 02       		.uleb128 0x2
 2546 0cc8 91       		.byte	0x91
 2547 0cc9 74       		.sleb128 -12
ARM GAS  /tmp/ccqZLEFm.s 			page 46


 2548 0cca 25       		.uleb128 0x25
 2549 0ccb 6200     		.ascii	"b\000"
 2550 0ccd 06       		.byte	0x6
 2551 0cce 48       		.byte	0x48
 2552 0ccf AD000000 		.4byte	0xad
 2553 0cd3 02       		.uleb128 0x2
 2554 0cd4 91       		.byte	0x91
 2555 0cd5 73       		.sleb128 -13
 2556 0cd6 29       		.uleb128 0x29
 2557 0cd7 61020000 		.4byte	.LASF150
 2558 0cdb 06       		.byte	0x6
 2559 0cdc 48       		.byte	0x48
 2560 0cdd 47010000 		.4byte	0x147
 2561 0ce1 02       		.uleb128 0x2
 2562 0ce2 91       		.byte	0x91
 2563 0ce3 6C       		.sleb128 -20
 2564 0ce4 00       		.byte	0
 2565 0ce5 28       		.uleb128 0x28
 2566 0ce6 33000000 		.4byte	.LASF151
 2567 0cea 06       		.byte	0x6
 2568 0ceb 4D       		.byte	0x4d
 2569 0cec 1B010000 		.4byte	0x11b
 2570 0cf0 A0010000 		.4byte	.LFB284
 2571 0cf4 1E000000 		.4byte	.LFE284-.LFB284
 2572 0cf8 01       		.uleb128 0x1
 2573 0cf9 9C       		.byte	0x9c
 2574 0cfa 1A0D0000 		.4byte	0xd1a
 2575 0cfe 25       		.uleb128 0x25
 2576 0cff 697000   		.ascii	"ip\000"
 2577 0d02 06       		.byte	0x6
 2578 0d03 4D       		.byte	0x4d
 2579 0d04 23030000 		.4byte	0x323
 2580 0d08 02       		.uleb128 0x2
 2581 0d09 91       		.byte	0x91
 2582 0d0a 74       		.sleb128 -12
 2583 0d0b 29       		.uleb128 0x29
 2584 0d0c 61020000 		.4byte	.LASF150
 2585 0d10 06       		.byte	0x6
 2586 0d11 4D       		.byte	0x4d
 2587 0d12 47010000 		.4byte	0x147
 2588 0d16 02       		.uleb128 0x2
 2589 0d17 91       		.byte	0x91
 2590 0d18 70       		.sleb128 -16
 2591 0d19 00       		.byte	0
 2592 0d1a 28       		.uleb128 0x28
 2593 0d1b C9060000 		.4byte	.LASF152
 2594 0d1f 06       		.byte	0x6
 2595 0d20 52       		.byte	0x52
 2596 0d21 2C000000 		.4byte	0x2c
 2597 0d25 C0010000 		.4byte	.LFB285
 2598 0d29 26000000 		.4byte	.LFE285-.LFB285
 2599 0d2d 01       		.uleb128 0x1
 2600 0d2e 9C       		.byte	0x9c
 2601 0d2f 680D0000 		.4byte	0xd68
 2602 0d33 25       		.uleb128 0x25
 2603 0d34 697000   		.ascii	"ip\000"
 2604 0d37 06       		.byte	0x6
ARM GAS  /tmp/ccqZLEFm.s 			page 47


 2605 0d38 52       		.byte	0x52
 2606 0d39 23030000 		.4byte	0x323
 2607 0d3d 02       		.uleb128 0x2
 2608 0d3e 91       		.byte	0x91
 2609 0d3f 74       		.sleb128 -12
 2610 0d40 25       		.uleb128 0x25
 2611 0d41 627000   		.ascii	"bp\000"
 2612 0d44 06       		.byte	0x6
 2613 0d45 52       		.byte	0x52
 2614 0d46 39070000 		.4byte	0x739
 2615 0d4a 02       		.uleb128 0x2
 2616 0d4b 91       		.byte	0x91
 2617 0d4c 70       		.sleb128 -16
 2618 0d4d 25       		.uleb128 0x25
 2619 0d4e 6E00     		.ascii	"n\000"
 2620 0d50 06       		.byte	0x6
 2621 0d51 52       		.byte	0x52
 2622 0d52 2C000000 		.4byte	0x2c
 2623 0d56 02       		.uleb128 0x2
 2624 0d57 91       		.byte	0x91
 2625 0d58 6C       		.sleb128 -20
 2626 0d59 29       		.uleb128 0x29
 2627 0d5a 61020000 		.4byte	.LASF150
 2628 0d5e 06       		.byte	0x6
 2629 0d5f 52       		.byte	0x52
 2630 0d60 47010000 		.4byte	0x147
 2631 0d64 02       		.uleb128 0x2
 2632 0d65 91       		.byte	0x91
 2633 0d66 68       		.sleb128 -24
 2634 0d67 00       		.byte	0
 2635 0d68 28       		.uleb128 0x28
 2636 0d69 F1000000 		.4byte	.LASF153
 2637 0d6d 06       		.byte	0x6
 2638 0d6e 57       		.byte	0x57
 2639 0d6f 2C000000 		.4byte	0x2c
 2640 0d73 F0010000 		.4byte	.LFB286
 2641 0d77 26000000 		.4byte	.LFE286-.LFB286
 2642 0d7b 01       		.uleb128 0x1
 2643 0d7c 9C       		.byte	0x9c
 2644 0d7d B60D0000 		.4byte	0xdb6
 2645 0d81 25       		.uleb128 0x25
 2646 0d82 697000   		.ascii	"ip\000"
 2647 0d85 06       		.byte	0x6
 2648 0d86 57       		.byte	0x57
 2649 0d87 23030000 		.4byte	0x323
 2650 0d8b 02       		.uleb128 0x2
 2651 0d8c 91       		.byte	0x91
 2652 0d8d 74       		.sleb128 -12
 2653 0d8e 25       		.uleb128 0x25
 2654 0d8f 627000   		.ascii	"bp\000"
 2655 0d92 06       		.byte	0x6
 2656 0d93 57       		.byte	0x57
 2657 0d94 1A070000 		.4byte	0x71a
 2658 0d98 02       		.uleb128 0x2
 2659 0d99 91       		.byte	0x91
 2660 0d9a 70       		.sleb128 -16
 2661 0d9b 25       		.uleb128 0x25
ARM GAS  /tmp/ccqZLEFm.s 			page 48


 2662 0d9c 6E00     		.ascii	"n\000"
 2663 0d9e 06       		.byte	0x6
 2664 0d9f 57       		.byte	0x57
 2665 0da0 2C000000 		.4byte	0x2c
 2666 0da4 02       		.uleb128 0x2
 2667 0da5 91       		.byte	0x91
 2668 0da6 6C       		.sleb128 -20
 2669 0da7 29       		.uleb128 0x29
 2670 0da8 61020000 		.4byte	.LASF150
 2671 0dac 06       		.byte	0x6
 2672 0dad 57       		.byte	0x57
 2673 0dae 47010000 		.4byte	0x147
 2674 0db2 02       		.uleb128 0x2
 2675 0db3 91       		.byte	0x91
 2676 0db4 68       		.sleb128 -24
 2677 0db5 00       		.byte	0
 2678 0db6 2A       		.uleb128 0x2a
 2679 0db7 62070000 		.4byte	.LASF171
 2680 0dbb 06       		.byte	0x6
 2681 0dbc 6C       		.byte	0x6c
 2682 0dbd 20020000 		.4byte	.LFB287
 2683 0dc1 08000000 		.4byte	.LFE287-.LFB287
 2684 0dc5 01       		.uleb128 0x1
 2685 0dc6 9C       		.byte	0x9c
 2686 0dc7 2B       		.uleb128 0x2b
 2687 0dc8 F8000000 		.4byte	.LASF156
 2688 0dcc 06       		.byte	0x6
 2689 0dcd 83       		.byte	0x83
 2690 0dce 30020000 		.4byte	.LFB288
 2691 0dd2 64000000 		.4byte	.LFE288-.LFB288
 2692 0dd6 01       		.uleb128 0x1
 2693 0dd7 9C       		.byte	0x9c
 2694 0dd8 070E0000 		.4byte	0xe07
 2695 0ddc 25       		.uleb128 0x25
 2696 0ddd 73647000 		.ascii	"sdp\000"
 2697 0de1 06       		.byte	0x6
 2698 0de2 83       		.byte	0x83
 2699 0de3 070E0000 		.4byte	0xe07
 2700 0de7 02       		.uleb128 0x2
 2701 0de8 91       		.byte	0x91
 2702 0de9 74       		.sleb128 -12
 2703 0dea 29       		.uleb128 0x29
 2704 0deb 45020000 		.4byte	.LASF154
 2705 0def 06       		.byte	0x6
 2706 0df0 83       		.byte	0x83
 2707 0df1 96080000 		.4byte	0x896
 2708 0df5 02       		.uleb128 0x2
 2709 0df6 91       		.byte	0x91
 2710 0df7 70       		.sleb128 -16
 2711 0df8 29       		.uleb128 0x29
 2712 0df9 28070000 		.4byte	.LASF155
 2713 0dfd 06       		.byte	0x6
 2714 0dfe 83       		.byte	0x83
 2715 0dff 96080000 		.4byte	0x896
 2716 0e03 02       		.uleb128 0x2
 2717 0e04 91       		.byte	0x91
 2718 0e05 6C       		.sleb128 -20
ARM GAS  /tmp/ccqZLEFm.s 			page 49


 2719 0e06 00       		.byte	0
 2720 0e07 0A       		.uleb128 0xa
 2721 0e08 04       		.byte	0x4
 2722 0e09 F4080000 		.4byte	0x8f4
 2723 0e0d 2B       		.uleb128 0x2b
 2724 0e0e F8050000 		.4byte	.LASF157
 2725 0e12 06       		.byte	0x6
 2726 0e13 9E       		.byte	0x9e
 2727 0e14 A0020000 		.4byte	.LFB289
 2728 0e18 24000000 		.4byte	.LFE289-.LFB289
 2729 0e1c 01       		.uleb128 0x1
 2730 0e1d 9C       		.byte	0x9c
 2731 0e1e 480E0000 		.4byte	0xe48
 2732 0e22 25       		.uleb128 0x25
 2733 0e23 73647000 		.ascii	"sdp\000"
 2734 0e27 06       		.byte	0x6
 2735 0e28 9E       		.byte	0x9e
 2736 0e29 070E0000 		.4byte	0xe07
 2737 0e2d 02       		.uleb128 0x2
 2738 0e2e 91       		.byte	0x91
 2739 0e2f 74       		.sleb128 -12
 2740 0e30 29       		.uleb128 0x29
 2741 0e31 F1050000 		.4byte	.LASF158
 2742 0e35 06       		.byte	0x6
 2743 0e36 9E       		.byte	0x9e
 2744 0e37 480E0000 		.4byte	0xe48
 2745 0e3b 02       		.uleb128 0x2
 2746 0e3c 91       		.byte	0x91
 2747 0e3d 70       		.sleb128 -16
 2748 0e3e 23       		.uleb128 0x23
 2749 0e3f 75040000 		.4byte	.LASF159
 2750 0e43 630E0000 		.4byte	0xe63
 2751 0e47 00       		.byte	0
 2752 0e48 0A       		.uleb128 0xa
 2753 0e49 04       		.byte	0x4
 2754 0e4a 4E0E0000 		.4byte	0xe4e
 2755 0e4e 16       		.uleb128 0x16
 2756 0e4f B4090000 		.4byte	0x9b4
 2757 0e53 1A       		.uleb128 0x1a
 2758 0e54 6C060000 		.4byte	0x66c
 2759 0e58 630E0000 		.4byte	0xe63
 2760 0e5c 1B       		.uleb128 0x1b
 2761 0e5d 4B040000 		.4byte	0x44b
 2762 0e61 07       		.byte	0x7
 2763 0e62 00       		.byte	0
 2764 0e63 16       		.uleb128 0x16
 2765 0e64 530E0000 		.4byte	0xe53
 2766 0e68 2B       		.uleb128 0x2b
 2767 0e69 BB030000 		.4byte	.LASF160
 2768 0e6d 06       		.byte	0x6
 2769 0e6e B3       		.byte	0xb3
 2770 0e6f D0020000 		.4byte	.LFB290
 2771 0e73 38000000 		.4byte	.LFE290-.LFB290
 2772 0e77 01       		.uleb128 0x1
 2773 0e78 9C       		.byte	0x9c
 2774 0e79 950E0000 		.4byte	0xe95
 2775 0e7d 25       		.uleb128 0x25
ARM GAS  /tmp/ccqZLEFm.s 			page 50


 2776 0e7e 73647000 		.ascii	"sdp\000"
 2777 0e82 06       		.byte	0x6
 2778 0e83 B3       		.byte	0xb3
 2779 0e84 070E0000 		.4byte	0xe07
 2780 0e88 02       		.uleb128 0x2
 2781 0e89 91       		.byte	0x91
 2782 0e8a 74       		.sleb128 -12
 2783 0e8b 23       		.uleb128 0x23
 2784 0e8c 75040000 		.4byte	.LASF159
 2785 0e90 A50E0000 		.4byte	0xea5
 2786 0e94 00       		.byte	0
 2787 0e95 1A       		.uleb128 0x1a
 2788 0e96 6C060000 		.4byte	0x66c
 2789 0e9a A50E0000 		.4byte	0xea5
 2790 0e9e 1B       		.uleb128 0x1b
 2791 0e9f 4B040000 		.4byte	0x44b
 2792 0ea3 06       		.byte	0x6
 2793 0ea4 00       		.byte	0
 2794 0ea5 16       		.uleb128 0x16
 2795 0ea6 950E0000 		.4byte	0xe95
 2796 0eaa 2B       		.uleb128 0x2b
 2797 0eab E1050000 		.4byte	.LASF161
 2798 0eaf 06       		.byte	0x6
 2799 0eb0 D5       		.byte	0xd5
 2800 0eb1 10030000 		.4byte	.LFB291
 2801 0eb5 4C000000 		.4byte	.LFE291-.LFB291
 2802 0eb9 01       		.uleb128 0x1
 2803 0eba 9C       		.byte	0x9c
 2804 0ebb E30E0000 		.4byte	0xee3
 2805 0ebf 25       		.uleb128 0x25
 2806 0ec0 73647000 		.ascii	"sdp\000"
 2807 0ec4 06       		.byte	0x6
 2808 0ec5 D5       		.byte	0xd5
 2809 0ec6 070E0000 		.4byte	0xe07
 2810 0eca 02       		.uleb128 0x2
 2811 0ecb 91       		.byte	0x91
 2812 0ecc 74       		.sleb128 -12
 2813 0ecd 25       		.uleb128 0x25
 2814 0ece 6200     		.ascii	"b\000"
 2815 0ed0 06       		.byte	0x6
 2816 0ed1 D5       		.byte	0xd5
 2817 0ed2 AD000000 		.4byte	0xad
 2818 0ed6 02       		.uleb128 0x2
 2819 0ed7 91       		.byte	0x91
 2820 0ed8 73       		.sleb128 -13
 2821 0ed9 23       		.uleb128 0x23
 2822 0eda 75040000 		.4byte	.LASF159
 2823 0ede F30E0000 		.4byte	0xef3
 2824 0ee2 00       		.byte	0
 2825 0ee3 1A       		.uleb128 0x1a
 2826 0ee4 6C060000 		.4byte	0x66c
 2827 0ee8 F30E0000 		.4byte	0xef3
 2828 0eec 1B       		.uleb128 0x1b
 2829 0eed 4B040000 		.4byte	0x44b
 2830 0ef1 0F       		.byte	0xf
 2831 0ef2 00       		.byte	0
 2832 0ef3 16       		.uleb128 0x16
ARM GAS  /tmp/ccqZLEFm.s 			page 51


 2833 0ef4 E30E0000 		.4byte	0xee3
 2834 0ef8 2C       		.uleb128 0x2c
 2835 0ef9 06070000 		.4byte	.LASF162
 2836 0efd 06       		.byte	0x6
 2837 0efe EF       		.byte	0xef
 2838 0eff 1B010000 		.4byte	0x11b
 2839 0f03 60030000 		.4byte	.LFB292
 2840 0f07 2E000000 		.4byte	.LFE292-.LFB292
 2841 0f0b 01       		.uleb128 0x1
 2842 0f0c 9C       		.byte	0x9c
 2843 0f0d 350F0000 		.4byte	0xf35
 2844 0f11 25       		.uleb128 0x25
 2845 0f12 73647000 		.ascii	"sdp\000"
 2846 0f16 06       		.byte	0x6
 2847 0f17 EF       		.byte	0xef
 2848 0f18 070E0000 		.4byte	0xe07
 2849 0f1c 02       		.uleb128 0x2
 2850 0f1d 91       		.byte	0x91
 2851 0f1e 6C       		.sleb128 -20
 2852 0f1f 2D       		.uleb128 0x2d
 2853 0f20 6200     		.ascii	"b\000"
 2854 0f22 06       		.byte	0x6
 2855 0f23 F0       		.byte	0xf0
 2856 0f24 1B010000 		.4byte	0x11b
 2857 0f28 02       		.uleb128 0x2
 2858 0f29 91       		.byte	0x91
 2859 0f2a 74       		.sleb128 -12
 2860 0f2b 23       		.uleb128 0x23
 2861 0f2c 75040000 		.4byte	.LASF159
 2862 0f30 450F0000 		.4byte	0xf45
 2863 0f34 00       		.byte	0
 2864 0f35 1A       		.uleb128 0x1a
 2865 0f36 6C060000 		.4byte	0x66c
 2866 0f3a 450F0000 		.4byte	0xf45
 2867 0f3e 1B       		.uleb128 0x1b
 2868 0f3f 4B040000 		.4byte	0x44b
 2869 0f43 0E       		.byte	0xe
 2870 0f44 00       		.byte	0
 2871 0f45 16       		.uleb128 0x16
 2872 0f46 350F0000 		.4byte	0xf35
 2873 0f4a 2E       		.uleb128 0x2e
 2874 0f4b 1A000000 		.4byte	.LASF163
 2875 0f4f 06       		.byte	0x6
 2876 0f50 0A01     		.2byte	0x10a
 2877 0f52 13070000 		.4byte	0x713
 2878 0f56 90030000 		.4byte	.LFB293
 2879 0f5a 2A000000 		.4byte	.LFE293-.LFB293
 2880 0f5e 01       		.uleb128 0x1
 2881 0f5f 9C       		.byte	0x9c
 2882 0f60 810F0000 		.4byte	0xf81
 2883 0f64 26       		.uleb128 0x26
 2884 0f65 73647000 		.ascii	"sdp\000"
 2885 0f69 06       		.byte	0x6
 2886 0f6a 0A01     		.2byte	0x10a
 2887 0f6c 070E0000 		.4byte	0xe07
 2888 0f70 02       		.uleb128 0x2
 2889 0f71 91       		.byte	0x91
ARM GAS  /tmp/ccqZLEFm.s 			page 52


 2890 0f72 6C       		.sleb128 -20
 2891 0f73 2F       		.uleb128 0x2f
 2892 0f74 6200     		.ascii	"b\000"
 2893 0f76 06       		.byte	0x6
 2894 0f77 0B01     		.2byte	0x10b
 2895 0f79 13070000 		.4byte	0x713
 2896 0f7d 02       		.uleb128 0x2
 2897 0f7e 91       		.byte	0x91
 2898 0f7f 77       		.sleb128 -9
 2899 0f80 00       		.byte	0
 2900 0f81 2E       		.uleb128 0x2e
 2901 0f82 52070000 		.4byte	.LASF164
 2902 0f86 06       		.byte	0x6
 2903 0f87 2301     		.2byte	0x123
 2904 0f89 13070000 		.4byte	0x713
 2905 0f8d C0030000 		.4byte	.LFB294
 2906 0f91 2A000000 		.4byte	.LFE294-.LFB294
 2907 0f95 01       		.uleb128 0x1
 2908 0f96 9C       		.byte	0x9c
 2909 0f97 B80F0000 		.4byte	0xfb8
 2910 0f9b 26       		.uleb128 0x26
 2911 0f9c 73647000 		.ascii	"sdp\000"
 2912 0fa0 06       		.byte	0x6
 2913 0fa1 2301     		.2byte	0x123
 2914 0fa3 070E0000 		.4byte	0xe07
 2915 0fa7 02       		.uleb128 0x2
 2916 0fa8 91       		.byte	0x91
 2917 0fa9 6C       		.sleb128 -20
 2918 0faa 2F       		.uleb128 0x2f
 2919 0fab 6200     		.ascii	"b\000"
 2920 0fad 06       		.byte	0x6
 2921 0fae 2401     		.2byte	0x124
 2922 0fb0 13070000 		.4byte	0x713
 2923 0fb4 02       		.uleb128 0x2
 2924 0fb5 91       		.byte	0x91
 2925 0fb6 77       		.sleb128 -9
 2926 0fb7 00       		.byte	0
 2927 0fb8 2D       		.uleb128 0x2d
 2928 0fb9 766D7400 		.ascii	"vmt\000"
 2929 0fbd 06       		.byte	0x6
 2930 0fbe 5C       		.byte	0x5c
 2931 0fbf 330A0000 		.4byte	0xa33
 2932 0fc3 05       		.uleb128 0x5
 2933 0fc4 03       		.byte	0x3
 2934 0fc5 00000000 		.4byte	vmt
 2935 0fc9 30       		.uleb128 0x30
 2936 0fca C3000000 		.4byte	.LASF165
 2937 0fce 15       		.byte	0x15
 2938 0fcf 4407     		.2byte	0x744
 2939 0fd1 D50F0000 		.4byte	0xfd5
 2940 0fd5 0F       		.uleb128 0xf
 2941 0fd6 C3000000 		.4byte	0xc3
 2942 0fda 31       		.uleb128 0x31
 2943 0fdb 636800   		.ascii	"ch\000"
 2944 0fde 0C       		.byte	0xc
 2945 0fdf D201     		.2byte	0x1d2
 2946 0fe1 F2030000 		.4byte	0x3f2
ARM GAS  /tmp/ccqZLEFm.s 			page 53


 2947 0fe5 00       		.byte	0
 2948              		.section	.debug_abbrev,"",%progbits
 2949              	.Ldebug_abbrev0:
 2950 0000 01       		.uleb128 0x1
 2951 0001 11       		.uleb128 0x11
 2952 0002 01       		.byte	0x1
 2953 0003 25       		.uleb128 0x25
 2954 0004 0E       		.uleb128 0xe
 2955 0005 13       		.uleb128 0x13
 2956 0006 0B       		.uleb128 0xb
 2957 0007 03       		.uleb128 0x3
 2958 0008 0E       		.uleb128 0xe
 2959 0009 1B       		.uleb128 0x1b
 2960 000a 0E       		.uleb128 0xe
 2961 000b 11       		.uleb128 0x11
 2962 000c 01       		.uleb128 0x1
 2963 000d 12       		.uleb128 0x12
 2964 000e 06       		.uleb128 0x6
 2965 000f 10       		.uleb128 0x10
 2966 0010 17       		.uleb128 0x17
 2967 0011 00       		.byte	0
 2968 0012 00       		.byte	0
 2969 0013 02       		.uleb128 0x2
 2970 0014 24       		.uleb128 0x24
 2971 0015 00       		.byte	0
 2972 0016 0B       		.uleb128 0xb
 2973 0017 0B       		.uleb128 0xb
 2974 0018 3E       		.uleb128 0x3e
 2975 0019 0B       		.uleb128 0xb
 2976 001a 03       		.uleb128 0x3
 2977 001b 08       		.uleb128 0x8
 2978 001c 00       		.byte	0
 2979 001d 00       		.byte	0
 2980 001e 03       		.uleb128 0x3
 2981 001f 16       		.uleb128 0x16
 2982 0020 00       		.byte	0
 2983 0021 03       		.uleb128 0x3
 2984 0022 0E       		.uleb128 0xe
 2985 0023 3A       		.uleb128 0x3a
 2986 0024 0B       		.uleb128 0xb
 2987 0025 3B       		.uleb128 0x3b
 2988 0026 0B       		.uleb128 0xb
 2989 0027 49       		.uleb128 0x49
 2990 0028 13       		.uleb128 0x13
 2991 0029 00       		.byte	0
 2992 002a 00       		.byte	0
 2993 002b 04       		.uleb128 0x4
 2994 002c 24       		.uleb128 0x24
 2995 002d 00       		.byte	0
 2996 002e 0B       		.uleb128 0xb
 2997 002f 0B       		.uleb128 0xb
 2998 0030 3E       		.uleb128 0x3e
 2999 0031 0B       		.uleb128 0xb
 3000 0032 03       		.uleb128 0x3
 3001 0033 0E       		.uleb128 0xe
 3002 0034 00       		.byte	0
 3003 0035 00       		.byte	0
ARM GAS  /tmp/ccqZLEFm.s 			page 54


 3004 0036 05       		.uleb128 0x5
 3005 0037 13       		.uleb128 0x13
 3006 0038 01       		.byte	0x1
 3007 0039 03       		.uleb128 0x3
 3008 003a 0E       		.uleb128 0xe
 3009 003b 0B       		.uleb128 0xb
 3010 003c 0B       		.uleb128 0xb
 3011 003d 3A       		.uleb128 0x3a
 3012 003e 0B       		.uleb128 0xb
 3013 003f 3B       		.uleb128 0x3b
 3014 0040 0B       		.uleb128 0xb
 3015 0041 01       		.uleb128 0x1
 3016 0042 13       		.uleb128 0x13
 3017 0043 00       		.byte	0
 3018 0044 00       		.byte	0
 3019 0045 06       		.uleb128 0x6
 3020 0046 0D       		.uleb128 0xd
 3021 0047 00       		.byte	0
 3022 0048 03       		.uleb128 0x3
 3023 0049 0E       		.uleb128 0xe
 3024 004a 3A       		.uleb128 0x3a
 3025 004b 0B       		.uleb128 0xb
 3026 004c 3B       		.uleb128 0x3b
 3027 004d 0B       		.uleb128 0xb
 3028 004e 49       		.uleb128 0x49
 3029 004f 13       		.uleb128 0x13
 3030 0050 38       		.uleb128 0x38
 3031 0051 0B       		.uleb128 0xb
 3032 0052 00       		.byte	0
 3033 0053 00       		.byte	0
 3034 0054 07       		.uleb128 0x7
 3035 0055 0D       		.uleb128 0xd
 3036 0056 00       		.byte	0
 3037 0057 03       		.uleb128 0x3
 3038 0058 08       		.uleb128 0x8
 3039 0059 3A       		.uleb128 0x3a
 3040 005a 0B       		.uleb128 0xb
 3041 005b 3B       		.uleb128 0x3b
 3042 005c 0B       		.uleb128 0xb
 3043 005d 49       		.uleb128 0x49
 3044 005e 13       		.uleb128 0x13
 3045 005f 38       		.uleb128 0x38
 3046 0060 0B       		.uleb128 0xb
 3047 0061 00       		.byte	0
 3048 0062 00       		.byte	0
 3049 0063 08       		.uleb128 0x8
 3050 0064 0D       		.uleb128 0xd
 3051 0065 00       		.byte	0
 3052 0066 03       		.uleb128 0x3
 3053 0067 08       		.uleb128 0x8
 3054 0068 3A       		.uleb128 0x3a
 3055 0069 0B       		.uleb128 0xb
 3056 006a 3B       		.uleb128 0x3b
 3057 006b 05       		.uleb128 0x5
 3058 006c 49       		.uleb128 0x49
 3059 006d 13       		.uleb128 0x13
 3060 006e 38       		.uleb128 0x38
ARM GAS  /tmp/ccqZLEFm.s 			page 55


 3061 006f 0B       		.uleb128 0xb
 3062 0070 00       		.byte	0
 3063 0071 00       		.byte	0
 3064 0072 09       		.uleb128 0x9
 3065 0073 0D       		.uleb128 0xd
 3066 0074 00       		.byte	0
 3067 0075 03       		.uleb128 0x3
 3068 0076 0E       		.uleb128 0xe
 3069 0077 3A       		.uleb128 0x3a
 3070 0078 0B       		.uleb128 0xb
 3071 0079 3B       		.uleb128 0x3b
 3072 007a 05       		.uleb128 0x5
 3073 007b 49       		.uleb128 0x49
 3074 007c 13       		.uleb128 0x13
 3075 007d 38       		.uleb128 0x38
 3076 007e 0B       		.uleb128 0xb
 3077 007f 00       		.byte	0
 3078 0080 00       		.byte	0
 3079 0081 0A       		.uleb128 0xa
 3080 0082 0F       		.uleb128 0xf
 3081 0083 00       		.byte	0
 3082 0084 0B       		.uleb128 0xb
 3083 0085 0B       		.uleb128 0xb
 3084 0086 49       		.uleb128 0x49
 3085 0087 13       		.uleb128 0x13
 3086 0088 00       		.byte	0
 3087 0089 00       		.byte	0
 3088 008a 0B       		.uleb128 0xb
 3089 008b 13       		.uleb128 0x13
 3090 008c 01       		.byte	0x1
 3091 008d 03       		.uleb128 0x3
 3092 008e 0E       		.uleb128 0xe
 3093 008f 0B       		.uleb128 0xb
 3094 0090 0B       		.uleb128 0xb
 3095 0091 3A       		.uleb128 0x3a
 3096 0092 0B       		.uleb128 0xb
 3097 0093 3B       		.uleb128 0x3b
 3098 0094 05       		.uleb128 0x5
 3099 0095 01       		.uleb128 0x1
 3100 0096 13       		.uleb128 0x13
 3101 0097 00       		.byte	0
 3102 0098 00       		.byte	0
 3103 0099 0C       		.uleb128 0xc
 3104 009a 15       		.uleb128 0x15
 3105 009b 01       		.byte	0x1
 3106 009c 27       		.uleb128 0x27
 3107 009d 19       		.uleb128 0x19
 3108 009e 01       		.uleb128 0x1
 3109 009f 13       		.uleb128 0x13
 3110 00a0 00       		.byte	0
 3111 00a1 00       		.byte	0
 3112 00a2 0D       		.uleb128 0xd
 3113 00a3 05       		.uleb128 0x5
 3114 00a4 00       		.byte	0
 3115 00a5 49       		.uleb128 0x49
 3116 00a6 13       		.uleb128 0x13
 3117 00a7 00       		.byte	0
ARM GAS  /tmp/ccqZLEFm.s 			page 56


 3118 00a8 00       		.byte	0
 3119 00a9 0E       		.uleb128 0xe
 3120 00aa 0F       		.uleb128 0xf
 3121 00ab 00       		.byte	0
 3122 00ac 0B       		.uleb128 0xb
 3123 00ad 0B       		.uleb128 0xb
 3124 00ae 00       		.byte	0
 3125 00af 00       		.byte	0
 3126 00b0 0F       		.uleb128 0xf
 3127 00b1 35       		.uleb128 0x35
 3128 00b2 00       		.byte	0
 3129 00b3 49       		.uleb128 0x49
 3130 00b4 13       		.uleb128 0x13
 3131 00b5 00       		.byte	0
 3132 00b6 00       		.byte	0
 3133 00b7 10       		.uleb128 0x10
 3134 00b8 13       		.uleb128 0x13
 3135 00b9 01       		.byte	0x1
 3136 00ba 0B       		.uleb128 0xb
 3137 00bb 0B       		.uleb128 0xb
 3138 00bc 3A       		.uleb128 0x3a
 3139 00bd 0B       		.uleb128 0xb
 3140 00be 3B       		.uleb128 0x3b
 3141 00bf 05       		.uleb128 0x5
 3142 00c0 01       		.uleb128 0x1
 3143 00c1 13       		.uleb128 0x13
 3144 00c2 00       		.byte	0
 3145 00c3 00       		.byte	0
 3146 00c4 11       		.uleb128 0x11
 3147 00c5 16       		.uleb128 0x16
 3148 00c6 00       		.byte	0
 3149 00c7 03       		.uleb128 0x3
 3150 00c8 0E       		.uleb128 0xe
 3151 00c9 3A       		.uleb128 0x3a
 3152 00ca 0B       		.uleb128 0xb
 3153 00cb 3B       		.uleb128 0x3b
 3154 00cc 05       		.uleb128 0x5
 3155 00cd 49       		.uleb128 0x49
 3156 00ce 13       		.uleb128 0x13
 3157 00cf 00       		.byte	0
 3158 00d0 00       		.byte	0
 3159 00d1 12       		.uleb128 0x12
 3160 00d2 13       		.uleb128 0x13
 3161 00d3 01       		.byte	0x1
 3162 00d4 0B       		.uleb128 0xb
 3163 00d5 0B       		.uleb128 0xb
 3164 00d6 3A       		.uleb128 0x3a
 3165 00d7 0B       		.uleb128 0xb
 3166 00d8 3B       		.uleb128 0x3b
 3167 00d9 0B       		.uleb128 0xb
 3168 00da 01       		.uleb128 0x1
 3169 00db 13       		.uleb128 0x13
 3170 00dc 00       		.byte	0
 3171 00dd 00       		.byte	0
 3172 00de 13       		.uleb128 0x13
 3173 00df 17       		.uleb128 0x17
 3174 00e0 01       		.byte	0x1
ARM GAS  /tmp/ccqZLEFm.s 			page 57


 3175 00e1 0B       		.uleb128 0xb
 3176 00e2 0B       		.uleb128 0xb
 3177 00e3 3A       		.uleb128 0x3a
 3178 00e4 0B       		.uleb128 0xb
 3179 00e5 3B       		.uleb128 0x3b
 3180 00e6 0B       		.uleb128 0xb
 3181 00e7 01       		.uleb128 0x1
 3182 00e8 13       		.uleb128 0x13
 3183 00e9 00       		.byte	0
 3184 00ea 00       		.byte	0
 3185 00eb 14       		.uleb128 0x14
 3186 00ec 0D       		.uleb128 0xd
 3187 00ed 00       		.byte	0
 3188 00ee 03       		.uleb128 0x3
 3189 00ef 0E       		.uleb128 0xe
 3190 00f0 3A       		.uleb128 0x3a
 3191 00f1 0B       		.uleb128 0xb
 3192 00f2 3B       		.uleb128 0x3b
 3193 00f3 0B       		.uleb128 0xb
 3194 00f4 49       		.uleb128 0x49
 3195 00f5 13       		.uleb128 0x13
 3196 00f6 00       		.byte	0
 3197 00f7 00       		.byte	0
 3198 00f8 15       		.uleb128 0x15
 3199 00f9 0D       		.uleb128 0xd
 3200 00fa 00       		.byte	0
 3201 00fb 03       		.uleb128 0x3
 3202 00fc 0E       		.uleb128 0xe
 3203 00fd 3A       		.uleb128 0x3a
 3204 00fe 0B       		.uleb128 0xb
 3205 00ff 3B       		.uleb128 0x3b
 3206 0100 05       		.uleb128 0x5
 3207 0101 49       		.uleb128 0x49
 3208 0102 13       		.uleb128 0x13
 3209 0103 00       		.byte	0
 3210 0104 00       		.byte	0
 3211 0105 16       		.uleb128 0x16
 3212 0106 26       		.uleb128 0x26
 3213 0107 00       		.byte	0
 3214 0108 49       		.uleb128 0x49
 3215 0109 13       		.uleb128 0x13
 3216 010a 00       		.byte	0
 3217 010b 00       		.byte	0
 3218 010c 17       		.uleb128 0x17
 3219 010d 15       		.uleb128 0x15
 3220 010e 01       		.byte	0x1
 3221 010f 27       		.uleb128 0x27
 3222 0110 19       		.uleb128 0x19
 3223 0111 49       		.uleb128 0x49
 3224 0112 13       		.uleb128 0x13
 3225 0113 01       		.uleb128 0x1
 3226 0114 13       		.uleb128 0x13
 3227 0115 00       		.byte	0
 3228 0116 00       		.byte	0
 3229 0117 18       		.uleb128 0x18
 3230 0118 04       		.uleb128 0x4
 3231 0119 01       		.byte	0x1
ARM GAS  /tmp/ccqZLEFm.s 			page 58


 3232 011a 0B       		.uleb128 0xb
 3233 011b 0B       		.uleb128 0xb
 3234 011c 3A       		.uleb128 0x3a
 3235 011d 0B       		.uleb128 0xb
 3236 011e 3B       		.uleb128 0x3b
 3237 011f 0B       		.uleb128 0xb
 3238 0120 01       		.uleb128 0x1
 3239 0121 13       		.uleb128 0x13
 3240 0122 00       		.byte	0
 3241 0123 00       		.byte	0
 3242 0124 19       		.uleb128 0x19
 3243 0125 28       		.uleb128 0x28
 3244 0126 00       		.byte	0
 3245 0127 03       		.uleb128 0x3
 3246 0128 0E       		.uleb128 0xe
 3247 0129 1C       		.uleb128 0x1c
 3248 012a 0D       		.uleb128 0xd
 3249 012b 00       		.byte	0
 3250 012c 00       		.byte	0
 3251 012d 1A       		.uleb128 0x1a
 3252 012e 01       		.uleb128 0x1
 3253 012f 01       		.byte	0x1
 3254 0130 49       		.uleb128 0x49
 3255 0131 13       		.uleb128 0x13
 3256 0132 01       		.uleb128 0x1
 3257 0133 13       		.uleb128 0x13
 3258 0134 00       		.byte	0
 3259 0135 00       		.byte	0
 3260 0136 1B       		.uleb128 0x1b
 3261 0137 21       		.uleb128 0x21
 3262 0138 00       		.byte	0
 3263 0139 49       		.uleb128 0x49
 3264 013a 13       		.uleb128 0x13
 3265 013b 2F       		.uleb128 0x2f
 3266 013c 0B       		.uleb128 0xb
 3267 013d 00       		.byte	0
 3268 013e 00       		.byte	0
 3269 013f 1C       		.uleb128 0x1c
 3270 0140 2E       		.uleb128 0x2e
 3271 0141 01       		.byte	0x1
 3272 0142 03       		.uleb128 0x3
 3273 0143 0E       		.uleb128 0xe
 3274 0144 3A       		.uleb128 0x3a
 3275 0145 0B       		.uleb128 0xb
 3276 0146 3B       		.uleb128 0x3b
 3277 0147 05       		.uleb128 0x5
 3278 0148 27       		.uleb128 0x27
 3279 0149 19       		.uleb128 0x19
 3280 014a 20       		.uleb128 0x20
 3281 014b 0B       		.uleb128 0xb
 3282 014c 01       		.uleb128 0x1
 3283 014d 13       		.uleb128 0x13
 3284 014e 00       		.byte	0
 3285 014f 00       		.byte	0
 3286 0150 1D       		.uleb128 0x1d
 3287 0151 05       		.uleb128 0x5
 3288 0152 00       		.byte	0
ARM GAS  /tmp/ccqZLEFm.s 			page 59


 3289 0153 03       		.uleb128 0x3
 3290 0154 0E       		.uleb128 0xe
 3291 0155 3A       		.uleb128 0x3a
 3292 0156 0B       		.uleb128 0xb
 3293 0157 3B       		.uleb128 0x3b
 3294 0158 05       		.uleb128 0x5
 3295 0159 49       		.uleb128 0x49
 3296 015a 13       		.uleb128 0x13
 3297 015b 00       		.byte	0
 3298 015c 00       		.byte	0
 3299 015d 1E       		.uleb128 0x1e
 3300 015e 2E       		.uleb128 0x2e
 3301 015f 01       		.byte	0x1
 3302 0160 03       		.uleb128 0x3
 3303 0161 0E       		.uleb128 0xe
 3304 0162 3A       		.uleb128 0x3a
 3305 0163 0B       		.uleb128 0xb
 3306 0164 3B       		.uleb128 0x3b
 3307 0165 05       		.uleb128 0x5
 3308 0166 27       		.uleb128 0x27
 3309 0167 19       		.uleb128 0x19
 3310 0168 11       		.uleb128 0x11
 3311 0169 01       		.uleb128 0x1
 3312 016a 12       		.uleb128 0x12
 3313 016b 06       		.uleb128 0x6
 3314 016c 40       		.uleb128 0x40
 3315 016d 18       		.uleb128 0x18
 3316 016e 9742     		.uleb128 0x2117
 3317 0170 19       		.uleb128 0x19
 3318 0171 01       		.uleb128 0x1
 3319 0172 13       		.uleb128 0x13
 3320 0173 00       		.byte	0
 3321 0174 00       		.byte	0
 3322 0175 1F       		.uleb128 0x1f
 3323 0176 1D       		.uleb128 0x1d
 3324 0177 01       		.byte	0x1
 3325 0178 31       		.uleb128 0x31
 3326 0179 13       		.uleb128 0x13
 3327 017a 11       		.uleb128 0x11
 3328 017b 01       		.uleb128 0x1
 3329 017c 12       		.uleb128 0x12
 3330 017d 06       		.uleb128 0x6
 3331 017e 58       		.uleb128 0x58
 3332 017f 0B       		.uleb128 0xb
 3333 0180 59       		.uleb128 0x59
 3334 0181 05       		.uleb128 0x5
 3335 0182 00       		.byte	0
 3336 0183 00       		.byte	0
 3337 0184 20       		.uleb128 0x20
 3338 0185 05       		.uleb128 0x5
 3339 0186 00       		.byte	0
 3340 0187 31       		.uleb128 0x31
 3341 0188 13       		.uleb128 0x13
 3342 0189 02       		.uleb128 0x2
 3343 018a 18       		.uleb128 0x18
 3344 018b 00       		.byte	0
 3345 018c 00       		.byte	0
ARM GAS  /tmp/ccqZLEFm.s 			page 60


 3346 018d 21       		.uleb128 0x21
 3347 018e 2E       		.uleb128 0x2e
 3348 018f 00       		.byte	0
 3349 0190 03       		.uleb128 0x3
 3350 0191 0E       		.uleb128 0xe
 3351 0192 3A       		.uleb128 0x3a
 3352 0193 0B       		.uleb128 0xb
 3353 0194 3B       		.uleb128 0x3b
 3354 0195 05       		.uleb128 0x5
 3355 0196 27       		.uleb128 0x27
 3356 0197 19       		.uleb128 0x19
 3357 0198 11       		.uleb128 0x11
 3358 0199 01       		.uleb128 0x1
 3359 019a 12       		.uleb128 0x12
 3360 019b 06       		.uleb128 0x6
 3361 019c 40       		.uleb128 0x40
 3362 019d 18       		.uleb128 0x18
 3363 019e 9642     		.uleb128 0x2116
 3364 01a0 19       		.uleb128 0x19
 3365 01a1 00       		.byte	0
 3366 01a2 00       		.byte	0
 3367 01a3 22       		.uleb128 0x22
 3368 01a4 2E       		.uleb128 0x2e
 3369 01a5 01       		.byte	0x1
 3370 01a6 03       		.uleb128 0x3
 3371 01a7 0E       		.uleb128 0xe
 3372 01a8 3A       		.uleb128 0x3a
 3373 01a9 0B       		.uleb128 0xb
 3374 01aa 3B       		.uleb128 0x3b
 3375 01ab 05       		.uleb128 0x5
 3376 01ac 27       		.uleb128 0x27
 3377 01ad 19       		.uleb128 0x19
 3378 01ae 11       		.uleb128 0x11
 3379 01af 01       		.uleb128 0x1
 3380 01b0 12       		.uleb128 0x12
 3381 01b1 06       		.uleb128 0x6
 3382 01b2 40       		.uleb128 0x40
 3383 01b3 18       		.uleb128 0x18
 3384 01b4 9642     		.uleb128 0x2116
 3385 01b6 19       		.uleb128 0x19
 3386 01b7 01       		.uleb128 0x1
 3387 01b8 13       		.uleb128 0x13
 3388 01b9 00       		.byte	0
 3389 01ba 00       		.byte	0
 3390 01bb 23       		.uleb128 0x23
 3391 01bc 34       		.uleb128 0x34
 3392 01bd 00       		.byte	0
 3393 01be 03       		.uleb128 0x3
 3394 01bf 0E       		.uleb128 0xe
 3395 01c0 49       		.uleb128 0x49
 3396 01c1 13       		.uleb128 0x13
 3397 01c2 34       		.uleb128 0x34
 3398 01c3 19       		.uleb128 0x19
 3399 01c4 00       		.byte	0
 3400 01c5 00       		.byte	0
 3401 01c6 24       		.uleb128 0x24
 3402 01c7 2E       		.uleb128 0x2e
ARM GAS  /tmp/ccqZLEFm.s 			page 61


 3403 01c8 01       		.byte	0x1
 3404 01c9 03       		.uleb128 0x3
 3405 01ca 0E       		.uleb128 0xe
 3406 01cb 3A       		.uleb128 0x3a
 3407 01cc 0B       		.uleb128 0xb
 3408 01cd 3B       		.uleb128 0x3b
 3409 01ce 0B       		.uleb128 0xb
 3410 01cf 27       		.uleb128 0x27
 3411 01d0 19       		.uleb128 0x19
 3412 01d1 11       		.uleb128 0x11
 3413 01d2 01       		.uleb128 0x1
 3414 01d3 12       		.uleb128 0x12
 3415 01d4 06       		.uleb128 0x6
 3416 01d5 40       		.uleb128 0x40
 3417 01d6 18       		.uleb128 0x18
 3418 01d7 9742     		.uleb128 0x2117
 3419 01d9 19       		.uleb128 0x19
 3420 01da 01       		.uleb128 0x1
 3421 01db 13       		.uleb128 0x13
 3422 01dc 00       		.byte	0
 3423 01dd 00       		.byte	0
 3424 01de 25       		.uleb128 0x25
 3425 01df 05       		.uleb128 0x5
 3426 01e0 00       		.byte	0
 3427 01e1 03       		.uleb128 0x3
 3428 01e2 08       		.uleb128 0x8
 3429 01e3 3A       		.uleb128 0x3a
 3430 01e4 0B       		.uleb128 0xb
 3431 01e5 3B       		.uleb128 0x3b
 3432 01e6 0B       		.uleb128 0xb
 3433 01e7 49       		.uleb128 0x49
 3434 01e8 13       		.uleb128 0x13
 3435 01e9 02       		.uleb128 0x2
 3436 01ea 18       		.uleb128 0x18
 3437 01eb 00       		.byte	0
 3438 01ec 00       		.byte	0
 3439 01ed 26       		.uleb128 0x26
 3440 01ee 05       		.uleb128 0x5
 3441 01ef 00       		.byte	0
 3442 01f0 03       		.uleb128 0x3
 3443 01f1 08       		.uleb128 0x8
 3444 01f2 3A       		.uleb128 0x3a
 3445 01f3 0B       		.uleb128 0xb
 3446 01f4 3B       		.uleb128 0x3b
 3447 01f5 05       		.uleb128 0x5
 3448 01f6 49       		.uleb128 0x49
 3449 01f7 13       		.uleb128 0x13
 3450 01f8 02       		.uleb128 0x2
 3451 01f9 18       		.uleb128 0x18
 3452 01fa 00       		.byte	0
 3453 01fb 00       		.byte	0
 3454 01fc 27       		.uleb128 0x27
 3455 01fd 05       		.uleb128 0x5
 3456 01fe 00       		.byte	0
 3457 01ff 03       		.uleb128 0x3
 3458 0200 0E       		.uleb128 0xe
 3459 0201 3A       		.uleb128 0x3a
ARM GAS  /tmp/ccqZLEFm.s 			page 62


 3460 0202 0B       		.uleb128 0xb
 3461 0203 3B       		.uleb128 0x3b
 3462 0204 05       		.uleb128 0x5
 3463 0205 49       		.uleb128 0x49
 3464 0206 13       		.uleb128 0x13
 3465 0207 02       		.uleb128 0x2
 3466 0208 18       		.uleb128 0x18
 3467 0209 00       		.byte	0
 3468 020a 00       		.byte	0
 3469 020b 28       		.uleb128 0x28
 3470 020c 2E       		.uleb128 0x2e
 3471 020d 01       		.byte	0x1
 3472 020e 03       		.uleb128 0x3
 3473 020f 0E       		.uleb128 0xe
 3474 0210 3A       		.uleb128 0x3a
 3475 0211 0B       		.uleb128 0xb
 3476 0212 3B       		.uleb128 0x3b
 3477 0213 0B       		.uleb128 0xb
 3478 0214 27       		.uleb128 0x27
 3479 0215 19       		.uleb128 0x19
 3480 0216 49       		.uleb128 0x49
 3481 0217 13       		.uleb128 0x13
 3482 0218 11       		.uleb128 0x11
 3483 0219 01       		.uleb128 0x1
 3484 021a 12       		.uleb128 0x12
 3485 021b 06       		.uleb128 0x6
 3486 021c 40       		.uleb128 0x40
 3487 021d 18       		.uleb128 0x18
 3488 021e 9642     		.uleb128 0x2116
 3489 0220 19       		.uleb128 0x19
 3490 0221 01       		.uleb128 0x1
 3491 0222 13       		.uleb128 0x13
 3492 0223 00       		.byte	0
 3493 0224 00       		.byte	0
 3494 0225 29       		.uleb128 0x29
 3495 0226 05       		.uleb128 0x5
 3496 0227 00       		.byte	0
 3497 0228 03       		.uleb128 0x3
 3498 0229 0E       		.uleb128 0xe
 3499 022a 3A       		.uleb128 0x3a
 3500 022b 0B       		.uleb128 0xb
 3501 022c 3B       		.uleb128 0x3b
 3502 022d 0B       		.uleb128 0xb
 3503 022e 49       		.uleb128 0x49
 3504 022f 13       		.uleb128 0x13
 3505 0230 02       		.uleb128 0x2
 3506 0231 18       		.uleb128 0x18
 3507 0232 00       		.byte	0
 3508 0233 00       		.byte	0
 3509 0234 2A       		.uleb128 0x2a
 3510 0235 2E       		.uleb128 0x2e
 3511 0236 00       		.byte	0
 3512 0237 3F       		.uleb128 0x3f
 3513 0238 19       		.uleb128 0x19
 3514 0239 03       		.uleb128 0x3
 3515 023a 0E       		.uleb128 0xe
 3516 023b 3A       		.uleb128 0x3a
ARM GAS  /tmp/ccqZLEFm.s 			page 63


 3517 023c 0B       		.uleb128 0xb
 3518 023d 3B       		.uleb128 0x3b
 3519 023e 0B       		.uleb128 0xb
 3520 023f 27       		.uleb128 0x27
 3521 0240 19       		.uleb128 0x19
 3522 0241 11       		.uleb128 0x11
 3523 0242 01       		.uleb128 0x1
 3524 0243 12       		.uleb128 0x12
 3525 0244 06       		.uleb128 0x6
 3526 0245 40       		.uleb128 0x40
 3527 0246 18       		.uleb128 0x18
 3528 0247 9642     		.uleb128 0x2116
 3529 0249 19       		.uleb128 0x19
 3530 024a 00       		.byte	0
 3531 024b 00       		.byte	0
 3532 024c 2B       		.uleb128 0x2b
 3533 024d 2E       		.uleb128 0x2e
 3534 024e 01       		.byte	0x1
 3535 024f 3F       		.uleb128 0x3f
 3536 0250 19       		.uleb128 0x19
 3537 0251 03       		.uleb128 0x3
 3538 0252 0E       		.uleb128 0xe
 3539 0253 3A       		.uleb128 0x3a
 3540 0254 0B       		.uleb128 0xb
 3541 0255 3B       		.uleb128 0x3b
 3542 0256 0B       		.uleb128 0xb
 3543 0257 27       		.uleb128 0x27
 3544 0258 19       		.uleb128 0x19
 3545 0259 11       		.uleb128 0x11
 3546 025a 01       		.uleb128 0x1
 3547 025b 12       		.uleb128 0x12
 3548 025c 06       		.uleb128 0x6
 3549 025d 40       		.uleb128 0x40
 3550 025e 18       		.uleb128 0x18
 3551 025f 9642     		.uleb128 0x2116
 3552 0261 19       		.uleb128 0x19
 3553 0262 01       		.uleb128 0x1
 3554 0263 13       		.uleb128 0x13
 3555 0264 00       		.byte	0
 3556 0265 00       		.byte	0
 3557 0266 2C       		.uleb128 0x2c
 3558 0267 2E       		.uleb128 0x2e
 3559 0268 01       		.byte	0x1
 3560 0269 3F       		.uleb128 0x3f
 3561 026a 19       		.uleb128 0x19
 3562 026b 03       		.uleb128 0x3
 3563 026c 0E       		.uleb128 0xe
 3564 026d 3A       		.uleb128 0x3a
 3565 026e 0B       		.uleb128 0xb
 3566 026f 3B       		.uleb128 0x3b
 3567 0270 0B       		.uleb128 0xb
 3568 0271 27       		.uleb128 0x27
 3569 0272 19       		.uleb128 0x19
 3570 0273 49       		.uleb128 0x49
 3571 0274 13       		.uleb128 0x13
 3572 0275 11       		.uleb128 0x11
 3573 0276 01       		.uleb128 0x1
ARM GAS  /tmp/ccqZLEFm.s 			page 64


 3574 0277 12       		.uleb128 0x12
 3575 0278 06       		.uleb128 0x6
 3576 0279 40       		.uleb128 0x40
 3577 027a 18       		.uleb128 0x18
 3578 027b 9642     		.uleb128 0x2116
 3579 027d 19       		.uleb128 0x19
 3580 027e 01       		.uleb128 0x1
 3581 027f 13       		.uleb128 0x13
 3582 0280 00       		.byte	0
 3583 0281 00       		.byte	0
 3584 0282 2D       		.uleb128 0x2d
 3585 0283 34       		.uleb128 0x34
 3586 0284 00       		.byte	0
 3587 0285 03       		.uleb128 0x3
 3588 0286 08       		.uleb128 0x8
 3589 0287 3A       		.uleb128 0x3a
 3590 0288 0B       		.uleb128 0xb
 3591 0289 3B       		.uleb128 0x3b
 3592 028a 0B       		.uleb128 0xb
 3593 028b 49       		.uleb128 0x49
 3594 028c 13       		.uleb128 0x13
 3595 028d 02       		.uleb128 0x2
 3596 028e 18       		.uleb128 0x18
 3597 028f 00       		.byte	0
 3598 0290 00       		.byte	0
 3599 0291 2E       		.uleb128 0x2e
 3600 0292 2E       		.uleb128 0x2e
 3601 0293 01       		.byte	0x1
 3602 0294 3F       		.uleb128 0x3f
 3603 0295 19       		.uleb128 0x19
 3604 0296 03       		.uleb128 0x3
 3605 0297 0E       		.uleb128 0xe
 3606 0298 3A       		.uleb128 0x3a
 3607 0299 0B       		.uleb128 0xb
 3608 029a 3B       		.uleb128 0x3b
 3609 029b 05       		.uleb128 0x5
 3610 029c 27       		.uleb128 0x27
 3611 029d 19       		.uleb128 0x19
 3612 029e 49       		.uleb128 0x49
 3613 029f 13       		.uleb128 0x13
 3614 02a0 11       		.uleb128 0x11
 3615 02a1 01       		.uleb128 0x1
 3616 02a2 12       		.uleb128 0x12
 3617 02a3 06       		.uleb128 0x6
 3618 02a4 40       		.uleb128 0x40
 3619 02a5 18       		.uleb128 0x18
 3620 02a6 9642     		.uleb128 0x2116
 3621 02a8 19       		.uleb128 0x19
 3622 02a9 01       		.uleb128 0x1
 3623 02aa 13       		.uleb128 0x13
 3624 02ab 00       		.byte	0
 3625 02ac 00       		.byte	0
 3626 02ad 2F       		.uleb128 0x2f
 3627 02ae 34       		.uleb128 0x34
 3628 02af 00       		.byte	0
 3629 02b0 03       		.uleb128 0x3
 3630 02b1 08       		.uleb128 0x8
ARM GAS  /tmp/ccqZLEFm.s 			page 65


 3631 02b2 3A       		.uleb128 0x3a
 3632 02b3 0B       		.uleb128 0xb
 3633 02b4 3B       		.uleb128 0x3b
 3634 02b5 05       		.uleb128 0x5
 3635 02b6 49       		.uleb128 0x49
 3636 02b7 13       		.uleb128 0x13
 3637 02b8 02       		.uleb128 0x2
 3638 02b9 18       		.uleb128 0x18
 3639 02ba 00       		.byte	0
 3640 02bb 00       		.byte	0
 3641 02bc 30       		.uleb128 0x30
 3642 02bd 34       		.uleb128 0x34
 3643 02be 00       		.byte	0
 3644 02bf 03       		.uleb128 0x3
 3645 02c0 0E       		.uleb128 0xe
 3646 02c1 3A       		.uleb128 0x3a
 3647 02c2 0B       		.uleb128 0xb
 3648 02c3 3B       		.uleb128 0x3b
 3649 02c4 05       		.uleb128 0x5
 3650 02c5 49       		.uleb128 0x49
 3651 02c6 13       		.uleb128 0x13
 3652 02c7 3F       		.uleb128 0x3f
 3653 02c8 19       		.uleb128 0x19
 3654 02c9 3C       		.uleb128 0x3c
 3655 02ca 19       		.uleb128 0x19
 3656 02cb 00       		.byte	0
 3657 02cc 00       		.byte	0
 3658 02cd 31       		.uleb128 0x31
 3659 02ce 34       		.uleb128 0x34
 3660 02cf 00       		.byte	0
 3661 02d0 03       		.uleb128 0x3
 3662 02d1 08       		.uleb128 0x8
 3663 02d2 3A       		.uleb128 0x3a
 3664 02d3 0B       		.uleb128 0xb
 3665 02d4 3B       		.uleb128 0x3b
 3666 02d5 05       		.uleb128 0x5
 3667 02d6 49       		.uleb128 0x49
 3668 02d7 13       		.uleb128 0x13
 3669 02d8 3F       		.uleb128 0x3f
 3670 02d9 19       		.uleb128 0x19
 3671 02da 3C       		.uleb128 0x3c
 3672 02db 19       		.uleb128 0x19
 3673 02dc 00       		.byte	0
 3674 02dd 00       		.byte	0
 3675 02de 00       		.byte	0
 3676              		.section	.debug_aranges,"",%progbits
 3677 0000 1C000000 		.4byte	0x1c
 3678 0004 0200     		.2byte	0x2
 3679 0006 00000000 		.4byte	.Ldebug_info0
 3680 000a 04       		.byte	0x4
 3681 000b 00       		.byte	0
 3682 000c 0000     		.2byte	0
 3683 000e 0000     		.2byte	0
 3684 0010 00000000 		.4byte	.Ltext0
 3685 0014 EA030000 		.4byte	.Letext0-.Ltext0
 3686 0018 00000000 		.4byte	0
 3687 001c 00000000 		.4byte	0
ARM GAS  /tmp/ccqZLEFm.s 			page 66


 3688              		.section	.debug_line,"",%progbits
 3689              	.Ldebug_line0:
 3690 0000 75030000 		.section	.debug_str,"MS",%progbits,1
 3690      0200B702 
 3690      00000201 
 3690      FB0E0D00 
 3690      01010101 
 3691              	.LASF54:
 3692 0000 72656164 		.ascii	"ready_list_t\000"
 3692      795F6C69 
 3692      73745F74 
 3692      00
 3693              	.LASF2:
 3694 000d 73697A65 		.ascii	"size_t\000"
 3694      5F7400
 3695              	.LASF60:
 3696 0014 64656C74 		.ascii	"delta\000"
 3696      6100
 3697              	.LASF163:
 3698 001a 73645075 		.ascii	"sdPutWouldBlock\000"
 3698      74576F75 
 3698      6C64426C 
 3698      6F636B00 
 3699              	.LASF19:
 3700 002a 75696E74 		.ascii	"uint64_t\000"
 3700      36345F74 
 3700      00
 3701              	.LASF151:
 3702 0033 5F676574 		.ascii	"_gett\000"
 3702      7400
 3703              	.LASF3:
 3704 0039 5F5F7569 		.ascii	"__uint8_t\000"
 3704      6E74385F 
 3704      7400
 3705              	.LASF53:
 3706 0043 70726576 		.ascii	"prev\000"
 3706      00
 3707              	.LASF79:
 3708 0048 706F7274 		.ascii	"port_intctx\000"
 3708      5F696E74 
 3708      63747800 
 3709              	.LASF65:
 3710 0054 73797374 		.ascii	"system_debug_t\000"
 3710      656D5F64 
 3710      65627567 
 3710      5F7400
 3711              	.LASF59:
 3712 0063 63685F76 		.ascii	"ch_virtual_timer\000"
 3712      69727475 
 3712      616C5F74 
 3712      696D6572 
 3712      00
 3713              	.LASF135:
 3714 0074 706F7274 		.ascii	"port_lock\000"
 3714      5F6C6F63 
 3714      6B00
 3715              	.LASF14:
ARM GAS  /tmp/ccqZLEFm.s 			page 67


 3716 007e 6C6F6E67 		.ascii	"long long unsigned int\000"
 3716      206C6F6E 
 3716      6720756E 
 3716      7369676E 
 3716      65642069 
 3717              	.LASF83:
 3718 0095 65786974 		.ascii	"exitcode\000"
 3718      636F6465 
 3718      00
 3719              	.LASF125:
 3720 009e 72786D61 		.ascii	"rxmask\000"
 3720      736B00
 3721              	.LASF86:
 3722 00a5 73656E74 		.ascii	"sentmsg\000"
 3722      6D736700 
 3723              	.LASF62:
 3724 00ad 76697274 		.ascii	"virtual_timers_list_t\000"
 3724      75616C5F 
 3724      74696D65 
 3724      72735F6C 
 3724      6973745F 
 3725              	.LASF165:
 3726 00c3 49544D5F 		.ascii	"ITM_RxBuffer\000"
 3726      52784275 
 3726      66666572 
 3726      00
 3727              	.LASF103:
 3728 00d0 696F5F71 		.ascii	"io_queue_t\000"
 3728      75657565 
 3728      5F7400
 3729              	.LASF50:
 3730 00db 6E657874 		.ascii	"next\000"
 3730      00
 3731              	.LASF52:
 3732 00e0 63685F74 		.ascii	"ch_threads_queue\000"
 3732      68726561 
 3732      64735F71 
 3732      75657565 
 3732      00
 3733              	.LASF153:
 3734 00f1 5F726561 		.ascii	"_readt\000"
 3734      647400
 3735              	.LASF156:
 3736 00f8 73644F62 		.ascii	"sdObjectInit\000"
 3736      6A656374 
 3736      496E6974 
 3736      00
 3737              	.LASF134:
 3738 0105 72656164 		.ascii	"readt\000"
 3738      7400
 3739              	.LASF39:
 3740 010b 72656673 		.ascii	"refs\000"
 3740      00
 3741              	.LASF105:
 3742 0110 715F7761 		.ascii	"q_waiting\000"
 3742      6974696E 
 3742      6700
ARM GAS  /tmp/ccqZLEFm.s 			page 68


 3743              	.LASF94:
 3744 011a 6D757465 		.ascii	"mutex_t\000"
 3744      785F7400 
 3745              	.LASF12:
 3746 0122 6C6F6E67 		.ascii	"long long int\000"
 3746      206C6F6E 
 3746      6720696E 
 3746      7400
 3747              	.LASF1:
 3748 0130 7369676E 		.ascii	"signed char\000"
 3748      65642063 
 3748      68617200 
 3749              	.LASF74:
 3750 013c 47545052 		.ascii	"GTPR\000"
 3750      00
 3751              	.LASF11:
 3752 0141 6C6F6E67 		.ascii	"long unsigned int\000"
 3752      20756E73 
 3752      69676E65 
 3752      6420696E 
 3752      7400
 3753              	.LASF143:
 3754 0153 6F73616C 		.ascii	"osalEventObjectInit\000"
 3754      4576656E 
 3754      744F626A 
 3754      65637449 
 3754      6E697400 
 3755              	.LASF149:
 3756 0167 5F707574 		.ascii	"_putt\000"
 3756      7400
 3757              	.LASF71:
 3758 016d 76746C69 		.ascii	"vtlist\000"
 3758      737400
 3759              	.LASF136:
 3760 0174 706F7274 		.ascii	"port_unlock\000"
 3760      5F756E6C 
 3760      6F636B00 
 3761              	.LASF41:
 3762 0180 6D736771 		.ascii	"msgqueue\000"
 3762      75657565 
 3762      00
 3763              	.LASF36:
 3764 0189 77616261 		.ascii	"wabase\000"
 3764      736500
 3765              	.LASF37:
 3766 0190 73746174 		.ascii	"state\000"
 3766      6500
 3767              	.LASF69:
 3768 0196 63685F73 		.ascii	"ch_system\000"
 3768      79737465 
 3768      6D00
 3769              	.LASF9:
 3770 01a0 6C6F6E67 		.ascii	"long int\000"
 3770      20696E74 
 3770      00
 3771              	.LASF22:
 3772 01a9 74737461 		.ascii	"tstate_t\000"
ARM GAS  /tmp/ccqZLEFm.s 			page 69


 3772      74655F74 
 3772      00
 3773              	.LASF61:
 3774 01b2 66756E63 		.ascii	"func\000"
 3774      00
 3775              	.LASF107:
 3776 01b7 715F6275 		.ascii	"q_buffer\000"
 3776      66666572 
 3776      00
 3777              	.LASF16:
 3778 01c0 75696E74 		.ascii	"uint16_t\000"
 3778      31365F74 
 3778      00
 3779              	.LASF99:
 3780 01c9 77666C61 		.ascii	"wflags\000"
 3780      677300
 3781              	.LASF10:
 3782 01d0 5F5F7569 		.ascii	"__uint32_t\000"
 3782      6E743332 
 3782      5F7400
 3783              	.LASF76:
 3784 01db 72656761 		.ascii	"regarm_t\000"
 3784      726D5F74 
 3784      00
 3785              	.LASF40:
 3786 01e4 77616974 		.ascii	"waiting\000"
 3786      696E6700 
 3787              	.LASF140:
 3788 01ec 6F73616C 		.ascii	"osalSysLock\000"
 3788      5379734C 
 3788      6F636B00 
 3789              	.LASF146:
 3790 01f8 5F726561 		.ascii	"_read\000"
 3790      6400
 3791              	.LASF170:
 3792 01fe 76616C75 		.ascii	"value\000"
 3792      6500
 3793              	.LASF104:
 3794 0204 696F5F71 		.ascii	"io_queue\000"
 3794      75657565 
 3794      00
 3795              	.LASF101:
 3796 020d 6576656E 		.ascii	"event_source_t\000"
 3796      745F736F 
 3796      75726365 
 3796      5F7400
 3797              	.LASF28:
 3798 021c 636E745F 		.ascii	"cnt_t\000"
 3798      7400
 3799              	.LASF124:
 3800 0222 75736172 		.ascii	"usart\000"
 3800      7400
 3801              	.LASF0:
 3802 0228 756E7369 		.ascii	"unsigned int\000"
 3802      676E6564 
 3802      20696E74 
 3802      00
ARM GAS  /tmp/ccqZLEFm.s 			page 70


 3803              	.LASF128:
 3804 0235 53657269 		.ascii	"SerialDriverVMT\000"
 3804      616C4472 
 3804      69766572 
 3804      564D5400 
 3805              	.LASF154:
 3806 0245 696E6F74 		.ascii	"inotify\000"
 3806      69667900 
 3807              	.LASF87:
 3808 024d 77747365 		.ascii	"wtsemp\000"
 3808      6D7000
 3809              	.LASF122:
 3810 0254 69717565 		.ascii	"iqueue\000"
 3810      756500
 3811              	.LASF85:
 3812 025b 77747472 		.ascii	"wttrp\000"
 3812      7000
 3813              	.LASF150:
 3814 0261 74696D65 		.ascii	"timeout\000"
 3814      6F757400 
 3815              	.LASF132:
 3816 0269 67657474 		.ascii	"gett\000"
 3816      00
 3817              	.LASF35:
 3818 026e 6E616D65 		.ascii	"name\000"
 3818      00
 3819              	.LASF31:
 3820 0273 71756575 		.ascii	"queue\000"
 3820      6500
 3821              	.LASF45:
 3822 0279 6D706F6F 		.ascii	"mpool\000"
 3822      6C00
 3823              	.LASF121:
 3824 027f 6576656E 		.ascii	"event\000"
 3824      7400
 3825              	.LASF138:
 3826 0285 63684576 		.ascii	"chEvtObjectInit\000"
 3826      744F626A 
 3826      65637449 
 3826      6E697400 
 3827              	.LASF109:
 3828 0295 715F7772 		.ascii	"q_wrptr\000"
 3828      70747200 
 3829              	.LASF147:
 3830 029d 5F707574 		.ascii	"_put\000"
 3830      00
 3831              	.LASF48:
 3832 02a2 63685F74 		.ascii	"ch_thread\000"
 3832      68726561 
 3832      6400
 3833              	.LASF72:
 3834 02ac 6D61696E 		.ascii	"mainthread\000"
 3834      74687265 
 3834      616400
 3835              	.LASF25:
 3836 02b7 6D73675F 		.ascii	"msg_t\000"
 3836      7400
ARM GAS  /tmp/ccqZLEFm.s 			page 71


 3837              	.LASF42:
 3838 02bd 6570656E 		.ascii	"epending\000"
 3838      64696E67 
 3838      00
 3839              	.LASF68:
 3840 02c6 63685F73 		.ascii	"ch_system_t\000"
 3840      79737465 
 3840      6D5F7400 
 3841              	.LASF75:
 3842 02d2 55534152 		.ascii	"USART_TypeDef\000"
 3842      545F5479 
 3842      70654465 
 3842      6600
 3843              	.LASF133:
 3844 02e0 77726974 		.ascii	"writet\000"
 3844      657400
 3845              	.LASF21:
 3846 02e7 746D6F64 		.ascii	"tmode_t\000"
 3846      655F7400 
 3847              	.LASF55:
 3848 02ef 63685F72 		.ascii	"ch_ready_list\000"
 3848      65616479 
 3848      5F6C6973 
 3848      7400
 3849              	.LASF26:
 3850 02fd 6576656E 		.ascii	"eventmask_t\000"
 3850      746D6173 
 3850      6B5F7400 
 3851              	.LASF126:
 3852 0309 73706565 		.ascii	"speed\000"
 3852      6400
 3853              	.LASF113:
 3854 030f 716E6F74 		.ascii	"qnotify_t\000"
 3854      6966795F 
 3854      7400
 3855              	.LASF77:
 3856 0319 73746B61 		.ascii	"stkalign_t\000"
 3856      6C69676E 
 3856      5F7400
 3857              	.LASF33:
 3858 0324 6E657765 		.ascii	"newer\000"
 3858      7200
 3859              	.LASF145:
 3860 032a 5F777269 		.ascii	"_write\000"
 3860      746500
 3861              	.LASF129:
 3862 0331 77726974 		.ascii	"write\000"
 3862      6500
 3863              	.LASF114:
 3864 0337 696E7075 		.ascii	"input_queue_t\000"
 3864      745F7175 
 3864      6575655F 
 3864      7400
 3865              	.LASF131:
 3866 0345 70757474 		.ascii	"putt\000"
 3866      00
 3867              	.LASF73:
ARM GAS  /tmp/ccqZLEFm.s 			page 72


 3868 034a 73697A65 		.ascii	"sizetype\000"
 3868      74797065 
 3868      00
 3869              	.LASF46:
 3870 0353 74687265 		.ascii	"thread_reference_t\000"
 3870      61645F72 
 3870      65666572 
 3870      656E6365 
 3870      5F7400
 3871              	.LASF97:
 3872 0366 6C697374 		.ascii	"listener\000"
 3872      656E6572 
 3872      00
 3873              	.LASF63:
 3874 036f 63685F76 		.ascii	"ch_virtual_timers_list\000"
 3874      69727475 
 3874      616C5F74 
 3874      696D6572 
 3874      735F6C69 
 3875              	.LASF106:
 3876 0386 715F636F 		.ascii	"q_counter\000"
 3876      756E7465 
 3876      7200
 3877              	.LASF100:
 3878 0390 6576656E 		.ascii	"event_source\000"
 3878      745F736F 
 3878      75726365 
 3878      00
 3879              	.LASF78:
 3880 039d 706F7274 		.ascii	"port_context\000"
 3880      5F636F6E 
 3880      74657874 
 3880      00
 3881              	.LASF81:
 3882 03aa 746D5F63 		.ascii	"tm_calibration_t\000"
 3882      616C6962 
 3882      72617469 
 3882      6F6E5F74 
 3882      00
 3883              	.LASF160:
 3884 03bb 73645374 		.ascii	"sdStop\000"
 3884      6F7000
 3885              	.LASF32:
 3886 03c2 7072696F 		.ascii	"prio\000"
 3886      00
 3887              	.LASF56:
 3888 03c7 63757272 		.ascii	"current\000"
 3888      656E7400 
 3889              	.LASF127:
 3890 03cf 53657269 		.ascii	"SerialConfig\000"
 3890      616C436F 
 3890      6E666967 
 3890      00
 3891              	.LASF13:
 3892 03dc 5F5F7569 		.ascii	"__uint64_t\000"
 3892      6E743634 
 3892      5F7400
ARM GAS  /tmp/ccqZLEFm.s 			page 73


 3893              	.LASF142:
 3894 03e7 6F73616C 		.ascii	"osalOsRescheduleS\000"
 3894      4F735265 
 3894      73636865 
 3894      64756C65 
 3894      5300
 3895              	.LASF58:
 3896 03f9 76697274 		.ascii	"virtual_timer_t\000"
 3896      75616C5F 
 3896      74696D65 
 3896      725F7400 
 3897              	.LASF117:
 3898 0409 53445F53 		.ascii	"SD_STOP\000"
 3898      544F5000 
 3899              	.LASF24:
 3900 0411 74707269 		.ascii	"tprio_t\000"
 3900      6F5F7400 
 3901              	.LASF110:
 3902 0419 715F7264 		.ascii	"q_rdptr\000"
 3902      70747200 
 3903              	.LASF66:
 3904 0421 63685F73 		.ascii	"ch_system_debug\000"
 3904      79737465 
 3904      6D5F6465 
 3904      62756700 
 3905              	.LASF102:
 3906 0431 5F426F6F 		.ascii	"_Bool\000"
 3906      6C00
 3907              	.LASF17:
 3908 0437 696E7433 		.ascii	"int32_t\000"
 3908      325F7400 
 3909              	.LASF4:
 3910 043f 756E7369 		.ascii	"unsigned char\000"
 3910      676E6564 
 3910      20636861 
 3910      7200
 3911              	.LASF98:
 3912 044d 6576656E 		.ascii	"events\000"
 3912      747300
 3913              	.LASF5:
 3914 0454 73686F72 		.ascii	"short int\000"
 3914      7420696E 
 3914      7400
 3915              	.LASF64:
 3916 045e 6C617374 		.ascii	"lasttime\000"
 3916      74696D65 
 3916      00
 3917              	.LASF89:
 3918 0467 65776D61 		.ascii	"ewmask\000"
 3918      736B00
 3919              	.LASF123:
 3920 046e 6F717565 		.ascii	"oqueue\000"
 3920      756500
 3921              	.LASF159:
 3922 0475 5F5F6675 		.ascii	"__func__\000"
 3922      6E635F5F 
 3922      00
ARM GAS  /tmp/ccqZLEFm.s 			page 74


 3923              	.LASF139:
 3924 047e 63685379 		.ascii	"chSysLock\000"
 3924      734C6F63 
 3924      6B00
 3925              	.LASF141:
 3926 0488 6F73616C 		.ascii	"osalSysUnlock\000"
 3926      53797355 
 3926      6E6C6F63 
 3926      6B00
 3927              	.LASF82:
 3928 0496 7264796D 		.ascii	"rdymsg\000"
 3928      736700
 3929              	.LASF51:
 3930 049d 74687265 		.ascii	"threads_queue_t\000"
 3930      6164735F 
 3930      71756575 
 3930      655F7400 
 3931              	.LASF90:
 3932 04ad 63685F73 		.ascii	"ch_semaphore\000"
 3932      656D6170 
 3932      686F7265 
 3932      00
 3933              	.LASF116:
 3934 04ba 53445F55 		.ascii	"SD_UNINIT\000"
 3934      4E494E49 
 3934      5400
 3935              	.LASF8:
 3936 04c4 5F5F696E 		.ascii	"__int32_t\000"
 3936      7433325F 
 3936      7400
 3937              	.LASF18:
 3938 04ce 75696E74 		.ascii	"uint32_t\000"
 3938      33325F74 
 3938      00
 3939              	.LASF88:
 3940 04d7 77746D74 		.ascii	"wtmtxp\000"
 3940      787000
 3941              	.LASF144:
 3942 04de 6F73616C 		.ascii	"osalEventBroadcastFlagsI\000"
 3942      4576656E 
 3942      7442726F 
 3942      61646361 
 3942      7374466C 
 3943              	.LASF119:
 3944 04f7 73647374 		.ascii	"sdstate_t\000"
 3944      6174655F 
 3944      7400
 3945              	.LASF49:
 3946 0501 63685F74 		.ascii	"ch_threads_list\000"
 3946      68726561 
 3946      64735F6C 
 3946      69737400 
 3947              	.LASF92:
 3948 0511 6F776E65 		.ascii	"owner\000"
 3948      7200
 3949              	.LASF120:
 3950 0517 53657269 		.ascii	"SerialDriver\000"
ARM GAS  /tmp/ccqZLEFm.s 			page 75


 3950      616C4472 
 3950      69766572 
 3950      00
 3951              	.LASF44:
 3952 0524 7265616C 		.ascii	"realprio\000"
 3952      7072696F 
 3952      00
 3953              	.LASF167:
 3954 052d 2E2E2F2E 		.ascii	"../../../os/hal/src/hal_serial.c\000"
 3954      2E2F2E2E 
 3954      2F6F732F 
 3954      68616C2F 
 3954      7372632F 
 3955              	.LASF166:
 3956 054e 474E5520 		.ascii	"GNU C 4.9.3 20150529 (prerelease) -mcpu=cortex-m4 -"
 3956      4320342E 
 3956      392E3320 
 3956      32303135 
 3956      30353239 
 3957 0581 6D6E6F2D 		.ascii	"mno-thumb-interwork -mthumb -ggdb -O0 -fomit-frame-"
 3957      7468756D 
 3957      622D696E 
 3957      74657277 
 3957      6F726B20 
 3958 05b4 706F696E 		.ascii	"pointer -falign-functions=16\000"
 3958      74657220 
 3958      2D66616C 
 3958      69676E2D 
 3958      66756E63 
 3959              	.LASF130:
 3960 05d1 72656164 		.ascii	"read\000"
 3960      00
 3961              	.LASF93:
 3962 05d6 63686172 		.ascii	"char\000"
 3962      00
 3963              	.LASF34:
 3964 05db 6F6C6465 		.ascii	"older\000"
 3964      7200
 3965              	.LASF161:
 3966 05e1 7364496E 		.ascii	"sdIncomingDataI\000"
 3966      636F6D69 
 3966      6E674461 
 3966      74614900 
 3967              	.LASF158:
 3968 05f1 636F6E66 		.ascii	"config\000"
 3968      696700
 3969              	.LASF157:
 3970 05f8 73645374 		.ascii	"sdStart\000"
 3970      61727400 
 3971              	.LASF6:
 3972 0600 5F5F7569 		.ascii	"__uint16_t\000"
 3972      6E743136 
 3972      5F7400
 3973              	.LASF168:
 3974 060b 2F686F6D 		.ascii	"/home/declan/ChibiOS2/ChibiOS/demos/STM32/RT-STM32F"
 3974      652F6465 
 3974      636C616E 
ARM GAS  /tmp/ccqZLEFm.s 			page 76


 3974      2F436869 
 3974      62694F53 
 3975 063e 3430372D 		.ascii	"407-DISCOVERY\000"
 3975      44495343 
 3975      4F564552 
 3975      5900
 3976              	.LASF30:
 3977 064c 74687265 		.ascii	"thread_t\000"
 3977      61645F74 
 3977      00
 3978              	.LASF29:
 3979 0655 73797374 		.ascii	"systime_t\000"
 3979      696D655F 
 3979      7400
 3980              	.LASF57:
 3981 065f 76746675 		.ascii	"vtfunc_t\000"
 3981      6E635F74 
 3981      00
 3982              	.LASF169:
 3983 0668 5F5F7365 		.ascii	"__set_BASEPRI\000"
 3983      745F4241 
 3983      53455052 
 3983      4900
 3984              	.LASF67:
 3985 0676 70616E69 		.ascii	"panic_msg\000"
 3985      635F6D73 
 3985      6700
 3986              	.LASF80:
 3987 0680 6F666673 		.ascii	"offset\000"
 3987      657400
 3988              	.LASF95:
 3989 0687 6576656E 		.ascii	"event_listener_t\000"
 3989      745F6C69 
 3989      7374656E 
 3989      65725F74 
 3989      00
 3990              	.LASF7:
 3991 0698 73686F72 		.ascii	"short unsigned int\000"
 3991      7420756E 
 3991      7369676E 
 3991      65642069 
 3991      6E7400
 3992              	.LASF20:
 3993 06ab 7274636E 		.ascii	"rtcnt_t\000"
 3993      745F7400 
 3994              	.LASF118:
 3995 06b3 53445F52 		.ascii	"SD_READY\000"
 3995      45414459 
 3995      00
 3996              	.LASF27:
 3997 06bc 6576656E 		.ascii	"eventflags_t\000"
 3997      74666C61 
 3997      67735F74 
 3997      00
 3998              	.LASF152:
 3999 06c9 5F777269 		.ascii	"_writet\000"
 3999      74657400 
ARM GAS  /tmp/ccqZLEFm.s 			page 77


 4000              	.LASF115:
 4001 06d1 6F757470 		.ascii	"output_queue_t\000"
 4001      75745F71 
 4001      75657565 
 4001      5F7400
 4002              	.LASF108:
 4003 06e0 715F746F 		.ascii	"q_top\000"
 4003      7000
 4004              	.LASF91:
 4005 06e6 63685F6D 		.ascii	"ch_mutex\000"
 4005      75746578 
 4005      00
 4006              	.LASF23:
 4007 06ef 74726566 		.ascii	"trefs_t\000"
 4007      735F7400 
 4008              	.LASF111:
 4009 06f7 715F6E6F 		.ascii	"q_notify\000"
 4009      74696679 
 4009      00
 4010              	.LASF70:
 4011 0700 726C6973 		.ascii	"rlist\000"
 4011      7400
 4012              	.LASF162:
 4013 0706 73645265 		.ascii	"sdRequestDataI\000"
 4013      71756573 
 4013      74446174 
 4013      614900
 4014              	.LASF15:
 4015 0715 75696E74 		.ascii	"uint8_t\000"
 4015      385F7400 
 4016              	.LASF38:
 4017 071d 666C6167 		.ascii	"flags\000"
 4017      7300
 4018              	.LASF148:
 4019 0723 5F676574 		.ascii	"_get\000"
 4019      00
 4020              	.LASF155:
 4021 0728 6F6E6F74 		.ascii	"onotify\000"
 4021      69667900 
 4022              	.LASF84:
 4023 0730 77746F62 		.ascii	"wtobjp\000"
 4023      6A7000
 4024              	.LASF47:
 4025 0737 74687265 		.ascii	"threads_list_t\000"
 4025      6164735F 
 4025      6C697374 
 4025      5F7400
 4026              	.LASF137:
 4027 0746 63685379 		.ascii	"chSysUnlock\000"
 4027      73556E6C 
 4027      6F636B00 
 4028              	.LASF164:
 4029 0752 73644765 		.ascii	"sdGetWouldBlock\000"
 4029      74576F75 
 4029      6C64426C 
 4029      6F636B00 
 4030              	.LASF171:
ARM GAS  /tmp/ccqZLEFm.s 			page 78


 4031 0762 7364496E 		.ascii	"sdInit\000"
 4031      697400
 4032              	.LASF112:
 4033 0769 715F6C69 		.ascii	"q_link\000"
 4033      6E6B00
 4034              	.LASF43:
 4035 0770 6D74786C 		.ascii	"mtxlist\000"
 4035      69737400 
 4036              	.LASF96:
 4037 0778 6576656E 		.ascii	"event_listener\000"
 4037      745F6C69 
 4037      7374656E 
 4037      657200
 4038              		.ident	"GCC: (15:4.9.3+svn231177-1) 4.9.3 20150529 (prerelease)"
ARM GAS  /tmp/ccqZLEFm.s 			page 79


DEFINED SYMBOLS
                            *ABS*:0000000000000000 hal_serial.c
     /tmp/ccqZLEFm.s:18     .text:0000000000000000 $t
     /tmp/ccqZLEFm.s:23     .text:0000000000000000 port_lock
     /tmp/ccqZLEFm.s:59     .text:0000000000000010 port_unlock
     /tmp/ccqZLEFm.s:93     .text:0000000000000020 chSysLock
     /tmp/ccqZLEFm.s:116    .text:0000000000000030 chSysUnlock
     /tmp/ccqZLEFm.s:138    .text:0000000000000040 chEvtObjectInit
     /tmp/ccqZLEFm.s:166    .text:0000000000000050 osalSysLock
     /tmp/ccqZLEFm.s:189    .text:0000000000000060 osalSysUnlock
     /tmp/ccqZLEFm.s:211    .text:0000000000000070 osalOsRescheduleS
     /tmp/ccqZLEFm.s:233    .text:0000000000000080 osalEventObjectInit
     /tmp/ccqZLEFm.s:261    .text:00000000000000a0 osalEventBroadcastFlagsI
     /tmp/ccqZLEFm.s:291    .text:00000000000000c0 _write
     /tmp/ccqZLEFm.s:329    .text:00000000000000f0 _read
     /tmp/ccqZLEFm.s:366    .text:0000000000000120 _put
     /tmp/ccqZLEFm.s:403    .text:0000000000000150 _get
     /tmp/ccqZLEFm.s:436    .text:0000000000000170 _putt
     /tmp/ccqZLEFm.s:474    .text:00000000000001a0 _gett
     /tmp/ccqZLEFm.s:508    .text:00000000000001c0 _writet
     /tmp/ccqZLEFm.s:546    .text:00000000000001f0 _readt
     /tmp/ccqZLEFm.s:580    .rodata:0000000000000000 $d
     /tmp/ccqZLEFm.s:583    .rodata:0000000000000000 vmt
     /tmp/ccqZLEFm.s:599    .text:0000000000000220 sdInit
     /tmp/ccqZLEFm.s:622    .text:0000000000000230 sdObjectInit
     /tmp/ccqZLEFm.s:681    .text:0000000000000290 $d
     /tmp/ccqZLEFm.s:685    .text:0000000000000294 $t
     /tmp/ccqZLEFm.s:691    .text:00000000000002a0 sdStart
     /tmp/ccqZLEFm.s:730    .text:00000000000002d0 sdStop
     /tmp/ccqZLEFm.s:779    .text:0000000000000310 sdIncomingDataI
     /tmp/ccqZLEFm.s:836    .text:0000000000000360 sdRequestDataI
     /tmp/ccqZLEFm.s:882    .text:0000000000000390 sdPutWouldBlock
     /tmp/ccqZLEFm.s:923    .text:00000000000003c0 sdGetWouldBlock
                     .debug_frame:0000000000000010 $d

UNDEFINED SYMBOLS
chSchRescheduleS
chEvtBroadcastFlagsI
oqWriteTimeout
iqReadTimeout
oqPutTimeout
iqGetTimeout
sd_lld_init
iqObjectInit
oqObjectInit
sd_lld_start
sd_lld_stop
oqResetI
iqResetI
iqPutI
oqGetI
