ARM GAS  /tmp/ccL31GXy.s 			page 1


   1              		.syntax unified
   2              		.cpu cortex-m4
   3              		.fpu softvfp
   4              		.eabi_attribute 20, 1
   5              		.eabi_attribute 21, 1
   6              		.eabi_attribute 23, 3
   7              		.eabi_attribute 24, 1
   8              		.eabi_attribute 25, 1
   9              		.eabi_attribute 26, 1
  10              		.eabi_attribute 30, 6
  11              		.eabi_attribute 34, 1
  12              		.eabi_attribute 18, 4
  13              		.thumb
  14              		.file	"hal_st.c"
  15              		.text
  16              	.Ltext0:
  17              		.cfi_sections	.debug_frame
  18              		.align	2
  19              		.p2align 4,,15
  20              		.thumb
  21              		.thumb_func
  22              		.type	st_lld_start_alarm, %function
  23              	st_lld_start_alarm:
  24              	.LFB137:
  25              		.file 1 "../../../os/hal/ports/STM32/LLD/TIMv1/hal_st_lld.h"
  26              		.loc 1 153 0
  27              		.cfi_startproc
  28              		@ args = 0, pretend = 0, frame = 8
  29              		@ frame_needed = 0, uses_anonymous_args = 0
  30              		@ link register save eliminated.
  31 0000 82B0     		sub	sp, sp, #8
  32              		.cfi_def_cfa_offset 8
  33 0002 0190     		str	r0, [sp, #4]
  34              		.loc 1 155 0
  35 0004 4FF08042 		mov	r2, #1073741824
  36 0008 019B     		ldr	r3, [sp, #4]
  37 000a 5363     		str	r3, [r2, #52]
  38              		.loc 1 156 0
  39 000c 4FF08043 		mov	r3, #1073741824
  40 0010 0022     		movs	r2, #0
  41 0012 1A61     		str	r2, [r3, #16]
  42              		.loc 1 157 0
  43 0014 4FF08043 		mov	r3, #1073741824
  44 0018 0222     		movs	r2, #2
  45 001a DA60     		str	r2, [r3, #12]
  46              		.loc 1 158 0
  47 001c 02B0     		add	sp, sp, #8
  48              		.cfi_def_cfa_offset 0
  49              		@ sp needed
  50 001e 7047     		bx	lr
  51              		.cfi_endproc
  52              	.LFE137:
  53              		.size	st_lld_start_alarm, .-st_lld_start_alarm
  54              		.align	2
  55              		.p2align 4,,15
  56              		.thumb
  57              		.thumb_func
ARM GAS  /tmp/ccL31GXy.s 			page 2


  58              		.type	st_lld_stop_alarm, %function
  59              	st_lld_stop_alarm:
  60              	.LFB138:
  61              		.loc 1 165 0
  62              		.cfi_startproc
  63              		@ args = 0, pretend = 0, frame = 0
  64              		@ frame_needed = 0, uses_anonymous_args = 0
  65              		@ link register save eliminated.
  66              		.loc 1 167 0
  67 0020 4FF08043 		mov	r3, #1073741824
  68 0024 0022     		movs	r2, #0
  69 0026 DA60     		str	r2, [r3, #12]
  70              		.loc 1 168 0
  71 0028 7047     		bx	lr
  72              		.cfi_endproc
  73              	.LFE138:
  74              		.size	st_lld_stop_alarm, .-st_lld_stop_alarm
  75 002a 00BF     		.align	2
  76 002c AFF30080 		.p2align 4,,15
  77              		.thumb
  78              		.thumb_func
  79              		.type	st_lld_set_alarm, %function
  80              	st_lld_set_alarm:
  81              	.LFB139:
  82              		.loc 1 177 0
  83              		.cfi_startproc
  84              		@ args = 0, pretend = 0, frame = 8
  85              		@ frame_needed = 0, uses_anonymous_args = 0
  86              		@ link register save eliminated.
  87 0030 82B0     		sub	sp, sp, #8
  88              		.cfi_def_cfa_offset 8
  89 0032 0190     		str	r0, [sp, #4]
  90              		.loc 1 179 0
  91 0034 4FF08042 		mov	r2, #1073741824
  92 0038 019B     		ldr	r3, [sp, #4]
  93 003a 5363     		str	r3, [r2, #52]
  94              		.loc 1 180 0
  95 003c 02B0     		add	sp, sp, #8
  96              		.cfi_def_cfa_offset 0
  97              		@ sp needed
  98 003e 7047     		bx	lr
  99              		.cfi_endproc
 100              	.LFE139:
 101              		.size	st_lld_set_alarm, .-st_lld_set_alarm
 102              		.align	2
 103              		.p2align 4,,15
 104              		.thumb
 105              		.thumb_func
 106              		.type	st_lld_get_alarm, %function
 107              	st_lld_get_alarm:
 108              	.LFB140:
 109              		.loc 1 189 0
 110              		.cfi_startproc
 111              		@ args = 0, pretend = 0, frame = 0
 112              		@ frame_needed = 0, uses_anonymous_args = 0
 113              		@ link register save eliminated.
 114              		.loc 1 191 0
ARM GAS  /tmp/ccL31GXy.s 			page 3


 115 0040 4FF08043 		mov	r3, #1073741824
 116 0044 5B6B     		ldr	r3, [r3, #52]
 117              		.loc 1 192 0
 118 0046 1846     		mov	r0, r3
 119 0048 7047     		bx	lr
 120              		.cfi_endproc
 121              	.LFE140:
 122              		.size	st_lld_get_alarm, .-st_lld_get_alarm
 123 004a 00BF     		.align	2
 124 004c AFF30080 		.p2align 4,,15
 125              		.global	stInit
 126              		.thumb
 127              		.thumb_func
 128              		.type	stInit, %function
 129              	stInit:
 130              	.LFB279:
 131              		.file 2 "../../../os/hal/src/hal_st.c"
 132              		.loc 2 60 0
 133              		.cfi_startproc
 134              		@ args = 0, pretend = 0, frame = 0
 135              		@ frame_needed = 0, uses_anonymous_args = 0
 136 0050 08B5     		push	{r3, lr}
 137              		.cfi_def_cfa_offset 8
 138              		.cfi_offset 3, -8
 139              		.cfi_offset 14, -4
 140              		.loc 2 62 0
 141 0052 FFF7FEFF 		bl	st_lld_init
 142              		.loc 2 63 0
 143 0056 08BD     		pop	{r3, pc}
 144              		.cfi_endproc
 145              	.LFE279:
 146              		.size	stInit, .-stInit
 147              		.align	2
 148 0058 AFF30080 		.p2align 4,,15
 148      AFF30080 
 149              		.global	stStartAlarm
 150              		.thumb
 151              		.thumb_func
 152              		.type	stStartAlarm, %function
 153              	stStartAlarm:
 154              	.LFB280:
 155              		.loc 2 76 0
 156              		.cfi_startproc
 157              		@ args = 0, pretend = 0, frame = 8
 158              		@ frame_needed = 0, uses_anonymous_args = 0
 159 0060 00B5     		push	{lr}
 160              		.cfi_def_cfa_offset 4
 161              		.cfi_offset 14, -4
 162 0062 83B0     		sub	sp, sp, #12
 163              		.cfi_def_cfa_offset 16
 164 0064 0190     		str	r0, [sp, #4]
 165              		.loc 2 80 0
 166 0066 0198     		ldr	r0, [sp, #4]
 167 0068 FFF7CAFF 		bl	st_lld_start_alarm
 168              		.loc 2 81 0
 169 006c 03B0     		add	sp, sp, #12
 170              		.cfi_def_cfa_offset 4
ARM GAS  /tmp/ccL31GXy.s 			page 4


 171              		@ sp needed
 172 006e 5DF804FB 		ldr	pc, [sp], #4
 173              		.cfi_endproc
 174              	.LFE280:
 175              		.size	stStartAlarm, .-stStartAlarm
 176 0072 00BF     		.align	2
 177 0074 AFF30080 		.p2align 4,,15
 177      AFF30080 
 177      AFF30080 
 178              		.global	stStopAlarm
 179              		.thumb
 180              		.thumb_func
 181              		.type	stStopAlarm, %function
 182              	stStopAlarm:
 183              	.LFB281:
 184              		.loc 2 90 0
 185              		.cfi_startproc
 186              		@ args = 0, pretend = 0, frame = 0
 187              		@ frame_needed = 0, uses_anonymous_args = 0
 188 0080 08B5     		push	{r3, lr}
 189              		.cfi_def_cfa_offset 8
 190              		.cfi_offset 3, -8
 191              		.cfi_offset 14, -4
 192              		.loc 2 92 0
 193 0082 FFF7CDFF 		bl	st_lld_stop_alarm
 194              		.loc 2 93 0
 195 0086 08BD     		pop	{r3, pc}
 196              		.cfi_endproc
 197              	.LFE281:
 198              		.size	stStopAlarm, .-stStopAlarm
 199              		.align	2
 200 0088 AFF30080 		.p2align 4,,15
 200      AFF30080 
 201              		.global	stSetAlarm
 202              		.thumb
 203              		.thumb_func
 204              		.type	stSetAlarm, %function
 205              	stSetAlarm:
 206              	.LFB282:
 207              		.loc 2 104 0
 208              		.cfi_startproc
 209              		@ args = 0, pretend = 0, frame = 8
 210              		@ frame_needed = 0, uses_anonymous_args = 0
 211 0090 00B5     		push	{lr}
 212              		.cfi_def_cfa_offset 4
 213              		.cfi_offset 14, -4
 214 0092 83B0     		sub	sp, sp, #12
 215              		.cfi_def_cfa_offset 16
 216 0094 0190     		str	r0, [sp, #4]
 217              		.loc 2 108 0
 218 0096 0198     		ldr	r0, [sp, #4]
 219 0098 FFF7CAFF 		bl	st_lld_set_alarm
 220              		.loc 2 109 0
 221 009c 03B0     		add	sp, sp, #12
 222              		.cfi_def_cfa_offset 4
 223              		@ sp needed
 224 009e 5DF804FB 		ldr	pc, [sp], #4
ARM GAS  /tmp/ccL31GXy.s 			page 5


 225              		.cfi_endproc
 226              	.LFE282:
 227              		.size	stSetAlarm, .-stSetAlarm
 228 00a2 00BF     		.align	2
 229 00a4 AFF30080 		.p2align 4,,15
 229      AFF30080 
 229      AFF30080 
 230              		.global	stGetAlarm
 231              		.thumb
 232              		.thumb_func
 233              		.type	stGetAlarm, %function
 234              	stGetAlarm:
 235              	.LFB283:
 236              		.loc 2 120 0
 237              		.cfi_startproc
 238              		@ args = 0, pretend = 0, frame = 0
 239              		@ frame_needed = 0, uses_anonymous_args = 0
 240 00b0 08B5     		push	{r3, lr}
 241              		.cfi_def_cfa_offset 8
 242              		.cfi_offset 3, -8
 243              		.cfi_offset 14, -4
 244              		.loc 2 124 0
 245 00b2 FFF7C5FF 		bl	st_lld_get_alarm
 246 00b6 0346     		mov	r3, r0
 247              		.loc 2 125 0
 248 00b8 1846     		mov	r0, r3
 249 00ba 08BD     		pop	{r3, pc}
 250              		.cfi_endproc
 251              	.LFE283:
 252              		.size	stGetAlarm, .-stGetAlarm
 253              	.Letext0:
 254              		.file 3 "/usr/include/newlib/machine/_default_types.h"
 255              		.file 4 "/usr/include/newlib/sys/_stdint.h"
 256              		.file 5 "../../../os/common/ports/ARMCMx/compilers/GCC/chtypes.h"
 257              		.file 6 "../../../os/rt/include/chsystypes.h"
 258              		.file 7 "../../../os/rt/include/chschd.h"
 259              		.file 8 "../../../os/common/ports/ARMCMx/chcore.h"
 260              		.file 9 "../../../os/common/ports/ARMCMx/chcore_v7m.h"
 261              		.file 10 "../../../os/hal/ports/STM32/LLD/TIMv1/stm32_tim.h"
 262              		.file 11 "../../../os/rt/include/chtm.h"
 263              		.file 12 "../../../os/rt/include/chsem.h"
 264              		.file 13 "../../../os/rt/include/chmtx.h"
 265              		.file 14 "../../../os/common/ext/CMSIS/include/core_cm4.h"