ARM GAS  /tmp/ccL31GXy.s 			page 1


   1              		.syntax unified
   2              		.cpu cortex-m4
   3              		.fpu softvfp
   4              		.eabi_attribute 20, 1
   5              		.eabi_attribute 21, 1
   6              		.eabi_attribute 23, 3
   7              		.eabi_attribute 24, 1
   8              		.eabi_attribute 25, 1
   9              		.eabi_attribute 26, 1
  10              		.eabi_attribute 30, 6
  11              		.eabi_attribute 34, 1
  12              		.eabi_attribute 18, 4
  13              		.thumb
  14              		.file	"hal_st.c"
  15              		.text
  16              	.Ltext0:
  17              		.cfi_sections	.debug_frame
  18              		.align	2
  19              		.p2align 4,,15
  20              		.thumb
  21              		.thumb_func
  22              		.type	st_lld_start_alarm, %function
  23              	st_lld_start_alarm:
  24              	.LFB137:
  25              		.file 1 "../../../os/hal/ports/STM32/LLD/TIMv1/hal_st_lld.h"
  26              		.loc 1 153 0
  27              		.cfi_startproc
  28              		@ args = 0, pretend = 0, frame = 8
  29              		@ frame_needed = 0, uses_anonymous_args = 0
  30              		@ link register save eliminated.
  31 0000 82B0     		sub	sp, sp, #8
  32              		.cfi_def_cfa_offset 8
  33 0002 0190     		str	r0, [sp, #4]
  34              		.loc 1 155 0
  35 0004 4FF08042 		mov	r2, #1073741824
  36 0008 019B     		ldr	r3, [sp, #4]
  37 000a 5363     		str	r3, [r2, #52]
  38              		.loc 1 156 0
  39 000c 4FF08043 		mov	r3, #1073741824
  40 0010 0022     		movs	r2, #0
  41 0012 1A61     		str	r2, [r3, #16]
  42              		.loc 1 157 0
  43 0014 4FF08043 		mov	r3, #1073741824
  44 0018 0222     		movs	r2, #2
  45 001a DA60     		str	r2, [r3, #12]
  46              		.loc 1 158 0
  47 001c 02B0     		add	sp, sp, #8
  48              		.cfi_def_cfa_offset 0
  49              		@ sp needed
  50 001e 7047     		bx	lr
  51              		.cfi_endproc
  52              	.LFE137:
  53              		.size	st_lld_start_alarm, .-st_lld_start_alarm
  54              		.align	2
  55              		.p2align 4,,15
  56              		.thumb
  57              		.thumb_func
ARM GAS  /tmp/ccL31GXy.s 			page 2


  58              		.type	st_lld_stop_alarm, %function
  59              	st_lld_stop_alarm:
  60              	.LFB138:
  61              		.loc 1 165 0
  62              		.cfi_startproc
  63              		@ args = 0, pretend = 0, frame = 0
  64              		@ frame_needed = 0, uses_anonymous_args = 0
  65              		@ link register save eliminated.
  66              		.loc 1 167 0
  67 0020 4FF08043 		mov	r3, #1073741824
  68 0024 0022     		movs	r2, #0
  69 0026 DA60     		str	r2, [r3, #12]
  70              		.loc 1 168 0
  71 0028 7047     		bx	lr
  72              		.cfi_endproc
  73              	.LFE138:
  74              		.size	st_lld_stop_alarm, .-st_lld_stop_alarm
  75 002a 00BF     		.align	2
  76 002c AFF30080 		.p2align 4,,15
  77              		.thumb
  78              		.thumb_func
  79              		.type	st_lld_set_alarm, %function
  80              	st_lld_set_alarm:
  81              	.LFB139:
  82              		.loc 1 177 0
  83              		.cfi_startproc
  84              		@ args = 0, pretend = 0, frame = 8
  85              		@ frame_needed = 0, uses_anonymous_args = 0
  86              		@ link register save eliminated.
  87 0030 82B0     		sub	sp, sp, #8
  88              		.cfi_def_cfa_offset 8
  89 0032 0190     		str	r0, [sp, #4]
  90              		.loc 1 179 0
  91 0034 4FF08042 		mov	r2, #1073741824
  92 0038 019B     		ldr	r3, [sp, #4]
  93 003a 5363     		str	r3, [r2, #52]
  94              		.loc 1 180 0
  95 003c 02B0     		add	sp, sp, #8
  96              		.cfi_def_cfa_offset 0
  97              		@ sp needed
  98 003e 7047     		bx	lr
  99              		.cfi_endproc
 100              	.LFE139:
 101              		.size	st_lld_set_alarm, .-st_lld_set_alarm
 102              		.align	2
 103              		.p2align 4,,15
 104              		.thumb
 105              		.thumb_func
 106              		.type	st_lld_get_alarm, %function
 107              	st_lld_get_alarm:
 108              	.LFB140:
 109              		.loc 1 189 0
 110              		.cfi_startproc
 111              		@ args = 0, pretend = 0, frame = 0
 112              		@ frame_needed = 0, uses_anonymous_args = 0
 113              		@ link register save eliminated.
 114              		.loc 1 191 0
ARM GAS  /tmp/ccL31GXy.s 			page 3


 115 0040 4FF08043 		mov	r3, #1073741824
 116 0044 5B6B     		ldr	r3, [r3, #52]
 117              		.loc 1 192 0
 118 0046 1846     		mov	r0, r3
 119 0048 7047     		bx	lr
 120              		.cfi_endproc
 121              	.LFE140:
 122              		.size	st_lld_get_alarm, .-st_lld_get_alarm
 123 004a 00BF     		.align	2
 124 004c AFF30080 		.p2align 4,,15
 125              		.global	stInit
 126              		.thumb
 127              		.thumb_func
 128              		.type	stInit, %function
 129              	stInit:
 130              	.LFB279:
 131              		.file 2 "../../../os/hal/src/hal_st.c"
 132              		.loc 2 60 0
 133              		.cfi_startproc
 134              		@ args = 0, pretend = 0, frame = 0
 135              		@ frame_needed = 0, uses_anonymous_args = 0
 136 0050 08B5     		push	{r3, lr}
 137              		.cfi_def_cfa_offset 8
 138              		.cfi_offset 3, -8
 139              		.cfi_offset 14, -4
 140              		.loc 2 62 0
 141 0052 FFF7FEFF 		bl	st_lld_init
 142              		.loc 2 63 0
 143 0056 08BD     		pop	{r3, pc}
 144              		.cfi_endproc
 145              	.LFE279:
 146              		.size	stInit, .-stInit
 147              		.align	2
 148 0058 AFF30080 		.p2align 4,,15
 148      AFF30080 
 149              		.global	stStartAlarm
 150              		.thumb
 151              		.thumb_func
 152              		.type	stStartAlarm, %function
 153              	stStartAlarm:
 154              	.LFB280:
 155              		.loc 2 76 0
 156              		.cfi_startproc
 157              		@ args = 0, pretend = 0, frame = 8
 158              		@ frame_needed = 0, uses_anonymous_args = 0
 159 0060 00B5     		push	{lr}
 160              		.cfi_def_cfa_offset 4
 161              		.cfi_offset 14, -4
 162 0062 83B0     		sub	sp, sp, #12
 163              		.cfi_def_cfa_offset 16
 164 0064 0190     		str	r0, [sp, #4]
 165              		.loc 2 80 0
 166 0066 0198     		ldr	r0, [sp, #4]
 167 0068 FFF7CAFF 		bl	st_lld_start_alarm
 168              		.loc 2 81 0
 169 006c 03B0     		add	sp, sp, #12
 170              		.cfi_def_cfa_offset 4
ARM GAS  /tmp/ccL31GXy.s 			page 4


 171              		@ sp needed
 172 006e 5DF804FB 		ldr	pc, [sp], #4
 173              		.cfi_endproc
 174              	.LFE280:
 175              		.size	stStartAlarm, .-stStartAlarm
 176 0072 00BF     		.align	2
 177 0074 AFF30080 		.p2align 4,,15
 177      AFF30080 
 177      AFF30080 
 178              		.global	stStopAlarm
 179              		.thumb
 180              		.thumb_func
 181              		.type	stStopAlarm, %function
 182              	stStopAlarm:
 183              	.LFB281:
 184              		.loc 2 90 0
 185              		.cfi_startproc
 186              		@ args = 0, pretend = 0, frame = 0
 187              		@ frame_needed = 0, uses_anonymous_args = 0
 188 0080 08B5     		push	{r3, lr}
 189              		.cfi_def_cfa_offset 8
 190              		.cfi_offset 3, -8
 191              		.cfi_offset 14, -4
 192              		.loc 2 92 0
 193 0082 FFF7CDFF 		bl	st_lld_stop_alarm
 194              		.loc 2 93 0
 195 0086 08BD     		pop	{r3, pc}
 196              		.cfi_endproc
 197              	.LFE281:
 198              		.size	stStopAlarm, .-stStopAlarm
 199              		.align	2
 200 0088 AFF30080 		.p2align 4,,15
 200      AFF30080 
 201              		.global	stSetAlarm
 202              		.thumb
 203              		.thumb_func
 204              		.type	stSetAlarm, %function
 205              	stSetAlarm:
 206              	.LFB282:
 207              		.loc 2 104 0
 208              		.cfi_startproc
 209              		@ args = 0, pretend = 0, frame = 8
 210              		@ frame_needed = 0, uses_anonymous_args = 0
 211 0090 00B5     		push	{lr}
 212              		.cfi_def_cfa_offset 4
 213              		.cfi_offset 14, -4
 214 0092 83B0     		sub	sp, sp, #12
 215              		.cfi_def_cfa_offset 16
 216 0094 0190     		str	r0, [sp, #4]
 217              		.loc 2 108 0
 218 0096 0198     		ldr	r0, [sp, #4]
 219 0098 FFF7CAFF 		bl	st_lld_set_alarm
 220              		.loc 2 109 0
 221 009c 03B0     		add	sp, sp, #12
 222              		.cfi_def_cfa_offset 4
 223              		@ sp needed
 224 009e 5DF804FB 		ldr	pc, [sp], #4
ARM GAS  /tmp/ccL31GXy.s 			page 5


 225              		.cfi_endproc
 226              	.LFE282:
 227              		.size	stSetAlarm, .-stSetAlarm
 228 00a2 00BF     		.align	2
 229 00a4 AFF30080 		.p2align 4,,15
 229      AFF30080 
 229      AFF30080 
 230              		.global	stGetAlarm
 231              		.thumb
 232              		.thumb_func
 233              		.type	stGetAlarm, %function
 234              	stGetAlarm:
 235              	.LFB283:
 236              		.loc 2 120 0
 237              		.cfi_startproc
 238              		@ args = 0, pretend = 0, frame = 0
 239              		@ frame_needed = 0, uses_anonymous_args = 0
 240 00b0 08B5     		push	{r3, lr}
 241              		.cfi_def_cfa_offset 8
 242              		.cfi_offset 3, -8
 243              		.cfi_offset 14, -4
 244              		.loc 2 124 0
 245 00b2 FFF7C5FF 		bl	st_lld_get_alarm
 246 00b6 0346     		mov	r3, r0
 247              		.loc 2 125 0
 248 00b8 1846     		mov	r0, r3
 249 00ba 08BD     		pop	{r3, pc}
 250              		.cfi_endproc
 251              	.LFE283:
 252              		.size	stGetAlarm, .-stGetAlarm
 253              	.Letext0:
 254              		.file 3 "/usr/include/newlib/machine/_default_types.h"
 255              		.file 4 "/usr/include/newlib/sys/_stdint.h"
 256              		.file 5 "../../../os/common/ports/ARMCMx/compilers/GCC/chtypes.h"
 257              		.file 6 "../../../os/rt/include/chsystypes.h"
 258              		.file 7 "../../../os/rt/include/chschd.h"
 259              		.file 8 "../../../os/common/ports/ARMCMx/chcore.h"
 260              		.file 9 "../../../os/common/ports/ARMCMx/chcore_v7m.h"
 261              		.file 10 "../../../os/hal/ports/STM32/LLD/TIMv1/stm32_tim.h"
 262              		.file 11 "../../../os/rt/include/chtm.h"
 263              		.file 12 "../../../os/rt/include/chsem.h"
 264              		.file 13 "../../../os/rt/include/chmtx.h"
 265              		.file 14 "../../../os/common/ext/CMSIS/include/core_cm4.h"
 266              		.section	.debug_info,"",%progbits
 267              	.Ldebug_info0:
 268 0000 98080000 		.4byte	0x898
 269 0004 0400     		.2byte	0x4
 270 0006 00000000 		.4byte	.Ldebug_abbrev0
 271 000a 04       		.byte	0x4
 272 000b 01       		.uleb128 0x1
 273 000c C6030000 		.4byte	.LASF110
 274 0010 01       		.byte	0x1
 275 0011 3C010000 		.4byte	.LASF111
 276 0015 A5010000 		.4byte	.LASF112
 277 0019 00000000 		.4byte	.Ltext0
 278 001d BC000000 		.4byte	.Letext0-.Ltext0
 279 0021 00000000 		.4byte	.Ldebug_line0
ARM GAS  /tmp/ccL31GXy.s 			page 6


 280 0025 02       		.uleb128 0x2
 281 0026 04       		.byte	0x4
 282 0027 05       		.byte	0x5
 283 0028 696E7400 		.ascii	"int\000"
 284 002c 03       		.uleb128 0x3
 285 002d 04       		.byte	0x4
 286 002e 07       		.byte	0x7
 287 002f 7F010000 		.4byte	.LASF0
 288 0033 03       		.uleb128 0x3
 289 0034 01       		.byte	0x1
 290 0035 06       		.byte	0x6
 291 0036 DB000000 		.4byte	.LASF1
 292 003a 04       		.uleb128 0x4
 293 003b 33000000 		.4byte	.LASF5
 294 003f 03       		.byte	0x3
 295 0040 1D       		.byte	0x1d
 296 0041 45000000 		.4byte	0x45
 297 0045 03       		.uleb128 0x3
 298 0046 01       		.byte	0x1
 299 0047 08       		.byte	0x8
 300 0048 29030000 		.4byte	.LASF2
 301 004c 03       		.uleb128 0x3
 302 004d 02       		.byte	0x2
 303 004e 05       		.byte	0x5
 304 004f 37030000 		.4byte	.LASF3
 305 0053 03       		.uleb128 0x3
 306 0054 02       		.byte	0x2
 307 0055 07       		.byte	0x7
 308 0056 AA040000 		.4byte	.LASF4
 309 005a 04       		.uleb128 0x4
 310 005b 41020000 		.4byte	.LASF6
 311 005f 03       		.byte	0x3
 312 0060 3F       		.byte	0x3f
 313 0061 65000000 		.4byte	0x65
 314 0065 03       		.uleb128 0x3
 315 0066 04       		.byte	0x4
 316 0067 05       		.byte	0x5
 317 0068 FD000000 		.4byte	.LASF7
 318 006c 04       		.uleb128 0x4
 319 006d 81040000 		.4byte	.LASF8
 320 0071 03       		.byte	0x3
 321 0072 41       		.byte	0x41
 322 0073 77000000 		.4byte	0x77
 323 0077 03       		.uleb128 0x3
 324 0078 04       		.byte	0x4
 325 0079 07       		.byte	0x7
 326 007a 93010000 		.4byte	.LASF9
 327 007e 03       		.uleb128 0x3
 328 007f 08       		.byte	0x8
 329 0080 05       		.byte	0x5
 330 0081 21010000 		.4byte	.LASF10
 331 0085 04       		.uleb128 0x4
 332 0086 DB020000 		.4byte	.LASF11
 333 008a 03       		.byte	0x3
 334 008b 5B       		.byte	0x5b
 335 008c 90000000 		.4byte	0x90
 336 0090 03       		.uleb128 0x3
ARM GAS  /tmp/ccL31GXy.s 			page 7


 337 0091 08       		.byte	0x8
 338 0092 07       		.byte	0x7
 339 0093 5D000000 		.4byte	.LASF12
 340 0097 04       		.uleb128 0x4
 341 0098 5B030000 		.4byte	.LASF13
 342 009c 04       		.byte	0x4
 343 009d 14       		.byte	0x14
 344 009e 3A000000 		.4byte	0x3a
 345 00a2 04       		.uleb128 0x4
 346 00a3 21030000 		.4byte	.LASF14
 347 00a7 04       		.byte	0x4
 348 00a8 1F       		.byte	0x1f
 349 00a9 5A000000 		.4byte	0x5a
 350 00ad 04       		.uleb128 0x4
 351 00ae A0030000 		.4byte	.LASF15
 352 00b2 04       		.byte	0x4
 353 00b3 20       		.byte	0x20
 354 00b4 6C000000 		.4byte	0x6c
 355 00b8 04       		.uleb128 0x4
 356 00b9 2A000000 		.4byte	.LASF16
 357 00bd 04       		.byte	0x4
 358 00be 26       		.byte	0x26
 359 00bf 85000000 		.4byte	0x85
 360 00c3 04       		.uleb128 0x4
 361 00c4 BD040000 		.4byte	.LASF17
 362 00c8 05       		.byte	0x5
 363 00c9 39       		.byte	0x39
 364 00ca AD000000 		.4byte	0xad
 365 00ce 04       		.uleb128 0x4
 366 00cf 06010000 		.4byte	.LASF18
 367 00d3 05       		.byte	0x5
 368 00d4 3C       		.byte	0x3c
 369 00d5 97000000 		.4byte	0x97
 370 00d9 04       		.uleb128 0x4
 371 00da 0E010000 		.4byte	.LASF19
 372 00de 05       		.byte	0x5
 373 00df 3D       		.byte	0x3d
 374 00e0 97000000 		.4byte	0x97
 375 00e4 04       		.uleb128 0x4
 376 00e5 E6020000 		.4byte	.LASF20
 377 00e9 05       		.byte	0x5
 378 00ea 3E       		.byte	0x3e
 379 00eb 97000000 		.4byte	0x97
 380 00ef 04       		.uleb128 0x4
 381 00f0 03030000 		.4byte	.LASF21
 382 00f4 05       		.byte	0x5
 383 00f5 40       		.byte	0x40
 384 00f6 AD000000 		.4byte	0xad
 385 00fa 04       		.uleb128 0x4
 386 00fb 00020000 		.4byte	.LASF22
 387 00ff 05       		.byte	0x5
 388 0100 41       		.byte	0x41
 389 0101 A2000000 		.4byte	0xa2
 390 0105 04       		.uleb128 0x4
 391 0106 35020000 		.4byte	.LASF23
 392 010a 05       		.byte	0x5
 393 010b 43       		.byte	0x43
ARM GAS  /tmp/ccL31GXy.s 			page 8


 394 010c AD000000 		.4byte	0xad
 395 0110 04       		.uleb128 0x4
 396 0111 79010000 		.4byte	.LASF24
 397 0115 05       		.byte	0x5
 398 0116 45       		.byte	0x45
 399 0117 A2000000 		.4byte	0xa2
 400 011b 04       		.uleb128 0x4
 401 011c 6E040000 		.4byte	.LASF25
 402 0120 06       		.byte	0x6
 403 0121 33       		.byte	0x33
 404 0122 AD000000 		.4byte	0xad
 405 0126 04       		.uleb128 0x4
 406 0127 65040000 		.4byte	.LASF26
 407 012b 06       		.byte	0x6
 408 012c 3F       		.byte	0x3f
 409 012d 31010000 		.4byte	0x131
 410 0131 05       		.uleb128 0x5
 411 0132 F6010000 		.4byte	.LASF44
 412 0136 44       		.byte	0x44
 413 0137 07       		.byte	0x7
 414 0138 9A       		.byte	0x9a
 415 0139 0F020000 		.4byte	0x20f
 416 013d 06       		.uleb128 0x6
 417 013e 2F010000 		.4byte	.LASF27
 418 0142 07       		.byte	0x7
 419 0143 9B       		.byte	0x9b
 420 0144 44020000 		.4byte	0x244
 421 0148 00       		.byte	0
 422 0149 06       		.uleb128 0x6
 423 014a CE020000 		.4byte	.LASF28
 424 014e 07       		.byte	0x7
 425 014f 9C       		.byte	0x9c
 426 0150 EF000000 		.4byte	0xef
 427 0154 08       		.byte	0x8
 428 0155 07       		.uleb128 0x7
 429 0156 63747800 		.ascii	"ctx\000"
 430 015a 07       		.byte	0x7
 431 015b 9D       		.byte	0x9d
 432 015c 61040000 		.4byte	0x461
 433 0160 0C       		.byte	0xc
 434 0161 06       		.uleb128 0x6
 435 0162 69020000 		.4byte	.LASF29
 436 0166 07       		.byte	0x7
 437 0167 9F       		.byte	0x9f
 438 0168 1A020000 		.4byte	0x21a
 439 016c 10       		.byte	0x10
 440 016d 06       		.uleb128 0x6
 441 016e 5A040000 		.4byte	.LASF30
 442 0172 07       		.byte	0x7
 443 0173 A0       		.byte	0xa0
 444 0174 1A020000 		.4byte	0x21a
 445 0178 14       		.byte	0x14
 446 0179 06       		.uleb128 0x6
 447 017a E6010000 		.4byte	.LASF31
 448 017e 07       		.byte	0x7
 449 017f A7       		.byte	0xa7
 450 0180 08070000 		.4byte	0x708
ARM GAS  /tmp/ccL31GXy.s 			page 9


 451 0184 18       		.byte	0x18
 452 0185 06       		.uleb128 0x6
 453 0186 35010000 		.4byte	.LASF32
 454 018a 07       		.byte	0x7
 455 018b B0       		.byte	0xb0
 456 018c 1A070000 		.4byte	0x71a
 457 0190 1C       		.byte	0x1c
 458 0191 06       		.uleb128 0x6
 459 0192 F7000000 		.4byte	.LASF33
 460 0196 07       		.byte	0x7
 461 0197 B5       		.byte	0xb5
 462 0198 D9000000 		.4byte	0xd9
 463 019c 20       		.byte	0x20
 464 019d 06       		.uleb128 0x6
 465 019e 01050000 		.4byte	.LASF34
 466 01a2 07       		.byte	0x7
 467 01a3 B9       		.byte	0xb9
 468 01a4 CE000000 		.4byte	0xce
 469 01a8 21       		.byte	0x21
 470 01a9 06       		.uleb128 0x6
 471 01aa EE020000 		.4byte	.LASF35
 472 01ae 07       		.byte	0x7
 473 01af BE       		.byte	0xbe
 474 01b0 E4000000 		.4byte	0xe4
 475 01b4 22       		.byte	0x22
 476 01b5 08       		.uleb128 0x8
 477 01b6 7500     		.ascii	"u\000"
 478 01b8 07       		.byte	0x7
 479 01b9 0F01     		.2byte	0x10f
 480 01bb 3D060000 		.4byte	0x63d
 481 01bf 24       		.byte	0x24
 482 01c0 09       		.uleb128 0x9
 483 01c1 69010000 		.4byte	.LASF36
 484 01c5 07       		.byte	0x7
 485 01c6 1401     		.2byte	0x114
 486 01c8 20020000 		.4byte	0x220
 487 01cc 28       		.byte	0x28
 488 01cd 09       		.uleb128 0x9
 489 01ce EE000000 		.4byte	.LASF37
 490 01d2 07       		.byte	0x7
 491 01d3 1A01     		.2byte	0x11a
 492 01d5 44020000 		.4byte	0x244
 493 01d9 2C       		.byte	0x2c
 494 01da 09       		.uleb128 0x9
 495 01db 06020000 		.4byte	.LASF38
 496 01df 07       		.byte	0x7
 497 01e0 2001     		.2byte	0x120
 498 01e2 05010000 		.4byte	0x105
 499 01e6 34       		.byte	0x34
 500 01e7 09       		.uleb128 0x9
 501 01e8 41050000 		.4byte	.LASF39
 502 01ec 07       		.byte	0x7
 503 01ed 2701     		.2byte	0x127
 504 01ef 02070000 		.4byte	0x702
 505 01f3 38       		.byte	0x38
 506 01f4 09       		.uleb128 0x9
 507 01f5 6F020000 		.4byte	.LASF40
ARM GAS  /tmp/ccL31GXy.s 			page 10


 508 01f9 07       		.byte	0x7
 509 01fa 2B01     		.2byte	0x12b
 510 01fc EF000000 		.4byte	0xef
 511 0200 3C       		.byte	0x3c
 512 0201 09       		.uleb128 0x9
 513 0202 EB010000 		.4byte	.LASF41
 514 0206 07       		.byte	0x7
 515 0207 3201     		.2byte	0x132
 516 0209 F7020000 		.4byte	0x2f7
 517 020d 40       		.byte	0x40
 518 020e 00       		.byte	0
 519 020f 04       		.uleb128 0x4
 520 0210 81020000 		.4byte	.LASF42
 521 0214 06       		.byte	0x6
 522 0215 44       		.byte	0x44
 523 0216 1A020000 		.4byte	0x21a
 524 021a 0A       		.uleb128 0xa
 525 021b 04       		.byte	0x4
 526 021c 26010000 		.4byte	0x126
 527 0220 04       		.uleb128 0x4
 528 0221 19050000 		.4byte	.LASF43
 529 0225 06       		.byte	0x6
 530 0226 49       		.byte	0x49
 531 0227 2B020000 		.4byte	0x22b
 532 022b 05       		.uleb128 0x5
 533 022c B0030000 		.4byte	.LASF45
 534 0230 04       		.byte	0x4
 535 0231 07       		.byte	0x7
 536 0232 88       		.byte	0x88
 537 0233 44020000 		.4byte	0x244
 538 0237 06       		.uleb128 0x6
 539 0238 18000000 		.4byte	.LASF46
 540 023c 07       		.byte	0x7
 541 023d 89       		.byte	0x89
 542 023e 1A020000 		.4byte	0x21a
 543 0242 00       		.byte	0
 544 0243 00       		.byte	0
 545 0244 04       		.uleb128 0x4
 546 0245 D7040000 		.4byte	.LASF47
 547 0249 06       		.byte	0x6
 548 024a 50       		.byte	0x50
 549 024b 4F020000 		.4byte	0x24f
 550 024f 05       		.uleb128 0x5
 551 0250 B8000000 		.4byte	.LASF48
 552 0254 08       		.byte	0x8
 553 0255 07       		.byte	0x7
 554 0256 8F       		.byte	0x8f
 555 0257 74020000 		.4byte	0x274
 556 025b 06       		.uleb128 0x6
 557 025c 18000000 		.4byte	.LASF46
 558 0260 07       		.byte	0x7
 559 0261 90       		.byte	0x90
 560 0262 1A020000 		.4byte	0x21a
 561 0266 00       		.byte	0
 562 0267 06       		.uleb128 0x6
 563 0268 3D000000 		.4byte	.LASF49
 564 026c 07       		.byte	0x7
ARM GAS  /tmp/ccL31GXy.s 			page 11


 565 026d 91       		.byte	0x91
 566 026e 1A020000 		.4byte	0x21a
 567 0272 04       		.byte	0x4
 568 0273 00       		.byte	0
 569 0274 04       		.uleb128 0x4
 570 0275 00000000 		.4byte	.LASF50
 571 0279 06       		.byte	0x6
 572 027a 57       		.byte	0x57
 573 027b 7F020000 		.4byte	0x27f
 574 027f 0B       		.uleb128 0xb
 575 0280 27020000 		.4byte	.LASF51
 576 0284 1C       		.byte	0x1c
 577 0285 07       		.byte	0x7
 578 0286 6A01     		.2byte	0x16a
 579 0288 DB020000 		.4byte	0x2db
 580 028c 09       		.uleb128 0x9
 581 028d 2F010000 		.4byte	.LASF27
 582 0291 07       		.byte	0x7
 583 0292 6B01     		.2byte	0x16b
 584 0294 44020000 		.4byte	0x244
 585 0298 00       		.byte	0
 586 0299 09       		.uleb128 0x9
 587 029a CE020000 		.4byte	.LASF28
 588 029e 07       		.byte	0x7
 589 029f 6C01     		.2byte	0x16c
 590 02a1 EF000000 		.4byte	0xef
 591 02a5 08       		.byte	0x8
 592 02a6 08       		.uleb128 0x8
 593 02a7 63747800 		.ascii	"ctx\000"
 594 02ab 07       		.byte	0x7
 595 02ac 6E01     		.2byte	0x16e
 596 02ae 61040000 		.4byte	0x461
 597 02b2 0C       		.byte	0xc
 598 02b3 09       		.uleb128 0x9
 599 02b4 69020000 		.4byte	.LASF29
 600 02b8 07       		.byte	0x7
 601 02b9 7101     		.2byte	0x171
 602 02bb 1A020000 		.4byte	0x21a
 603 02bf 10       		.byte	0x10
 604 02c0 09       		.uleb128 0x9
 605 02c1 5A040000 		.4byte	.LASF30
 606 02c5 07       		.byte	0x7
 607 02c6 7201     		.2byte	0x172
 608 02c8 1A020000 		.4byte	0x21a
 609 02cc 14       		.byte	0x14
 610 02cd 09       		.uleb128 0x9
 611 02ce D3020000 		.4byte	.LASF52
 612 02d2 07       		.byte	0x7
 613 02d3 7501     		.2byte	0x175
 614 02d5 1A020000 		.4byte	0x21a
 615 02d9 18       		.byte	0x18
 616 02da 00       		.byte	0
 617 02db 04       		.uleb128 0x4
 618 02dc 78040000 		.4byte	.LASF53
 619 02e0 06       		.byte	0x6
 620 02e1 5C       		.byte	0x5c
 621 02e2 E6020000 		.4byte	0x2e6
ARM GAS  /tmp/ccL31GXy.s 			page 12


 622 02e6 0A       		.uleb128 0xa
 623 02e7 04       		.byte	0x4
 624 02e8 EC020000 		.4byte	0x2ec
 625 02ec 0C       		.uleb128 0xc
 626 02ed F7020000 		.4byte	0x2f7
 627 02f1 0D       		.uleb128 0xd
 628 02f2 F7020000 		.4byte	0x2f7
 629 02f6 00       		.byte	0
 630 02f7 0E       		.uleb128 0xe
 631 02f8 04       		.byte	0x4
 632 02f9 04       		.uleb128 0x4
 633 02fa F3020000 		.4byte	.LASF54
 634 02fe 06       		.byte	0x6
 635 02ff 61       		.byte	0x61
 636 0300 04030000 		.4byte	0x304
 637 0304 0B       		.uleb128 0xb
 638 0305 6C030000 		.4byte	.LASF55
 639 0309 14       		.byte	0x14
 640 030a 07       		.byte	0x7
 641 030b 4501     		.2byte	0x145
 642 030d 53030000 		.4byte	0x353
 643 0311 09       		.uleb128 0x9
 644 0312 18000000 		.4byte	.LASF46
 645 0316 07       		.byte	0x7
 646 0317 4601     		.2byte	0x146
 647 0319 20070000 		.4byte	0x720
 648 031d 00       		.byte	0
 649 031e 09       		.uleb128 0x9
 650 031f 3D000000 		.4byte	.LASF49
 651 0323 07       		.byte	0x7
 652 0324 4701     		.2byte	0x147
 653 0326 20070000 		.4byte	0x720
 654 032a 04       		.byte	0x4
 655 032b 09       		.uleb128 0x9
 656 032c 1D000000 		.4byte	.LASF56
 657 0330 07       		.byte	0x7
 658 0331 4801     		.2byte	0x148
 659 0333 1B010000 		.4byte	0x11b
 660 0337 08       		.byte	0x8
 661 0338 09       		.uleb128 0x9
 662 0339 17010000 		.4byte	.LASF57
 663 033d 07       		.byte	0x7
 664 033e 4901     		.2byte	0x149
 665 0340 DB020000 		.4byte	0x2db
 666 0344 0C       		.byte	0xc
 667 0345 08       		.uleb128 0x8
 668 0346 70617200 		.ascii	"par\000"
 669 034a 07       		.byte	0x7
 670 034b 4B01     		.2byte	0x14b
 671 034d F7020000 		.4byte	0x2f7
 672 0351 10       		.byte	0x10
 673 0352 00       		.byte	0
 674 0353 04       		.uleb128 0x4
 675 0354 90000000 		.4byte	.LASF58
 676 0358 06       		.byte	0x6
 677 0359 66       		.byte	0x66
 678 035a 5E030000 		.4byte	0x35e
ARM GAS  /tmp/ccL31GXy.s 			page 13


 679 035e 0B       		.uleb128 0xb
 680 035f 94020000 		.4byte	.LASF59
 681 0363 10       		.byte	0x10
 682 0364 07       		.byte	0x7
 683 0365 5501     		.2byte	0x155
 684 0367 A0030000 		.4byte	0x3a0
 685 036b 09       		.uleb128 0x9
 686 036c 18000000 		.4byte	.LASF46
 687 0370 07       		.byte	0x7
 688 0371 5601     		.2byte	0x156
 689 0373 20070000 		.4byte	0x720
 690 0377 00       		.byte	0
 691 0378 09       		.uleb128 0x9
 692 0379 3D000000 		.4byte	.LASF49
 693 037d 07       		.byte	0x7
 694 037e 5801     		.2byte	0x158
 695 0380 20070000 		.4byte	0x720
 696 0384 04       		.byte	0x4
 697 0385 09       		.uleb128 0x9
 698 0386 1D000000 		.4byte	.LASF56
 699 038a 07       		.byte	0x7
 700 038b 5A01     		.2byte	0x15a
 701 038d 1B010000 		.4byte	0x11b
 702 0391 08       		.byte	0x8
 703 0392 09       		.uleb128 0x9
 704 0393 41030000 		.4byte	.LASF60
 705 0397 07       		.byte	0x7
 706 0398 6201     		.2byte	0x162
 707 039a 1B010000 		.4byte	0x11b
 708 039e 0C       		.byte	0xc
 709 039f 00       		.byte	0
 710 03a0 04       		.uleb128 0x4
 711 03a1 4E000000 		.4byte	.LASF61
 712 03a5 06       		.byte	0x6
 713 03a6 6B       		.byte	0x6b
 714 03a7 AB030000 		.4byte	0x3ab
 715 03ab 0B       		.uleb128 0xb
 716 03ac 0B030000 		.4byte	.LASF62
 717 03b0 04       		.byte	0x4
 718 03b1 07       		.byte	0x7
 719 03b2 7C01     		.2byte	0x17c
 720 03b4 C6030000 		.4byte	0x3c6
 721 03b8 09       		.uleb128 0x9
 722 03b9 8C040000 		.4byte	.LASF63
 723 03bd 07       		.byte	0x7
 724 03be 8401     		.2byte	0x184
 725 03c0 26070000 		.4byte	0x726
 726 03c4 00       		.byte	0
 727 03c5 00       		.byte	0
 728 03c6 04       		.uleb128 0x4
 729 03c7 0F020000 		.4byte	.LASF64
 730 03cb 06       		.byte	0x6
 731 03cc 70       		.byte	0x70
 732 03cd D1030000 		.4byte	0x3d1
 733 03d1 0B       		.uleb128 0xb
 734 03d2 51030000 		.4byte	.LASF65
 735 03d6 78       		.byte	0x78
ARM GAS  /tmp/ccL31GXy.s 			page 14


 736 03d7 07       		.byte	0x7
 737 03d8 9C01     		.2byte	0x19c
 738 03da 1F040000 		.4byte	0x41f
 739 03de 09       		.uleb128 0x9
 740 03df F0040000 		.4byte	.LASF66
 741 03e3 07       		.byte	0x7
 742 03e4 A001     		.2byte	0x1a0
 743 03e6 74020000 		.4byte	0x274
 744 03ea 00       		.byte	0
 745 03eb 09       		.uleb128 0x9
 746 03ec E7000000 		.4byte	.LASF67
 747 03f0 07       		.byte	0x7
 748 03f1 A401     		.2byte	0x1a4
 749 03f3 53030000 		.4byte	0x353
 750 03f7 1C       		.byte	0x1c
 751 03f8 08       		.uleb128 0x8
 752 03f9 64626700 		.ascii	"dbg\000"
 753 03fd 07       		.byte	0x7
 754 03fe A801     		.2byte	0x1a8
 755 0400 A0030000 		.4byte	0x3a0
 756 0404 2C       		.byte	0x2c
 757 0405 09       		.uleb128 0x9
 758 0406 7D000000 		.4byte	.LASF68
 759 040a 07       		.byte	0x7
 760 040b AC01     		.2byte	0x1ac
 761 040d 26010000 		.4byte	0x126
 762 0411 30       		.byte	0x30
 763 0412 08       		.uleb128 0x8
 764 0413 746D00   		.ascii	"tm\000"
 765 0416 07       		.byte	0x7
 766 0417 B101     		.2byte	0x1b1
 767 0419 32060000 		.4byte	0x632
 768 041d 74       		.byte	0x74
 769 041e 00       		.byte	0
 770 041f 03       		.uleb128 0x3
 771 0420 04       		.byte	0x4
 772 0421 07       		.byte	0x7
 773 0422 78020000 		.4byte	.LASF69
 774 0426 0F       		.uleb128 0xf
 775 0427 AD000000 		.4byte	0xad
 776 042b 10       		.uleb128 0x10
 777 042c AD000000 		.4byte	0xad
 778 0430 3B040000 		.4byte	0x43b
 779 0434 11       		.uleb128 0x11
 780 0435 1F040000 		.4byte	0x41f
 781 0439 01       		.byte	0x1
 782 043a 00       		.byte	0
 783 043b 10       		.uleb128 0x10
 784 043c AD000000 		.4byte	0xad
 785 0440 4B040000 		.4byte	0x44b
 786 0444 11       		.uleb128 0x11
 787 0445 1F040000 		.4byte	0x41f
 788 0449 03       		.byte	0x3
 789 044a 00       		.byte	0
 790 044b 04       		.uleb128 0x4
 791 044c 59010000 		.4byte	.LASF70
 792 0450 08       		.byte	0x8
ARM GAS  /tmp/ccL31GXy.s 			page 15


 793 0451 65       		.byte	0x65
 794 0452 F7020000 		.4byte	0x2f7
 795 0456 04       		.uleb128 0x4
 796 0457 5E020000 		.4byte	.LASF71
 797 045b 08       		.byte	0x8
 798 045c 6D       		.byte	0x6d
 799 045d B8000000 		.4byte	0xb8
 800 0461 05       		.uleb128 0x5
 801 0462 AB020000 		.4byte	.LASF72
 802 0466 04       		.byte	0x4
 803 0467 08       		.byte	0x8
 804 0468 89       		.byte	0x89
 805 0469 79040000 		.4byte	0x479
 806 046d 07       		.uleb128 0x7
 807 046e 737000   		.ascii	"sp\000"
 808 0471 08       		.byte	0x8
 809 0472 8A       		.byte	0x8a
 810 0473 F5040000 		.4byte	0x4f5
 811 0477 00       		.byte	0
 812 0478 00       		.byte	0
 813 0479 0B       		.uleb128 0xb
 814 047a 42000000 		.4byte	.LASF73
 815 047e 24       		.byte	0x24
 816 047f 09       		.byte	0x9
 817 0480 5901     		.2byte	0x159
 818 0482 F5040000 		.4byte	0x4f5
 819 0486 08       		.uleb128 0x8
 820 0487 723400   		.ascii	"r4\000"
 821 048a 09       		.byte	0x9
 822 048b 6C01     		.2byte	0x16c
 823 048d 4B040000 		.4byte	0x44b
 824 0491 00       		.byte	0
 825 0492 08       		.uleb128 0x8
 826 0493 723500   		.ascii	"r5\000"
 827 0496 09       		.byte	0x9
 828 0497 6D01     		.2byte	0x16d
 829 0499 4B040000 		.4byte	0x44b
 830 049d 04       		.byte	0x4
 831 049e 08       		.uleb128 0x8
 832 049f 723600   		.ascii	"r6\000"
 833 04a2 09       		.byte	0x9
 834 04a3 6E01     		.2byte	0x16e
 835 04a5 4B040000 		.4byte	0x44b
 836 04a9 08       		.byte	0x8
 837 04aa 08       		.uleb128 0x8
 838 04ab 723700   		.ascii	"r7\000"
 839 04ae 09       		.byte	0x9
 840 04af 6F01     		.2byte	0x16f
 841 04b1 4B040000 		.4byte	0x44b
 842 04b5 0C       		.byte	0xc
 843 04b6 08       		.uleb128 0x8
 844 04b7 723800   		.ascii	"r8\000"
 845 04ba 09       		.byte	0x9
 846 04bb 7001     		.2byte	0x170
 847 04bd 4B040000 		.4byte	0x44b
 848 04c1 10       		.byte	0x10
 849 04c2 08       		.uleb128 0x8
ARM GAS  /tmp/ccL31GXy.s 			page 16


 850 04c3 723900   		.ascii	"r9\000"
 851 04c6 09       		.byte	0x9
 852 04c7 7101     		.2byte	0x171
 853 04c9 4B040000 		.4byte	0x44b
 854 04cd 14       		.byte	0x14
 855 04ce 08       		.uleb128 0x8
 856 04cf 72313000 		.ascii	"r10\000"
 857 04d3 09       		.byte	0x9
 858 04d4 7201     		.2byte	0x172
 859 04d6 4B040000 		.4byte	0x44b
 860 04da 18       		.byte	0x18
 861 04db 08       		.uleb128 0x8
 862 04dc 72313100 		.ascii	"r11\000"
 863 04e0 09       		.byte	0x9
 864 04e1 7301     		.2byte	0x173
 865 04e3 4B040000 		.4byte	0x44b
 866 04e7 1C       		.byte	0x1c
 867 04e8 08       		.uleb128 0x8
 868 04e9 6C7200   		.ascii	"lr\000"
 869 04ec 09       		.byte	0x9
 870 04ed 7401     		.2byte	0x174
 871 04ef 4B040000 		.4byte	0x44b
 872 04f3 20       		.byte	0x20
 873 04f4 00       		.byte	0
 874 04f5 0A       		.uleb128 0xa
 875 04f6 04       		.byte	0x4
 876 04f7 79040000 		.4byte	0x479
 877 04fb 12       		.uleb128 0x12
 878 04fc 60       		.byte	0x60
 879 04fd 0A       		.byte	0xa
 880 04fe A101     		.2byte	0x1a1
 881 0500 07060000 		.4byte	0x607
 882 0504 08       		.uleb128 0x8
 883 0505 43523100 		.ascii	"CR1\000"
 884 0509 0A       		.byte	0xa
 885 050a A201     		.2byte	0x1a2
 886 050c 26040000 		.4byte	0x426
 887 0510 00       		.byte	0
 888 0511 08       		.uleb128 0x8
 889 0512 43523200 		.ascii	"CR2\000"
 890 0516 0A       		.byte	0xa
 891 0517 A301     		.2byte	0x1a3
 892 0519 26040000 		.4byte	0x426
 893 051d 04       		.byte	0x4
 894 051e 09       		.uleb128 0x9
 895 051f F1010000 		.4byte	.LASF74
 896 0523 0A       		.byte	0xa
 897 0524 A401     		.2byte	0x1a4
 898 0526 26040000 		.4byte	0x426
 899 052a 08       		.byte	0x8
 900 052b 09       		.uleb128 0x9
 901 052c 0D000000 		.4byte	.LASF75
 902 0530 0A       		.byte	0xa
 903 0531 A501     		.2byte	0x1a5
 904 0533 26040000 		.4byte	0x426
 905 0537 0C       		.byte	0xc
 906 0538 08       		.uleb128 0x8
ARM GAS  /tmp/ccL31GXy.s 			page 17


 907 0539 535200   		.ascii	"SR\000"
 908 053c 0A       		.byte	0xa
 909 053d A601     		.2byte	0x1a6
 910 053f 26040000 		.4byte	0x426
 911 0543 10       		.byte	0x10
 912 0544 08       		.uleb128 0x8
 913 0545 45475200 		.ascii	"EGR\000"
 914 0549 0A       		.byte	0xa
 915 054a A701     		.2byte	0x1a7
 916 054c 26040000 		.4byte	0x426
 917 0550 14       		.byte	0x14
 918 0551 09       		.uleb128 0x9
 919 0552 C9000000 		.4byte	.LASF76
 920 0556 0A       		.byte	0xa
 921 0557 A801     		.2byte	0x1a8
 922 0559 26040000 		.4byte	0x426
 923 055d 18       		.byte	0x18
 924 055e 09       		.uleb128 0x9
 925 055f CF000000 		.4byte	.LASF77
 926 0563 0A       		.byte	0xa
 927 0564 A901     		.2byte	0x1a9
 928 0566 26040000 		.4byte	0x426
 929 056a 1C       		.byte	0x1c
 930 056b 09       		.uleb128 0x9
 931 056c 1C010000 		.4byte	.LASF78
 932 0570 0A       		.byte	0xa
 933 0571 AA01     		.2byte	0x1aa
 934 0573 26040000 		.4byte	0x426
 935 0577 20       		.byte	0x20
 936 0578 08       		.uleb128 0x8
 937 0579 434E5400 		.ascii	"CNT\000"
 938 057d 0A       		.byte	0xa
 939 057e AB01     		.2byte	0x1ab
 940 0580 26040000 		.4byte	0x426
 941 0584 24       		.byte	0x24
 942 0585 08       		.uleb128 0x8
 943 0586 50534300 		.ascii	"PSC\000"
 944 058a 0A       		.byte	0xa
 945 058b AC01     		.2byte	0x1ac
 946 058d 26040000 		.4byte	0x426
 947 0591 28       		.byte	0x28
 948 0592 08       		.uleb128 0x8
 949 0593 41525200 		.ascii	"ARR\000"
 950 0597 0A       		.byte	0xa
 951 0598 AD01     		.2byte	0x1ad
 952 059a 26040000 		.4byte	0x426
 953 059e 2C       		.byte	0x2c
 954 059f 08       		.uleb128 0x8
 955 05a0 52435200 		.ascii	"RCR\000"
 956 05a4 0A       		.byte	0xa
 957 05a5 AE01     		.2byte	0x1ae
 958 05a7 26040000 		.4byte	0x426
 959 05ab 30       		.byte	0x30
 960 05ac 08       		.uleb128 0x8
 961 05ad 43435200 		.ascii	"CCR\000"
 962 05b1 0A       		.byte	0xa
 963 05b2 AF01     		.2byte	0x1af
ARM GAS  /tmp/ccL31GXy.s 			page 18


 964 05b4 07060000 		.4byte	0x607
 965 05b8 34       		.byte	0x34
 966 05b9 09       		.uleb128 0x9
 967 05ba B3000000 		.4byte	.LASF79
 968 05be 0A       		.byte	0xa
 969 05bf B001     		.2byte	0x1b0
 970 05c1 26040000 		.4byte	0x426
 971 05c5 44       		.byte	0x44
 972 05c6 08       		.uleb128 0x8
 973 05c7 44435200 		.ascii	"DCR\000"
 974 05cb 0A       		.byte	0xa
 975 05cc B101     		.2byte	0x1b1
 976 05ce 26040000 		.4byte	0x426
 977 05d2 48       		.byte	0x48
 978 05d3 09       		.uleb128 0x9
 979 05d4 60040000 		.4byte	.LASF80
 980 05d8 0A       		.byte	0xa
 981 05d9 B201     		.2byte	0x1b2
 982 05db 26040000 		.4byte	0x426
 983 05df 4C       		.byte	0x4c
 984 05e0 08       		.uleb128 0x8
 985 05e1 4F5200   		.ascii	"OR\000"
 986 05e4 0A       		.byte	0xa
 987 05e5 B301     		.2byte	0x1b3
 988 05e7 26040000 		.4byte	0x426
 989 05eb 50       		.byte	0x50
 990 05ec 09       		.uleb128 0x9
 991 05ed D5000000 		.4byte	.LASF81
 992 05f1 0A       		.byte	0xa
 993 05f2 B401     		.2byte	0x1b4
 994 05f4 26040000 		.4byte	0x426
 995 05f8 54       		.byte	0x54
 996 05f9 09       		.uleb128 0x9
 997 05fa 9B030000 		.4byte	.LASF82
 998 05fe 0A       		.byte	0xa
 999 05ff B501     		.2byte	0x1b5
 1000 0601 0C060000 		.4byte	0x60c
 1001 0605 58       		.byte	0x58
 1002 0606 00       		.byte	0
 1003 0607 0F       		.uleb128 0xf
 1004 0608 3B040000 		.4byte	0x43b
 1005 060c 0F       		.uleb128 0xf
 1006 060d 2B040000 		.4byte	0x42b
 1007 0611 13       		.uleb128 0x13
 1008 0612 1B020000 		.4byte	.LASF83
 1009 0616 0A       		.byte	0xa
 1010 0617 B601     		.2byte	0x1b6
 1011 0619 FB040000 		.4byte	0x4fb
 1012 061d 14       		.uleb128 0x14
 1013 061e 04       		.byte	0x4
 1014 061f 0B       		.byte	0xb
 1015 0620 38       		.byte	0x38
 1016 0621 32060000 		.4byte	0x632
 1017 0625 06       		.uleb128 0x6
 1018 0626 96040000 		.4byte	.LASF84
 1019 062a 0B       		.byte	0xb
 1020 062b 3C       		.byte	0x3c
ARM GAS  /tmp/ccL31GXy.s 			page 19


 1021 062c C3000000 		.4byte	0xc3
 1022 0630 00       		.byte	0
 1023 0631 00       		.byte	0
 1024 0632 04       		.uleb128 0x4
 1025 0633 B8020000 		.4byte	.LASF85
 1026 0637 0B       		.byte	0xb
 1027 0638 3D       		.byte	0x3d
 1028 0639 1D060000 		.4byte	0x61d
 1029 063d 15       		.uleb128 0x15
 1030 063e 04       		.byte	0x4
 1031 063f 07       		.byte	0x7
 1032 0640 D2       		.byte	0xd2
 1033 0641 A0060000 		.4byte	0x6a0
 1034 0645 16       		.uleb128 0x16
 1035 0646 23000000 		.4byte	.LASF86
 1036 064a 07       		.byte	0x7
 1037 064b D9       		.byte	0xd9
 1038 064c FA000000 		.4byte	0xfa
 1039 0650 16       		.uleb128 0x16
 1040 0651 74000000 		.4byte	.LASF87
 1041 0655 07       		.byte	0x7
 1042 0656 E0       		.byte	0xe0
 1043 0657 FA000000 		.4byte	0xfa
 1044 065b 16       		.uleb128 0x16
 1045 065c 12050000 		.4byte	.LASF88
 1046 0660 07       		.byte	0x7
 1047 0661 E7       		.byte	0xe7
 1048 0662 F7020000 		.4byte	0x2f7
 1049 0666 16       		.uleb128 0x16
 1050 0667 12000000 		.4byte	.LASF89
 1051 066b 07       		.byte	0x7
 1052 066c EE       		.byte	0xee
 1053 066d A0060000 		.4byte	0x6a0
 1054 0671 16       		.uleb128 0x16
 1055 0672 88000000 		.4byte	.LASF90
 1056 0676 07       		.byte	0x7
 1057 0677 F3       		.byte	0xf3
 1058 0678 FA000000 		.4byte	0xfa
 1059 067c 16       		.uleb128 0x16
 1060 067d 8C010000 		.4byte	.LASF91
 1061 0681 07       		.byte	0x7
 1062 0682 FC       		.byte	0xfc
 1063 0683 CB060000 		.4byte	0x6cb
 1064 0687 17       		.uleb128 0x17
 1065 0688 A9030000 		.4byte	.LASF92
 1066 068c 07       		.byte	0x7
 1067 068d 0501     		.2byte	0x105
 1068 068f 02070000 		.4byte	0x702
 1069 0693 17       		.uleb128 0x17
 1070 0694 4A030000 		.4byte	.LASF93
 1071 0698 07       		.byte	0x7
 1072 0699 0D01     		.2byte	0x10d
 1073 069b 05010000 		.4byte	0x105
 1074 069f 00       		.byte	0
 1075 06a0 0A       		.uleb128 0xa
 1076 06a1 04       		.byte	0x4
 1077 06a2 0F020000 		.4byte	0x20f
ARM GAS  /tmp/ccL31GXy.s 			page 20


 1078 06a6 05       		.uleb128 0x5
 1079 06a7 8E030000 		.4byte	.LASF94
 1080 06ab 0C       		.byte	0xc
 1081 06ac 0C       		.byte	0xc
 1082 06ad 34       		.byte	0x34
 1083 06ae CB060000 		.4byte	0x6cb
 1084 06b2 06       		.uleb128 0x6
 1085 06b3 2F010000 		.4byte	.LASF27
 1086 06b7 0C       		.byte	0xc
 1087 06b8 35       		.byte	0x35
 1088 06b9 44020000 		.4byte	0x244
 1089 06bd 00       		.byte	0
 1090 06be 07       		.uleb128 0x7
 1091 06bf 636E7400 		.ascii	"cnt\000"
 1092 06c3 0C       		.byte	0xc
 1093 06c4 37       		.byte	0x37
 1094 06c5 10010000 		.4byte	0x110
 1095 06c9 08       		.byte	0x8
 1096 06ca 00       		.byte	0
 1097 06cb 0A       		.uleb128 0xa
 1098 06cc 04       		.byte	0x4
 1099 06cd A6060000 		.4byte	0x6a6
 1100 06d1 05       		.uleb128 0x5
 1101 06d2 E7040000 		.4byte	.LASF95
 1102 06d6 10       		.byte	0x10
 1103 06d7 0D       		.byte	0xd
 1104 06d8 39       		.byte	0x39
 1105 06d9 02070000 		.4byte	0x702
 1106 06dd 06       		.uleb128 0x6
 1107 06de 2F010000 		.4byte	.LASF27
 1108 06e2 0D       		.byte	0xd
 1109 06e3 3A       		.byte	0x3a
 1110 06e4 44020000 		.4byte	0x244
 1111 06e8 00       		.byte	0
 1112 06e9 06       		.uleb128 0x6
 1113 06ea C0030000 		.4byte	.LASF96
 1114 06ee 0D       		.byte	0xd
 1115 06ef 3C       		.byte	0x3c
 1116 06f0 1A020000 		.4byte	0x21a
 1117 06f4 08       		.byte	0x8
 1118 06f5 06       		.uleb128 0x6
 1119 06f6 18000000 		.4byte	.LASF46
 1120 06fa 0D       		.byte	0xd
 1121 06fb 3E       		.byte	0x3e
 1122 06fc 36070000 		.4byte	0x736
 1123 0700 0C       		.byte	0xc
 1124 0701 00       		.byte	0
 1125 0702 0A       		.uleb128 0xa
 1126 0703 04       		.byte	0x4
 1127 0704 D1060000 		.4byte	0x6d1
 1128 0708 0A       		.uleb128 0xa
 1129 0709 04       		.byte	0x4
 1130 070a 0E070000 		.4byte	0x70e
 1131 070e 18       		.uleb128 0x18
 1132 070f 13070000 		.4byte	0x713
 1133 0713 03       		.uleb128 0x3
 1134 0714 01       		.byte	0x1
ARM GAS  /tmp/ccL31GXy.s 			page 21


 1135 0715 08       		.byte	0x8
 1136 0716 55040000 		.4byte	.LASF97
 1137 071a 0A       		.uleb128 0xa
 1138 071b 04       		.byte	0x4
 1139 071c 56040000 		.4byte	0x456
 1140 0720 0A       		.uleb128 0xa
 1141 0721 04       		.byte	0x4
 1142 0722 F9020000 		.4byte	0x2f9
 1143 0726 0F       		.uleb128 0xf
 1144 0727 08070000 		.4byte	0x708
 1145 072b 04       		.uleb128 0x4
 1146 072c 71010000 		.4byte	.LASF98
 1147 0730 0D       		.byte	0xd
 1148 0731 34       		.byte	0x34
 1149 0732 D1060000 		.4byte	0x6d1
 1150 0736 0A       		.uleb128 0xa
 1151 0737 04       		.byte	0x4
 1152 0738 2B070000 		.4byte	0x72b
 1153 073c 03       		.uleb128 0x3
 1154 073d 01       		.byte	0x1
 1155 073e 02       		.byte	0x2
 1156 073f 1B030000 		.4byte	.LASF99
 1157 0743 19       		.uleb128 0x19
 1158 0744 4B020000 		.4byte	.LASF100
 1159 0748 01       		.byte	0x1
 1160 0749 99       		.byte	0x99
 1161 074a 00000000 		.4byte	.LFB137
 1162 074e 20000000 		.4byte	.LFE137-.LFB137
 1163 0752 01       		.uleb128 0x1
 1164 0753 9C       		.byte	0x9c
 1165 0754 67070000 		.4byte	0x767
 1166 0758 1A       		.uleb128 0x1a
 1167 0759 C9020000 		.4byte	.LASF102
 1168 075d 01       		.byte	0x1
 1169 075e 99       		.byte	0x99
 1170 075f 1B010000 		.4byte	0x11b
 1171 0763 02       		.uleb128 0x2
 1172 0764 91       		.byte	0x91
 1173 0765 7C       		.sleb128 -4
 1174 0766 00       		.byte	0
 1175 0767 1B       		.uleb128 0x1b
 1176 0768 C5040000 		.4byte	.LASF113
 1177 076c 01       		.byte	0x1
 1178 076d A5       		.byte	0xa5
 1179 076e 20000000 		.4byte	.LFB138
 1180 0772 0A000000 		.4byte	.LFE138-.LFB138
 1181 0776 01       		.uleb128 0x1
 1182 0777 9C       		.byte	0x9c
 1183 0778 19       		.uleb128 0x19
 1184 0779 30050000 		.4byte	.LASF101
 1185 077d 01       		.byte	0x1
 1186 077e B1       		.byte	0xb1
 1187 077f 30000000 		.4byte	.LFB139
 1188 0783 10000000 		.4byte	.LFE139-.LFB139
 1189 0787 01       		.uleb128 0x1
 1190 0788 9C       		.byte	0x9c
 1191 0789 9C070000 		.4byte	0x79c
ARM GAS  /tmp/ccL31GXy.s 			page 22


 1192 078d 1A       		.uleb128 0x1a
 1193 078e C9020000 		.4byte	.LASF102
 1194 0792 01       		.byte	0x1
 1195 0793 B1       		.byte	0xb1
 1196 0794 1B010000 		.4byte	0x11b
 1197 0798 02       		.uleb128 0x2
 1198 0799 91       		.byte	0x91
 1199 079a 7C       		.sleb128 -4
 1200 079b 00       		.byte	0
 1201 079c 1C       		.uleb128 0x1c
 1202 079d 7D030000 		.4byte	.LASF114
 1203 07a1 01       		.byte	0x1
 1204 07a2 BD       		.byte	0xbd
 1205 07a3 1B010000 		.4byte	0x11b
 1206 07a7 40000000 		.4byte	.LFB140
 1207 07ab 0A000000 		.4byte	.LFE140-.LFB140
 1208 07af 01       		.uleb128 0x1
 1209 07b0 9C       		.byte	0x9c
 1210 07b1 1D       		.uleb128 0x1d
 1211 07b2 62010000 		.4byte	.LASF104
 1212 07b6 02       		.byte	0x2
 1213 07b7 3C       		.byte	0x3c
 1214 07b8 50000000 		.4byte	.LFB279
 1215 07bc 08000000 		.4byte	.LFE279-.LFB279
 1216 07c0 01       		.uleb128 0x1
 1217 07c1 9C       		.byte	0x9c
 1218 07c2 1E       		.uleb128 0x1e
 1219 07c3 9D040000 		.4byte	.LASF106
 1220 07c7 02       		.byte	0x2
 1221 07c8 4C       		.byte	0x4c
 1222 07c9 60000000 		.4byte	.LFB280
 1223 07cd 12000000 		.4byte	.LFE280-.LFB280
 1224 07d1 01       		.uleb128 0x1
 1225 07d2 9C       		.byte	0x9c
 1226 07d3 EF070000 		.4byte	0x7ef
 1227 07d7 1A       		.uleb128 0x1a
 1228 07d8 28050000 		.4byte	.LASF103
 1229 07dc 02       		.byte	0x2
 1230 07dd 4C       		.byte	0x4c
 1231 07de 1B010000 		.4byte	0x11b
 1232 07e2 02       		.uleb128 0x2
 1233 07e3 91       		.byte	0x91
 1234 07e4 74       		.sleb128 -12
 1235 07e5 1F       		.uleb128 0x1f
 1236 07e6 63030000 		.4byte	.LASF108
 1237 07ea FF070000 		.4byte	0x7ff
 1238 07ee 00       		.byte	0
 1239 07ef 10       		.uleb128 0x10
 1240 07f0 13070000 		.4byte	0x713
 1241 07f4 FF070000 		.4byte	0x7ff
 1242 07f8 11       		.uleb128 0x11
 1243 07f9 1F040000 		.4byte	0x41f
 1244 07fd 0C       		.byte	0xc
 1245 07fe 00       		.byte	0
 1246 07ff 18       		.uleb128 0x18
 1247 0800 EF070000 		.4byte	0x7ef
 1248 0804 1D       		.uleb128 0x1d
ARM GAS  /tmp/ccL31GXy.s 			page 23


 1249 0805 49040000 		.4byte	.LASF105
 1250 0809 02       		.byte	0x2
 1251 080a 5A       		.byte	0x5a
 1252 080b 80000000 		.4byte	.LFB281
 1253 080f 08000000 		.4byte	.LFE281-.LFB281
 1254 0813 01       		.uleb128 0x1
 1255 0814 9C       		.byte	0x9c
 1256 0815 1E       		.uleb128 0x1e
 1257 0816 F6040000 		.4byte	.LASF107
 1258 081a 02       		.byte	0x2
 1259 081b 68       		.byte	0x68
 1260 081c 90000000 		.4byte	.LFB282
 1261 0820 12000000 		.4byte	.LFE282-.LFB282
 1262 0824 01       		.uleb128 0x1
 1263 0825 9C       		.byte	0x9c
 1264 0826 42080000 		.4byte	0x842
 1265 082a 1A       		.uleb128 0x1a
 1266 082b 28050000 		.4byte	.LASF103
 1267 082f 02       		.byte	0x2
 1268 0830 68       		.byte	0x68
 1269 0831 1B010000 		.4byte	0x11b
 1270 0835 02       		.uleb128 0x2
 1271 0836 91       		.byte	0x91
 1272 0837 74       		.sleb128 -12
 1273 0838 1F       		.uleb128 0x1f
 1274 0839 63030000 		.4byte	.LASF108
 1275 083d 52080000 		.4byte	0x852
 1276 0841 00       		.byte	0
 1277 0842 10       		.uleb128 0x10
 1278 0843 13070000 		.4byte	0x713
 1279 0847 52080000 		.4byte	0x852
 1280 084b 11       		.uleb128 0x11
 1281 084c 1F040000 		.4byte	0x41f
 1282 0850 0A       		.byte	0xa
 1283 0851 00       		.byte	0
 1284 0852 18       		.uleb128 0x18
 1285 0853 42080000 		.4byte	0x842
 1286 0857 20       		.uleb128 0x20
 1287 0858 07050000 		.4byte	.LASF115
 1288 085c 02       		.byte	0x2
 1289 085d 78       		.byte	0x78
 1290 085e 1B010000 		.4byte	0x11b
 1291 0862 B0000000 		.4byte	.LFB283
 1292 0866 0C000000 		.4byte	.LFE283-.LFB283
 1293 086a 01       		.uleb128 0x1
 1294 086b 9C       		.byte	0x9c
 1295 086c 7A080000 		.4byte	0x87a
 1296 0870 1F       		.uleb128 0x1f
 1297 0871 63030000 		.4byte	.LASF108
 1298 0875 7A080000 		.4byte	0x87a
 1299 0879 00       		.byte	0
 1300 087a 18       		.uleb128 0x18
 1301 087b 42080000 		.4byte	0x842
 1302 087f 21       		.uleb128 0x21
 1303 0880 A6000000 		.4byte	.LASF109
 1304 0884 0E       		.byte	0xe
 1305 0885 4407     		.2byte	0x744
ARM GAS  /tmp/ccL31GXy.s 			page 24


 1306 0887 8B080000 		.4byte	0x88b
 1307 088b 0F       		.uleb128 0xf
 1308 088c A2000000 		.4byte	0xa2
 1309 0890 22       		.uleb128 0x22
 1310 0891 636800   		.ascii	"ch\000"
 1311 0894 07       		.byte	0x7
 1312 0895 D201     		.2byte	0x1d2
 1313 0897 C6030000 		.4byte	0x3c6
 1314 089b 00       		.byte	0
 1315              		.section	.debug_abbrev,"",%progbits
 1316              	.Ldebug_abbrev0:
 1317 0000 01       		.uleb128 0x1
 1318 0001 11       		.uleb128 0x11
 1319 0002 01       		.byte	0x1
 1320 0003 25       		.uleb128 0x25
 1321 0004 0E       		.uleb128 0xe
 1322 0005 13       		.uleb128 0x13
 1323 0006 0B       		.uleb128 0xb
 1324 0007 03       		.uleb128 0x3
 1325 0008 0E       		.uleb128 0xe
 1326 0009 1B       		.uleb128 0x1b
 1327 000a 0E       		.uleb128 0xe
 1328 000b 11       		.uleb128 0x11
 1329 000c 01       		.uleb128 0x1
 1330 000d 12       		.uleb128 0x12
 1331 000e 06       		.uleb128 0x6
 1332 000f 10       		.uleb128 0x10
 1333 0010 17       		.uleb128 0x17
 1334 0011 00       		.byte	0
 1335 0012 00       		.byte	0
 1336 0013 02       		.uleb128 0x2
 1337 0014 24       		.uleb128 0x24
 1338 0015 00       		.byte	0
 1339 0016 0B       		.uleb128 0xb
 1340 0017 0B       		.uleb128 0xb
 1341 0018 3E       		.uleb128 0x3e
 1342 0019 0B       		.uleb128 0xb
 1343 001a 03       		.uleb128 0x3
 1344 001b 08       		.uleb128 0x8
 1345 001c 00       		.byte	0
 1346 001d 00       		.byte	0
 1347 001e 03       		.uleb128 0x3
 1348 001f 24       		.uleb128 0x24
 1349 0020 00       		.byte	0
 1350 0021 0B       		.uleb128 0xb
 1351 0022 0B       		.uleb128 0xb
 1352 0023 3E       		.uleb128 0x3e
 1353 0024 0B       		.uleb128 0xb
 1354 0025 03       		.uleb128 0x3
 1355 0026 0E       		.uleb128 0xe
 1356 0027 00       		.byte	0
 1357 0028 00       		.byte	0
 1358 0029 04       		.uleb128 0x4
 1359 002a 16       		.uleb128 0x16
 1360 002b 00       		.byte	0
 1361 002c 03       		.uleb128 0x3
 1362 002d 0E       		.uleb128 0xe
ARM GAS  /tmp/ccL31GXy.s 			page 25


 1363 002e 3A       		.uleb128 0x3a
 1364 002f 0B       		.uleb128 0xb
 1365 0030 3B       		.uleb128 0x3b
 1366 0031 0B       		.uleb128 0xb
 1367 0032 49       		.uleb128 0x49
 1368 0033 13       		.uleb128 0x13
 1369 0034 00       		.byte	0
 1370 0035 00       		.byte	0
 1371 0036 05       		.uleb128 0x5
 1372 0037 13       		.uleb128 0x13
 1373 0038 01       		.byte	0x1
 1374 0039 03       		.uleb128 0x3
 1375 003a 0E       		.uleb128 0xe
 1376 003b 0B       		.uleb128 0xb
 1377 003c 0B       		.uleb128 0xb
 1378 003d 3A       		.uleb128 0x3a
 1379 003e 0B       		.uleb128 0xb
 1380 003f 3B       		.uleb128 0x3b
 1381 0040 0B       		.uleb128 0xb
 1382 0041 01       		.uleb128 0x1
 1383 0042 13       		.uleb128 0x13
 1384 0043 00       		.byte	0
 1385 0044 00       		.byte	0
 1386 0045 06       		.uleb128 0x6
 1387 0046 0D       		.uleb128 0xd
 1388 0047 00       		.byte	0
 1389 0048 03       		.uleb128 0x3
 1390 0049 0E       		.uleb128 0xe
 1391 004a 3A       		.uleb128 0x3a
 1392 004b 0B       		.uleb128 0xb
 1393 004c 3B       		.uleb128 0x3b
 1394 004d 0B       		.uleb128 0xb
 1395 004e 49       		.uleb128 0x49
 1396 004f 13       		.uleb128 0x13
 1397 0050 38       		.uleb128 0x38
 1398 0051 0B       		.uleb128 0xb
 1399 0052 00       		.byte	0
 1400 0053 00       		.byte	0
 1401 0054 07       		.uleb128 0x7
 1402 0055 0D       		.uleb128 0xd
 1403 0056 00       		.byte	0
 1404 0057 03       		.uleb128 0x3
 1405 0058 08       		.uleb128 0x8
 1406 0059 3A       		.uleb128 0x3a
 1407 005a 0B       		.uleb128 0xb
 1408 005b 3B       		.uleb128 0x3b
 1409 005c 0B       		.uleb128 0xb
 1410 005d 49       		.uleb128 0x49
 1411 005e 13       		.uleb128 0x13
 1412 005f 38       		.uleb128 0x38
 1413 0060 0B       		.uleb128 0xb
 1414 0061 00       		.byte	0
 1415 0062 00       		.byte	0
 1416 0063 08       		.uleb128 0x8
 1417 0064 0D       		.uleb128 0xd
 1418 0065 00       		.byte	0
 1419 0066 03       		.uleb128 0x3
ARM GAS  /tmp/ccL31GXy.s 			page 26


 1420 0067 08       		.uleb128 0x8
 1421 0068 3A       		.uleb128 0x3a
 1422 0069 0B       		.uleb128 0xb
 1423 006a 3B       		.uleb128 0x3b
 1424 006b 05       		.uleb128 0x5
 1425 006c 49       		.uleb128 0x49
 1426 006d 13       		.uleb128 0x13
 1427 006e 38       		.uleb128 0x38
 1428 006f 0B       		.uleb128 0xb
 1429 0070 00       		.byte	0
 1430 0071 00       		.byte	0
 1431 0072 09       		.uleb128 0x9
 1432 0073 0D       		.uleb128 0xd
 1433 0074 00       		.byte	0
 1434 0075 03       		.uleb128 0x3
 1435 0076 0E       		.uleb128 0xe
 1436 0077 3A       		.uleb128 0x3a
 1437 0078 0B       		.uleb128 0xb
 1438 0079 3B       		.uleb128 0x3b
 1439 007a 05       		.uleb128 0x5
 1440 007b 49       		.uleb128 0x49
 1441 007c 13       		.uleb128 0x13
 1442 007d 38       		.uleb128 0x38
 1443 007e 0B       		.uleb128 0xb
 1444 007f 00       		.byte	0
 1445 0080 00       		.byte	0
 1446 0081 0A       		.uleb128 0xa
 1447 0082 0F       		.uleb128 0xf
 1448 0083 00       		.byte	0
 1449 0084 0B       		.uleb128 0xb
 1450 0085 0B       		.uleb128 0xb
 1451 0086 49       		.uleb128 0x49
 1452 0087 13       		.uleb128 0x13
 1453 0088 00       		.byte	0
 1454 0089 00       		.byte	0
 1455 008a 0B       		.uleb128 0xb
 1456 008b 13       		.uleb128 0x13
 1457 008c 01       		.byte	0x1
 1458 008d 03       		.uleb128 0x3
 1459 008e 0E       		.uleb128 0xe
 1460 008f 0B       		.uleb128 0xb
 1461 0090 0B       		.uleb128 0xb
 1462 0091 3A       		.uleb128 0x3a
 1463 0092 0B       		.uleb128 0xb
 1464 0093 3B       		.uleb128 0x3b
 1465 0094 05       		.uleb128 0x5
 1466 0095 01       		.uleb128 0x1
 1467 0096 13       		.uleb128 0x13
 1468 0097 00       		.byte	0
 1469 0098 00       		.byte	0
 1470 0099 0C       		.uleb128 0xc
 1471 009a 15       		.uleb128 0x15
 1472 009b 01       		.byte	0x1
 1473 009c 27       		.uleb128 0x27
 1474 009d 19       		.uleb128 0x19
 1475 009e 01       		.uleb128 0x1
 1476 009f 13       		.uleb128 0x13
ARM GAS  /tmp/ccL31GXy.s 			page 27


 1477 00a0 00       		.byte	0
 1478 00a1 00       		.byte	0
 1479 00a2 0D       		.uleb128 0xd
 1480 00a3 05       		.uleb128 0x5
 1481 00a4 00       		.byte	0
 1482 00a5 49       		.uleb128 0x49
 1483 00a6 13       		.uleb128 0x13
 1484 00a7 00       		.byte	0
 1485 00a8 00       		.byte	0
 1486 00a9 0E       		.uleb128 0xe
 1487 00aa 0F       		.uleb128 0xf
 1488 00ab 00       		.byte	0
 1489 00ac 0B       		.uleb128 0xb
 1490 00ad 0B       		.uleb128 0xb
 1491 00ae 00       		.byte	0
 1492 00af 00       		.byte	0
 1493 00b0 0F       		.uleb128 0xf
 1494 00b1 35       		.uleb128 0x35
 1495 00b2 00       		.byte	0
 1496 00b3 49       		.uleb128 0x49
 1497 00b4 13       		.uleb128 0x13
 1498 00b5 00       		.byte	0
 1499 00b6 00       		.byte	0
 1500 00b7 10       		.uleb128 0x10
 1501 00b8 01       		.uleb128 0x1
 1502 00b9 01       		.byte	0x1
 1503 00ba 49       		.uleb128 0x49
 1504 00bb 13       		.uleb128 0x13
 1505 00bc 01       		.uleb128 0x1
 1506 00bd 13       		.uleb128 0x13
 1507 00be 00       		.byte	0
 1508 00bf 00       		.byte	0
 1509 00c0 11       		.uleb128 0x11
 1510 00c1 21       		.uleb128 0x21
 1511 00c2 00       		.byte	0
 1512 00c3 49       		.uleb128 0x49
 1513 00c4 13       		.uleb128 0x13
 1514 00c5 2F       		.uleb128 0x2f
 1515 00c6 0B       		.uleb128 0xb
 1516 00c7 00       		.byte	0
 1517 00c8 00       		.byte	0
 1518 00c9 12       		.uleb128 0x12
 1519 00ca 13       		.uleb128 0x13
 1520 00cb 01       		.byte	0x1
 1521 00cc 0B       		.uleb128 0xb
 1522 00cd 0B       		.uleb128 0xb
 1523 00ce 3A       		.uleb128 0x3a
 1524 00cf 0B       		.uleb128 0xb
 1525 00d0 3B       		.uleb128 0x3b
 1526 00d1 05       		.uleb128 0x5
 1527 00d2 01       		.uleb128 0x1
 1528 00d3 13       		.uleb128 0x13
 1529 00d4 00       		.byte	0
 1530 00d5 00       		.byte	0
 1531 00d6 13       		.uleb128 0x13
 1532 00d7 16       		.uleb128 0x16
 1533 00d8 00       		.byte	0
ARM GAS  /tmp/ccL31GXy.s 			page 28


 1534 00d9 03       		.uleb128 0x3
 1535 00da 0E       		.uleb128 0xe
 1536 00db 3A       		.uleb128 0x3a
 1537 00dc 0B       		.uleb128 0xb
 1538 00dd 3B       		.uleb128 0x3b
 1539 00de 05       		.uleb128 0x5
 1540 00df 49       		.uleb128 0x49
 1541 00e0 13       		.uleb128 0x13
 1542 00e1 00       		.byte	0
 1543 00e2 00       		.byte	0
 1544 00e3 14       		.uleb128 0x14
 1545 00e4 13       		.uleb128 0x13
 1546 00e5 01       		.byte	0x1
 1547 00e6 0B       		.uleb128 0xb
 1548 00e7 0B       		.uleb128 0xb
 1549 00e8 3A       		.uleb128 0x3a
 1550 00e9 0B       		.uleb128 0xb
 1551 00ea 3B       		.uleb128 0x3b
 1552 00eb 0B       		.uleb128 0xb
 1553 00ec 01       		.uleb128 0x1
 1554 00ed 13       		.uleb128 0x13
 1555 00ee 00       		.byte	0
 1556 00ef 00       		.byte	0
 1557 00f0 15       		.uleb128 0x15
 1558 00f1 17       		.uleb128 0x17
 1559 00f2 01       		.byte	0x1
 1560 00f3 0B       		.uleb128 0xb
 1561 00f4 0B       		.uleb128 0xb
 1562 00f5 3A       		.uleb128 0x3a
 1563 00f6 0B       		.uleb128 0xb
 1564 00f7 3B       		.uleb128 0x3b
 1565 00f8 0B       		.uleb128 0xb
 1566 00f9 01       		.uleb128 0x1
 1567 00fa 13       		.uleb128 0x13
 1568 00fb 00       		.byte	0
 1569 00fc 00       		.byte	0
 1570 00fd 16       		.uleb128 0x16
 1571 00fe 0D       		.uleb128 0xd
 1572 00ff 00       		.byte	0
 1573 0100 03       		.uleb128 0x3
 1574 0101 0E       		.uleb128 0xe
 1575 0102 3A       		.uleb128 0x3a
 1576 0103 0B       		.uleb128 0xb
 1577 0104 3B       		.uleb128 0x3b
 1578 0105 0B       		.uleb128 0xb
 1579 0106 49       		.uleb128 0x49
 1580 0107 13       		.uleb128 0x13
 1581 0108 00       		.byte	0
 1582 0109 00       		.byte	0
 1583 010a 17       		.uleb128 0x17
 1584 010b 0D       		.uleb128 0xd
 1585 010c 00       		.byte	0
 1586 010d 03       		.uleb128 0x3
 1587 010e 0E       		.uleb128 0xe
 1588 010f 3A       		.uleb128 0x3a
 1589 0110 0B       		.uleb128 0xb
 1590 0111 3B       		.uleb128 0x3b
ARM GAS  /tmp/ccL31GXy.s 			page 29


 1591 0112 05       		.uleb128 0x5
 1592 0113 49       		.uleb128 0x49
 1593 0114 13       		.uleb128 0x13
 1594 0115 00       		.byte	0
 1595 0116 00       		.byte	0
 1596 0117 18       		.uleb128 0x18
 1597 0118 26       		.uleb128 0x26
 1598 0119 00       		.byte	0
 1599 011a 49       		.uleb128 0x49
 1600 011b 13       		.uleb128 0x13
 1601 011c 00       		.byte	0
 1602 011d 00       		.byte	0
 1603 011e 19       		.uleb128 0x19
 1604 011f 2E       		.uleb128 0x2e
 1605 0120 01       		.byte	0x1
 1606 0121 03       		.uleb128 0x3
 1607 0122 0E       		.uleb128 0xe
 1608 0123 3A       		.uleb128 0x3a
 1609 0124 0B       		.uleb128 0xb
 1610 0125 3B       		.uleb128 0x3b
 1611 0126 0B       		.uleb128 0xb
 1612 0127 27       		.uleb128 0x27
 1613 0128 19       		.uleb128 0x19
 1614 0129 11       		.uleb128 0x11
 1615 012a 01       		.uleb128 0x1
 1616 012b 12       		.uleb128 0x12
 1617 012c 06       		.uleb128 0x6
 1618 012d 40       		.uleb128 0x40
 1619 012e 18       		.uleb128 0x18
 1620 012f 9742     		.uleb128 0x2117
 1621 0131 19       		.uleb128 0x19
 1622 0132 01       		.uleb128 0x1
 1623 0133 13       		.uleb128 0x13
 1624 0134 00       		.byte	0
 1625 0135 00       		.byte	0
 1626 0136 1A       		.uleb128 0x1a
 1627 0137 05       		.uleb128 0x5
 1628 0138 00       		.byte	0
 1629 0139 03       		.uleb128 0x3
 1630 013a 0E       		.uleb128 0xe
 1631 013b 3A       		.uleb128 0x3a
 1632 013c 0B       		.uleb128 0xb
 1633 013d 3B       		.uleb128 0x3b
 1634 013e 0B       		.uleb128 0xb
 1635 013f 49       		.uleb128 0x49
 1636 0140 13       		.uleb128 0x13
 1637 0141 02       		.uleb128 0x2
 1638 0142 18       		.uleb128 0x18
 1639 0143 00       		.byte	0
 1640 0144 00       		.byte	0
 1641 0145 1B       		.uleb128 0x1b
 1642 0146 2E       		.uleb128 0x2e
 1643 0147 00       		.byte	0
 1644 0148 03       		.uleb128 0x3
 1645 0149 0E       		.uleb128 0xe
 1646 014a 3A       		.uleb128 0x3a
 1647 014b 0B       		.uleb128 0xb
ARM GAS  /tmp/ccL31GXy.s 			page 30


 1648 014c 3B       		.uleb128 0x3b
 1649 014d 0B       		.uleb128 0xb
 1650 014e 27       		.uleb128 0x27
 1651 014f 19       		.uleb128 0x19
 1652 0150 11       		.uleb128 0x11
 1653 0151 01       		.uleb128 0x1
 1654 0152 12       		.uleb128 0x12
 1655 0153 06       		.uleb128 0x6
 1656 0154 40       		.uleb128 0x40
 1657 0155 18       		.uleb128 0x18
 1658 0156 9742     		.uleb128 0x2117
 1659 0158 19       		.uleb128 0x19
 1660 0159 00       		.byte	0
 1661 015a 00       		.byte	0
 1662 015b 1C       		.uleb128 0x1c
 1663 015c 2E       		.uleb128 0x2e
 1664 015d 00       		.byte	0
 1665 015e 03       		.uleb128 0x3
 1666 015f 0E       		.uleb128 0xe
 1667 0160 3A       		.uleb128 0x3a
 1668 0161 0B       		.uleb128 0xb
 1669 0162 3B       		.uleb128 0x3b
 1670 0163 0B       		.uleb128 0xb
 1671 0164 27       		.uleb128 0x27
 1672 0165 19       		.uleb128 0x19
 1673 0166 49       		.uleb128 0x49
 1674 0167 13       		.uleb128 0x13
 1675 0168 11       		.uleb128 0x11
 1676 0169 01       		.uleb128 0x1
 1677 016a 12       		.uleb128 0x12
 1678 016b 06       		.uleb128 0x6
 1679 016c 40       		.uleb128 0x40
 1680 016d 18       		.uleb128 0x18
 1681 016e 9742     		.uleb128 0x2117
 1682 0170 19       		.uleb128 0x19
 1683 0171 00       		.byte	0
 1684 0172 00       		.byte	0
 1685 0173 1D       		.uleb128 0x1d
 1686 0174 2E       		.uleb128 0x2e
 1687 0175 00       		.byte	0
 1688 0176 3F       		.uleb128 0x3f
 1689 0177 19       		.uleb128 0x19
 1690 0178 03       		.uleb128 0x3
 1691 0179 0E       		.uleb128 0xe
 1692 017a 3A       		.uleb128 0x3a
 1693 017b 0B       		.uleb128 0xb
 1694 017c 3B       		.uleb128 0x3b
 1695 017d 0B       		.uleb128 0xb
 1696 017e 27       		.uleb128 0x27
 1697 017f 19       		.uleb128 0x19
 1698 0180 11       		.uleb128 0x11
 1699 0181 01       		.uleb128 0x1
 1700 0182 12       		.uleb128 0x12
 1701 0183 06       		.uleb128 0x6
 1702 0184 40       		.uleb128 0x40
 1703 0185 18       		.uleb128 0x18
 1704 0186 9642     		.uleb128 0x2116
ARM GAS  /tmp/ccL31GXy.s 			page 31


 1705 0188 19       		.uleb128 0x19
 1706 0189 00       		.byte	0
 1707 018a 00       		.byte	0
 1708 018b 1E       		.uleb128 0x1e
 1709 018c 2E       		.uleb128 0x2e
 1710 018d 01       		.byte	0x1
 1711 018e 3F       		.uleb128 0x3f
 1712 018f 19       		.uleb128 0x19
 1713 0190 03       		.uleb128 0x3
 1714 0191 0E       		.uleb128 0xe
 1715 0192 3A       		.uleb128 0x3a
 1716 0193 0B       		.uleb128 0xb
 1717 0194 3B       		.uleb128 0x3b
 1718 0195 0B       		.uleb128 0xb
 1719 0196 27       		.uleb128 0x27
 1720 0197 19       		.uleb128 0x19
 1721 0198 11       		.uleb128 0x11
 1722 0199 01       		.uleb128 0x1
 1723 019a 12       		.uleb128 0x12
 1724 019b 06       		.uleb128 0x6
 1725 019c 40       		.uleb128 0x40
 1726 019d 18       		.uleb128 0x18
 1727 019e 9642     		.uleb128 0x2116
 1728 01a0 19       		.uleb128 0x19
 1729 01a1 01       		.uleb128 0x1
 1730 01a2 13       		.uleb128 0x13
 1731 01a3 00       		.byte	0
 1732 01a4 00       		.byte	0
 1733 01a5 1F       		.uleb128 0x1f
 1734 01a6 34       		.uleb128 0x34
 1735 01a7 00       		.byte	0
 1736 01a8 03       		.uleb128 0x3
 1737 01a9 0E       		.uleb128 0xe
 1738 01aa 49       		.uleb128 0x49
 1739 01ab 13       		.uleb128 0x13
 1740 01ac 34       		.uleb128 0x34
 1741 01ad 19       		.uleb128 0x19
 1742 01ae 00       		.byte	0
 1743 01af 00       		.byte	0
 1744 01b0 20       		.uleb128 0x20
 1745 01b1 2E       		.uleb128 0x2e
 1746 01b2 01       		.byte	0x1
 1747 01b3 3F       		.uleb128 0x3f
 1748 01b4 19       		.uleb128 0x19
 1749 01b5 03       		.uleb128 0x3
 1750 01b6 0E       		.uleb128 0xe
 1751 01b7 3A       		.uleb128 0x3a
 1752 01b8 0B       		.uleb128 0xb
 1753 01b9 3B       		.uleb128 0x3b
 1754 01ba 0B       		.uleb128 0xb
 1755 01bb 27       		.uleb128 0x27
 1756 01bc 19       		.uleb128 0x19
 1757 01bd 49       		.uleb128 0x49
 1758 01be 13       		.uleb128 0x13
 1759 01bf 11       		.uleb128 0x11
 1760 01c0 01       		.uleb128 0x1
 1761 01c1 12       		.uleb128 0x12
ARM GAS  /tmp/ccL31GXy.s 			page 32


 1762 01c2 06       		.uleb128 0x6
 1763 01c3 40       		.uleb128 0x40
 1764 01c4 18       		.uleb128 0x18
 1765 01c5 9642     		.uleb128 0x2116
 1766 01c7 19       		.uleb128 0x19
 1767 01c8 01       		.uleb128 0x1
 1768 01c9 13       		.uleb128 0x13
 1769 01ca 00       		.byte	0
 1770 01cb 00       		.byte	0
 1771 01cc 21       		.uleb128 0x21
 1772 01cd 34       		.uleb128 0x34
 1773 01ce 00       		.byte	0
 1774 01cf 03       		.uleb128 0x3
 1775 01d0 0E       		.uleb128 0xe
 1776 01d1 3A       		.uleb128 0x3a
 1777 01d2 0B       		.uleb128 0xb
 1778 01d3 3B       		.uleb128 0x3b
 1779 01d4 05       		.uleb128 0x5
 1780 01d5 49       		.uleb128 0x49
 1781 01d6 13       		.uleb128 0x13
 1782 01d7 3F       		.uleb128 0x3f
 1783 01d8 19       		.uleb128 0x19
 1784 01d9 3C       		.uleb128 0x3c
 1785 01da 19       		.uleb128 0x19
 1786 01db 00       		.byte	0
 1787 01dc 00       		.byte	0
 1788 01dd 22       		.uleb128 0x22
 1789 01de 34       		.uleb128 0x34
 1790 01df 00       		.byte	0
 1791 01e0 03       		.uleb128 0x3
 1792 01e1 08       		.uleb128 0x8
 1793 01e2 3A       		.uleb128 0x3a
 1794 01e3 0B       		.uleb128 0xb
 1795 01e4 3B       		.uleb128 0x3b
 1796 01e5 05       		.uleb128 0x5
 1797 01e6 49       		.uleb128 0x49
 1798 01e7 13       		.uleb128 0x13
 1799 01e8 3F       		.uleb128 0x3f
 1800 01e9 19       		.uleb128 0x19
 1801 01ea 3C       		.uleb128 0x3c
 1802 01eb 19       		.uleb128 0x19
 1803 01ec 00       		.byte	0
 1804 01ed 00       		.byte	0
 1805 01ee 00       		.byte	0
 1806              		.section	.debug_aranges,"",%progbits
 1807 0000 1C000000 		.4byte	0x1c
 1808 0004 0200     		.2byte	0x2
 1809 0006 00000000 		.4byte	.Ldebug_info0
 1810 000a 04       		.byte	0x4
 1811 000b 00       		.byte	0
 1812 000c 0000     		.2byte	0
 1813 000e 0000     		.2byte	0
 1814 0010 00000000 		.4byte	.Ltext0
 1815 0014 BC000000 		.4byte	.Letext0-.Ltext0
 1816 0018 00000000 		.4byte	0
 1817 001c 00000000 		.4byte	0
 1818              		.section	.debug_line,"",%progbits
ARM GAS  /tmp/ccL31GXy.s 			page 33


 1819              	.Ldebug_line0:
 1820 0000 0D020000 		.section	.debug_str,"MS",%progbits,1
 1820      0200CA01 
 1820      00000201 
 1820      FB0E0D00 
 1820      01010101 
 1821              	.LASF50:
 1822 0000 72656164 		.ascii	"ready_list_t\000"
 1822      795F6C69 
 1822      73745F74 
 1822      00
 1823              	.LASF75:
 1824 000d 44494552 		.ascii	"DIER\000"
 1824      00
 1825              	.LASF89:
 1826 0012 77747472 		.ascii	"wttrp\000"
 1826      7000
 1827              	.LASF46:
 1828 0018 6E657874 		.ascii	"next\000"
 1828      00
 1829              	.LASF56:
 1830 001d 64656C74 		.ascii	"delta\000"
 1830      6100
 1831              	.LASF86:
 1832 0023 7264796D 		.ascii	"rdymsg\000"
 1832      736700
 1833              	.LASF16:
 1834 002a 75696E74 		.ascii	"uint64_t\000"
 1834      36345F74 
 1834      00
 1835              	.LASF5:
 1836 0033 5F5F7569 		.ascii	"__uint8_t\000"
 1836      6E74385F 
 1836      7400
 1837              	.LASF49:
 1838 003d 70726576 		.ascii	"prev\000"
 1838      00
 1839              	.LASF73:
 1840 0042 706F7274 		.ascii	"port_intctx\000"
 1840      5F696E74 
 1840      63747800 
 1841              	.LASF61:
 1842 004e 73797374 		.ascii	"system_debug_t\000"
 1842      656D5F64 
 1842      65627567 
 1842      5F7400
 1843              	.LASF12:
 1844 005d 6C6F6E67 		.ascii	"long long unsigned int\000"
 1844      206C6F6E 
 1844      6720756E 
 1844      7369676E 
 1844      65642069 
 1845              	.LASF87:
 1846 0074 65786974 		.ascii	"exitcode\000"
 1846      636F6465 
 1846      00
 1847              	.LASF68:
ARM GAS  /tmp/ccL31GXy.s 			page 34


 1848 007d 6D61696E 		.ascii	"mainthread\000"
 1848      74687265 
 1848      616400
 1849              	.LASF90:
 1850 0088 73656E74 		.ascii	"sentmsg\000"
 1850      6D736700 
 1851              	.LASF58:
 1852 0090 76697274 		.ascii	"virtual_timers_list_t\000"
 1852      75616C5F 
 1852      74696D65 
 1852      72735F6C 
 1852      6973745F 
 1853              	.LASF109:
 1854 00a6 49544D5F 		.ascii	"ITM_RxBuffer\000"
 1854      52784275 
 1854      66666572 
 1854      00
 1855              	.LASF79:
 1856 00b3 42445452 		.ascii	"BDTR\000"
 1856      00
 1857              	.LASF48:
 1858 00b8 63685F74 		.ascii	"ch_threads_queue\000"
 1858      68726561 
 1858      64735F71 
 1858      75657565 
 1858      00
 1859              	.LASF76:
 1860 00c9 43434D52 		.ascii	"CCMR1\000"
 1860      3100
 1861              	.LASF77:
 1862 00cf 43434D52 		.ascii	"CCMR2\000"
 1862      3200
 1863              	.LASF81:
 1864 00d5 43434D52 		.ascii	"CCMR3\000"
 1864      3300
 1865              	.LASF1:
 1866 00db 7369676E 		.ascii	"signed char\000"
 1866      65642063 
 1866      68617200 
 1867              	.LASF67:
 1868 00e7 76746C69 		.ascii	"vtlist\000"
 1868      737400
 1869              	.LASF37:
 1870 00ee 6D736771 		.ascii	"msgqueue\000"
 1870      75657565 
 1870      00
 1871              	.LASF33:
 1872 00f7 73746174 		.ascii	"state\000"
 1872      6500
 1873              	.LASF7:
 1874 00fd 6C6F6E67 		.ascii	"long int\000"
 1874      20696E74 
 1874      00
 1875              	.LASF18:
 1876 0106 746D6F64 		.ascii	"tmode_t\000"
 1876      655F7400 
 1877              	.LASF19:
ARM GAS  /tmp/ccL31GXy.s 			page 35


 1878 010e 74737461 		.ascii	"tstate_t\000"
 1878      74655F74 
 1878      00
 1879              	.LASF57:
 1880 0117 66756E63 		.ascii	"func\000"
 1880      00
 1881              	.LASF78:
 1882 011c 43434552 		.ascii	"CCER\000"
 1882      00
 1883              	.LASF10:
 1884 0121 6C6F6E67 		.ascii	"long long int\000"
 1884      206C6F6E 
 1884      6720696E 
 1884      7400
 1885              	.LASF27:
 1886 012f 71756575 		.ascii	"queue\000"
 1886      6500
 1887              	.LASF32:
 1888 0135 77616261 		.ascii	"wabase\000"
 1888      736500
 1889              	.LASF111:
 1890 013c 2E2E2F2E 		.ascii	"../../../os/hal/src/hal_st.c\000"
 1890      2E2F2E2E 
 1890      2F6F732F 
 1890      68616C2F 
 1890      7372632F 
 1891              	.LASF70:
 1892 0159 72656761 		.ascii	"regarm_t\000"
 1892      726D5F74 
 1892      00
 1893              	.LASF104:
 1894 0162 7374496E 		.ascii	"stInit\000"
 1894      697400
 1895              	.LASF36:
 1896 0169 77616974 		.ascii	"waiting\000"
 1896      696E6700 
 1897              	.LASF98:
 1898 0171 6D757465 		.ascii	"mutex_t\000"
 1898      785F7400 
 1899              	.LASF24:
 1900 0179 636E745F 		.ascii	"cnt_t\000"
 1900      7400
 1901              	.LASF0:
 1902 017f 756E7369 		.ascii	"unsigned int\000"
 1902      676E6564 
 1902      20696E74 
 1902      00
 1903              	.LASF91:
 1904 018c 77747365 		.ascii	"wtsemp\000"
 1904      6D7000
 1905              	.LASF9:
 1906 0193 6C6F6E67 		.ascii	"long unsigned int\000"
 1906      20756E73 
 1906      69676E65 
 1906      6420696E 
 1906      7400
 1907              	.LASF112:
ARM GAS  /tmp/ccL31GXy.s 			page 36


 1908 01a5 2F686F6D 		.ascii	"/home/declan/ChibiOS2/ChibiOS/demos/STM32/RT-STM32F"
 1908      652F6465 
 1908      636C616E 
 1908      2F436869 
 1908      62694F53 
 1909 01d8 3430372D 		.ascii	"407-DISCOVERY\000"
 1909      44495343 
 1909      4F564552 
 1909      5900
 1910              	.LASF31:
 1911 01e6 6E616D65 		.ascii	"name\000"
 1911      00
 1912              	.LASF41:
 1913 01eb 6D706F6F 		.ascii	"mpool\000"
 1913      6C00
 1914              	.LASF74:
 1915 01f1 534D4352 		.ascii	"SMCR\000"
 1915      00
 1916              	.LASF44:
 1917 01f6 63685F74 		.ascii	"ch_thread\000"
 1917      68726561 
 1917      6400
 1918              	.LASF22:
 1919 0200 6D73675F 		.ascii	"msg_t\000"
 1919      7400
 1920              	.LASF38:
 1921 0206 6570656E 		.ascii	"epending\000"
 1921      64696E67 
 1921      00
 1922              	.LASF64:
 1923 020f 63685F73 		.ascii	"ch_system_t\000"
 1923      79737465 
 1923      6D5F7400 
 1924              	.LASF83:
 1925 021b 73746D33 		.ascii	"stm32_tim_t\000"
 1925      325F7469 
 1925      6D5F7400 
 1926              	.LASF51:
 1927 0227 63685F72 		.ascii	"ch_ready_list\000"
 1927      65616479 
 1927      5F6C6973 
 1927      7400
 1928              	.LASF23:
 1929 0235 6576656E 		.ascii	"eventmask_t\000"
 1929      746D6173 
 1929      6B5F7400 
 1930              	.LASF6:
 1931 0241 5F5F696E 		.ascii	"__int32_t\000"
 1931      7433325F 
 1931      7400
 1932              	.LASF100:
 1933 024b 73745F6C 		.ascii	"st_lld_start_alarm\000"
 1933      6C645F73 
 1933      74617274 
 1933      5F616C61 
 1933      726D00
 1934              	.LASF71:
ARM GAS  /tmp/ccL31GXy.s 			page 37


 1935 025e 73746B61 		.ascii	"stkalign_t\000"
 1935      6C69676E 
 1935      5F7400
 1936              	.LASF29:
 1937 0269 6E657765 		.ascii	"newer\000"
 1937      7200
 1938              	.LASF40:
 1939 026f 7265616C 		.ascii	"realprio\000"
 1939      7072696F 
 1939      00
 1940              	.LASF69:
 1941 0278 73697A65 		.ascii	"sizetype\000"
 1941      74797065 
 1941      00
 1942              	.LASF42:
 1943 0281 74687265 		.ascii	"thread_reference_t\000"
 1943      61645F72 
 1943      65666572 
 1943      656E6365 
 1943      5F7400
 1944              	.LASF59:
 1945 0294 63685F76 		.ascii	"ch_virtual_timers_list\000"
 1945      69727475 
 1945      616C5F74 
 1945      696D6572 
 1945      735F6C69 
 1946              	.LASF72:
 1947 02ab 706F7274 		.ascii	"port_context\000"
 1947      5F636F6E 
 1947      74657874 
 1947      00
 1948              	.LASF85:
 1949 02b8 746D5F63 		.ascii	"tm_calibration_t\000"
 1949      616C6962 
 1949      72617469 
 1949      6F6E5F74 
 1949      00
 1950              	.LASF102:
 1951 02c9 74696D65 		.ascii	"time\000"
 1951      00
 1952              	.LASF28:
 1953 02ce 7072696F 		.ascii	"prio\000"
 1953      00
 1954              	.LASF52:
 1955 02d3 63757272 		.ascii	"current\000"
 1955      656E7400 
 1956              	.LASF11:
 1957 02db 5F5F7569 		.ascii	"__uint64_t\000"
 1957      6E743634 
 1957      5F7400
 1958              	.LASF20:
 1959 02e6 74726566 		.ascii	"trefs_t\000"
 1959      735F7400 
 1960              	.LASF35:
 1961 02ee 72656673 		.ascii	"refs\000"
 1961      00
 1962              	.LASF54:
ARM GAS  /tmp/ccL31GXy.s 			page 38


 1963 02f3 76697274 		.ascii	"virtual_timer_t\000"
 1963      75616C5F 
 1963      74696D65 
 1963      725F7400 
 1964              	.LASF21:
 1965 0303 74707269 		.ascii	"tprio_t\000"
 1965      6F5F7400 
 1966              	.LASF62:
 1967 030b 63685F73 		.ascii	"ch_system_debug\000"
 1967      79737465 
 1967      6D5F6465 
 1967      62756700 
 1968              	.LASF99:
 1969 031b 5F426F6F 		.ascii	"_Bool\000"
 1969      6C00
 1970              	.LASF14:
 1971 0321 696E7433 		.ascii	"int32_t\000"
 1971      325F7400 
 1972              	.LASF2:
 1973 0329 756E7369 		.ascii	"unsigned char\000"
 1973      676E6564 
 1973      20636861 
 1973      7200
 1974              	.LASF3:
 1975 0337 73686F72 		.ascii	"short int\000"
 1975      7420696E 
 1975      7400
 1976              	.LASF60:
 1977 0341 6C617374 		.ascii	"lasttime\000"
 1977      74696D65 
 1977      00
 1978              	.LASF93:
 1979 034a 65776D61 		.ascii	"ewmask\000"
 1979      736B00
 1980              	.LASF65:
 1981 0351 63685F73 		.ascii	"ch_system\000"
 1981      79737465 
 1981      6D00
 1982              	.LASF13:
 1983 035b 75696E74 		.ascii	"uint8_t\000"
 1983      385F7400 
 1984              	.LASF108:
 1985 0363 5F5F6675 		.ascii	"__func__\000"
 1985      6E635F5F 
 1985      00
 1986              	.LASF55:
 1987 036c 63685F76 		.ascii	"ch_virtual_timer\000"
 1987      69727475 
 1987      616C5F74 
 1987      696D6572 
 1987      00
 1988              	.LASF114:
 1989 037d 73745F6C 		.ascii	"st_lld_get_alarm\000"
 1989      6C645F67 
 1989      65745F61 
 1989      6C61726D 
 1989      00
ARM GAS  /tmp/ccL31GXy.s 			page 39


 1990              	.LASF94:
 1991 038e 63685F73 		.ascii	"ch_semaphore\000"
 1991      656D6170 
 1991      686F7265 
 1991      00
 1992              	.LASF82:
 1993 039b 43435852 		.ascii	"CCXR\000"
 1993      00
 1994              	.LASF15:
 1995 03a0 75696E74 		.ascii	"uint32_t\000"
 1995      33325F74 
 1995      00
 1996              	.LASF92:
 1997 03a9 77746D74 		.ascii	"wtmtxp\000"
 1997      787000
 1998              	.LASF45:
 1999 03b0 63685F74 		.ascii	"ch_threads_list\000"
 1999      68726561 
 1999      64735F6C 
 1999      69737400 
 2000              	.LASF96:
 2001 03c0 6F776E65 		.ascii	"owner\000"
 2001      7200
 2002              	.LASF110:
 2003 03c6 474E5520 		.ascii	"GNU C 4.9.3 20150529 (prerelease) -mcpu=cortex-m4 -"
 2003      4320342E 
 2003      392E3320 
 2003      32303135 
 2003      30353239 
 2004 03f9 6D6E6F2D 		.ascii	"mno-thumb-interwork -mthumb -ggdb -O0 -fomit-frame-"
 2004      7468756D 
 2004      622D696E 
 2004      74657277 
 2004      6F726B20 
 2005 042c 706F696E 		.ascii	"pointer -falign-functions=16\000"
 2005      74657220 
 2005      2D66616C 
 2005      69676E2D 
 2005      66756E63 
 2006              	.LASF105:
 2007 0449 73745374 		.ascii	"stStopAlarm\000"
 2007      6F70416C 
 2007      61726D00 
 2008              	.LASF97:
 2009 0455 63686172 		.ascii	"char\000"
 2009      00
 2010              	.LASF30:
 2011 045a 6F6C6465 		.ascii	"older\000"
 2011      7200
 2012              	.LASF80:
 2013 0460 444D4152 		.ascii	"DMAR\000"
 2013      00
 2014              	.LASF26:
 2015 0465 74687265 		.ascii	"thread_t\000"
 2015      61645F74 
 2015      00
 2016              	.LASF25:
ARM GAS  /tmp/ccL31GXy.s 			page 40


 2017 046e 73797374 		.ascii	"systime_t\000"
 2017      696D655F 
 2017      7400
 2018              	.LASF53:
 2019 0478 76746675 		.ascii	"vtfunc_t\000"
 2019      6E635F74 
 2019      00
 2020              	.LASF8:
 2021 0481 5F5F7569 		.ascii	"__uint32_t\000"
 2021      6E743332 
 2021      5F7400
 2022              	.LASF63:
 2023 048c 70616E69 		.ascii	"panic_msg\000"
 2023      635F6D73 
 2023      6700
 2024              	.LASF84:
 2025 0496 6F666673 		.ascii	"offset\000"
 2025      657400
 2026              	.LASF106:
 2027 049d 73745374 		.ascii	"stStartAlarm\000"
 2027      61727441 
 2027      6C61726D 
 2027      00
 2028              	.LASF4:
 2029 04aa 73686F72 		.ascii	"short unsigned int\000"
 2029      7420756E 
 2029      7369676E 
 2029      65642069 
 2029      6E7400
 2030              	.LASF17:
 2031 04bd 7274636E 		.ascii	"rtcnt_t\000"
 2031      745F7400 
 2032              	.LASF113:
 2033 04c5 73745F6C 		.ascii	"st_lld_stop_alarm\000"
 2033      6C645F73 
 2033      746F705F 
 2033      616C6172 
 2033      6D00
 2034              	.LASF47:
 2035 04d7 74687265 		.ascii	"threads_queue_t\000"
 2035      6164735F 
 2035      71756575 
 2035      655F7400 
 2036              	.LASF95:
 2037 04e7 63685F6D 		.ascii	"ch_mutex\000"
 2037      75746578 
 2037      00
 2038              	.LASF66:
 2039 04f0 726C6973 		.ascii	"rlist\000"
 2039      7400
 2040              	.LASF107:
 2041 04f6 73745365 		.ascii	"stSetAlarm\000"
 2041      74416C61 
 2041      726D00
 2042              	.LASF34:
 2043 0501 666C6167 		.ascii	"flags\000"
 2043      7300
ARM GAS  /tmp/ccL31GXy.s 			page 41


 2044              	.LASF115:
 2045 0507 73744765 		.ascii	"stGetAlarm\000"
 2045      74416C61 
 2045      726D00
 2046              	.LASF88:
 2047 0512 77746F62 		.ascii	"wtobjp\000"
 2047      6A7000
 2048              	.LASF43:
 2049 0519 74687265 		.ascii	"threads_list_t\000"
 2049      6164735F 
 2049      6C697374 
 2049      5F7400
 2050              	.LASF103:
 2051 0528 61627374 		.ascii	"abstime\000"
 2051      696D6500 
 2052              	.LASF101:
 2053 0530 73745F6C 		.ascii	"st_lld_set_alarm\000"
 2053      6C645F73 
 2053      65745F61 
 2053      6C61726D 
 2053      00
 2054              	.LASF39:
 2055 0541 6D74786C 		.ascii	"mtxlist\000"
 2055      69737400 
 2056              		.ident	"GCC: (15:4.9.3+svn231177-1) 4.9.3 20150529 (prerelease)"
ARM GAS  /tmp/ccL31GXy.s 			page 42


DEFINED SYMBOLS
                            *ABS*:0000000000000000 hal_st.c
     /tmp/ccL31GXy.s:18     .text:0000000000000000 $t
     /tmp/ccL31GXy.s:23     .text:0000000000000000 st_lld_start_alarm
     /tmp/ccL31GXy.s:59     .text:0000000000000020 st_lld_stop_alarm
     /tmp/ccL31GXy.s:80     .text:0000000000000030 st_lld_set_alarm
     /tmp/ccL31GXy.s:107    .text:0000000000000040 st_lld_get_alarm
     /tmp/ccL31GXy.s:129    .text:0000000000000050 stInit
     /tmp/ccL31GXy.s:153    .text:0000000000000060 stStartAlarm
     /tmp/ccL31GXy.s:182    .text:0000000000000080 stStopAlarm
     /tmp/ccL31GXy.s:205    .text:0000000000000090 stSetAlarm
     /tmp/ccL31GXy.s:234    .text:00000000000000b0 stGetAlarm
                     .debug_frame:0000000000000010 $d

UNDEFINED SYMBOLS
st_lld_init
