ARM GAS  /tmp/cc60mVCx.s 			page 1


   1              		.syntax unified
   2              		.cpu cortex-m4
   3              		.fpu softvfp
   4              		.eabi_attribute 20, 1
   5              		.eabi_attribute 21, 1
   6              		.eabi_attribute 23, 3
   7              		.eabi_attribute 24, 1
   8              		.eabi_attribute 25, 1
   9              		.eabi_attribute 26, 1
  10              		.eabi_attribute 30, 6
  11              		.eabi_attribute 34, 1
  12              		.eabi_attribute 18, 4
  13              		.thumb
  14              		.file	"main.c"
  15              		.text
  16              	.Ltext0:
  17              		.cfi_sections	.debug_frame
  18              		.section	.rodata
  19              		.align	2
  20              		.type	i2ccfg, %object
  21              		.size	i2ccfg, 12
  22              	i2ccfg:
  23 0000 01       		.byte	1
  24 0001 000000   		.space	3
  25 0004 A0860100 		.word	100000
  26 0008 01       		.byte	1
  27 0009 000000   		.space	3
  28              		.text
  29              		.align	2
  30              		.p2align 4,,15
  31              		.global	main
  32              		.thumb
  33              		.thumb_func
  34              		.type	main, %function
  35              	main:
  36              	.LFB279:
  37              		.file 1 "main.c"
  38              		.loc 1 35 0
  39              		.cfi_startproc
  40              		@ args = 0, pretend = 0, frame = 72
  41              		@ frame_needed = 0, uses_anonymous_args = 0
  42 0000 00B5     		push	{lr}
  43              		.cfi_def_cfa_offset 4
  44              		.cfi_offset 14, -4
  45 0002 97B0     		sub	sp, sp, #92
  46              		.cfi_def_cfa_offset 96
  47              		.loc 1 44 0
  48 0004 FFF7FEFF 		bl	halInit
  49              		.loc 1 45 0
  50 0008 FFF7FEFF 		bl	chSysInit
  51              		.loc 1 48 0
  52 000c A948     		ldr	r0, .L3
  53 000e 4FF48071 		mov	r1, #256
  54 0012 40F20622 		movw	r2, #518
  55 0016 FFF7FEFF 		bl	_pal_lld_setgroupmode
  56              		.loc 1 49 0
  57 001a A648     		ldr	r0, .L3
ARM GAS  /tmp/cc60mVCx.s 			page 2


  58 001c 4FF40071 		mov	r1, #512
  59 0020 40F20622 		movw	r2, #518
  60 0024 FFF7FEFF 		bl	_pal_lld_setgroupmode
  61              		.loc 1 51 0
  62 0028 A248     		ldr	r0, .L3
  63 002a 4FF48061 		mov	r1, #1024
  64 002e 40F28232 		movw	r2, #898
  65 0032 FFF7FEFF 		bl	_pal_lld_setgroupmode
  66              		.loc 1 52 0
  67 0036 9F48     		ldr	r0, .L3
  68 0038 4FF40061 		mov	r1, #2048
  69 003c 40F28232 		movw	r2, #898
  70 0040 FFF7FEFF 		bl	_pal_lld_setgroupmode
  71              		.loc 1 54 0
  72 0044 9C48     		ldr	r0, .L3+4
  73 0046 9D49     		ldr	r1, .L3+8
  74 0048 FFF7FEFF 		bl	i2cStart
  75              		.loc 1 55 0
  76 004c 9C48     		ldr	r0, .L3+12
  77 004e 0021     		movs	r1, #0
  78 0050 FFF7FEFF 		bl	sdStart
  79              		.loc 1 81 0
  80 0054 0F23     		movs	r3, #15
  81 0056 8DF85730 		strb	r3, [sp, #87]
  82              		.loc 1 88 0
  83 005a 1023     		movs	r3, #16
  84 005c 8DF85630 		strb	r3, [sp, #86]
  85              		.loc 1 89 0
  86 0060 4323     		movs	r3, #67
  87 0062 8DF85530 		strb	r3, [sp, #85]
  88              		.loc 1 93 0
  89 0066 1923     		movs	r3, #25
  90 0068 8DF85430 		strb	r3, [sp, #84]
  91              		.loc 1 94 0
  92 006c 3823     		movs	r3, #56
  93 006e 8DF85330 		strb	r3, [sp, #83]
  94              		.loc 1 100 0
  95 0072 1B23     		movs	r3, #27
  96 0074 8DF85230 		strb	r3, [sp, #82]
  97              		.loc 1 103 0
  98 0078 2823     		movs	r3, #40
  99 007a 8DF85130 		strb	r3, [sp, #81]
 100              		.loc 1 105 0
 101 007e 2923     		movs	r3, #41
 102 0080 8DF85030 		strb	r3, [sp, #80]
 103              		.loc 1 108 0
 104 0084 2A23     		movs	r3, #42
 105 0086 8DF84F30 		strb	r3, [sp, #79]
 106              		.loc 1 110 0
 107 008a 2B23     		movs	r3, #43
 108 008c 8DF84E30 		strb	r3, [sp, #78]
 109              		.loc 1 113 0
 110 0090 2C23     		movs	r3, #44
 111 0092 8DF84D30 		strb	r3, [sp, #77]
 112              		.loc 1 115 0
 113 0096 2D23     		movs	r3, #45
 114 0098 8DF84C30 		strb	r3, [sp, #76]
ARM GAS  /tmp/cc60mVCx.s 			page 3


 115              	.L2:
 116              	.LBB2:
 117              		.loc 1 137 0 discriminator 1
 118 009c 0023     		movs	r3, #0
 119 009e ADF83C30 		strh	r3, [sp, #60]	@ movhi
 120 00a2 9DF85730 		ldrb	r3, [sp, #87]
 121 00a6 8DF83C30 		strb	r3, [sp, #60]
 122              		.loc 1 139 0 discriminator 1
 123 00aa 0FAB     		add	r3, sp, #60
 124 00ac 1293     		str	r3, [sp, #72]
 125              		.loc 1 140 0 discriminator 1
 126 00ae 0DF14103 		add	r3, sp, #65
 127 00b2 0093     		str	r3, [sp]
 128 00b4 0123     		movs	r3, #1
 129 00b6 0193     		str	r3, [sp, #4]
 130 00b8 42F21073 		movw	r3, #10000
 131 00bc 0293     		str	r3, [sp, #8]
 132 00be 7E48     		ldr	r0, .L3+4
 133 00c0 6A21     		movs	r1, #106
 134 00c2 129A     		ldr	r2, [sp, #72]
 135 00c4 0123     		movs	r3, #1
 136 00c6 FFF7FEFF 		bl	i2cMasterTransmitTimeout
 137 00ca 0346     		mov	r3, r0
 138 00cc 0E93     		str	r3, [sp, #56]
 139              		.loc 1 143 0 discriminator 1
 140 00ce 9DF85630 		ldrb	r3, [sp, #86]
 141 00d2 8DF83C30 		strb	r3, [sp, #60]
 142              		.loc 1 144 0 discriminator 1
 143 00d6 9DF85530 		ldrb	r3, [sp, #85]
 144 00da 8DF83D30 		strb	r3, [sp, #61]
 145              		.loc 1 145 0 discriminator 1
 146 00de 0FAB     		add	r3, sp, #60
 147 00e0 1293     		str	r3, [sp, #72]
 148              		.loc 1 146 0 discriminator 1
 149 00e2 0DF14103 		add	r3, sp, #65
 150 00e6 0093     		str	r3, [sp]
 151 00e8 0023     		movs	r3, #0
 152 00ea 0193     		str	r3, [sp, #4]
 153 00ec 42F21073 		movw	r3, #10000
 154 00f0 0293     		str	r3, [sp, #8]
 155 00f2 7148     		ldr	r0, .L3+4
 156 00f4 6A21     		movs	r1, #106
 157 00f6 129A     		ldr	r2, [sp, #72]
 158 00f8 0223     		movs	r3, #2
 159 00fa FFF7FEFF 		bl	i2cMasterTransmitTimeout
 160 00fe 0346     		mov	r3, r0
 161 0100 0D93     		str	r3, [sp, #52]
 162              		.loc 1 149 0 discriminator 1
 163 0102 9DF85130 		ldrb	r3, [sp, #81]
 164 0106 8DF83C30 		strb	r3, [sp, #60]
 165              		.loc 1 150 0 discriminator 1
 166 010a 0FAB     		add	r3, sp, #60
 167 010c 1293     		str	r3, [sp, #72]
 168              		.loc 1 151 0 discriminator 1
 169 010e 0DF14103 		add	r3, sp, #65
 170 0112 0093     		str	r3, [sp]
 171 0114 0123     		movs	r3, #1
ARM GAS  /tmp/cc60mVCx.s 			page 4


 172 0116 0193     		str	r3, [sp, #4]
 173 0118 42F21073 		movw	r3, #10000
 174 011c 0293     		str	r3, [sp, #8]
 175 011e 6648     		ldr	r0, .L3+4
 176 0120 6A21     		movs	r1, #106
 177 0122 129A     		ldr	r2, [sp, #72]
 178 0124 0123     		movs	r3, #1
 179 0126 FFF7FEFF 		bl	i2cMasterTransmitTimeout
 180 012a 0346     		mov	r3, r0
 181 012c 0C93     		str	r3, [sp, #48]
 182              		.loc 1 152 0 discriminator 1
 183 012e 9DF84130 		ldrb	r3, [sp, #65]
 184 0132 8DF84730 		strb	r3, [sp, #71]
 185              		.loc 1 156 0 discriminator 1
 186 0136 9DF85030 		ldrb	r3, [sp, #80]
 187 013a 8DF83C30 		strb	r3, [sp, #60]
 188              		.loc 1 157 0 discriminator 1
 189 013e 0FAB     		add	r3, sp, #60
 190 0140 1293     		str	r3, [sp, #72]
 191              		.loc 1 158 0 discriminator 1
 192 0142 0DF14103 		add	r3, sp, #65
 193 0146 0093     		str	r3, [sp]
 194 0148 0123     		movs	r3, #1
 195 014a 0193     		str	r3, [sp, #4]
 196 014c 42F21073 		movw	r3, #10000
 197 0150 0293     		str	r3, [sp, #8]
 198 0152 5948     		ldr	r0, .L3+4
 199 0154 6A21     		movs	r1, #106
 200 0156 129A     		ldr	r2, [sp, #72]
 201 0158 0123     		movs	r3, #1
 202 015a FFF7FEFF 		bl	i2cMasterTransmitTimeout
 203 015e 0346     		mov	r3, r0
 204 0160 0B93     		str	r3, [sp, #44]
 205              		.loc 1 159 0 discriminator 1
 206 0162 9DF84130 		ldrb	r3, [sp, #65]
 207 0166 8DF84630 		strb	r3, [sp, #70]
 208              		.loc 1 161 0 discriminator 1
 209 016a 9DF84630 		ldrb	r3, [sp, #70]	@ zero_extendqisi2
 210 016e 1B02     		lsls	r3, r3, #8
 211 0170 9AB2     		uxth	r2, r3
 212 0172 9DF84730 		ldrb	r3, [sp, #71]	@ zero_extendqisi2
 213 0176 9BB2     		uxth	r3, r3
 214 0178 1343     		orrs	r3, r3, r2
 215 017a 9BB2     		uxth	r3, r3
 216 017c 9BB2     		uxth	r3, r3
 217 017e ADF82A30 		strh	r3, [sp, #42]	@ movhi
 218              		.loc 1 164 0 discriminator 1
 219 0182 BDF82A30 		ldrh	r3, [sp, #42]
 220 0186 ADF82830 		strh	r3, [sp, #40]	@ movhi
 221              		.loc 1 166 0 discriminator 1
 222 018a 9DF84F30 		ldrb	r3, [sp, #79]
 223 018e 8DF83C30 		strb	r3, [sp, #60]
 224              		.loc 1 167 0 discriminator 1
 225 0192 0FAB     		add	r3, sp, #60
 226 0194 1293     		str	r3, [sp, #72]
 227              		.loc 1 168 0 discriminator 1
 228 0196 0DF14103 		add	r3, sp, #65
ARM GAS  /tmp/cc60mVCx.s 			page 5


 229 019a 0093     		str	r3, [sp]
 230 019c 0123     		movs	r3, #1
 231 019e 0193     		str	r3, [sp, #4]
 232 01a0 42F21073 		movw	r3, #10000
 233 01a4 0293     		str	r3, [sp, #8]
 234 01a6 4448     		ldr	r0, .L3+4
 235 01a8 6A21     		movs	r1, #106
 236 01aa 129A     		ldr	r2, [sp, #72]
 237 01ac 0123     		movs	r3, #1
 238 01ae FFF7FEFF 		bl	i2cMasterTransmitTimeout
 239 01b2 0346     		mov	r3, r0
 240 01b4 0993     		str	r3, [sp, #36]
 241              		.loc 1 169 0 discriminator 1
 242 01b6 9DF84130 		ldrb	r3, [sp, #65]
 243 01ba 8DF84530 		strb	r3, [sp, #69]
 244              		.loc 1 171 0 discriminator 1
 245 01be 9DF84E30 		ldrb	r3, [sp, #78]
 246 01c2 8DF83C30 		strb	r3, [sp, #60]
 247              		.loc 1 172 0 discriminator 1
 248 01c6 0FAB     		add	r3, sp, #60
 249 01c8 1293     		str	r3, [sp, #72]
 250              		.loc 1 173 0 discriminator 1
 251 01ca 0DF14103 		add	r3, sp, #65
 252 01ce 0093     		str	r3, [sp]
 253 01d0 0123     		movs	r3, #1
 254 01d2 0193     		str	r3, [sp, #4]
 255 01d4 42F21073 		movw	r3, #10000
 256 01d8 0293     		str	r3, [sp, #8]
 257 01da 3748     		ldr	r0, .L3+4
 258 01dc 6A21     		movs	r1, #106
 259 01de 129A     		ldr	r2, [sp, #72]
 260 01e0 0123     		movs	r3, #1
 261 01e2 FFF7FEFF 		bl	i2cMasterTransmitTimeout
 262 01e6 0346     		mov	r3, r0
 263 01e8 0893     		str	r3, [sp, #32]
 264              		.loc 1 174 0 discriminator 1
 265 01ea 9DF84130 		ldrb	r3, [sp, #65]
 266 01ee 8DF84430 		strb	r3, [sp, #68]
 267              		.loc 1 176 0 discriminator 1
 268 01f2 9DF84430 		ldrb	r3, [sp, #68]	@ zero_extendqisi2
 269 01f6 1B02     		lsls	r3, r3, #8
 270 01f8 9AB2     		uxth	r2, r3
 271 01fa 9DF84530 		ldrb	r3, [sp, #69]	@ zero_extendqisi2
 272 01fe 9BB2     		uxth	r3, r3
 273 0200 1343     		orrs	r3, r3, r2
 274 0202 9BB2     		uxth	r3, r3
 275 0204 9BB2     		uxth	r3, r3
 276 0206 ADF81E30 		strh	r3, [sp, #30]	@ movhi
 277              		.loc 1 179 0 discriminator 1
 278 020a BDF81E30 		ldrh	r3, [sp, #30]
 279 020e ADF81C30 		strh	r3, [sp, #28]	@ movhi
 280              		.loc 1 182 0 discriminator 1
 281 0212 9DF84D30 		ldrb	r3, [sp, #77]
 282 0216 8DF83C30 		strb	r3, [sp, #60]
 283              		.loc 1 183 0 discriminator 1
 284 021a 0FAB     		add	r3, sp, #60
 285 021c 1293     		str	r3, [sp, #72]
ARM GAS  /tmp/cc60mVCx.s 			page 6


 286              		.loc 1 184 0 discriminator 1
 287 021e 0DF14103 		add	r3, sp, #65
 288 0222 0093     		str	r3, [sp]
 289 0224 0123     		movs	r3, #1
 290 0226 0193     		str	r3, [sp, #4]
 291 0228 42F21073 		movw	r3, #10000
 292 022c 0293     		str	r3, [sp, #8]
 293 022e 2248     		ldr	r0, .L3+4
 294 0230 6A21     		movs	r1, #106
 295 0232 129A     		ldr	r2, [sp, #72]
 296 0234 0123     		movs	r3, #1
 297 0236 FFF7FEFF 		bl	i2cMasterTransmitTimeout
 298 023a 0346     		mov	r3, r0
 299 023c 0693     		str	r3, [sp, #24]
 300              		.loc 1 185 0 discriminator 1
 301 023e 9DF84130 		ldrb	r3, [sp, #65]
 302 0242 8DF84330 		strb	r3, [sp, #67]
 303              		.loc 1 188 0 discriminator 1
 304 0246 9DF84C30 		ldrb	r3, [sp, #76]
 305 024a 8DF83C30 		strb	r3, [sp, #60]
 306              		.loc 1 189 0 discriminator 1
 307 024e 0FAB     		add	r3, sp, #60
 308 0250 1293     		str	r3, [sp, #72]
 309              		.loc 1 190 0 discriminator 1
 310 0252 0DF14103 		add	r3, sp, #65
 311 0256 0093     		str	r3, [sp]
 312 0258 0123     		movs	r3, #1
 313 025a 0193     		str	r3, [sp, #4]
 314 025c 42F21073 		movw	r3, #10000
 315 0260 0293     		str	r3, [sp, #8]
 316 0262 1548     		ldr	r0, .L3+4
 317 0264 6A21     		movs	r1, #106
 318 0266 129A     		ldr	r2, [sp, #72]
 319 0268 0123     		movs	r3, #1
 320 026a FFF7FEFF 		bl	i2cMasterTransmitTimeout
 321 026e 0346     		mov	r3, r0
 322 0270 0593     		str	r3, [sp, #20]
 323              		.loc 1 191 0 discriminator 1
 324 0272 9DF84130 		ldrb	r3, [sp, #65]
 325 0276 8DF84230 		strb	r3, [sp, #66]
 326              		.loc 1 194 0 discriminator 1
 327 027a 9DF84230 		ldrb	r3, [sp, #66]	@ zero_extendqisi2
 328 027e 1B02     		lsls	r3, r3, #8
 329 0280 9AB2     		uxth	r2, r3
 330 0282 9DF84330 		ldrb	r3, [sp, #67]	@ zero_extendqisi2
 331 0286 9BB2     		uxth	r3, r3
 332 0288 1343     		orrs	r3, r3, r2
 333 028a 9BB2     		uxth	r3, r3
 334 028c 9BB2     		uxth	r3, r3
 335 028e ADF81230 		strh	r3, [sp, #18]	@ movhi
 336              		.loc 1 196 0 discriminator 1
 337 0292 BDF81230 		ldrh	r3, [sp, #18]
 338 0296 ADF81030 		strh	r3, [sp, #16]	@ movhi
 339              		.loc 1 207 0 discriminator 1
 340 029a 0E9B     		ldr	r3, [sp, #56]
 341              		.loc 1 208 0 discriminator 1
 342 029c 0D9B     		ldr	r3, [sp, #52]
ARM GAS  /tmp/cc60mVCx.s 			page 7


 343              		.loc 1 209 0 discriminator 1
 344 029e 0C9B     		ldr	r3, [sp, #48]
 345              		.loc 1 210 0 discriminator 1
 346 02a0 0B9B     		ldr	r3, [sp, #44]
 347              		.loc 1 211 0 discriminator 1
 348 02a2 099B     		ldr	r3, [sp, #36]
 349              		.loc 1 212 0 discriminator 1
 350 02a4 089B     		ldr	r3, [sp, #32]
 351              		.loc 1 213 0 discriminator 1
 352 02a6 069B     		ldr	r3, [sp, #24]
 353              		.loc 1 214 0 discriminator 1
 354 02a8 059B     		ldr	r3, [sp, #20]
 355              		.loc 1 216 0 discriminator 1
 356 02aa 4FF47A70 		mov	r0, #1000
 357 02ae FFF7FEFF 		bl	chThdSleep
 358              	.LBE2:
 359              		.loc 1 218 0 discriminator 1
 360 02b2 F3E6     		b	.L2
 361              	.L4:
 362              		.align	2
 363              	.L3:
 364 02b4 00040240 		.word	1073873920
 365 02b8 00000000 		.word	I2CD1
 366 02bc 00000000 		.word	i2ccfg
 367 02c0 00000000 		.word	SD3
 368              		.cfi_endproc
 369              	.LFE279:
 370              		.size	main, .-main
 371              	.Letext0:
 372              		.file 2 "/usr/lib/gcc/arm-none-eabi/4.9.3/include/stddef.h"
 373              		.file 3 "/usr/include/newlib/machine/_default_types.h"
 374              		.file 4 "/usr/include/newlib/sys/_stdint.h"
 375              		.file 5 "../../../os/common/ports/ARMCMx/compilers/GCC/chtypes.h"
 376              		.file 6 "../../../os/rt/include/chsystypes.h"
 377              		.file 7 "../../../os/rt/include/chschd.h"
 378              		.file 8 "../../../os/common/ext/CMSIS/ST/STM32F4xx/stm32f407xx.h"
 379              		.file 9 "../../../os/common/ports/ARMCMx/chcore.h"
 380              		.file 10 "../../../os/common/ports/ARMCMx/chcore_v7m.h"
 381              		.file 11 "../../../os/rt/include/chtm.h"
 382              		.file 12 "../../../os/rt/include/chsem.h"
 383              		.file 13 "../../../os/rt/include/chmtx.h"
 384              		.file 14 "../../../os/rt/include/chevents.h"
 385              		.file 15 "../../../os/hal/ports/STM32/LLD/DMAv2/stm32_dma.h"
 386              		.file 16 "../../../os/hal/include/hal_streams.h"
 387              		.file 17 "../../../os/hal/include/hal_queues.h"
 388              		.file 18 "../../../os/hal/ports/STM32/LLD/GPIOv2/hal_pal_lld.h"
 389              		.file 19 "../../../os/hal/include/hal_i2c.h"
 390              		.file 20 "../../../os/hal/ports/STM32/LLD/I2Cv1/hal_i2c_lld.h"
 391              		.file 21 "../../../os/hal/include/hal_serial.h"
 392              		.file 22 "../../../os/common/ext/CMSIS/include/core_cm4.h"
 393              		.file 23 "../../../os/hal/ports/STM32/LLD/USARTv1/hal_serial_lld.h"
 394              		.section	.debug_info,"",%progbits
 395              	.Ldebug_info0:
 396 0000 E7100000 		.4byte	0x10e7
 397 0004 0400     		.2byte	0x4
 398 0006 00000000 		.4byte	.Ldebug_abbrev0
 399 000a 04       		.byte	0x4
ARM GAS  /tmp/cc60mVCx.s 			page 8


 400 000b 01       		.uleb128 0x1
 401 000c AB050000 		.4byte	.LASF225
 402 0010 01       		.byte	0x1
 403 0011 2A040000 		.4byte	.LASF226
 404 0015 03090000 		.4byte	.LASF227
 405 0019 00000000 		.4byte	.Ltext0
 406 001d C4020000 		.4byte	.Letext0-.Ltext0
 407 0021 00000000 		.4byte	.Ldebug_line0
 408 0025 02       		.uleb128 0x2
 409 0026 04       		.byte	0x4
 410 0027 05       		.byte	0x5
 411 0028 696E7400 		.ascii	"int\000"
 412 002c 03       		.uleb128 0x3
 413 002d 18000000 		.4byte	.LASF2
 414 0031 02       		.byte	0x2
 415 0032 D4       		.byte	0xd4
 416 0033 37000000 		.4byte	0x37
 417 0037 04       		.uleb128 0x4
 418 0038 04       		.byte	0x4
 419 0039 07       		.byte	0x7
 420 003a B7040000 		.4byte	.LASF0
 421 003e 04       		.uleb128 0x4
 422 003f 01       		.byte	0x1
 423 0040 06       		.byte	0x6
 424 0041 9B010000 		.4byte	.LASF1
 425 0045 03       		.uleb128 0x3
 426 0046 03010000 		.4byte	.LASF3
 427 004a 03       		.byte	0x3
 428 004b 1D       		.byte	0x1d
 429 004c 50000000 		.4byte	0x50
 430 0050 04       		.uleb128 0x4
 431 0051 01       		.byte	0x1
 432 0052 08       		.byte	0x8
 433 0053 C8010000 		.4byte	.LASF4
 434 0057 03       		.uleb128 0x3
 435 0058 D5060000 		.4byte	.LASF5
 436 005c 03       		.byte	0x3
 437 005d 29       		.byte	0x29
 438 005e 62000000 		.4byte	0x62
 439 0062 04       		.uleb128 0x4
 440 0063 02       		.byte	0x2
 441 0064 05       		.byte	0x5
 442 0065 72070000 		.4byte	.LASF6
 443 0069 03       		.uleb128 0x3
 444 006a 4E020000 		.4byte	.LASF7
 445 006e 03       		.byte	0x3
 446 006f 2B       		.byte	0x2b
 447 0070 74000000 		.4byte	0x74
 448 0074 04       		.uleb128 0x4
 449 0075 02       		.byte	0x2
 450 0076 07       		.byte	0x7
 451 0077 C9080000 		.4byte	.LASF8
 452 007b 03       		.uleb128 0x3
 453 007c 44090000 		.4byte	.LASF9
 454 0080 03       		.byte	0x3
 455 0081 3F       		.byte	0x3f
 456 0082 86000000 		.4byte	0x86
ARM GAS  /tmp/cc60mVCx.s 			page 9


 457 0086 04       		.uleb128 0x4
 458 0087 04       		.byte	0x4
 459 0088 05       		.byte	0x5
 460 0089 44010000 		.4byte	.LASF10
 461 008d 03       		.uleb128 0x3
 462 008e E8030000 		.4byte	.LASF11
 463 0092 03       		.byte	0x3
 464 0093 41       		.byte	0x41
 465 0094 98000000 		.4byte	0x98
 466 0098 04       		.uleb128 0x4
 467 0099 04       		.byte	0x4
 468 009a 07       		.byte	0x7
 469 009b 54030000 		.4byte	.LASF12
 470 009f 04       		.uleb128 0x4
 471 00a0 08       		.byte	0x8
 472 00a1 05       		.byte	0x5
 473 00a2 FB030000 		.4byte	.LASF13
 474 00a6 03       		.uleb128 0x3
 475 00a7 49030000 		.4byte	.LASF14
 476 00ab 03       		.byte	0x3
 477 00ac 5B       		.byte	0x5b
 478 00ad B1000000 		.4byte	0xb1
 479 00b1 04       		.uleb128 0x4
 480 00b2 08       		.byte	0x8
 481 00b3 07       		.byte	0x7
 482 00b4 2E060000 		.4byte	.LASF15
 483 00b8 03       		.uleb128 0x3
 484 00b9 AE010000 		.4byte	.LASF16
 485 00bd 04       		.byte	0x4
 486 00be 14       		.byte	0x14
 487 00bf 45000000 		.4byte	0x45
 488 00c3 03       		.uleb128 0x3
 489 00c4 B9070000 		.4byte	.LASF17
 490 00c8 04       		.byte	0x4
 491 00c9 19       		.byte	0x19
 492 00ca 57000000 		.4byte	0x57
 493 00ce 03       		.uleb128 0x3
 494 00cf 51060000 		.4byte	.LASF18
 495 00d3 04       		.byte	0x4
 496 00d4 1A       		.byte	0x1a
 497 00d5 69000000 		.4byte	0x69
 498 00d9 03       		.uleb128 0x3
 499 00da 47000000 		.4byte	.LASF19
 500 00de 04       		.byte	0x4
 501 00df 1F       		.byte	0x1f
 502 00e0 7B000000 		.4byte	0x7b
 503 00e4 03       		.uleb128 0x3
 504 00e5 80080000 		.4byte	.LASF20
 505 00e9 04       		.byte	0x4
 506 00ea 20       		.byte	0x20
 507 00eb 8D000000 		.4byte	0x8d
 508 00ef 03       		.uleb128 0x3
 509 00f0 93070000 		.4byte	.LASF21
 510 00f4 04       		.byte	0x4
 511 00f5 26       		.byte	0x26
 512 00f6 A6000000 		.4byte	0xa6
 513 00fa 03       		.uleb128 0x3
ARM GAS  /tmp/cc60mVCx.s 			page 10


 514 00fb C4040000 		.4byte	.LASF22
 515 00ff 05       		.byte	0x5
 516 0100 39       		.byte	0x39
 517 0101 E4000000 		.4byte	0xe4
 518 0105 03       		.uleb128 0x3
 519 0106 22070000 		.4byte	.LASF23
 520 010a 05       		.byte	0x5
 521 010b 3C       		.byte	0x3c
 522 010c B8000000 		.4byte	0xb8
 523 0110 03       		.uleb128 0x3
 524 0111 55010000 		.4byte	.LASF24
 525 0115 05       		.byte	0x5
 526 0116 3D       		.byte	0x3d
 527 0117 B8000000 		.4byte	0xb8
 528 011b 03       		.uleb128 0x3
 529 011c 44080000 		.4byte	.LASF25
 530 0120 05       		.byte	0x5
 531 0121 3E       		.byte	0x3e
 532 0122 B8000000 		.4byte	0xb8
 533 0126 03       		.uleb128 0x3
 534 0127 3F000000 		.4byte	.LASF26
 535 012b 05       		.byte	0x5
 536 012c 40       		.byte	0x40
 537 012d E4000000 		.4byte	0xe4
 538 0131 03       		.uleb128 0x3
 539 0132 5A060000 		.4byte	.LASF27
 540 0136 05       		.byte	0x5
 541 0137 41       		.byte	0x41
 542 0138 D9000000 		.4byte	0xd9
 543 013c 03       		.uleb128 0x3
 544 013d B6010000 		.4byte	.LASF28
 545 0141 05       		.byte	0x5
 546 0142 43       		.byte	0x43
 547 0143 E4000000 		.4byte	0xe4
 548 0147 03       		.uleb128 0x3
 549 0148 71060000 		.4byte	.LASF29
 550 014c 05       		.byte	0x5
 551 014d 44       		.byte	0x44
 552 014e E4000000 		.4byte	0xe4
 553 0152 03       		.uleb128 0x3
 554 0153 E3020000 		.4byte	.LASF30
 555 0157 05       		.byte	0x5
 556 0158 45       		.byte	0x45
 557 0159 D9000000 		.4byte	0xd9
 558 015d 03       		.uleb128 0x3
 559 015e 2F000000 		.4byte	.LASF31
 560 0162 06       		.byte	0x6
 561 0163 33       		.byte	0x33
 562 0164 E4000000 		.4byte	0xe4
 563 0168 03       		.uleb128 0x3
 564 0169 18050000 		.4byte	.LASF32
 565 016d 06       		.byte	0x6
 566 016e 3F       		.byte	0x3f
 567 016f 73010000 		.4byte	0x173
 568 0173 05       		.uleb128 0x5
 569 0174 73030000 		.4byte	.LASF50
 570 0178 44       		.byte	0x44
ARM GAS  /tmp/cc60mVCx.s 			page 11


 571 0179 07       		.byte	0x7
 572 017a 9A       		.byte	0x9a
 573 017b 51020000 		.4byte	0x251
 574 017f 06       		.uleb128 0x6
 575 0180 A2060000 		.4byte	.LASF33
 576 0184 07       		.byte	0x7
 577 0185 9B       		.byte	0x9b
 578 0186 86020000 		.4byte	0x286
 579 018a 00       		.byte	0
 580 018b 06       		.uleb128 0x6
 581 018c F5000000 		.4byte	.LASF34
 582 0190 07       		.byte	0x7
 583 0191 9C       		.byte	0x9c
 584 0192 26010000 		.4byte	0x126
 585 0196 08       		.byte	0x8
 586 0197 07       		.uleb128 0x7
 587 0198 63747800 		.ascii	"ctx\000"
 588 019c 07       		.byte	0x7
 589 019d 9D       		.byte	0x9d
 590 019e F1050000 		.4byte	0x5f1
 591 01a2 0C       		.byte	0xc
 592 01a3 06       		.uleb128 0x6
 593 01a4 7A080000 		.4byte	.LASF35
 594 01a8 07       		.byte	0x7
 595 01a9 9F       		.byte	0x9f
 596 01aa 5C020000 		.4byte	0x25c
 597 01ae 10       		.byte	0x10
 598 01af 06       		.uleb128 0x6
 599 01b0 B6030000 		.4byte	.LASF36
 600 01b4 07       		.byte	0x7
 601 01b5 A0       		.byte	0xa0
 602 01b6 5C020000 		.4byte	0x25c
 603 01ba 14       		.byte	0x14
 604 01bb 06       		.uleb128 0x6
 605 01bc 64070000 		.4byte	.LASF37
 606 01c0 07       		.byte	0x7
 607 01c1 A7       		.byte	0xa7
 608 01c2 76070000 		.4byte	0x776
 609 01c6 18       		.byte	0x18
 610 01c7 06       		.uleb128 0x6
 611 01c8 DF060000 		.4byte	.LASF38
 612 01cc 07       		.byte	0x7
 613 01cd B0       		.byte	0xb0
 614 01ce 88070000 		.4byte	0x788
 615 01d2 1C       		.byte	0x1c
 616 01d3 06       		.uleb128 0x6
 617 01d4 E2000000 		.4byte	.LASF39
 618 01d8 07       		.byte	0x7
 619 01d9 B5       		.byte	0xb5
 620 01da 10010000 		.4byte	0x110
 621 01de 20       		.byte	0x20
 622 01df 06       		.uleb128 0x6
 623 01e0 86020000 		.4byte	.LASF40
 624 01e4 07       		.byte	0x7
 625 01e5 B9       		.byte	0xb9
 626 01e6 05010000 		.4byte	0x105
 627 01ea 21       		.byte	0x21
ARM GAS  /tmp/cc60mVCx.s 			page 12


 628 01eb 06       		.uleb128 0x6
 629 01ec 9D060000 		.4byte	.LASF41
 630 01f0 07       		.byte	0x7
 631 01f1 BE       		.byte	0xbe
 632 01f2 1B010000 		.4byte	0x11b
 633 01f6 22       		.byte	0x22
 634 01f7 08       		.uleb128 0x8
 635 01f8 7500     		.ascii	"u\000"
 636 01fa 07       		.byte	0x7
 637 01fb 0F01     		.2byte	0x10f
 638 01fd AB060000 		.4byte	0x6ab
 639 0201 24       		.byte	0x24
 640 0202 09       		.uleb128 0x9
 641 0203 27080000 		.4byte	.LASF42
 642 0207 07       		.byte	0x7
 643 0208 1401     		.2byte	0x114
 644 020a 62020000 		.4byte	0x262
 645 020e 28       		.byte	0x28
 646 020f 09       		.uleb128 0x9
 647 0210 C1070000 		.4byte	.LASF43
 648 0214 07       		.byte	0x7
 649 0215 1A01     		.2byte	0x11a
 650 0217 86020000 		.4byte	0x286
 651 021b 2C       		.byte	0x2c
 652 021c 09       		.uleb128 0x9
 653 021d 5E010000 		.4byte	.LASF44
 654 0221 07       		.byte	0x7
 655 0222 2001     		.2byte	0x120
 656 0224 3C010000 		.4byte	0x13c
 657 0228 34       		.byte	0x34
 658 0229 09       		.uleb128 0x9
 659 022a F3030000 		.4byte	.LASF45
 660 022e 07       		.byte	0x7
 661 022f 2701     		.2byte	0x127
 662 0231 70070000 		.4byte	0x770
 663 0235 38       		.byte	0x38
 664 0236 09       		.uleb128 0x9
 665 0237 C1030000 		.4byte	.LASF46
 666 023b 07       		.byte	0x7
 667 023c 2B01     		.2byte	0x12b
 668 023e 26010000 		.4byte	0x126
 669 0242 3C       		.byte	0x3c
 670 0243 09       		.uleb128 0x9
 671 0244 B8020000 		.4byte	.LASF47
 672 0248 07       		.byte	0x7
 673 0249 3201     		.2byte	0x132
 674 024b 39030000 		.4byte	0x339
 675 024f 40       		.byte	0x40
 676 0250 00       		.byte	0
 677 0251 03       		.uleb128 0x3
 678 0252 3D050000 		.4byte	.LASF48
 679 0256 06       		.byte	0x6
 680 0257 44       		.byte	0x44
 681 0258 5C020000 		.4byte	0x25c
 682 025c 0A       		.uleb128 0xa
 683 025d 04       		.byte	0x4
 684 025e 68010000 		.4byte	0x168
ARM GAS  /tmp/cc60mVCx.s 			page 13


 685 0262 03       		.uleb128 0x3
 686 0263 59080000 		.4byte	.LASF49
 687 0267 06       		.byte	0x6
 688 0268 49       		.byte	0x49
 689 0269 6D020000 		.4byte	0x26d
 690 026d 05       		.uleb128 0x5
 691 026e CA030000 		.4byte	.LASF51
 692 0272 04       		.byte	0x4
 693 0273 07       		.byte	0x7
 694 0274 88       		.byte	0x88
 695 0275 86020000 		.4byte	0x286
 696 0279 06       		.uleb128 0x6
 697 027a 70090000 		.4byte	.LASF52
 698 027e 07       		.byte	0x7
 699 027f 89       		.byte	0x89
 700 0280 5C020000 		.4byte	0x25c
 701 0284 00       		.byte	0
 702 0285 00       		.byte	0
 703 0286 03       		.uleb128 0x3
 704 0287 6C010000 		.4byte	.LASF53
 705 028b 06       		.byte	0x6
 706 028c 50       		.byte	0x50
 707 028d 91020000 		.4byte	0x291
 708 0291 05       		.uleb128 0x5
 709 0292 60060000 		.4byte	.LASF54
 710 0296 08       		.byte	0x8
 711 0297 07       		.byte	0x7
 712 0298 8F       		.byte	0x8f
 713 0299 B6020000 		.4byte	0x2b6
 714 029d 06       		.uleb128 0x6
 715 029e 70090000 		.4byte	.LASF52
 716 02a2 07       		.byte	0x7
 717 02a3 90       		.byte	0x90
 718 02a4 5C020000 		.4byte	0x25c
 719 02a8 00       		.byte	0
 720 02a9 06       		.uleb128 0x6
 721 02aa 7A090000 		.4byte	.LASF55
 722 02ae 07       		.byte	0x7
 723 02af 91       		.byte	0x91
 724 02b0 5C020000 		.4byte	0x25c
 725 02b4 04       		.byte	0x4
 726 02b5 00       		.byte	0
 727 02b6 03       		.uleb128 0x3
 728 02b7 A9030000 		.4byte	.LASF56
 729 02bb 06       		.byte	0x6
 730 02bc 57       		.byte	0x57
 731 02bd C1020000 		.4byte	0x2c1
 732 02c1 0B       		.uleb128 0xb
 733 02c2 0B030000 		.4byte	.LASF57
 734 02c6 1C       		.byte	0x1c
 735 02c7 07       		.byte	0x7
 736 02c8 6A01     		.2byte	0x16a
 737 02ca 1D030000 		.4byte	0x31d
 738 02ce 09       		.uleb128 0x9
 739 02cf A2060000 		.4byte	.LASF33
 740 02d3 07       		.byte	0x7
 741 02d4 6B01     		.2byte	0x16b
ARM GAS  /tmp/cc60mVCx.s 			page 14


 742 02d6 86020000 		.4byte	0x286
 743 02da 00       		.byte	0
 744 02db 09       		.uleb128 0x9
 745 02dc F5000000 		.4byte	.LASF34
 746 02e0 07       		.byte	0x7
 747 02e1 6C01     		.2byte	0x16c
 748 02e3 26010000 		.4byte	0x126
 749 02e7 08       		.byte	0x8
 750 02e8 08       		.uleb128 0x8
 751 02e9 63747800 		.ascii	"ctx\000"
 752 02ed 07       		.byte	0x7
 753 02ee 6E01     		.2byte	0x16e
 754 02f0 F1050000 		.4byte	0x5f1
 755 02f4 0C       		.byte	0xc
 756 02f5 09       		.uleb128 0x9
 757 02f6 7A080000 		.4byte	.LASF35
 758 02fa 07       		.byte	0x7
 759 02fb 7101     		.2byte	0x171
 760 02fd 5C020000 		.4byte	0x25c
 761 0301 10       		.byte	0x10
 762 0302 09       		.uleb128 0x9
 763 0303 B6030000 		.4byte	.LASF36
 764 0307 07       		.byte	0x7
 765 0308 7201     		.2byte	0x172
 766 030a 5C020000 		.4byte	0x25c
 767 030e 14       		.byte	0x14
 768 030f 09       		.uleb128 0x9
 769 0310 CC040000 		.4byte	.LASF58
 770 0314 07       		.byte	0x7
 771 0315 7501     		.2byte	0x175
 772 0317 5C020000 		.4byte	0x25c
 773 031b 18       		.byte	0x18
 774 031c 00       		.byte	0
 775 031d 03       		.uleb128 0x3
 776 031e 56000000 		.4byte	.LASF59
 777 0322 06       		.byte	0x6
 778 0323 5C       		.byte	0x5c
 779 0324 28030000 		.4byte	0x328
 780 0328 0A       		.uleb128 0xa
 781 0329 04       		.byte	0x4
 782 032a 2E030000 		.4byte	0x32e
 783 032e 0C       		.uleb128 0xc
 784 032f 39030000 		.4byte	0x339
 785 0333 0D       		.uleb128 0xd
 786 0334 39030000 		.4byte	0x339
 787 0338 00       		.byte	0
 788 0339 0E       		.uleb128 0xe
 789 033a 04       		.byte	0x4
 790 033b 03       		.uleb128 0x3
 791 033c 99030000 		.4byte	.LASF60
 792 0340 06       		.byte	0x6
 793 0341 61       		.byte	0x61
 794 0342 46030000 		.4byte	0x346
 795 0346 0B       		.uleb128 0xb
 796 0347 9A050000 		.4byte	.LASF61
 797 034b 14       		.byte	0x14
 798 034c 07       		.byte	0x7
ARM GAS  /tmp/cc60mVCx.s 			page 15


 799 034d 4501     		.2byte	0x145
 800 034f 95030000 		.4byte	0x395
 801 0353 09       		.uleb128 0x9
 802 0354 70090000 		.4byte	.LASF52
 803 0358 07       		.byte	0x7
 804 0359 4601     		.2byte	0x146
 805 035b 8E070000 		.4byte	0x78e
 806 035f 00       		.byte	0
 807 0360 09       		.uleb128 0x9
 808 0361 7A090000 		.4byte	.LASF55
 809 0365 07       		.byte	0x7
 810 0366 4701     		.2byte	0x147
 811 0368 8E070000 		.4byte	0x78e
 812 036c 04       		.byte	0x4
 813 036d 09       		.uleb128 0x9
 814 036e 92060000 		.4byte	.LASF62
 815 0372 07       		.byte	0x7
 816 0373 4801     		.2byte	0x148
 817 0375 5D010000 		.4byte	0x15d
 818 0379 08       		.byte	0x8
 819 037a 09       		.uleb128 0x9
 820 037b AB070000 		.4byte	.LASF63
 821 037f 07       		.byte	0x7
 822 0380 4901     		.2byte	0x149
 823 0382 1D030000 		.4byte	0x31d
 824 0386 0C       		.byte	0xc
 825 0387 08       		.uleb128 0x8
 826 0388 70617200 		.ascii	"par\000"
 827 038c 07       		.byte	0x7
 828 038d 4B01     		.2byte	0x14b
 829 038f 39030000 		.4byte	0x339
 830 0393 10       		.byte	0x10
 831 0394 00       		.byte	0
 832 0395 03       		.uleb128 0x3
 833 0396 7D030000 		.4byte	.LASF64
 834 039a 06       		.byte	0x6
 835 039b 66       		.byte	0x66
 836 039c A0030000 		.4byte	0x3a0
 837 03a0 0B       		.uleb128 0xb
 838 03a1 67000000 		.4byte	.LASF65
 839 03a5 10       		.byte	0x10
 840 03a6 07       		.byte	0x7
 841 03a7 5501     		.2byte	0x155
 842 03a9 E2030000 		.4byte	0x3e2
 843 03ad 09       		.uleb128 0x9
 844 03ae 70090000 		.4byte	.LASF52
 845 03b2 07       		.byte	0x7
 846 03b3 5601     		.2byte	0x156
 847 03b5 8E070000 		.4byte	0x78e
 848 03b9 00       		.byte	0
 849 03ba 09       		.uleb128 0x9
 850 03bb 7A090000 		.4byte	.LASF55
 851 03bf 07       		.byte	0x7
 852 03c0 5801     		.2byte	0x158
 853 03c2 8E070000 		.4byte	0x78e
 854 03c6 04       		.byte	0x4
 855 03c7 09       		.uleb128 0x9
ARM GAS  /tmp/cc60mVCx.s 			page 16


 856 03c8 92060000 		.4byte	.LASF62
 857 03cc 07       		.byte	0x7
 858 03cd 5A01     		.2byte	0x15a
 859 03cf 5D010000 		.4byte	0x15d
 860 03d3 08       		.byte	0x8
 861 03d4 09       		.uleb128 0x9
 862 03d5 DD010000 		.4byte	.LASF66
 863 03d9 07       		.byte	0x7
 864 03da 6201     		.2byte	0x162
 865 03dc 5D010000 		.4byte	0x15d
 866 03e0 0C       		.byte	0xc
 867 03e1 00       		.byte	0
 868 03e2 03       		.uleb128 0x3
 869 03e3 FD010000 		.4byte	.LASF67
 870 03e7 06       		.byte	0x6
 871 03e8 6B       		.byte	0x6b
 872 03e9 ED030000 		.4byte	0x3ed
 873 03ed 0B       		.uleb128 0xb
 874 03ee E3070000 		.4byte	.LASF68
 875 03f2 04       		.byte	0x4
 876 03f3 07       		.byte	0x7
 877 03f4 7C01     		.2byte	0x17c
 878 03f6 08040000 		.4byte	0x408
 879 03fa 09       		.uleb128 0x9
 880 03fb F3010000 		.4byte	.LASF69
 881 03ff 07       		.byte	0x7
 882 0400 8401     		.2byte	0x184
 883 0402 94070000 		.4byte	0x794
 884 0406 00       		.byte	0
 885 0407 00       		.byte	0
 886 0408 03       		.uleb128 0x3
 887 0409 E8080000 		.4byte	.LASF70
 888 040d 06       		.byte	0x6
 889 040e 70       		.byte	0x70
 890 040f 13040000 		.4byte	0x413
 891 0413 0B       		.uleb128 0xb
 892 0414 68080000 		.4byte	.LASF71
 893 0418 78       		.byte	0x78
 894 0419 07       		.byte	0x7
 895 041a 9C01     		.2byte	0x19c
 896 041c 61040000 		.4byte	0x461
 897 0420 09       		.uleb128 0x9
 898 0421 1C070000 		.4byte	.LASF72
 899 0425 07       		.byte	0x7
 900 0426 A001     		.2byte	0x1a0
 901 0428 B6020000 		.4byte	0x2b6
 902 042c 00       		.byte	0
 903 042d 09       		.uleb128 0x9
 904 042e 20080000 		.4byte	.LASF73
 905 0432 07       		.byte	0x7
 906 0433 A401     		.2byte	0x1a4
 907 0435 95030000 		.4byte	0x395
 908 0439 1C       		.byte	0x1c
 909 043a 08       		.uleb128 0x8
 910 043b 64626700 		.ascii	"dbg\000"
 911 043f 07       		.byte	0x7
 912 0440 A801     		.2byte	0x1a8
ARM GAS  /tmp/cc60mVCx.s 			page 17


 913 0442 E2030000 		.4byte	0x3e2
 914 0446 2C       		.byte	0x2c
 915 0447 09       		.uleb128 0x9
 916 0448 CA060000 		.4byte	.LASF74
 917 044c 07       		.byte	0x7
 918 044d AC01     		.2byte	0x1ac
 919 044f 68010000 		.4byte	0x168
 920 0453 30       		.byte	0x30
 921 0454 08       		.uleb128 0x8
 922 0455 746D00   		.ascii	"tm\000"
 923 0458 07       		.byte	0x7
 924 0459 B101     		.2byte	0x1b1
 925 045b A0060000 		.4byte	0x6a0
 926 045f 74       		.byte	0x74
 927 0460 00       		.byte	0
 928 0461 04       		.uleb128 0x4
 929 0462 04       		.byte	0x4
 930 0463 07       		.byte	0x7
 931 0464 1F000000 		.4byte	.LASF75
 932 0468 0F       		.uleb128 0xf
 933 0469 E4000000 		.4byte	0xe4
 934 046d 0F       		.uleb128 0xf
 935 046e B8000000 		.4byte	0xb8
 936 0472 10       		.uleb128 0x10
 937 0473 18       		.byte	0x18
 938 0474 08       		.byte	0x8
 939 0475 6B01     		.2byte	0x16b
 940 0477 C9040000 		.4byte	0x4c9
 941 047b 08       		.uleb128 0x8
 942 047c 435200   		.ascii	"CR\000"
 943 047f 08       		.byte	0x8
 944 0480 6D01     		.2byte	0x16d
 945 0482 68040000 		.4byte	0x468
 946 0486 00       		.byte	0
 947 0487 09       		.uleb128 0x9
 948 0488 56090000 		.4byte	.LASF76
 949 048c 08       		.byte	0x8
 950 048d 6E01     		.2byte	0x16e
 951 048f 68040000 		.4byte	0x468
 952 0493 04       		.byte	0x4
 953 0494 08       		.uleb128 0x8
 954 0495 50415200 		.ascii	"PAR\000"
 955 0499 08       		.byte	0x8
 956 049a 6F01     		.2byte	0x16f
 957 049c 68040000 		.4byte	0x468
 958 04a0 08       		.byte	0x8
 959 04a1 09       		.uleb128 0x9
 960 04a2 5F070000 		.4byte	.LASF77
 961 04a6 08       		.byte	0x8
 962 04a7 7001     		.2byte	0x170
 963 04a9 68040000 		.4byte	0x468
 964 04ad 0C       		.byte	0xc
 965 04ae 09       		.uleb128 0x9
 966 04af 00000000 		.4byte	.LASF78
 967 04b3 08       		.byte	0x8
 968 04b4 7101     		.2byte	0x171
 969 04b6 68040000 		.4byte	0x468
ARM GAS  /tmp/cc60mVCx.s 			page 18


 970 04ba 10       		.byte	0x10
 971 04bb 08       		.uleb128 0x8
 972 04bc 46435200 		.ascii	"FCR\000"
 973 04c0 08       		.byte	0x8
 974 04c1 7201     		.2byte	0x172
 975 04c3 68040000 		.4byte	0x468
 976 04c7 14       		.byte	0x14
 977 04c8 00       		.byte	0
 978 04c9 11       		.uleb128 0x11
 979 04ca FD040000 		.4byte	.LASF79
 980 04ce 08       		.byte	0x8
 981 04cf 7301     		.2byte	0x173
 982 04d1 72040000 		.4byte	0x472
 983 04d5 10       		.uleb128 0x10
 984 04d6 28       		.byte	0x28
 985 04d7 08       		.byte	0x8
 986 04d8 3E02     		.2byte	0x23e
 987 04da 60050000 		.4byte	0x560
 988 04de 08       		.uleb128 0x8
 989 04df 43523100 		.ascii	"CR1\000"
 990 04e3 08       		.byte	0x8
 991 04e4 4002     		.2byte	0x240
 992 04e6 68040000 		.4byte	0x468
 993 04ea 00       		.byte	0
 994 04eb 08       		.uleb128 0x8
 995 04ec 43523200 		.ascii	"CR2\000"
 996 04f0 08       		.byte	0x8
 997 04f1 4102     		.2byte	0x241
 998 04f3 68040000 		.4byte	0x468
 999 04f7 04       		.byte	0x4
 1000 04f8 09       		.uleb128 0x9
 1001 04f9 2A070000 		.4byte	.LASF80
 1002 04fd 08       		.byte	0x8
 1003 04fe 4202     		.2byte	0x242
 1004 0500 68040000 		.4byte	0x468
 1005 0504 08       		.byte	0x8
 1006 0505 09       		.uleb128 0x9
 1007 0506 2F070000 		.4byte	.LASF81
 1008 050a 08       		.byte	0x8
 1009 050b 4302     		.2byte	0x243
 1010 050d 68040000 		.4byte	0x468
 1011 0511 0C       		.byte	0xc
 1012 0512 08       		.uleb128 0x8
 1013 0513 445200   		.ascii	"DR\000"
 1014 0516 08       		.byte	0x8
 1015 0517 4402     		.2byte	0x244
 1016 0519 68040000 		.4byte	0x468
 1017 051d 10       		.byte	0x10
 1018 051e 08       		.uleb128 0x8
 1019 051f 53523100 		.ascii	"SR1\000"
 1020 0523 08       		.byte	0x8
 1021 0524 4502     		.2byte	0x245
 1022 0526 68040000 		.4byte	0x468
 1023 052a 14       		.byte	0x14
 1024 052b 08       		.uleb128 0x8
 1025 052c 53523200 		.ascii	"SR2\000"
 1026 0530 08       		.byte	0x8
ARM GAS  /tmp/cc60mVCx.s 			page 19


 1027 0531 4602     		.2byte	0x246
 1028 0533 68040000 		.4byte	0x468
 1029 0537 18       		.byte	0x18
 1030 0538 08       		.uleb128 0x8
 1031 0539 43435200 		.ascii	"CCR\000"
 1032 053d 08       		.byte	0x8
 1033 053e 4702     		.2byte	0x247
 1034 0540 68040000 		.4byte	0x468
 1035 0544 1C       		.byte	0x1c
 1036 0545 09       		.uleb128 0x9
 1037 0546 93030000 		.4byte	.LASF82
 1038 054a 08       		.byte	0x8
 1039 054b 4802     		.2byte	0x248
 1040 054d 68040000 		.4byte	0x468
 1041 0551 20       		.byte	0x20
 1042 0552 09       		.uleb128 0x9
 1043 0553 55040000 		.4byte	.LASF83
 1044 0557 08       		.byte	0x8
 1045 0558 4902     		.2byte	0x249
 1046 055a 68040000 		.4byte	0x468
 1047 055e 24       		.byte	0x24
 1048 055f 00       		.byte	0
 1049 0560 11       		.uleb128 0x11
 1050 0561 AF060000 		.4byte	.LASF84
 1051 0565 08       		.byte	0x8
 1052 0566 4A02     		.2byte	0x24a
 1053 0568 D5040000 		.4byte	0x4d5
 1054 056c 10       		.uleb128 0x10
 1055 056d 1C       		.byte	0x1c
 1056 056e 08       		.byte	0x8
 1057 056f 0803     		.2byte	0x308
 1058 0571 CF050000 		.4byte	0x5cf
 1059 0575 08       		.uleb128 0x8
 1060 0576 535200   		.ascii	"SR\000"
 1061 0579 08       		.byte	0x8
 1062 057a 0A03     		.2byte	0x30a
 1063 057c 68040000 		.4byte	0x468
 1064 0580 00       		.byte	0
 1065 0581 08       		.uleb128 0x8
 1066 0582 445200   		.ascii	"DR\000"
 1067 0585 08       		.byte	0x8
 1068 0586 0B03     		.2byte	0x30b
 1069 0588 68040000 		.4byte	0x468
 1070 058c 04       		.byte	0x4
 1071 058d 08       		.uleb128 0x8
 1072 058e 42525200 		.ascii	"BRR\000"
 1073 0592 08       		.byte	0x8
 1074 0593 0C03     		.2byte	0x30c
 1075 0595 68040000 		.4byte	0x468
 1076 0599 08       		.byte	0x8
 1077 059a 08       		.uleb128 0x8
 1078 059b 43523100 		.ascii	"CR1\000"
 1079 059f 08       		.byte	0x8
 1080 05a0 0D03     		.2byte	0x30d
 1081 05a2 68040000 		.4byte	0x468
 1082 05a6 0C       		.byte	0xc
 1083 05a7 08       		.uleb128 0x8
ARM GAS  /tmp/cc60mVCx.s 			page 20


 1084 05a8 43523200 		.ascii	"CR2\000"
 1085 05ac 08       		.byte	0x8
 1086 05ad 0E03     		.2byte	0x30e
 1087 05af 68040000 		.4byte	0x468
 1088 05b3 10       		.byte	0x10
 1089 05b4 08       		.uleb128 0x8
 1090 05b5 43523300 		.ascii	"CR3\000"
 1091 05b9 08       		.byte	0x8
 1092 05ba 0F03     		.2byte	0x30f
 1093 05bc 68040000 		.4byte	0x468
 1094 05c0 14       		.byte	0x14
 1095 05c1 09       		.uleb128 0x9
 1096 05c2 31040000 		.4byte	.LASF85
 1097 05c6 08       		.byte	0x8
 1098 05c7 1003     		.2byte	0x310
 1099 05c9 68040000 		.4byte	0x468
 1100 05cd 18       		.byte	0x18
 1101 05ce 00       		.byte	0
 1102 05cf 11       		.uleb128 0x11
 1103 05d0 9C020000 		.4byte	.LASF86
 1104 05d4 08       		.byte	0x8
 1105 05d5 1103     		.2byte	0x311
 1106 05d7 6C050000 		.4byte	0x56c
 1107 05db 03       		.uleb128 0x3
 1108 05dc 83010000 		.4byte	.LASF87
 1109 05e0 09       		.byte	0x9
 1110 05e1 65       		.byte	0x65
 1111 05e2 39030000 		.4byte	0x339
 1112 05e6 03       		.uleb128 0x3
 1113 05e7 91020000 		.4byte	.LASF88
 1114 05eb 09       		.byte	0x9
 1115 05ec 6D       		.byte	0x6d
 1116 05ed EF000000 		.4byte	0xef
 1117 05f1 05       		.uleb128 0x5
 1118 05f2 4C080000 		.4byte	.LASF89
 1119 05f6 04       		.byte	0x4
 1120 05f7 09       		.byte	0x9
 1121 05f8 89       		.byte	0x89
 1122 05f9 09060000 		.4byte	0x609
 1123 05fd 07       		.uleb128 0x7
 1124 05fe 737000   		.ascii	"sp\000"
 1125 0601 09       		.byte	0x9
 1126 0602 8A       		.byte	0x8a
 1127 0603 85060000 		.4byte	0x685
 1128 0607 00       		.byte	0
 1129 0608 00       		.byte	0
 1130 0609 0B       		.uleb128 0xb
 1131 060a 58050000 		.4byte	.LASF90
 1132 060e 24       		.byte	0x24
 1133 060f 0A       		.byte	0xa
 1134 0610 5901     		.2byte	0x159
 1135 0612 85060000 		.4byte	0x685
 1136 0616 08       		.uleb128 0x8
 1137 0617 723400   		.ascii	"r4\000"
 1138 061a 0A       		.byte	0xa
 1139 061b 6C01     		.2byte	0x16c
 1140 061d DB050000 		.4byte	0x5db
ARM GAS  /tmp/cc60mVCx.s 			page 21


 1141 0621 00       		.byte	0
 1142 0622 08       		.uleb128 0x8
 1143 0623 723500   		.ascii	"r5\000"
 1144 0626 0A       		.byte	0xa
 1145 0627 6D01     		.2byte	0x16d
 1146 0629 DB050000 		.4byte	0x5db
 1147 062d 04       		.byte	0x4
 1148 062e 08       		.uleb128 0x8
 1149 062f 723600   		.ascii	"r6\000"
 1150 0632 0A       		.byte	0xa
 1151 0633 6E01     		.2byte	0x16e
 1152 0635 DB050000 		.4byte	0x5db
 1153 0639 08       		.byte	0x8
 1154 063a 08       		.uleb128 0x8
 1155 063b 723700   		.ascii	"r7\000"
 1156 063e 0A       		.byte	0xa
 1157 063f 6F01     		.2byte	0x16f
 1158 0641 DB050000 		.4byte	0x5db
 1159 0645 0C       		.byte	0xc
 1160 0646 08       		.uleb128 0x8
 1161 0647 723800   		.ascii	"r8\000"
 1162 064a 0A       		.byte	0xa
 1163 064b 7001     		.2byte	0x170
 1164 064d DB050000 		.4byte	0x5db
 1165 0651 10       		.byte	0x10
 1166 0652 08       		.uleb128 0x8
 1167 0653 723900   		.ascii	"r9\000"
 1168 0656 0A       		.byte	0xa
 1169 0657 7101     		.2byte	0x171
 1170 0659 DB050000 		.4byte	0x5db
 1171 065d 14       		.byte	0x14
 1172 065e 08       		.uleb128 0x8
 1173 065f 72313000 		.ascii	"r10\000"
 1174 0663 0A       		.byte	0xa
 1175 0664 7201     		.2byte	0x172
 1176 0666 DB050000 		.4byte	0x5db
 1177 066a 18       		.byte	0x18
 1178 066b 08       		.uleb128 0x8
 1179 066c 72313100 		.ascii	"r11\000"
 1180 0670 0A       		.byte	0xa
 1181 0671 7301     		.2byte	0x173
 1182 0673 DB050000 		.4byte	0x5db
 1183 0677 1C       		.byte	0x1c
 1184 0678 08       		.uleb128 0x8
 1185 0679 6C7200   		.ascii	"lr\000"
 1186 067c 0A       		.byte	0xa
 1187 067d 7401     		.2byte	0x174
 1188 067f DB050000 		.4byte	0x5db
 1189 0683 20       		.byte	0x20
 1190 0684 00       		.byte	0
 1191 0685 0A       		.uleb128 0xa
 1192 0686 04       		.byte	0x4
 1193 0687 09060000 		.4byte	0x609
 1194 068b 12       		.uleb128 0x12
 1195 068c 04       		.byte	0x4
 1196 068d 0B       		.byte	0xb
 1197 068e 38       		.byte	0x38
ARM GAS  /tmp/cc60mVCx.s 			page 22


 1198 068f A0060000 		.4byte	0x6a0
 1199 0693 06       		.uleb128 0x6
 1200 0694 E7040000 		.4byte	.LASF91
 1201 0698 0B       		.byte	0xb
 1202 0699 3C       		.byte	0x3c
 1203 069a FA000000 		.4byte	0xfa
 1204 069e 00       		.byte	0
 1205 069f 00       		.byte	0
 1206 06a0 03       		.uleb128 0x3
 1207 06a1 47070000 		.4byte	.LASF92
 1208 06a5 0B       		.byte	0xb
 1209 06a6 3D       		.byte	0x3d
 1210 06a7 8B060000 		.4byte	0x68b
 1211 06ab 13       		.uleb128 0x13
 1212 06ac 04       		.byte	0x4
 1213 06ad 07       		.byte	0x7
 1214 06ae D2       		.byte	0xd2
 1215 06af 0E070000 		.4byte	0x70e
 1216 06b3 14       		.uleb128 0x14
 1217 06b4 BA080000 		.4byte	.LASF93
 1218 06b8 07       		.byte	0x7
 1219 06b9 D9       		.byte	0xd9
 1220 06ba 31010000 		.4byte	0x131
 1221 06be 14       		.uleb128 0x14
 1222 06bf FA000000 		.4byte	.LASF94
 1223 06c3 07       		.byte	0x7
 1224 06c4 E0       		.byte	0xe0
 1225 06c5 31010000 		.4byte	0x131
 1226 06c9 14       		.uleb128 0x14
 1227 06ca 59020000 		.4byte	.LASF95
 1228 06ce 07       		.byte	0x7
 1229 06cf E7       		.byte	0xe7
 1230 06d0 39030000 		.4byte	0x339
 1231 06d4 14       		.uleb128 0x14
 1232 06d5 C2010000 		.4byte	.LASF96
 1233 06d9 07       		.byte	0x7
 1234 06da EE       		.byte	0xee
 1235 06db 0E070000 		.4byte	0x70e
 1236 06df 14       		.uleb128 0x14
 1237 06e0 50050000 		.4byte	.LASF97
 1238 06e4 07       		.byte	0x7
 1239 06e5 F3       		.byte	0xf3
 1240 06e6 31010000 		.4byte	0x131
 1241 06ea 14       		.uleb128 0x14
 1242 06eb 28000000 		.4byte	.LASF98
 1243 06ef 07       		.byte	0x7
 1244 06f0 FC       		.byte	0xfc
 1245 06f1 39070000 		.4byte	0x739
 1246 06f5 15       		.uleb128 0x15
 1247 06f6 FB020000 		.4byte	.LASF99
 1248 06fa 07       		.byte	0x7
 1249 06fb 0501     		.2byte	0x105
 1250 06fd 70070000 		.4byte	0x770
 1251 0701 15       		.uleb128 0x15
 1252 0702 A7010000 		.4byte	.LASF100
 1253 0706 07       		.byte	0x7
 1254 0707 0D01     		.2byte	0x10d
ARM GAS  /tmp/cc60mVCx.s 			page 23


 1255 0709 3C010000 		.4byte	0x13c
 1256 070d 00       		.byte	0
 1257 070e 0A       		.uleb128 0xa
 1258 070f 04       		.byte	0x4
 1259 0710 51020000 		.4byte	0x251
 1260 0714 05       		.uleb128 0x5
 1261 0715 66030000 		.4byte	.LASF101
 1262 0719 0C       		.byte	0xc
 1263 071a 0C       		.byte	0xc
 1264 071b 34       		.byte	0x34
 1265 071c 39070000 		.4byte	0x739
 1266 0720 06       		.uleb128 0x6
 1267 0721 A2060000 		.4byte	.LASF33
 1268 0725 0C       		.byte	0xc
 1269 0726 35       		.byte	0x35
 1270 0727 86020000 		.4byte	0x286
 1271 072b 00       		.byte	0
 1272 072c 07       		.uleb128 0x7
 1273 072d 636E7400 		.ascii	"cnt\000"
 1274 0731 0C       		.byte	0xc
 1275 0732 37       		.byte	0x37
 1276 0733 52010000 		.4byte	0x152
 1277 0737 08       		.byte	0x8
 1278 0738 00       		.byte	0
 1279 0739 0A       		.uleb128 0xa
 1280 073a 04       		.byte	0x4
 1281 073b 14070000 		.4byte	0x714
 1282 073f 05       		.uleb128 0x5
 1283 0740 B0070000 		.4byte	.LASF102
 1284 0744 10       		.byte	0x10
 1285 0745 0D       		.byte	0xd
 1286 0746 39       		.byte	0x39
 1287 0747 70070000 		.4byte	0x770
 1288 074b 06       		.uleb128 0x6
 1289 074c A2060000 		.4byte	.LASF33
 1290 0750 0D       		.byte	0xd
 1291 0751 3A       		.byte	0x3a
 1292 0752 86020000 		.4byte	0x286
 1293 0756 00       		.byte	0
 1294 0757 06       		.uleb128 0x6
 1295 0758 39000000 		.4byte	.LASF103
 1296 075c 0D       		.byte	0xd
 1297 075d 3C       		.byte	0x3c
 1298 075e 5C020000 		.4byte	0x25c
 1299 0762 08       		.byte	0x8
 1300 0763 06       		.uleb128 0x6
 1301 0764 70090000 		.4byte	.LASF52
 1302 0768 0D       		.byte	0xd
 1303 0769 3E       		.byte	0x3e
 1304 076a A4070000 		.4byte	0x7a4
 1305 076e 0C       		.byte	0xc
 1306 076f 00       		.byte	0
 1307 0770 0A       		.uleb128 0xa
 1308 0771 04       		.byte	0x4
 1309 0772 3F070000 		.4byte	0x73f
 1310 0776 0A       		.uleb128 0xa
 1311 0777 04       		.byte	0x4
ARM GAS  /tmp/cc60mVCx.s 			page 24


 1312 0778 7C070000 		.4byte	0x77c
 1313 077c 16       		.uleb128 0x16
 1314 077d 81070000 		.4byte	0x781
 1315 0781 04       		.uleb128 0x4
 1316 0782 01       		.byte	0x1
 1317 0783 08       		.byte	0x8
 1318 0784 35020000 		.4byte	.LASF104
 1319 0788 0A       		.uleb128 0xa
 1320 0789 04       		.byte	0x4
 1321 078a E6050000 		.4byte	0x5e6
 1322 078e 0A       		.uleb128 0xa
 1323 078f 04       		.byte	0x4
 1324 0790 3B030000 		.4byte	0x33b
 1325 0794 0F       		.uleb128 0xf
 1326 0795 76070000 		.4byte	0x776
 1327 0799 03       		.uleb128 0x3
 1328 079a 3C080000 		.4byte	.LASF105
 1329 079e 0D       		.byte	0xd
 1330 079f 34       		.byte	0x34
 1331 07a0 3F070000 		.4byte	0x73f
 1332 07a4 0A       		.uleb128 0xa
 1333 07a5 04       		.byte	0x4
 1334 07a6 99070000 		.4byte	0x799
 1335 07aa 03       		.uleb128 0x3
 1336 07ab C5020000 		.4byte	.LASF106
 1337 07af 0E       		.byte	0xe
 1338 07b0 34       		.byte	0x34
 1339 07b1 B5070000 		.4byte	0x7b5
 1340 07b5 05       		.uleb128 0x5
 1341 07b6 A2080000 		.4byte	.LASF107
 1342 07ba 14       		.byte	0x14
 1343 07bb 0E       		.byte	0xe
 1344 07bc 39       		.byte	0x39
 1345 07bd FE070000 		.4byte	0x7fe
 1346 07c1 06       		.uleb128 0x6
 1347 07c2 70090000 		.4byte	.LASF52
 1348 07c6 0E       		.byte	0xe
 1349 07c7 3A       		.byte	0x3a
 1350 07c8 FE070000 		.4byte	0x7fe
 1351 07cc 00       		.byte	0
 1352 07cd 06       		.uleb128 0x6
 1353 07ce 69070000 		.4byte	.LASF108
 1354 07d2 0E       		.byte	0xe
 1355 07d3 3D       		.byte	0x3d
 1356 07d4 5C020000 		.4byte	0x25c
 1357 07d8 04       		.byte	0x4
 1358 07d9 06       		.uleb128 0x6
 1359 07da 69090000 		.4byte	.LASF109
 1360 07de 0E       		.byte	0xe
 1361 07df 3F       		.byte	0x3f
 1362 07e0 3C010000 		.4byte	0x13c
 1363 07e4 08       		.byte	0x8
 1364 07e5 06       		.uleb128 0x6
 1365 07e6 86020000 		.4byte	.LASF40
 1366 07ea 0E       		.byte	0xe
 1367 07eb 41       		.byte	0x41
 1368 07ec 47010000 		.4byte	0x147
ARM GAS  /tmp/cc60mVCx.s 			page 25


 1369 07f0 0C       		.byte	0xc
 1370 07f1 06       		.uleb128 0x6
 1371 07f2 21050000 		.4byte	.LASF110
 1372 07f6 0E       		.byte	0xe
 1373 07f7 43       		.byte	0x43
 1374 07f8 47010000 		.4byte	0x147
 1375 07fc 10       		.byte	0x10
 1376 07fd 00       		.byte	0
 1377 07fe 0A       		.uleb128 0xa
 1378 07ff 04       		.byte	0x4
 1379 0800 AA070000 		.4byte	0x7aa
 1380 0804 05       		.uleb128 0x5
 1381 0805 7C070000 		.4byte	.LASF111
 1382 0809 04       		.byte	0x4
 1383 080a 0E       		.byte	0xe
 1384 080b 4A       		.byte	0x4a
 1385 080c 1D080000 		.4byte	0x81d
 1386 0810 06       		.uleb128 0x6
 1387 0811 70090000 		.4byte	.LASF52
 1388 0815 0E       		.byte	0xe
 1389 0816 4B       		.byte	0x4b
 1390 0817 FE070000 		.4byte	0x7fe
 1391 081b 00       		.byte	0
 1392 081c 00       		.byte	0
 1393 081d 03       		.uleb128 0x3
 1394 081e 36040000 		.4byte	.LASF112
 1395 0822 0E       		.byte	0xe
 1396 0823 4E       		.byte	0x4e
 1397 0824 04080000 		.4byte	0x804
 1398 0828 04       		.uleb128 0x4
 1399 0829 01       		.byte	0x1
 1400 082a 02       		.byte	0x2
 1401 082b 24020000 		.4byte	.LASF113
 1402 082f 0A       		.uleb128 0xa
 1403 0830 04       		.byte	0x4
 1404 0831 B8000000 		.4byte	0xb8
 1405 0835 10       		.uleb128 0x10
 1406 0836 0C       		.byte	0xc
 1407 0837 0F       		.byte	0xf
 1408 0838 6D01     		.2byte	0x16d
 1409 083a 80080000 		.4byte	0x880
 1410 083e 09       		.uleb128 0x9
 1411 083f BE020000 		.4byte	.LASF114
 1412 0843 0F       		.byte	0xf
 1413 0844 6E01     		.2byte	0x16e
 1414 0846 80080000 		.4byte	0x880
 1415 084a 00       		.byte	0
 1416 084b 09       		.uleb128 0x9
 1417 084c 5B090000 		.4byte	.LASF115
 1418 0850 0F       		.byte	0xf
 1419 0851 6F01     		.2byte	0x16f
 1420 0853 86080000 		.4byte	0x886
 1421 0857 04       		.byte	0x4
 1422 0858 09       		.uleb128 0x9
 1423 0859 40020000 		.4byte	.LASF116
 1424 085d 0F       		.byte	0xf
 1425 085e 7001     		.2byte	0x170
ARM GAS  /tmp/cc60mVCx.s 			page 26


 1426 0860 B8000000 		.4byte	0xb8
 1427 0864 08       		.byte	0x8
 1428 0865 09       		.uleb128 0x9
 1429 0866 AD040000 		.4byte	.LASF117
 1430 086a 0F       		.byte	0xf
 1431 086b 7201     		.2byte	0x172
 1432 086d B8000000 		.4byte	0xb8
 1433 0871 09       		.byte	0x9
 1434 0872 09       		.uleb128 0x9
 1435 0873 A8060000 		.4byte	.LASF118
 1436 0877 0F       		.byte	0xf
 1437 0878 7301     		.2byte	0x173
 1438 087a B8000000 		.4byte	0xb8
 1439 087e 0A       		.byte	0xa
 1440 087f 00       		.byte	0
 1441 0880 0A       		.uleb128 0xa
 1442 0881 04       		.byte	0x4
 1443 0882 C9040000 		.4byte	0x4c9
 1444 0886 0A       		.uleb128 0xa
 1445 0887 04       		.byte	0x4
 1446 0888 68040000 		.4byte	0x468
 1447 088c 11       		.uleb128 0x11
 1448 088d 05000000 		.4byte	.LASF119
 1449 0891 0F       		.byte	0xf
 1450 0892 7401     		.2byte	0x174
 1451 0894 35080000 		.4byte	0x835
 1452 0898 05       		.uleb128 0x5
 1453 0899 04070000 		.4byte	.LASF120
 1454 089d 10       		.byte	0x10
 1455 089e 10       		.byte	0x10
 1456 089f 46       		.byte	0x46
 1457 08a0 D5080000 		.4byte	0x8d5
 1458 08a4 06       		.uleb128 0x6
 1459 08a5 9C000000 		.4byte	.LASF121
 1460 08a9 10       		.byte	0x10
 1461 08aa 47       		.byte	0x47
 1462 08ab F9080000 		.4byte	0x8f9
 1463 08af 00       		.byte	0
 1464 08b0 06       		.uleb128 0x6
 1465 08b1 A3040000 		.4byte	.LASF122
 1466 08b5 10       		.byte	0x10
 1467 08b6 47       		.byte	0x47
 1468 08b7 18090000 		.4byte	0x918
 1469 08bb 04       		.byte	0x4
 1470 08bc 07       		.uleb128 0x7
 1471 08bd 70757400 		.ascii	"put\000"
 1472 08c1 10       		.byte	0x10
 1473 08c2 47       		.byte	0x47
 1474 08c3 32090000 		.4byte	0x932
 1475 08c7 08       		.byte	0x8
 1476 08c8 07       		.uleb128 0x7
 1477 08c9 67657400 		.ascii	"get\000"
 1478 08cd 10       		.byte	0x10
 1479 08ce 47       		.byte	0x47
 1480 08cf 47090000 		.4byte	0x947
 1481 08d3 0C       		.byte	0xc
 1482 08d4 00       		.byte	0
ARM GAS  /tmp/cc60mVCx.s 			page 27


 1483 08d5 17       		.uleb128 0x17
 1484 08d6 2C000000 		.4byte	0x2c
 1485 08da EE080000 		.4byte	0x8ee
 1486 08de 0D       		.uleb128 0xd
 1487 08df 39030000 		.4byte	0x339
 1488 08e3 0D       		.uleb128 0xd
 1489 08e4 EE080000 		.4byte	0x8ee
 1490 08e8 0D       		.uleb128 0xd
 1491 08e9 2C000000 		.4byte	0x2c
 1492 08ed 00       		.byte	0
 1493 08ee 0A       		.uleb128 0xa
 1494 08ef 04       		.byte	0x4
 1495 08f0 F4080000 		.4byte	0x8f4
 1496 08f4 16       		.uleb128 0x16
 1497 08f5 B8000000 		.4byte	0xb8
 1498 08f9 0A       		.uleb128 0xa
 1499 08fa 04       		.byte	0x4
 1500 08fb D5080000 		.4byte	0x8d5
 1501 08ff 17       		.uleb128 0x17
 1502 0900 2C000000 		.4byte	0x2c
 1503 0904 18090000 		.4byte	0x918
 1504 0908 0D       		.uleb128 0xd
 1505 0909 39030000 		.4byte	0x339
 1506 090d 0D       		.uleb128 0xd
 1507 090e 2F080000 		.4byte	0x82f
 1508 0912 0D       		.uleb128 0xd
 1509 0913 2C000000 		.4byte	0x2c
 1510 0917 00       		.byte	0
 1511 0918 0A       		.uleb128 0xa
 1512 0919 04       		.byte	0x4
 1513 091a FF080000 		.4byte	0x8ff
 1514 091e 17       		.uleb128 0x17
 1515 091f 31010000 		.4byte	0x131
 1516 0923 32090000 		.4byte	0x932
 1517 0927 0D       		.uleb128 0xd
 1518 0928 39030000 		.4byte	0x339
 1519 092c 0D       		.uleb128 0xd
 1520 092d B8000000 		.4byte	0xb8
 1521 0931 00       		.byte	0
 1522 0932 0A       		.uleb128 0xa
 1523 0933 04       		.byte	0x4
 1524 0934 1E090000 		.4byte	0x91e
 1525 0938 17       		.uleb128 0x17
 1526 0939 31010000 		.4byte	0x131
 1527 093d 47090000 		.4byte	0x947
 1528 0941 0D       		.uleb128 0xd
 1529 0942 39030000 		.4byte	0x339
 1530 0946 00       		.byte	0
 1531 0947 0A       		.uleb128 0xa
 1532 0948 04       		.byte	0x4
 1533 0949 38090000 		.4byte	0x938
 1534 094d 12       		.uleb128 0x12
 1535 094e 04       		.byte	0x4
 1536 094f 10       		.byte	0x10
 1537 0950 4F       		.byte	0x4f
 1538 0951 62090000 		.4byte	0x962
 1539 0955 07       		.uleb128 0x7
ARM GAS  /tmp/cc60mVCx.s 			page 28


 1540 0956 766D7400 		.ascii	"vmt\000"
 1541 095a 10       		.byte	0x10
 1542 095b 51       		.byte	0x51
 1543 095c 62090000 		.4byte	0x962
 1544 0960 00       		.byte	0
 1545 0961 00       		.byte	0
 1546 0962 0A       		.uleb128 0xa
 1547 0963 04       		.byte	0x4
 1548 0964 68090000 		.4byte	0x968
 1549 0968 16       		.uleb128 0x16
 1550 0969 98080000 		.4byte	0x898
 1551 096d 03       		.uleb128 0x3
 1552 096e A7000000 		.4byte	.LASF123
 1553 0972 10       		.byte	0x10
 1554 0973 53       		.byte	0x53
 1555 0974 4D090000 		.4byte	0x94d
 1556 0978 17       		.uleb128 0x17
 1557 0979 31010000 		.4byte	0x131
 1558 097d 91090000 		.4byte	0x991
 1559 0981 0D       		.uleb128 0xd
 1560 0982 39030000 		.4byte	0x339
 1561 0986 0D       		.uleb128 0xd
 1562 0987 B8000000 		.4byte	0xb8
 1563 098b 0D       		.uleb128 0xd
 1564 098c 5D010000 		.4byte	0x15d
 1565 0990 00       		.byte	0
 1566 0991 0A       		.uleb128 0xa
 1567 0992 04       		.byte	0x4
 1568 0993 78090000 		.4byte	0x978
 1569 0997 17       		.uleb128 0x17
 1570 0998 31010000 		.4byte	0x131
 1571 099c AB090000 		.4byte	0x9ab
 1572 09a0 0D       		.uleb128 0xd
 1573 09a1 39030000 		.4byte	0x339
 1574 09a5 0D       		.uleb128 0xd
 1575 09a6 5D010000 		.4byte	0x15d
 1576 09aa 00       		.byte	0
 1577 09ab 0A       		.uleb128 0xa
 1578 09ac 04       		.byte	0x4
 1579 09ad 97090000 		.4byte	0x997
 1580 09b1 17       		.uleb128 0x17
 1581 09b2 2C000000 		.4byte	0x2c
 1582 09b6 CF090000 		.4byte	0x9cf
 1583 09ba 0D       		.uleb128 0xd
 1584 09bb 39030000 		.4byte	0x339
 1585 09bf 0D       		.uleb128 0xd
 1586 09c0 EE080000 		.4byte	0x8ee
 1587 09c4 0D       		.uleb128 0xd
 1588 09c5 2C000000 		.4byte	0x2c
 1589 09c9 0D       		.uleb128 0xd
 1590 09ca 5D010000 		.4byte	0x15d
 1591 09ce 00       		.byte	0
 1592 09cf 0A       		.uleb128 0xa
 1593 09d0 04       		.byte	0x4
 1594 09d1 B1090000 		.4byte	0x9b1
 1595 09d5 17       		.uleb128 0x17
 1596 09d6 2C000000 		.4byte	0x2c
ARM GAS  /tmp/cc60mVCx.s 			page 29


 1597 09da F3090000 		.4byte	0x9f3
 1598 09de 0D       		.uleb128 0xd
 1599 09df 39030000 		.4byte	0x339
 1600 09e3 0D       		.uleb128 0xd
 1601 09e4 2F080000 		.4byte	0x82f
 1602 09e8 0D       		.uleb128 0xd
 1603 09e9 2C000000 		.4byte	0x2c
 1604 09ed 0D       		.uleb128 0xd
 1605 09ee 5D010000 		.4byte	0x15d
 1606 09f2 00       		.byte	0
 1607 09f3 0A       		.uleb128 0xa
 1608 09f4 04       		.byte	0x4
 1609 09f5 D5090000 		.4byte	0x9d5
 1610 09f9 0F       		.uleb128 0xf
 1611 09fa 2C000000 		.4byte	0x2c
 1612 09fe 03       		.uleb128 0x3
 1613 09ff 10080000 		.4byte	.LASF124
 1614 0a03 11       		.byte	0x11
 1615 0a04 2A       		.byte	0x2a
 1616 0a05 090A0000 		.4byte	0xa09
 1617 0a09 05       		.uleb128 0x5
 1618 0a0a 8C010000 		.4byte	.LASF125
 1619 0a0e 24       		.byte	0x24
 1620 0a0f 11       		.byte	0x11
 1621 0a10 3B       		.byte	0x3b
 1622 0a11 760A0000 		.4byte	0xa76
 1623 0a15 06       		.uleb128 0x6
 1624 0a16 FA060000 		.4byte	.LASF126
 1625 0a1a 11       		.byte	0x11
 1626 0a1b 3C       		.byte	0x3c
 1627 0a1c 86020000 		.4byte	0x286
 1628 0a20 00       		.byte	0
 1629 0a21 06       		.uleb128 0x6
 1630 0a22 3F030000 		.4byte	.LASF127
 1631 0a26 11       		.byte	0x11
 1632 0a27 3D       		.byte	0x3d
 1633 0a28 F9090000 		.4byte	0x9f9
 1634 0a2c 08       		.byte	0x8
 1635 0a2d 06       		.uleb128 0x6
 1636 0a2e 32010000 		.4byte	.LASF128
 1637 0a32 11       		.byte	0x11
 1638 0a33 3E       		.byte	0x3e
 1639 0a34 2F080000 		.4byte	0x82f
 1640 0a38 0C       		.byte	0xc
 1641 0a39 06       		.uleb128 0x6
 1642 0a3a 17010000 		.4byte	.LASF129
 1643 0a3e 11       		.byte	0x11
 1644 0a3f 3F       		.byte	0x3f
 1645 0a40 2F080000 		.4byte	0x82f
 1646 0a44 10       		.byte	0x10
 1647 0a45 06       		.uleb128 0x6
 1648 0a46 C1080000 		.4byte	.LASF130
 1649 0a4a 11       		.byte	0x11
 1650 0a4b 41       		.byte	0x41
 1651 0a4c 2F080000 		.4byte	0x82f
 1652 0a50 14       		.byte	0x14
 1653 0a51 06       		.uleb128 0x6
ARM GAS  /tmp/cc60mVCx.s 			page 30


 1654 0a52 4D010000 		.4byte	.LASF131
 1655 0a56 11       		.byte	0x11
 1656 0a57 42       		.byte	0x42
 1657 0a58 2F080000 		.4byte	0x82f
 1658 0a5c 18       		.byte	0x18
 1659 0a5d 06       		.uleb128 0x6
 1660 0a5e 3B010000 		.4byte	.LASF132
 1661 0a62 11       		.byte	0x11
 1662 0a63 43       		.byte	0x43
 1663 0a64 760A0000 		.4byte	0xa76
 1664 0a68 1C       		.byte	0x1c
 1665 0a69 06       		.uleb128 0x6
 1666 0a6a D6010000 		.4byte	.LASF133
 1667 0a6e 11       		.byte	0x11
 1668 0a6f 44       		.byte	0x44
 1669 0a70 39030000 		.4byte	0x339
 1670 0a74 20       		.byte	0x20
 1671 0a75 00       		.byte	0
 1672 0a76 03       		.uleb128 0x3
 1673 0a77 82040000 		.4byte	.LASF134
 1674 0a7b 11       		.byte	0x11
 1675 0a7c 31       		.byte	0x31
 1676 0a7d 810A0000 		.4byte	0xa81
 1677 0a81 0A       		.uleb128 0xa
 1678 0a82 04       		.byte	0x4
 1679 0a83 870A0000 		.4byte	0xa87
 1680 0a87 0C       		.uleb128 0xc
 1681 0a88 920A0000 		.4byte	0xa92
 1682 0a8c 0D       		.uleb128 0xd
 1683 0a8d 920A0000 		.4byte	0xa92
 1684 0a91 00       		.byte	0
 1685 0a92 0A       		.uleb128 0xa
 1686 0a93 04       		.byte	0x4
 1687 0a94 FE090000 		.4byte	0x9fe
 1688 0a98 03       		.uleb128 0x3
 1689 0a99 89080000 		.4byte	.LASF135
 1690 0a9d 11       		.byte	0x11
 1691 0a9e 7A       		.byte	0x7a
 1692 0a9f FE090000 		.4byte	0x9fe
 1693 0aa3 03       		.uleb128 0x3
 1694 0aa4 F4080000 		.4byte	.LASF136
 1695 0aa8 11       		.byte	0x11
 1696 0aa9 CA       		.byte	0xca
 1697 0aaa FE090000 		.4byte	0x9fe
 1698 0aae 12       		.uleb128 0x12
 1699 0aaf 04       		.byte	0x4
 1700 0ab0 12       		.byte	0x12
 1701 0ab1 E7       		.byte	0xe7
 1702 0ab2 CF0A0000 		.4byte	0xacf
 1703 0ab6 07       		.uleb128 0x7
 1704 0ab7 73657400 		.ascii	"set\000"
 1705 0abb 12       		.byte	0x12
 1706 0abc E8       		.byte	0xe8
 1707 0abd CE000000 		.4byte	0xce
 1708 0ac1 00       		.byte	0
 1709 0ac2 06       		.uleb128 0x6
 1710 0ac3 2F030000 		.4byte	.LASF137
ARM GAS  /tmp/cc60mVCx.s 			page 31


 1711 0ac7 12       		.byte	0x12
 1712 0ac8 E9       		.byte	0xe9
 1713 0ac9 CE000000 		.4byte	0xce
 1714 0acd 02       		.byte	0x2
 1715 0ace 00       		.byte	0
 1716 0acf 13       		.uleb128 0x13
 1717 0ad0 04       		.byte	0x4
 1718 0ad1 12       		.byte	0x12
 1719 0ad2 E5       		.byte	0xe5
 1720 0ad3 EA0A0000 		.4byte	0xaea
 1721 0ad7 18       		.uleb128 0x18
 1722 0ad8 5700     		.ascii	"W\000"
 1723 0ada 12       		.byte	0x12
 1724 0adb E6       		.byte	0xe6
 1725 0adc E4000000 		.4byte	0xe4
 1726 0ae0 18       		.uleb128 0x18
 1727 0ae1 4800     		.ascii	"H\000"
 1728 0ae3 12       		.byte	0x12
 1729 0ae4 EA       		.byte	0xea
 1730 0ae5 AE0A0000 		.4byte	0xaae
 1731 0ae9 00       		.byte	0
 1732 0aea 12       		.uleb128 0x12
 1733 0aeb 2C       		.byte	0x2c
 1734 0aec 12       		.byte	0x12
 1735 0aed DD       		.byte	0xdd
 1736 0aee 770B0000 		.4byte	0xb77
 1737 0af2 06       		.uleb128 0x6
 1738 0af3 9D040000 		.4byte	.LASF138
 1739 0af7 12       		.byte	0x12
 1740 0af8 DF       		.byte	0xdf
 1741 0af9 68040000 		.4byte	0x468
 1742 0afd 00       		.byte	0
 1743 0afe 06       		.uleb128 0x6
 1744 0aff F3060000 		.4byte	.LASF139
 1745 0b03 12       		.byte	0x12
 1746 0b04 E0       		.byte	0xe0
 1747 0b05 68040000 		.4byte	0x468
 1748 0b09 04       		.byte	0x4
 1749 0b0a 06       		.uleb128 0x6
 1750 0b0b DA030000 		.4byte	.LASF140
 1751 0b0f 12       		.byte	0x12
 1752 0b10 E1       		.byte	0xe1
 1753 0b11 68040000 		.4byte	0x468
 1754 0b15 08       		.byte	0x8
 1755 0b16 06       		.uleb128 0x6
 1756 0b17 14040000 		.4byte	.LASF141
 1757 0b1b 12       		.byte	0x12
 1758 0b1c E2       		.byte	0xe2
 1759 0b1d 68040000 		.4byte	0x468
 1760 0b21 0C       		.byte	0xc
 1761 0b22 07       		.uleb128 0x7
 1762 0b23 49445200 		.ascii	"IDR\000"
 1763 0b27 12       		.byte	0x12
 1764 0b28 E3       		.byte	0xe3
 1765 0b29 68040000 		.4byte	0x468
 1766 0b2d 10       		.byte	0x10
 1767 0b2e 07       		.uleb128 0x7
ARM GAS  /tmp/cc60mVCx.s 			page 32


 1768 0b2f 4F445200 		.ascii	"ODR\000"
 1769 0b33 12       		.byte	0x12
 1770 0b34 E4       		.byte	0xe4
 1771 0b35 68040000 		.4byte	0x468
 1772 0b39 14       		.byte	0x14
 1773 0b3a 06       		.uleb128 0x6
 1774 0b3b 1B080000 		.4byte	.LASF142
 1775 0b3f 12       		.byte	0x12
 1776 0b40 EB       		.byte	0xeb
 1777 0b41 770B0000 		.4byte	0xb77
 1778 0b45 18       		.byte	0x18
 1779 0b46 06       		.uleb128 0x6
 1780 0b47 BC030000 		.4byte	.LASF143
 1781 0b4b 12       		.byte	0x12
 1782 0b4c EC       		.byte	0xec
 1783 0b4d 68040000 		.4byte	0x468
 1784 0b51 1C       		.byte	0x1c
 1785 0b52 06       		.uleb128 0x6
 1786 0b53 A8040000 		.4byte	.LASF144
 1787 0b57 12       		.byte	0x12
 1788 0b58 ED       		.byte	0xed
 1789 0b59 68040000 		.4byte	0x468
 1790 0b5d 20       		.byte	0x20
 1791 0b5e 06       		.uleb128 0x6
 1792 0b5f 98060000 		.4byte	.LASF145
 1793 0b63 12       		.byte	0x12
 1794 0b64 EE       		.byte	0xee
 1795 0b65 68040000 		.4byte	0x468
 1796 0b69 24       		.byte	0x24
 1797 0b6a 07       		.uleb128 0x7
 1798 0b6b 42525200 		.ascii	"BRR\000"
 1799 0b6f 12       		.byte	0x12
 1800 0b70 EF       		.byte	0xef
 1801 0b71 68040000 		.4byte	0x468
 1802 0b75 28       		.byte	0x28
 1803 0b76 00       		.byte	0
 1804 0b77 0F       		.uleb128 0xf
 1805 0b78 CF0A0000 		.4byte	0xacf
 1806 0b7c 03       		.uleb128 0x3
 1807 0b7d E6010000 		.4byte	.LASF146
 1808 0b81 12       		.byte	0x12
 1809 0b82 F0       		.byte	0xf0
 1810 0b83 EA0A0000 		.4byte	0xaea
 1811 0b87 11       		.uleb128 0x11
 1812 0b88 D6020000 		.4byte	.LASF147
 1813 0b8c 12       		.byte	0x12
 1814 0b8d 3F01     		.2byte	0x13f
 1815 0b8f E4000000 		.4byte	0xe4
 1816 0b93 19       		.uleb128 0x19
 1817 0b94 01       		.byte	0x1
 1818 0b95 13       		.byte	0x13
 1819 0b96 4C       		.byte	0x4c
 1820 0b97 C00B0000 		.4byte	0xbc0
 1821 0b9b 1A       		.uleb128 0x1a
 1822 0b9c 09040000 		.4byte	.LASF148
 1823 0ba0 00       		.sleb128 0
 1824 0ba1 1A       		.uleb128 0x1a
ARM GAS  /tmp/cc60mVCx.s 			page 33


 1825 0ba2 60090000 		.4byte	.LASF149
 1826 0ba6 01       		.sleb128 1
 1827 0ba7 1A       		.uleb128 0x1a
 1828 0ba8 DD040000 		.4byte	.LASF150
 1829 0bac 02       		.sleb128 2
 1830 0bad 1A       		.uleb128 0x1a
 1831 0bae AA020000 		.4byte	.LASF151
 1832 0bb2 03       		.sleb128 3
 1833 0bb3 1A       		.uleb128 0x1a
 1834 0bb4 16020000 		.4byte	.LASF152
 1835 0bb8 04       		.sleb128 4
 1836 0bb9 1A       		.uleb128 0x1a
 1837 0bba 19030000 		.4byte	.LASF153
 1838 0bbe 05       		.sleb128 5
 1839 0bbf 00       		.byte	0
 1840 0bc0 03       		.uleb128 0x3
 1841 0bc1 5A040000 		.4byte	.LASF154
 1842 0bc5 13       		.byte	0x13
 1843 0bc6 53       		.byte	0x53
 1844 0bc7 930B0000 		.4byte	0xb93
 1845 0bcb 11       		.uleb128 0x11
 1846 0bcc 0D010000 		.4byte	.LASF155
 1847 0bd0 14       		.byte	0x14
 1848 0bd1 6A01     		.2byte	0x16a
 1849 0bd3 CE000000 		.4byte	0xce
 1850 0bd7 11       		.uleb128 0x11
 1851 0bd8 97080000 		.4byte	.LASF156
 1852 0bdc 14       		.byte	0x14
 1853 0bdd 6F01     		.2byte	0x16f
 1854 0bdf E4000000 		.4byte	0xe4
 1855 0be3 1B       		.uleb128 0x1b
 1856 0be4 01       		.byte	0x1
 1857 0be5 14       		.byte	0x14
 1858 0be6 7401     		.2byte	0x174
 1859 0be8 FF0B0000 		.4byte	0xbff
 1860 0bec 1A       		.uleb128 0x1a
 1861 0bed 2A020000 		.4byte	.LASF157
 1862 0bf1 01       		.sleb128 1
 1863 0bf2 1A       		.uleb128 0x1a
 1864 0bf3 7E060000 		.4byte	.LASF158
 1865 0bf7 02       		.sleb128 2
 1866 0bf8 1A       		.uleb128 0x1a
 1867 0bf9 D1070000 		.4byte	.LASF159
 1868 0bfd 03       		.sleb128 3
 1869 0bfe 00       		.byte	0
 1870 0bff 11       		.uleb128 0x11
 1871 0c00 45060000 		.4byte	.LASF160
 1872 0c04 14       		.byte	0x14
 1873 0c05 7801     		.2byte	0x178
 1874 0c07 E30B0000 		.4byte	0xbe3
 1875 0c0b 1B       		.uleb128 0x1b
 1876 0c0c 01       		.byte	0x1
 1877 0c0d 14       		.byte	0x14
 1878 0c0e 7D01     		.2byte	0x17d
 1879 0c10 270C0000 		.4byte	0xc27
 1880 0c14 1A       		.uleb128 0x1a
 1881 0c15 BB060000 		.4byte	.LASF161
ARM GAS  /tmp/cc60mVCx.s 			page 34


 1882 0c19 01       		.sleb128 1
 1883 0c1a 1A       		.uleb128 0x1a
 1884 0c1b 85000000 		.4byte	.LASF162
 1885 0c1f 02       		.sleb128 2
 1886 0c20 1A       		.uleb128 0x1a
 1887 0c21 28050000 		.4byte	.LASF163
 1888 0c25 03       		.sleb128 3
 1889 0c26 00       		.byte	0
 1890 0c27 11       		.uleb128 0x11
 1891 0c28 1D010000 		.4byte	.LASF164
 1892 0c2c 14       		.byte	0x14
 1893 0c2d 8101     		.2byte	0x181
 1894 0c2f 0B0C0000 		.4byte	0xc0b
 1895 0c33 10       		.uleb128 0x10
 1896 0c34 0C       		.byte	0xc
 1897 0c35 14       		.byte	0x14
 1898 0c36 8601     		.2byte	0x186
 1899 0c38 640C0000 		.4byte	0xc64
 1900 0c3c 09       		.uleb128 0x9
 1901 0c3d 72080000 		.4byte	.LASF165
 1902 0c41 14       		.byte	0x14
 1903 0c42 8801     		.2byte	0x188
 1904 0c44 FF0B0000 		.4byte	0xbff
 1905 0c48 00       		.byte	0
 1906 0c49 09       		.uleb128 0x9
 1907 0c4a DC080000 		.4byte	.LASF166
 1908 0c4e 14       		.byte	0x14
 1909 0c4f 8901     		.2byte	0x189
 1910 0c51 E4000000 		.4byte	0xe4
 1911 0c55 04       		.byte	0x4
 1912 0c56 09       		.uleb128 0x9
 1913 0c57 24030000 		.4byte	.LASF167
 1914 0c5b 14       		.byte	0x14
 1915 0c5c 8C01     		.2byte	0x18c
 1916 0c5e 270C0000 		.4byte	0xc27
 1917 0c62 08       		.byte	0x8
 1918 0c63 00       		.byte	0
 1919 0c64 11       		.uleb128 0x11
 1920 0c65 88050000 		.4byte	.LASF168
 1921 0c69 14       		.byte	0x14
 1922 0c6a 8E01     		.2byte	0x18e
 1923 0c6c 330C0000 		.4byte	0xc33
 1924 0c70 11       		.uleb128 0x11
 1925 0c71 35030000 		.4byte	.LASF169
 1926 0c75 14       		.byte	0x14
 1927 0c76 9301     		.2byte	0x193
 1928 0c78 7C0C0000 		.4byte	0xc7c
 1929 0c7c 0B       		.uleb128 0xb
 1930 0c7d 35030000 		.4byte	.LASF169
 1931 0c81 38       		.byte	0x38
 1932 0c82 14       		.byte	0x14
 1933 0c83 9801     		.2byte	0x198
 1934 0c85 190D0000 		.4byte	0xd19
 1935 0c89 09       		.uleb128 0x9
 1936 0c8a E2000000 		.4byte	.LASF39
 1937 0c8e 14       		.byte	0x14
 1938 0c8f 9C01     		.2byte	0x19c
ARM GAS  /tmp/cc60mVCx.s 			page 35


 1939 0c91 C00B0000 		.4byte	0xbc0
 1940 0c95 00       		.byte	0
 1941 0c96 09       		.uleb128 0x9
 1942 0c97 DB000000 		.4byte	.LASF170
 1943 0c9b 14       		.byte	0x14
 1944 0c9c A001     		.2byte	0x1a0
 1945 0c9e 190D0000 		.4byte	0xd19
 1946 0ca2 04       		.byte	0x4
 1947 0ca3 09       		.uleb128 0x9
 1948 0ca4 60020000 		.4byte	.LASF171
 1949 0ca8 14       		.byte	0x14
 1950 0ca9 A401     		.2byte	0x1a4
 1951 0cab D70B0000 		.4byte	0xbd7
 1952 0caf 08       		.byte	0x8
 1953 0cb0 09       		.uleb128 0x9
 1954 0cb1 65040000 		.4byte	.LASF172
 1955 0cb5 14       		.byte	0x14
 1956 0cb6 A901     		.2byte	0x1a9
 1957 0cb8 99070000 		.4byte	0x799
 1958 0cbc 0C       		.byte	0xc
 1959 0cbd 09       		.uleb128 0x9
 1960 0cbe 58070000 		.4byte	.LASF173
 1961 0cc2 14       		.byte	0x14
 1962 0cc3 B201     		.2byte	0x1b2
 1963 0cc5 51020000 		.4byte	0x251
 1964 0cc9 1C       		.byte	0x1c
 1965 0cca 09       		.uleb128 0x9
 1966 0ccb 92040000 		.4byte	.LASF174
 1967 0ccf 14       		.byte	0x14
 1968 0cd0 B601     		.2byte	0x1b6
 1969 0cd2 CB0B0000 		.4byte	0xbcb
 1970 0cd6 20       		.byte	0x20
 1971 0cd7 09       		.uleb128 0x9
 1972 0cd8 78040000 		.4byte	.LASF175
 1973 0cdc 14       		.byte	0x14
 1974 0cdd BA01     		.2byte	0x1ba
 1975 0cdf E4000000 		.4byte	0xe4
 1976 0ce3 24       		.byte	0x24
 1977 0ce4 09       		.uleb128 0x9
 1978 0ce5 7F090000 		.4byte	.LASF176
 1979 0ce9 14       		.byte	0x14
 1980 0cea BE01     		.2byte	0x1be
 1981 0cec E4000000 		.4byte	0xe4
 1982 0cf0 28       		.byte	0x28
 1983 0cf1 09       		.uleb128 0x9
 1984 0cf2 E2030000 		.4byte	.LASF177
 1985 0cf6 14       		.byte	0x14
 1986 0cf7 C201     		.2byte	0x1c2
 1987 0cf9 240D0000 		.4byte	0xd24
 1988 0cfd 2C       		.byte	0x2c
 1989 0cfe 09       		.uleb128 0x9
 1990 0cff 97040000 		.4byte	.LASF178
 1991 0d03 14       		.byte	0x14
 1992 0d04 C601     		.2byte	0x1c6
 1993 0d06 240D0000 		.4byte	0xd24
 1994 0d0a 30       		.byte	0x30
 1995 0d0b 08       		.uleb128 0x8
ARM GAS  /tmp/cc60mVCx.s 			page 36


 1996 0d0c 69326300 		.ascii	"i2c\000"
 1997 0d10 14       		.byte	0x14
 1998 0d11 CA01     		.2byte	0x1ca
 1999 0d13 2F0D0000 		.4byte	0xd2f
 2000 0d17 34       		.byte	0x34
 2001 0d18 00       		.byte	0
 2002 0d19 0A       		.uleb128 0xa
 2003 0d1a 04       		.byte	0x4
 2004 0d1b 1F0D0000 		.4byte	0xd1f
 2005 0d1f 16       		.uleb128 0x16
 2006 0d20 640C0000 		.4byte	0xc64
 2007 0d24 0A       		.uleb128 0xa
 2008 0d25 04       		.byte	0x4
 2009 0d26 2A0D0000 		.4byte	0xd2a
 2010 0d2a 16       		.uleb128 0x16
 2011 0d2b 8C080000 		.4byte	0x88c
 2012 0d2f 0A       		.uleb128 0xa
 2013 0d30 04       		.byte	0x4
 2014 0d31 60050000 		.4byte	0x560
 2015 0d35 19       		.uleb128 0x19
 2016 0d36 01       		.byte	0x1
 2017 0d37 15       		.byte	0x15
 2018 0d38 58       		.byte	0x58
 2019 0d39 500D0000 		.4byte	0xd50
 2020 0d3d 1A       		.uleb128 0x1a
 2021 0d3e 0C020000 		.4byte	.LASF179
 2022 0d42 00       		.sleb128 0
 2023 0d43 1A       		.uleb128 0x1a
 2024 0d44 4E090000 		.4byte	.LASF180
 2025 0d48 01       		.sleb128 1
 2026 0d49 1A       		.uleb128 0x1a
 2027 0d4a 3E070000 		.4byte	.LASF181
 2028 0d4e 02       		.sleb128 2
 2029 0d4f 00       		.byte	0
 2030 0d50 03       		.uleb128 0x3
 2031 0d51 34070000 		.4byte	.LASF182
 2032 0d55 15       		.byte	0x15
 2033 0d56 5C       		.byte	0x5c
 2034 0d57 350D0000 		.4byte	0xd35
 2035 0d5b 03       		.uleb128 0x3
 2036 0d5c E6060000 		.4byte	.LASF183
 2037 0d60 15       		.byte	0x15
 2038 0d61 61       		.byte	0x61
 2039 0d62 660D0000 		.4byte	0xd66
 2040 0d66 05       		.uleb128 0x5
 2041 0d67 E6060000 		.4byte	.LASF183
 2042 0d6b 7C       		.byte	0x7c
 2043 0d6c 15       		.byte	0x15
 2044 0d6d 7B       		.byte	0x7b
 2045 0d6e DD0D0000 		.4byte	0xddd
 2046 0d72 07       		.uleb128 0x7
 2047 0d73 766D7400 		.ascii	"vmt\000"
 2048 0d77 15       		.byte	0x15
 2049 0d78 7D       		.byte	0x7d
 2050 0d79 4A0E0000 		.4byte	0xe4a
 2051 0d7d 00       		.byte	0
 2052 0d7e 06       		.uleb128 0x6
ARM GAS  /tmp/cc60mVCx.s 			page 37


 2053 0d7f 8C040000 		.4byte	.LASF184
 2054 0d83 15       		.byte	0x15
 2055 0d84 7E       		.byte	0x7e
 2056 0d85 1D080000 		.4byte	0x81d
 2057 0d89 04       		.byte	0x4
 2058 0d8a 06       		.uleb128 0x6
 2059 0d8b E2000000 		.4byte	.LASF39
 2060 0d8f 15       		.byte	0x15
 2061 0d90 7E       		.byte	0x7e
 2062 0d91 500D0000 		.4byte	0xd50
 2063 0d95 08       		.byte	0x8
 2064 0d96 06       		.uleb128 0x6
 2065 0d97 CA070000 		.4byte	.LASF185
 2066 0d9b 15       		.byte	0x15
 2067 0d9c 7E       		.byte	0x7e
 2068 0d9d 980A0000 		.4byte	0xa98
 2069 0da1 0C       		.byte	0xc
 2070 0da2 06       		.uleb128 0x6
 2071 0da3 7C010000 		.4byte	.LASF186
 2072 0da7 15       		.byte	0x15
 2073 0da8 7E       		.byte	0x7e
 2074 0da9 A30A0000 		.4byte	0xaa3
 2075 0dad 30       		.byte	0x30
 2076 0dae 07       		.uleb128 0x7
 2077 0daf 696200   		.ascii	"ib\000"
 2078 0db2 15       		.byte	0x15
 2079 0db3 7E       		.byte	0x7e
 2080 0db4 550E0000 		.4byte	0xe55
 2081 0db8 54       		.byte	0x54
 2082 0db9 07       		.uleb128 0x7
 2083 0dba 6F6200   		.ascii	"ob\000"
 2084 0dbd 15       		.byte	0x15
 2085 0dbe 7E       		.byte	0x7e
 2086 0dbf 550E0000 		.4byte	0xe55
 2087 0dc3 64       		.byte	0x64
 2088 0dc4 06       		.uleb128 0x6
 2089 0dc5 95010000 		.4byte	.LASF187
 2090 0dc9 15       		.byte	0x15
 2091 0dca 7E       		.byte	0x7e
 2092 0dcb 650E0000 		.4byte	0xe65
 2093 0dcf 74       		.byte	0x74
 2094 0dd0 06       		.uleb128 0x6
 2095 0dd1 E9020000 		.4byte	.LASF188
 2096 0dd5 15       		.byte	0x15
 2097 0dd6 7E       		.byte	0x7e
 2098 0dd7 B8000000 		.4byte	0xb8
 2099 0ddb 78       		.byte	0x78
 2100 0ddc 00       		.byte	0
 2101 0ddd 05       		.uleb128 0x5
 2102 0dde 45040000 		.4byte	.LASF189
 2103 0de2 20       		.byte	0x20
 2104 0de3 15       		.byte	0x15
 2105 0de4 70       		.byte	0x70
 2106 0de5 4A0E0000 		.4byte	0xe4a
 2107 0de9 06       		.uleb128 0x6
 2108 0dea 9C000000 		.4byte	.LASF121
 2109 0dee 15       		.byte	0x15
ARM GAS  /tmp/cc60mVCx.s 			page 38


 2110 0def 71       		.byte	0x71
 2111 0df0 F9080000 		.4byte	0x8f9
 2112 0df4 00       		.byte	0
 2113 0df5 06       		.uleb128 0x6
 2114 0df6 A3040000 		.4byte	.LASF122
 2115 0dfa 15       		.byte	0x15
 2116 0dfb 71       		.byte	0x71
 2117 0dfc 18090000 		.4byte	0x918
 2118 0e00 04       		.byte	0x4
 2119 0e01 07       		.uleb128 0x7
 2120 0e02 70757400 		.ascii	"put\000"
 2121 0e06 15       		.byte	0x15
 2122 0e07 71       		.byte	0x71
 2123 0e08 32090000 		.4byte	0x932
 2124 0e0c 08       		.byte	0x8
 2125 0e0d 07       		.uleb128 0x7
 2126 0e0e 67657400 		.ascii	"get\000"
 2127 0e12 15       		.byte	0x15
 2128 0e13 71       		.byte	0x71
 2129 0e14 47090000 		.4byte	0x947
 2130 0e18 0C       		.byte	0xc
 2131 0e19 06       		.uleb128 0x6
 2132 0e1a E8000000 		.4byte	.LASF190
 2133 0e1e 15       		.byte	0x15
 2134 0e1f 71       		.byte	0x71
 2135 0e20 91090000 		.4byte	0x991
 2136 0e24 10       		.byte	0x10
 2137 0e25 06       		.uleb128 0x6
 2138 0e26 8C020000 		.4byte	.LASF191
 2139 0e2a 15       		.byte	0x15
 2140 0e2b 71       		.byte	0x71
 2141 0e2c AB090000 		.4byte	0x9ab
 2142 0e30 14       		.byte	0x14
 2143 0e31 06       		.uleb128 0x6
 2144 0e32 4F000000 		.4byte	.LASF192
 2145 0e36 15       		.byte	0x15
 2146 0e37 71       		.byte	0x71
 2147 0e38 CF090000 		.4byte	0x9cf
 2148 0e3c 18       		.byte	0x18
 2149 0e3d 06       		.uleb128 0x6
 2150 0e3e 2C010000 		.4byte	.LASF193
 2151 0e42 15       		.byte	0x15
 2152 0e43 71       		.byte	0x71
 2153 0e44 F3090000 		.4byte	0x9f3
 2154 0e48 1C       		.byte	0x1c
 2155 0e49 00       		.byte	0
 2156 0e4a 0A       		.uleb128 0xa
 2157 0e4b 04       		.byte	0x4
 2158 0e4c 500E0000 		.4byte	0xe50
 2159 0e50 16       		.uleb128 0x16
 2160 0e51 DD0D0000 		.4byte	0xddd
 2161 0e55 1C       		.uleb128 0x1c
 2162 0e56 B8000000 		.4byte	0xb8
 2163 0e5a 650E0000 		.4byte	0xe65
 2164 0e5e 1D       		.uleb128 0x1d
 2165 0e5f 61040000 		.4byte	0x461
 2166 0e63 0F       		.byte	0xf
ARM GAS  /tmp/cc60mVCx.s 			page 39


 2167 0e64 00       		.byte	0
 2168 0e65 0A       		.uleb128 0xa
 2169 0e66 04       		.byte	0x4
 2170 0e67 CF050000 		.4byte	0x5cf
 2171 0e6b 1E       		.uleb128 0x1e
 2172 0e6c 67010000 		.4byte	.LASF228
 2173 0e70 01       		.byte	0x1
 2174 0e71 23       		.byte	0x23
 2175 0e72 25000000 		.4byte	0x25
 2176 0e76 00000000 		.4byte	.LFB279
 2177 0e7a C4020000 		.4byte	.LFE279-.LFB279
 2178 0e7e 01       		.uleb128 0x1
 2179 0e7f 9C       		.byte	0x9c
 2180 0e80 84100000 		.4byte	0x1084
 2181 0e84 1F       		.uleb128 0x1f
 2182 0e85 2F080000 		.4byte	.LASF194
 2183 0e89 01       		.byte	0x1
 2184 0e8a 51       		.byte	0x51
 2185 0e8b B8000000 		.4byte	0xb8
 2186 0e8f 02       		.uleb128 0x2
 2187 0e90 91       		.byte	0x91
 2188 0e91 77       		.sleb128 -9
 2189 0e92 1F       		.uleb128 0x1f
 2190 0e93 67020000 		.4byte	.LASF195
 2191 0e97 01       		.byte	0x1
 2192 0e98 58       		.byte	0x58
 2193 0e99 B8000000 		.4byte	0xb8
 2194 0e9d 02       		.uleb128 0x2
 2195 0e9e 91       		.byte	0x91
 2196 0e9f 76       		.sleb128 -10
 2197 0ea0 1F       		.uleb128 0x1f
 2198 0ea1 FB070000 		.4byte	.LASF196
 2199 0ea5 01       		.byte	0x1
 2200 0ea6 59       		.byte	0x59
 2201 0ea7 B8000000 		.4byte	0xb8
 2202 0eab 02       		.uleb128 0x2
 2203 0eac 91       		.byte	0x91
 2204 0ead 75       		.sleb128 -11
 2205 0eae 1F       		.uleb128 0x1f
 2206 0eaf BC000000 		.4byte	.LASF197
 2207 0eb3 01       		.byte	0x1
 2208 0eb4 5D       		.byte	0x5d
 2209 0eb5 B8000000 		.4byte	0xb8
 2210 0eb9 02       		.uleb128 0x2
 2211 0eba 91       		.byte	0x91
 2212 0ebb 74       		.sleb128 -12
 2213 0ebc 1F       		.uleb128 0x1f
 2214 0ebd 64050000 		.4byte	.LASF198
 2215 0ec1 01       		.byte	0x1
 2216 0ec2 5E       		.byte	0x5e
 2217 0ec3 B8000000 		.4byte	0xb8
 2218 0ec7 02       		.uleb128 0x2
 2219 0ec8 91       		.byte	0x91
 2220 0ec9 73       		.sleb128 -13
 2221 0eca 1F       		.uleb128 0x1f
 2222 0ecb 1A040000 		.4byte	.LASF199
 2223 0ecf 01       		.byte	0x1
ARM GAS  /tmp/cc60mVCx.s 			page 40


 2224 0ed0 64       		.byte	0x64
 2225 0ed1 B8000000 		.4byte	0xb8
 2226 0ed5 02       		.uleb128 0x2
 2227 0ed6 91       		.byte	0x91
 2228 0ed7 72       		.sleb128 -14
 2229 0ed8 20       		.uleb128 0x20
 2230 0ed9 783000   		.ascii	"x0\000"
 2231 0edc 01       		.byte	0x1
 2232 0edd 67       		.byte	0x67
 2233 0ede B8000000 		.4byte	0xb8
 2234 0ee2 02       		.uleb128 0x2
 2235 0ee3 91       		.byte	0x91
 2236 0ee4 71       		.sleb128 -15
 2237 0ee5 20       		.uleb128 0x20
 2238 0ee6 783100   		.ascii	"x1\000"
 2239 0ee9 01       		.byte	0x1
 2240 0eea 69       		.byte	0x69
 2241 0eeb B8000000 		.4byte	0xb8
 2242 0eef 02       		.uleb128 0x2
 2243 0ef0 91       		.byte	0x91
 2244 0ef1 70       		.sleb128 -16
 2245 0ef2 20       		.uleb128 0x20
 2246 0ef3 793000   		.ascii	"y0\000"
 2247 0ef6 01       		.byte	0x1
 2248 0ef7 6C       		.byte	0x6c
 2249 0ef8 B8000000 		.4byte	0xb8
 2250 0efc 02       		.uleb128 0x2
 2251 0efd 91       		.byte	0x91
 2252 0efe 6F       		.sleb128 -17
 2253 0eff 20       		.uleb128 0x20
 2254 0f00 793100   		.ascii	"y1\000"
 2255 0f03 01       		.byte	0x1
 2256 0f04 6E       		.byte	0x6e
 2257 0f05 B8000000 		.4byte	0xb8
 2258 0f09 02       		.uleb128 0x2
 2259 0f0a 91       		.byte	0x91
 2260 0f0b 6E       		.sleb128 -18
 2261 0f0c 20       		.uleb128 0x20
 2262 0f0d 7A3000   		.ascii	"z0\000"
 2263 0f10 01       		.byte	0x1
 2264 0f11 71       		.byte	0x71
 2265 0f12 B8000000 		.4byte	0xb8
 2266 0f16 02       		.uleb128 0x2
 2267 0f17 91       		.byte	0x91
 2268 0f18 6D       		.sleb128 -19
 2269 0f19 20       		.uleb128 0x20
 2270 0f1a 7A3100   		.ascii	"z1\000"
 2271 0f1d 01       		.byte	0x1
 2272 0f1e 73       		.byte	0x73
 2273 0f1f B8000000 		.4byte	0xb8
 2274 0f23 02       		.uleb128 0x2
 2275 0f24 91       		.byte	0x91
 2276 0f25 6C       		.sleb128 -20
 2277 0f26 1F       		.uleb128 0x1f
 2278 0f27 10050000 		.4byte	.LASF200
 2279 0f2b 01       		.byte	0x1
 2280 0f2c 75       		.byte	0x75
ARM GAS  /tmp/cc60mVCx.s 			page 41


 2281 0f2d B8000000 		.4byte	0xb8
 2282 0f31 02       		.uleb128 0x2
 2283 0f32 91       		.byte	0x91
 2284 0f33 67       		.sleb128 -25
 2285 0f34 1F       		.uleb128 0x1f
 2286 0f35 F3070000 		.4byte	.LASF201
 2287 0f39 01       		.byte	0x1
 2288 0f3a 76       		.byte	0x76
 2289 0f3b B8000000 		.4byte	0xb8
 2290 0f3f 02       		.uleb128 0x2
 2291 0f40 91       		.byte	0x91
 2292 0f41 66       		.sleb128 -26
 2293 0f42 1F       		.uleb128 0x1f
 2294 0f43 92050000 		.4byte	.LASF202
 2295 0f47 01       		.byte	0x1
 2296 0f48 78       		.byte	0x78
 2297 0f49 B8000000 		.4byte	0xb8
 2298 0f4d 02       		.uleb128 0x2
 2299 0f4e 91       		.byte	0x91
 2300 0f4f 65       		.sleb128 -27
 2301 0f50 1F       		.uleb128 0x1f
 2302 0f51 F5040000 		.4byte	.LASF203
 2303 0f55 01       		.byte	0x1
 2304 0f56 79       		.byte	0x79
 2305 0f57 B8000000 		.4byte	0xb8
 2306 0f5b 02       		.uleb128 0x2
 2307 0f5c 91       		.byte	0x91
 2308 0f5d 64       		.sleb128 -28
 2309 0f5e 1F       		.uleb128 0x1f
 2310 0f5f 5F000000 		.4byte	.LASF204
 2311 0f63 01       		.byte	0x1
 2312 0f64 7B       		.byte	0x7b
 2313 0f65 B8000000 		.4byte	0xb8
 2314 0f69 02       		.uleb128 0x2
 2315 0f6a 91       		.byte	0x91
 2316 0f6b 63       		.sleb128 -29
 2317 0f6c 1F       		.uleb128 0x1f
 2318 0f6d 79050000 		.4byte	.LASF205
 2319 0f71 01       		.byte	0x1
 2320 0f72 7C       		.byte	0x7c
 2321 0f73 B8000000 		.4byte	0xb8
 2322 0f77 02       		.uleb128 0x2
 2323 0f78 91       		.byte	0x91
 2324 0f79 62       		.sleb128 -30
 2325 0f7a 21       		.uleb128 0x21
 2326 0f7b 9C000000 		.4byte	.LBB2
 2327 0f7f 16020000 		.4byte	.LBE2-.LBB2
 2328 0f83 1F       		.uleb128 0x1f
 2329 0f84 F0020000 		.4byte	.LASF206
 2330 0f88 01       		.byte	0x1
 2331 0f89 87       		.byte	0x87
 2332 0f8a 6D040000 		.4byte	0x46d
 2333 0f8e 02       		.uleb128 0x2
 2334 0f8f 91       		.byte	0x91
 2335 0f90 61       		.sleb128 -31
 2336 0f91 1F       		.uleb128 0x1f
 2337 0f92 75090000 		.4byte	.LASF207
ARM GAS  /tmp/cc60mVCx.s 			page 42


 2338 0f96 01       		.byte	0x1
 2339 0f97 89       		.byte	0x89
 2340 0f98 84100000 		.4byte	0x1084
 2341 0f9c 02       		.uleb128 0x2
 2342 0f9d 91       		.byte	0x91
 2343 0f9e 5C       		.sleb128 -36
 2344 0f9f 1F       		.uleb128 0x1f
 2345 0fa0 D4040000 		.4byte	.LASF208
 2346 0fa4 01       		.byte	0x1
 2347 0fa5 8A       		.byte	0x8a
 2348 0fa6 2F080000 		.4byte	0x82f
 2349 0faa 02       		.uleb128 0x2
 2350 0fab 91       		.byte	0x91
 2351 0fac 68       		.sleb128 -24
 2352 0fad 20       		.uleb128 0x20
 2353 0fae 65727200 		.ascii	"err\000"
 2354 0fb2 01       		.byte	0x1
 2355 0fb3 8C       		.byte	0x8c
 2356 0fb4 94100000 		.4byte	0x1094
 2357 0fb8 02       		.uleb128 0x2
 2358 0fb9 91       		.byte	0x91
 2359 0fba 58       		.sleb128 -40
 2360 0fbb 1F       		.uleb128 0x1f
 2361 0fbc 89070000 		.4byte	.LASF209
 2362 0fc0 01       		.byte	0x1
 2363 0fc1 92       		.byte	0x92
 2364 0fc2 94100000 		.4byte	0x1094
 2365 0fc6 02       		.uleb128 0x2
 2366 0fc7 91       		.byte	0x91
 2367 0fc8 54       		.sleb128 -44
 2368 0fc9 1F       		.uleb128 0x1f
 2369 0fca 8E070000 		.4byte	.LASF210
 2370 0fce 01       		.byte	0x1
 2371 0fcf 97       		.byte	0x97
 2372 0fd0 94100000 		.4byte	0x1094
 2373 0fd4 02       		.uleb128 0x2
 2374 0fd5 91       		.byte	0x91
 2375 0fd6 50       		.sleb128 -48
 2376 0fd7 1F       		.uleb128 0x1f
 2377 0fd8 97000000 		.4byte	.LASF211
 2378 0fdc 01       		.byte	0x1
 2379 0fdd 9E       		.byte	0x9e
 2380 0fde 94100000 		.4byte	0x1094
 2381 0fe2 02       		.uleb128 0x2
 2382 0fe3 91       		.byte	0x91
 2383 0fe4 4C       		.sleb128 -52
 2384 0fe5 1F       		.uleb128 0x1f
 2385 0fe6 02030000 		.4byte	.LASF212
 2386 0fea 01       		.byte	0x1
 2387 0feb A1       		.byte	0xa1
 2388 0fec CE000000 		.4byte	0xce
 2389 0ff0 02       		.uleb128 0x2
 2390 0ff1 91       		.byte	0x91
 2391 0ff2 4A       		.sleb128 -54
 2392 0ff3 1F       		.uleb128 0x1f
 2393 0ff4 7E000000 		.4byte	.LASF213
 2394 0ff8 01       		.byte	0x1
ARM GAS  /tmp/cc60mVCx.s 			page 43


 2395 0ff9 A2       		.byte	0xa2
 2396 0ffa C3000000 		.4byte	0xc3
 2397 0ffe 02       		.uleb128 0x2
 2398 0fff 91       		.byte	0x91
 2399 1000 48       		.sleb128 -56
 2400 1001 1F       		.uleb128 0x1f
 2401 1002 9C070000 		.4byte	.LASF214
 2402 1006 01       		.byte	0x1
 2403 1007 A8       		.byte	0xa8
 2404 1008 94100000 		.4byte	0x1094
 2405 100c 02       		.uleb128 0x2
 2406 100d 91       		.byte	0x91
 2407 100e 44       		.sleb128 -60
 2408 100f 1F       		.uleb128 0x1f
 2409 1010 A1070000 		.4byte	.LASF215
 2410 1014 01       		.byte	0x1
 2411 1015 AD       		.byte	0xad
 2412 1016 94100000 		.4byte	0x1094
 2413 101a 02       		.uleb128 0x2
 2414 101b 91       		.byte	0x91
 2415 101c 40       		.sleb128 -64
 2416 101d 1F       		.uleb128 0x1f
 2417 101e 89090000 		.4byte	.LASF216
 2418 1022 01       		.byte	0x1
 2419 1023 B0       		.byte	0xb0
 2420 1024 CE000000 		.4byte	0xce
 2421 1028 03       		.uleb128 0x3
 2422 1029 91       		.byte	0x91
 2423 102a BE7F     		.sleb128 -66
 2424 102c 1F       		.uleb128 0x1f
 2425 102d 81050000 		.4byte	.LASF217
 2426 1031 01       		.byte	0x1
 2427 1032 B1       		.byte	0xb1
 2428 1033 C3000000 		.4byte	0xc3
 2429 1037 03       		.uleb128 0x3
 2430 1038 91       		.byte	0x91
 2431 1039 BC7F     		.sleb128 -68
 2432 103b 1F       		.uleb128 0x1f
 2433 103c A6070000 		.4byte	.LASF218
 2434 1040 01       		.byte	0x1
 2435 1041 B8       		.byte	0xb8
 2436 1042 94100000 		.4byte	0x1094
 2437 1046 03       		.uleb128 0x3
 2438 1047 91       		.byte	0x91
 2439 1048 B87F     		.sleb128 -72
 2440 104a 1F       		.uleb128 0x1f
 2441 104b A2000000 		.4byte	.LASF219
 2442 104f 01       		.byte	0x1
 2443 1050 BE       		.byte	0xbe
 2444 1051 94100000 		.4byte	0x1094
 2445 1055 03       		.uleb128 0x3
 2446 1056 91       		.byte	0x91
 2447 1057 B47F     		.sleb128 -76
 2448 1059 1F       		.uleb128 0x1f
 2449 105a B1080000 		.4byte	.LASF220
 2450 105e 01       		.byte	0x1
 2451 105f C2       		.byte	0xc2
ARM GAS  /tmp/cc60mVCx.s 			page 44


 2452 1060 CE000000 		.4byte	0xce
 2453 1064 03       		.uleb128 0x3
 2454 1065 91       		.byte	0x91
 2455 1066 B27F     		.sleb128 -78
 2456 1068 1F       		.uleb128 0x1f
 2457 1069 47020000 		.4byte	.LASF221
 2458 106d 01       		.byte	0x1
 2459 106e C3       		.byte	0xc3
 2460 106f C3000000 		.4byte	0xc3
 2461 1073 03       		.uleb128 0x3
 2462 1074 91       		.byte	0x91
 2463 1075 B07F     		.sleb128 -80
 2464 1077 22       		.uleb128 0x22
 2465 1078 ED000000 		.4byte	.LASF229
 2466 107c 01       		.byte	0x1
 2467 107d CA       		.byte	0xca
 2468 107e 25000000 		.4byte	0x25
 2469 1082 00       		.byte	0
 2470 1083 00       		.byte	0
 2471 1084 1C       		.uleb128 0x1c
 2472 1085 B8000000 		.4byte	0xb8
 2473 1089 94100000 		.4byte	0x1094
 2474 108d 1D       		.uleb128 0x1d
 2475 108e 61040000 		.4byte	0x461
 2476 1092 01       		.byte	0x1
 2477 1093 00       		.byte	0
 2478 1094 0F       		.uleb128 0xf
 2479 1095 31010000 		.4byte	0x131
 2480 1099 1F       		.uleb128 0x1f
 2481 109a EE040000 		.4byte	.LASF222
 2482 109e 01       		.byte	0x1
 2483 109f 19       		.byte	0x19
 2484 10a0 1F0D0000 		.4byte	0xd1f
 2485 10a4 05       		.uleb128 0x5
 2486 10a5 03       		.byte	0x3
 2487 10a6 00000000 		.4byte	i2ccfg
 2488 10aa 23       		.uleb128 0x23
 2489 10ab 6B040000 		.4byte	.LASF223
 2490 10af 16       		.byte	0x16
 2491 10b0 4407     		.2byte	0x744
 2492 10b2 B6100000 		.4byte	0x10b6
 2493 10b6 0F       		.uleb128 0xf
 2494 10b7 D9000000 		.4byte	0xd9
 2495 10bb 24       		.uleb128 0x24
 2496 10bc 636800   		.ascii	"ch\000"
 2497 10bf 07       		.byte	0x7
 2498 10c0 D201     		.2byte	0x1d2
 2499 10c2 08040000 		.4byte	0x408
 2500 10c6 23       		.uleb128 0x23
 2501 10c7 3A020000 		.4byte	.LASF224
 2502 10cb 14       		.byte	0x14
 2503 10cc E001     		.2byte	0x1e0
 2504 10ce 700C0000 		.4byte	0xc70
 2505 10d2 24       		.uleb128 0x24
 2506 10d3 53443200 		.ascii	"SD2\000"
 2507 10d7 17       		.byte	0x17
 2508 10d8 4701     		.2byte	0x147
ARM GAS  /tmp/cc60mVCx.s 			page 45


 2509 10da 5B0D0000 		.4byte	0xd5b
 2510 10de 24       		.uleb128 0x24
 2511 10df 53443300 		.ascii	"SD3\000"
 2512 10e3 17       		.byte	0x17
 2513 10e4 4A01     		.2byte	0x14a
 2514 10e6 5B0D0000 		.4byte	0xd5b
 2515 10ea 00       		.byte	0
 2516              		.section	.debug_abbrev,"",%progbits
 2517              	.Ldebug_abbrev0:
 2518 0000 01       		.uleb128 0x1
 2519 0001 11       		.uleb128 0x11
 2520 0002 01       		.byte	0x1
 2521 0003 25       		.uleb128 0x25
 2522 0004 0E       		.uleb128 0xe
 2523 0005 13       		.uleb128 0x13
 2524 0006 0B       		.uleb128 0xb
 2525 0007 03       		.uleb128 0x3
 2526 0008 0E       		.uleb128 0xe
 2527 0009 1B       		.uleb128 0x1b
 2528 000a 0E       		.uleb128 0xe
 2529 000b 11       		.uleb128 0x11
 2530 000c 01       		.uleb128 0x1
 2531 000d 12       		.uleb128 0x12
 2532 000e 06       		.uleb128 0x6
 2533 000f 10       		.uleb128 0x10
 2534 0010 17       		.uleb128 0x17
 2535 0011 00       		.byte	0
 2536 0012 00       		.byte	0
 2537 0013 02       		.uleb128 0x2
 2538 0014 24       		.uleb128 0x24
 2539 0015 00       		.byte	0
 2540 0016 0B       		.uleb128 0xb
 2541 0017 0B       		.uleb128 0xb
 2542 0018 3E       		.uleb128 0x3e
 2543 0019 0B       		.uleb128 0xb
 2544 001a 03       		.uleb128 0x3
 2545 001b 08       		.uleb128 0x8
 2546 001c 00       		.byte	0
 2547 001d 00       		.byte	0
 2548 001e 03       		.uleb128 0x3
 2549 001f 16       		.uleb128 0x16
 2550 0020 00       		.byte	0
 2551 0021 03       		.uleb128 0x3
 2552 0022 0E       		.uleb128 0xe
 2553 0023 3A       		.uleb128 0x3a
 2554 0024 0B       		.uleb128 0xb
 2555 0025 3B       		.uleb128 0x3b
 2556 0026 0B       		.uleb128 0xb
 2557 0027 49       		.uleb128 0x49
 2558 0028 13       		.uleb128 0x13
 2559 0029 00       		.byte	0
 2560 002a 00       		.byte	0
 2561 002b 04       		.uleb128 0x4
 2562 002c 24       		.uleb128 0x24
 2563 002d 00       		.byte	0
 2564 002e 0B       		.uleb128 0xb
 2565 002f 0B       		.uleb128 0xb
ARM GAS  /tmp/cc60mVCx.s 			page 46


 2566 0030 3E       		.uleb128 0x3e
 2567 0031 0B       		.uleb128 0xb
 2568 0032 03       		.uleb128 0x3
 2569 0033 0E       		.uleb128 0xe
 2570 0034 00       		.byte	0
 2571 0035 00       		.byte	0
 2572 0036 05       		.uleb128 0x5
 2573 0037 13       		.uleb128 0x13
 2574 0038 01       		.byte	0x1
 2575 0039 03       		.uleb128 0x3
 2576 003a 0E       		.uleb128 0xe
 2577 003b 0B       		.uleb128 0xb
 2578 003c 0B       		.uleb128 0xb
 2579 003d 3A       		.uleb128 0x3a
 2580 003e 0B       		.uleb128 0xb
 2581 003f 3B       		.uleb128 0x3b
 2582 0040 0B       		.uleb128 0xb
 2583 0041 01       		.uleb128 0x1
 2584 0042 13       		.uleb128 0x13
 2585 0043 00       		.byte	0
 2586 0044 00       		.byte	0
 2587 0045 06       		.uleb128 0x6
 2588 0046 0D       		.uleb128 0xd
 2589 0047 00       		.byte	0
 2590 0048 03       		.uleb128 0x3
 2591 0049 0E       		.uleb128 0xe
 2592 004a 3A       		.uleb128 0x3a
 2593 004b 0B       		.uleb128 0xb
 2594 004c 3B       		.uleb128 0x3b
 2595 004d 0B       		.uleb128 0xb
 2596 004e 49       		.uleb128 0x49
 2597 004f 13       		.uleb128 0x13
 2598 0050 38       		.uleb128 0x38
 2599 0051 0B       		.uleb128 0xb
 2600 0052 00       		.byte	0
 2601 0053 00       		.byte	0
 2602 0054 07       		.uleb128 0x7
 2603 0055 0D       		.uleb128 0xd
 2604 0056 00       		.byte	0
 2605 0057 03       		.uleb128 0x3
 2606 0058 08       		.uleb128 0x8
 2607 0059 3A       		.uleb128 0x3a
 2608 005a 0B       		.uleb128 0xb
 2609 005b 3B       		.uleb128 0x3b
 2610 005c 0B       		.uleb128 0xb
 2611 005d 49       		.uleb128 0x49
 2612 005e 13       		.uleb128 0x13
 2613 005f 38       		.uleb128 0x38
 2614 0060 0B       		.uleb128 0xb
 2615 0061 00       		.byte	0
 2616 0062 00       		.byte	0
 2617 0063 08       		.uleb128 0x8
 2618 0064 0D       		.uleb128 0xd
 2619 0065 00       		.byte	0
 2620 0066 03       		.uleb128 0x3
 2621 0067 08       		.uleb128 0x8
 2622 0068 3A       		.uleb128 0x3a
ARM GAS  /tmp/cc60mVCx.s 			page 47


 2623 0069 0B       		.uleb128 0xb
 2624 006a 3B       		.uleb128 0x3b
 2625 006b 05       		.uleb128 0x5
 2626 006c 49       		.uleb128 0x49
 2627 006d 13       		.uleb128 0x13
 2628 006e 38       		.uleb128 0x38
 2629 006f 0B       		.uleb128 0xb
 2630 0070 00       		.byte	0
 2631 0071 00       		.byte	0
 2632 0072 09       		.uleb128 0x9
 2633 0073 0D       		.uleb128 0xd
 2634 0074 00       		.byte	0
 2635 0075 03       		.uleb128 0x3
 2636 0076 0E       		.uleb128 0xe
 2637 0077 3A       		.uleb128 0x3a
 2638 0078 0B       		.uleb128 0xb
 2639 0079 3B       		.uleb128 0x3b
 2640 007a 05       		.uleb128 0x5
 2641 007b 49       		.uleb128 0x49
 2642 007c 13       		.uleb128 0x13
 2643 007d 38       		.uleb128 0x38
 2644 007e 0B       		.uleb128 0xb
 2645 007f 00       		.byte	0
 2646 0080 00       		.byte	0
 2647 0081 0A       		.uleb128 0xa
 2648 0082 0F       		.uleb128 0xf
 2649 0083 00       		.byte	0
 2650 0084 0B       		.uleb128 0xb
 2651 0085 0B       		.uleb128 0xb
 2652 0086 49       		.uleb128 0x49
 2653 0087 13       		.uleb128 0x13
 2654 0088 00       		.byte	0
 2655 0089 00       		.byte	0
 2656 008a 0B       		.uleb128 0xb
 2657 008b 13       		.uleb128 0x13
 2658 008c 01       		.byte	0x1
 2659 008d 03       		.uleb128 0x3
 2660 008e 0E       		.uleb128 0xe
 2661 008f 0B       		.uleb128 0xb
 2662 0090 0B       		.uleb128 0xb
 2663 0091 3A       		.uleb128 0x3a
 2664 0092 0B       		.uleb128 0xb
 2665 0093 3B       		.uleb128 0x3b
 2666 0094 05       		.uleb128 0x5
 2667 0095 01       		.uleb128 0x1
 2668 0096 13       		.uleb128 0x13
 2669 0097 00       		.byte	0
 2670 0098 00       		.byte	0
 2671 0099 0C       		.uleb128 0xc
 2672 009a 15       		.uleb128 0x15
 2673 009b 01       		.byte	0x1
 2674 009c 27       		.uleb128 0x27
 2675 009d 19       		.uleb128 0x19
 2676 009e 01       		.uleb128 0x1
 2677 009f 13       		.uleb128 0x13
 2678 00a0 00       		.byte	0
 2679 00a1 00       		.byte	0
ARM GAS  /tmp/cc60mVCx.s 			page 48


 2680 00a2 0D       		.uleb128 0xd
 2681 00a3 05       		.uleb128 0x5
 2682 00a4 00       		.byte	0
 2683 00a5 49       		.uleb128 0x49
 2684 00a6 13       		.uleb128 0x13
 2685 00a7 00       		.byte	0
 2686 00a8 00       		.byte	0
 2687 00a9 0E       		.uleb128 0xe
 2688 00aa 0F       		.uleb128 0xf
 2689 00ab 00       		.byte	0
 2690 00ac 0B       		.uleb128 0xb
 2691 00ad 0B       		.uleb128 0xb
 2692 00ae 00       		.byte	0
 2693 00af 00       		.byte	0
 2694 00b0 0F       		.uleb128 0xf
 2695 00b1 35       		.uleb128 0x35
 2696 00b2 00       		.byte	0
 2697 00b3 49       		.uleb128 0x49
 2698 00b4 13       		.uleb128 0x13
 2699 00b5 00       		.byte	0
 2700 00b6 00       		.byte	0
 2701 00b7 10       		.uleb128 0x10
 2702 00b8 13       		.uleb128 0x13
 2703 00b9 01       		.byte	0x1
 2704 00ba 0B       		.uleb128 0xb
 2705 00bb 0B       		.uleb128 0xb
 2706 00bc 3A       		.uleb128 0x3a
 2707 00bd 0B       		.uleb128 0xb
 2708 00be 3B       		.uleb128 0x3b
 2709 00bf 05       		.uleb128 0x5
 2710 00c0 01       		.uleb128 0x1
 2711 00c1 13       		.uleb128 0x13
 2712 00c2 00       		.byte	0
 2713 00c3 00       		.byte	0
 2714 00c4 11       		.uleb128 0x11
 2715 00c5 16       		.uleb128 0x16
 2716 00c6 00       		.byte	0
 2717 00c7 03       		.uleb128 0x3
 2718 00c8 0E       		.uleb128 0xe
 2719 00c9 3A       		.uleb128 0x3a
 2720 00ca 0B       		.uleb128 0xb
 2721 00cb 3B       		.uleb128 0x3b
 2722 00cc 05       		.uleb128 0x5
 2723 00cd 49       		.uleb128 0x49
 2724 00ce 13       		.uleb128 0x13
 2725 00cf 00       		.byte	0
 2726 00d0 00       		.byte	0
 2727 00d1 12       		.uleb128 0x12
 2728 00d2 13       		.uleb128 0x13
 2729 00d3 01       		.byte	0x1
 2730 00d4 0B       		.uleb128 0xb
 2731 00d5 0B       		.uleb128 0xb
 2732 00d6 3A       		.uleb128 0x3a
 2733 00d7 0B       		.uleb128 0xb
 2734 00d8 3B       		.uleb128 0x3b
 2735 00d9 0B       		.uleb128 0xb
 2736 00da 01       		.uleb128 0x1
ARM GAS  /tmp/cc60mVCx.s 			page 49


 2737 00db 13       		.uleb128 0x13
 2738 00dc 00       		.byte	0
 2739 00dd 00       		.byte	0
 2740 00de 13       		.uleb128 0x13
 2741 00df 17       		.uleb128 0x17
 2742 00e0 01       		.byte	0x1
 2743 00e1 0B       		.uleb128 0xb
 2744 00e2 0B       		.uleb128 0xb
 2745 00e3 3A       		.uleb128 0x3a
 2746 00e4 0B       		.uleb128 0xb
 2747 00e5 3B       		.uleb128 0x3b
 2748 00e6 0B       		.uleb128 0xb
 2749 00e7 01       		.uleb128 0x1
 2750 00e8 13       		.uleb128 0x13
 2751 00e9 00       		.byte	0
 2752 00ea 00       		.byte	0
 2753 00eb 14       		.uleb128 0x14
 2754 00ec 0D       		.uleb128 0xd
 2755 00ed 00       		.byte	0
 2756 00ee 03       		.uleb128 0x3
 2757 00ef 0E       		.uleb128 0xe
 2758 00f0 3A       		.uleb128 0x3a
 2759 00f1 0B       		.uleb128 0xb
 2760 00f2 3B       		.uleb128 0x3b
 2761 00f3 0B       		.uleb128 0xb
 2762 00f4 49       		.uleb128 0x49
 2763 00f5 13       		.uleb128 0x13
 2764 00f6 00       		.byte	0
 2765 00f7 00       		.byte	0
 2766 00f8 15       		.uleb128 0x15
 2767 00f9 0D       		.uleb128 0xd
 2768 00fa 00       		.byte	0
 2769 00fb 03       		.uleb128 0x3
 2770 00fc 0E       		.uleb128 0xe
 2771 00fd 3A       		.uleb128 0x3a
 2772 00fe 0B       		.uleb128 0xb
 2773 00ff 3B       		.uleb128 0x3b
 2774 0100 05       		.uleb128 0x5
 2775 0101 49       		.uleb128 0x49
 2776 0102 13       		.uleb128 0x13
 2777 0103 00       		.byte	0
 2778 0104 00       		.byte	0
 2779 0105 16       		.uleb128 0x16
 2780 0106 26       		.uleb128 0x26
 2781 0107 00       		.byte	0
 2782 0108 49       		.uleb128 0x49
 2783 0109 13       		.uleb128 0x13
 2784 010a 00       		.byte	0
 2785 010b 00       		.byte	0
 2786 010c 17       		.uleb128 0x17
 2787 010d 15       		.uleb128 0x15
 2788 010e 01       		.byte	0x1
 2789 010f 27       		.uleb128 0x27
 2790 0110 19       		.uleb128 0x19
 2791 0111 49       		.uleb128 0x49
 2792 0112 13       		.uleb128 0x13
 2793 0113 01       		.uleb128 0x1
ARM GAS  /tmp/cc60mVCx.s 			page 50


 2794 0114 13       		.uleb128 0x13
 2795 0115 00       		.byte	0
 2796 0116 00       		.byte	0
 2797 0117 18       		.uleb128 0x18
 2798 0118 0D       		.uleb128 0xd
 2799 0119 00       		.byte	0
 2800 011a 03       		.uleb128 0x3
 2801 011b 08       		.uleb128 0x8
 2802 011c 3A       		.uleb128 0x3a
 2803 011d 0B       		.uleb128 0xb
 2804 011e 3B       		.uleb128 0x3b
 2805 011f 0B       		.uleb128 0xb
 2806 0120 49       		.uleb128 0x49
 2807 0121 13       		.uleb128 0x13
 2808 0122 00       		.byte	0
 2809 0123 00       		.byte	0
 2810 0124 19       		.uleb128 0x19
 2811 0125 04       		.uleb128 0x4
 2812 0126 01       		.byte	0x1
 2813 0127 0B       		.uleb128 0xb
 2814 0128 0B       		.uleb128 0xb
 2815 0129 3A       		.uleb128 0x3a
 2816 012a 0B       		.uleb128 0xb
 2817 012b 3B       		.uleb128 0x3b
 2818 012c 0B       		.uleb128 0xb
 2819 012d 01       		.uleb128 0x1
 2820 012e 13       		.uleb128 0x13
 2821 012f 00       		.byte	0
 2822 0130 00       		.byte	0
 2823 0131 1A       		.uleb128 0x1a
 2824 0132 28       		.uleb128 0x28
 2825 0133 00       		.byte	0
 2826 0134 03       		.uleb128 0x3
 2827 0135 0E       		.uleb128 0xe
 2828 0136 1C       		.uleb128 0x1c
 2829 0137 0D       		.uleb128 0xd
 2830 0138 00       		.byte	0
 2831 0139 00       		.byte	0
 2832 013a 1B       		.uleb128 0x1b
 2833 013b 04       		.uleb128 0x4
 2834 013c 01       		.byte	0x1
 2835 013d 0B       		.uleb128 0xb
 2836 013e 0B       		.uleb128 0xb
 2837 013f 3A       		.uleb128 0x3a
 2838 0140 0B       		.uleb128 0xb
 2839 0141 3B       		.uleb128 0x3b
 2840 0142 05       		.uleb128 0x5
 2841 0143 01       		.uleb128 0x1
 2842 0144 13       		.uleb128 0x13
 2843 0145 00       		.byte	0
 2844 0146 00       		.byte	0
 2845 0147 1C       		.uleb128 0x1c
 2846 0148 01       		.uleb128 0x1
 2847 0149 01       		.byte	0x1
 2848 014a 49       		.uleb128 0x49
 2849 014b 13       		.uleb128 0x13
 2850 014c 01       		.uleb128 0x1
ARM GAS  /tmp/cc60mVCx.s 			page 51


 2851 014d 13       		.uleb128 0x13
 2852 014e 00       		.byte	0
 2853 014f 00       		.byte	0
 2854 0150 1D       		.uleb128 0x1d
 2855 0151 21       		.uleb128 0x21
 2856 0152 00       		.byte	0
 2857 0153 49       		.uleb128 0x49
 2858 0154 13       		.uleb128 0x13
 2859 0155 2F       		.uleb128 0x2f
 2860 0156 0B       		.uleb128 0xb
 2861 0157 00       		.byte	0
 2862 0158 00       		.byte	0
 2863 0159 1E       		.uleb128 0x1e
 2864 015a 2E       		.uleb128 0x2e
 2865 015b 01       		.byte	0x1
 2866 015c 3F       		.uleb128 0x3f
 2867 015d 19       		.uleb128 0x19
 2868 015e 03       		.uleb128 0x3
 2869 015f 0E       		.uleb128 0xe
 2870 0160 3A       		.uleb128 0x3a
 2871 0161 0B       		.uleb128 0xb
 2872 0162 3B       		.uleb128 0x3b
 2873 0163 0B       		.uleb128 0xb
 2874 0164 27       		.uleb128 0x27
 2875 0165 19       		.uleb128 0x19
 2876 0166 49       		.uleb128 0x49
 2877 0167 13       		.uleb128 0x13
 2878 0168 11       		.uleb128 0x11
 2879 0169 01       		.uleb128 0x1
 2880 016a 12       		.uleb128 0x12
 2881 016b 06       		.uleb128 0x6
 2882 016c 40       		.uleb128 0x40
 2883 016d 18       		.uleb128 0x18
 2884 016e 9642     		.uleb128 0x2116
 2885 0170 19       		.uleb128 0x19
 2886 0171 01       		.uleb128 0x1
 2887 0172 13       		.uleb128 0x13
 2888 0173 00       		.byte	0
 2889 0174 00       		.byte	0
 2890 0175 1F       		.uleb128 0x1f
 2891 0176 34       		.uleb128 0x34
 2892 0177 00       		.byte	0
 2893 0178 03       		.uleb128 0x3
 2894 0179 0E       		.uleb128 0xe
 2895 017a 3A       		.uleb128 0x3a
 2896 017b 0B       		.uleb128 0xb
 2897 017c 3B       		.uleb128 0x3b
 2898 017d 0B       		.uleb128 0xb
 2899 017e 49       		.uleb128 0x49
 2900 017f 13       		.uleb128 0x13
 2901 0180 02       		.uleb128 0x2
 2902 0181 18       		.uleb128 0x18
 2903 0182 00       		.byte	0
 2904 0183 00       		.byte	0
 2905 0184 20       		.uleb128 0x20
 2906 0185 34       		.uleb128 0x34
 2907 0186 00       		.byte	0
ARM GAS  /tmp/cc60mVCx.s 			page 52


 2908 0187 03       		.uleb128 0x3
 2909 0188 08       		.uleb128 0x8
 2910 0189 3A       		.uleb128 0x3a
 2911 018a 0B       		.uleb128 0xb
 2912 018b 3B       		.uleb128 0x3b
 2913 018c 0B       		.uleb128 0xb
 2914 018d 49       		.uleb128 0x49
 2915 018e 13       		.uleb128 0x13
 2916 018f 02       		.uleb128 0x2
 2917 0190 18       		.uleb128 0x18
 2918 0191 00       		.byte	0
 2919 0192 00       		.byte	0
 2920 0193 21       		.uleb128 0x21
 2921 0194 0B       		.uleb128 0xb
 2922 0195 01       		.byte	0x1
 2923 0196 11       		.uleb128 0x11
 2924 0197 01       		.uleb128 0x1
 2925 0198 12       		.uleb128 0x12
 2926 0199 06       		.uleb128 0x6
 2927 019a 00       		.byte	0
 2928 019b 00       		.byte	0
 2929 019c 22       		.uleb128 0x22
 2930 019d 34       		.uleb128 0x34
 2931 019e 00       		.byte	0
 2932 019f 03       		.uleb128 0x3
 2933 01a0 0E       		.uleb128 0xe
 2934 01a1 3A       		.uleb128 0x3a
 2935 01a2 0B       		.uleb128 0xb
 2936 01a3 3B       		.uleb128 0x3b
 2937 01a4 0B       		.uleb128 0xb
 2938 01a5 49       		.uleb128 0x49
 2939 01a6 13       		.uleb128 0x13
 2940 01a7 00       		.byte	0
 2941 01a8 00       		.byte	0
 2942 01a9 23       		.uleb128 0x23
 2943 01aa 34       		.uleb128 0x34
 2944 01ab 00       		.byte	0
 2945 01ac 03       		.uleb128 0x3
 2946 01ad 0E       		.uleb128 0xe
 2947 01ae 3A       		.uleb128 0x3a
 2948 01af 0B       		.uleb128 0xb
 2949 01b0 3B       		.uleb128 0x3b
 2950 01b1 05       		.uleb128 0x5
 2951 01b2 49       		.uleb128 0x49
 2952 01b3 13       		.uleb128 0x13
 2953 01b4 3F       		.uleb128 0x3f
 2954 01b5 19       		.uleb128 0x19
 2955 01b6 3C       		.uleb128 0x3c
 2956 01b7 19       		.uleb128 0x19
 2957 01b8 00       		.byte	0
 2958 01b9 00       		.byte	0
 2959 01ba 24       		.uleb128 0x24
 2960 01bb 34       		.uleb128 0x34
 2961 01bc 00       		.byte	0
 2962 01bd 03       		.uleb128 0x3
 2963 01be 08       		.uleb128 0x8
 2964 01bf 3A       		.uleb128 0x3a
ARM GAS  /tmp/cc60mVCx.s 			page 53


 2965 01c0 0B       		.uleb128 0xb
 2966 01c1 3B       		.uleb128 0x3b
 2967 01c2 05       		.uleb128 0x5
 2968 01c3 49       		.uleb128 0x49
 2969 01c4 13       		.uleb128 0x13
 2970 01c5 3F       		.uleb128 0x3f
 2971 01c6 19       		.uleb128 0x19
 2972 01c7 3C       		.uleb128 0x3c
 2973 01c8 19       		.uleb128 0x19
 2974 01c9 00       		.byte	0
 2975 01ca 00       		.byte	0
 2976 01cb 00       		.byte	0
 2977              		.section	.debug_aranges,"",%progbits
 2978 0000 1C000000 		.4byte	0x1c
 2979 0004 0200     		.2byte	0x2
 2980 0006 00000000 		.4byte	.Ldebug_info0
 2981 000a 04       		.byte	0x4
 2982 000b 00       		.byte	0
 2983 000c 0000     		.2byte	0
 2984 000e 0000     		.2byte	0
 2985 0010 00000000 		.4byte	.Ltext0
 2986 0014 C4020000 		.4byte	.Letext0-.Ltext0
 2987 0018 00000000 		.4byte	0
 2988 001c 00000000 		.4byte	0
 2989              		.section	.debug_line,"",%progbits
 2990              	.Ldebug_line0:
 2991 0000 3F040000 		.section	.debug_str,"MS",%progbits,1
 2991      02002303 
 2991      00000201 
 2991      FB0E0D00 
 2991      01010101 
 2992              	.LASF78:
 2993 0000 4D314152 		.ascii	"M1AR\000"
 2993      00
 2994              	.LASF119:
 2995 0005 73746D33 		.ascii	"stm32_dma_stream_t\000"
 2995      325F646D 
 2995      615F7374 
 2995      7265616D 
 2995      5F7400
 2996              	.LASF2:
 2997 0018 73697A65 		.ascii	"size_t\000"
 2997      5F7400
 2998              	.LASF75:
 2999 001f 73697A65 		.ascii	"sizetype\000"
 2999      74797065 
 2999      00
 3000              	.LASF98:
 3001 0028 77747365 		.ascii	"wtsemp\000"
 3001      6D7000
 3002              	.LASF31:
 3003 002f 73797374 		.ascii	"systime_t\000"
 3003      696D655F 
 3003      7400
 3004              	.LASF103:
 3005 0039 6F776E65 		.ascii	"owner\000"
 3005      7200
ARM GAS  /tmp/cc60mVCx.s 			page 54


 3006              	.LASF26:
 3007 003f 74707269 		.ascii	"tprio_t\000"
 3007      6F5F7400 
 3008              	.LASF19:
 3009 0047 696E7433 		.ascii	"int32_t\000"
 3009      325F7400 
 3010              	.LASF192:
 3011 004f 77726974 		.ascii	"writet\000"
 3011      657400
 3012              	.LASF59:
 3013 0056 76746675 		.ascii	"vtfunc_t\000"
 3013      6E635F74 
 3013      00
 3014              	.LASF204:
 3015 005f 7A305F64 		.ascii	"z0_data\000"
 3015      61746100 
 3016              	.LASF65:
 3017 0067 63685F76 		.ascii	"ch_virtual_timers_list\000"
 3017      69727475 
 3017      616C5F74 
 3017      696D6572 
 3017      735F6C69 
 3018              	.LASF213:
 3019 007e 785F6461 		.ascii	"x_data\000"
 3019      746100
 3020              	.LASF162:
 3021 0085 46415354 		.ascii	"FAST_DUTY_CYCLE_2\000"
 3021      5F445554 
 3021      595F4359 
 3021      434C455F 
 3021      3200
 3022              	.LASF211:
 3023 0097 65727233 		.ascii	"err3\000"
 3023      00
 3024              	.LASF121:
 3025 009c 77726974 		.ascii	"write\000"
 3025      6500
 3026              	.LASF219:
 3027 00a2 65727237 		.ascii	"err7\000"
 3027      00
 3028              	.LASF123:
 3029 00a7 42617365 		.ascii	"BaseSequentialStream\000"
 3029      53657175 
 3029      656E7469 
 3029      616C5374 
 3029      7265616D 
 3030              	.LASF197:
 3031 00bc 61636365 		.ascii	"acceleration_control_9_address\000"
 3031      6C657261 
 3031      74696F6E 
 3031      5F636F6E 
 3031      74726F6C 
 3032              	.LASF170:
 3033 00db 636F6E66 		.ascii	"config\000"
 3033      696700
 3034              	.LASF39:
 3035 00e2 73746174 		.ascii	"state\000"
ARM GAS  /tmp/cc60mVCx.s 			page 55


 3035      6500
 3036              	.LASF190:
 3037 00e8 70757474 		.ascii	"putt\000"
 3037      00
 3038              	.LASF229:
 3039 00ed 785F696E 		.ascii	"x_in_gs\000"
 3039      5F677300 
 3040              	.LASF34:
 3041 00f5 7072696F 		.ascii	"prio\000"
 3041      00
 3042              	.LASF94:
 3043 00fa 65786974 		.ascii	"exitcode\000"
 3043      636F6465 
 3043      00
 3044              	.LASF3:
 3045 0103 5F5F7569 		.ascii	"__uint8_t\000"
 3045      6E74385F 
 3045      7400
 3046              	.LASF155:
 3047 010d 69326361 		.ascii	"i2caddr_t\000"
 3047      6464725F 
 3047      7400
 3048              	.LASF129:
 3049 0117 715F746F 		.ascii	"q_top\000"
 3049      7000
 3050              	.LASF164:
 3051 011d 69326364 		.ascii	"i2cdutycycle_t\000"
 3051      75747963 
 3051      79636C65 
 3051      5F7400
 3052              	.LASF193:
 3053 012c 72656164 		.ascii	"readt\000"
 3053      7400
 3054              	.LASF128:
 3055 0132 715F6275 		.ascii	"q_buffer\000"
 3055      66666572 
 3055      00
 3056              	.LASF132:
 3057 013b 715F6E6F 		.ascii	"q_notify\000"
 3057      74696679 
 3057      00
 3058              	.LASF10:
 3059 0144 6C6F6E67 		.ascii	"long int\000"
 3059      20696E74 
 3059      00
 3060              	.LASF131:
 3061 014d 715F7264 		.ascii	"q_rdptr\000"
 3061      70747200 
 3062              	.LASF24:
 3063 0155 74737461 		.ascii	"tstate_t\000"
 3063      74655F74 
 3063      00
 3064              	.LASF44:
 3065 015e 6570656E 		.ascii	"epending\000"
 3065      64696E67 
 3065      00
 3066              	.LASF228:
ARM GAS  /tmp/cc60mVCx.s 			page 56


 3067 0167 6D61696E 		.ascii	"main\000"
 3067      00
 3068              	.LASF53:
 3069 016c 74687265 		.ascii	"threads_queue_t\000"
 3069      6164735F 
 3069      71756575 
 3069      655F7400 
 3070              	.LASF186:
 3071 017c 6F717565 		.ascii	"oqueue\000"
 3071      756500
 3072              	.LASF87:
 3073 0183 72656761 		.ascii	"regarm_t\000"
 3073      726D5F74 
 3073      00
 3074              	.LASF125:
 3075 018c 696F5F71 		.ascii	"io_queue\000"
 3075      75657565 
 3075      00
 3076              	.LASF187:
 3077 0195 75736172 		.ascii	"usart\000"
 3077      7400
 3078              	.LASF1:
 3079 019b 7369676E 		.ascii	"signed char\000"
 3079      65642063 
 3079      68617200 
 3080              	.LASF100:
 3081 01a7 65776D61 		.ascii	"ewmask\000"
 3081      736B00
 3082              	.LASF16:
 3083 01ae 75696E74 		.ascii	"uint8_t\000"
 3083      385F7400 
 3084              	.LASF28:
 3085 01b6 6576656E 		.ascii	"eventmask_t\000"
 3085      746D6173 
 3085      6B5F7400 
 3086              	.LASF96:
 3087 01c2 77747472 		.ascii	"wttrp\000"
 3087      7000
 3088              	.LASF4:
 3089 01c8 756E7369 		.ascii	"unsigned char\000"
 3089      676E6564 
 3089      20636861 
 3089      7200
 3090              	.LASF133:
 3091 01d6 715F6C69 		.ascii	"q_link\000"
 3091      6E6B00
 3092              	.LASF66:
 3093 01dd 6C617374 		.ascii	"lasttime\000"
 3093      74696D65 
 3093      00
 3094              	.LASF146:
 3095 01e6 73746D33 		.ascii	"stm32_gpio_t\000"
 3095      325F6770 
 3095      696F5F74 
 3095      00
 3096              	.LASF69:
 3097 01f3 70616E69 		.ascii	"panic_msg\000"
ARM GAS  /tmp/cc60mVCx.s 			page 57


 3097      635F6D73 
 3097      6700
 3098              	.LASF67:
 3099 01fd 73797374 		.ascii	"system_debug_t\000"
 3099      656D5F64 
 3099      65627567 
 3099      5F7400
 3100              	.LASF179:
 3101 020c 53445F55 		.ascii	"SD_UNINIT\000"
 3101      4E494E49 
 3101      5400
 3102              	.LASF152:
 3103 0216 4932435F 		.ascii	"I2C_ACTIVE_RX\000"
 3103      41435449 
 3103      56455F52 
 3103      5800
 3104              	.LASF113:
 3105 0224 5F426F6F 		.ascii	"_Bool\000"
 3105      6C00
 3106              	.LASF157:
 3107 022a 4F504D4F 		.ascii	"OPMODE_I2C\000"
 3107      44455F49 
 3107      324300
 3108              	.LASF104:
 3109 0235 63686172 		.ascii	"char\000"
 3109      00
 3110              	.LASF224:
 3111 023a 49324344 		.ascii	"I2CD1\000"
 3111      3100
 3112              	.LASF116:
 3113 0240 69736869 		.ascii	"ishift\000"
 3113      667400
 3114              	.LASF221:
 3115 0247 7A5F6461 		.ascii	"z_data\000"
 3115      746100
 3116              	.LASF7:
 3117 024e 5F5F7569 		.ascii	"__uint16_t\000"
 3117      6E743136 
 3117      5F7400
 3118              	.LASF95:
 3119 0259 77746F62 		.ascii	"wtobjp\000"
 3119      6A7000
 3120              	.LASF171:
 3121 0260 6572726F 		.ascii	"errors\000"
 3121      727300
 3122              	.LASF195:
 3123 0267 61636365 		.ascii	"acceleration_control_1_address\000"
 3123      6C657261 
 3123      74696F6E 
 3123      5F636F6E 
 3123      74726F6C 
 3124              	.LASF40:
 3125 0286 666C6167 		.ascii	"flags\000"
 3125      7300
 3126              	.LASF191:
 3127 028c 67657474 		.ascii	"gett\000"
 3127      00
ARM GAS  /tmp/cc60mVCx.s 			page 58


 3128              	.LASF88:
 3129 0291 73746B61 		.ascii	"stkalign_t\000"
 3129      6C69676E 
 3129      5F7400
 3130              	.LASF86:
 3131 029c 55534152 		.ascii	"USART_TypeDef\000"
 3131      545F5479 
 3131      70654465 
 3131      6600
 3132              	.LASF151:
 3133 02aa 4932435F 		.ascii	"I2C_ACTIVE_TX\000"
 3133      41435449 
 3133      56455F54 
 3133      5800
 3134              	.LASF47:
 3135 02b8 6D706F6F 		.ascii	"mpool\000"
 3135      6C00
 3136              	.LASF114:
 3137 02be 73747265 		.ascii	"stream\000"
 3137      616D00
 3138              	.LASF106:
 3139 02c5 6576656E 		.ascii	"event_listener_t\000"
 3139      745F6C69 
 3139      7374656E 
 3139      65725F74 
 3139      00
 3140              	.LASF147:
 3141 02d6 696F706F 		.ascii	"ioportmask_t\000"
 3141      72746D61 
 3141      736B5F74 
 3141      00
 3142              	.LASF30:
 3143 02e3 636E745F 		.ascii	"cnt_t\000"
 3143      7400
 3144              	.LASF188:
 3145 02e9 72786D61 		.ascii	"rxmask\000"
 3145      736B00
 3146              	.LASF206:
 3147 02f0 72656763 		.ascii	"regcontent\000"
 3147      6F6E7465 
 3147      6E7400
 3148              	.LASF99:
 3149 02fb 77746D74 		.ascii	"wtmtxp\000"
 3149      787000
 3150              	.LASF212:
 3151 0302 755F785F 		.ascii	"u_x_data\000"
 3151      64617461 
 3151      00
 3152              	.LASF57:
 3153 030b 63685F72 		.ascii	"ch_ready_list\000"
 3153      65616479 
 3153      5F6C6973 
 3153      7400
 3154              	.LASF153:
 3155 0319 4932435F 		.ascii	"I2C_LOCKED\000"
 3155      4C4F434B 
 3155      454400
ARM GAS  /tmp/cc60mVCx.s 			page 59


 3156              	.LASF167:
 3157 0324 64757479 		.ascii	"duty_cycle\000"
 3157      5F637963 
 3157      6C6500
 3158              	.LASF137:
 3159 032f 636C6561 		.ascii	"clear\000"
 3159      7200
 3160              	.LASF169:
 3161 0335 49324344 		.ascii	"I2CDriver\000"
 3161      72697665 
 3161      7200
 3162              	.LASF127:
 3163 033f 715F636F 		.ascii	"q_counter\000"
 3163      756E7465 
 3163      7200
 3164              	.LASF14:
 3165 0349 5F5F7569 		.ascii	"__uint64_t\000"
 3165      6E743634 
 3165      5F7400
 3166              	.LASF12:
 3167 0354 6C6F6E67 		.ascii	"long unsigned int\000"
 3167      20756E73 
 3167      69676E65 
 3167      6420696E 
 3167      7400
 3168              	.LASF101:
 3169 0366 63685F73 		.ascii	"ch_semaphore\000"
 3169      656D6170 
 3169      686F7265 
 3169      00
 3170              	.LASF50:
 3171 0373 63685F74 		.ascii	"ch_thread\000"
 3171      68726561 
 3171      6400
 3172              	.LASF64:
 3173 037d 76697274 		.ascii	"virtual_timers_list_t\000"
 3173      75616C5F 
 3173      74696D65 
 3173      72735F6C 
 3173      6973745F 
 3174              	.LASF82:
 3175 0393 54524953 		.ascii	"TRISE\000"
 3175      4500
 3176              	.LASF60:
 3177 0399 76697274 		.ascii	"virtual_timer_t\000"
 3177      75616C5F 
 3177      74696D65 
 3177      725F7400 
 3178              	.LASF56:
 3179 03a9 72656164 		.ascii	"ready_list_t\000"
 3179      795F6C69 
 3179      73745F74 
 3179      00
 3180              	.LASF36:
 3181 03b6 6F6C6465 		.ascii	"older\000"
 3181      7200
 3182              	.LASF143:
ARM GAS  /tmp/cc60mVCx.s 			page 60


 3183 03bc 4C434B52 		.ascii	"LCKR\000"
 3183      00
 3184              	.LASF46:
 3185 03c1 7265616C 		.ascii	"realprio\000"
 3185      7072696F 
 3185      00
 3186              	.LASF51:
 3187 03ca 63685F74 		.ascii	"ch_threads_list\000"
 3187      68726561 
 3187      64735F6C 
 3187      69737400 
 3188              	.LASF140:
 3189 03da 4F535045 		.ascii	"OSPEEDR\000"
 3189      45445200 
 3190              	.LASF177:
 3191 03e2 646D6172 		.ascii	"dmarx\000"
 3191      7800
 3192              	.LASF11:
 3193 03e8 5F5F7569 		.ascii	"__uint32_t\000"
 3193      6E743332 
 3193      5F7400
 3194              	.LASF45:
 3195 03f3 6D74786C 		.ascii	"mtxlist\000"
 3195      69737400 
 3196              	.LASF13:
 3197 03fb 6C6F6E67 		.ascii	"long long int\000"
 3197      206C6F6E 
 3197      6720696E 
 3197      7400
 3198              	.LASF148:
 3199 0409 4932435F 		.ascii	"I2C_UNINIT\000"
 3199      554E494E 
 3199      495400
 3200              	.LASF141:
 3201 0414 50555044 		.ascii	"PUPDR\000"
 3201      5200
 3202              	.LASF199:
 3203 041a 6576656E 		.ascii	"event_detection\000"
 3203      745F6465 
 3203      74656374 
 3203      696F6E00 
 3204              	.LASF226:
 3205 042a 6D61696E 		.ascii	"main.c\000"
 3205      2E6300
 3206              	.LASF85:
 3207 0431 47545052 		.ascii	"GTPR\000"
 3207      00
 3208              	.LASF112:
 3209 0436 6576656E 		.ascii	"event_source_t\000"
 3209      745F736F 
 3209      75726365 
 3209      5F7400
 3210              	.LASF189:
 3211 0445 53657269 		.ascii	"SerialDriverVMT\000"
 3211      616C4472 
 3211      69766572 
 3211      564D5400 
ARM GAS  /tmp/cc60mVCx.s 			page 61


 3212              	.LASF83:
 3213 0455 464C5452 		.ascii	"FLTR\000"
 3213      00
 3214              	.LASF154:
 3215 045a 69326373 		.ascii	"i2cstate_t\000"
 3215      74617465 
 3215      5F7400
 3216              	.LASF172:
 3217 0465 6D757465 		.ascii	"mutex\000"
 3217      7800
 3218              	.LASF223:
 3219 046b 49544D5F 		.ascii	"ITM_RxBuffer\000"
 3219      52784275 
 3219      66666572 
 3219      00
 3220              	.LASF175:
 3221 0478 7278646D 		.ascii	"rxdmamode\000"
 3221      616D6F64 
 3221      6500
 3222              	.LASF134:
 3223 0482 716E6F74 		.ascii	"qnotify_t\000"
 3223      6966795F 
 3223      7400
 3224              	.LASF184:
 3225 048c 6576656E 		.ascii	"event\000"
 3225      7400
 3226              	.LASF174:
 3227 0492 61646472 		.ascii	"addr\000"
 3227      00
 3228              	.LASF178:
 3229 0497 646D6174 		.ascii	"dmatx\000"
 3229      7800
 3230              	.LASF138:
 3231 049d 4D4F4445 		.ascii	"MODER\000"
 3231      5200
 3232              	.LASF122:
 3233 04a3 72656164 		.ascii	"read\000"
 3233      00
 3234              	.LASF144:
 3235 04a8 4146524C 		.ascii	"AFRL\000"
 3235      00
 3236              	.LASF117:
 3237 04ad 73656C66 		.ascii	"selfindex\000"
 3237      696E6465 
 3237      7800
 3238              	.LASF0:
 3239 04b7 756E7369 		.ascii	"unsigned int\000"
 3239      676E6564 
 3239      20696E74 
 3239      00
 3240              	.LASF22:
 3241 04c4 7274636E 		.ascii	"rtcnt_t\000"
 3241      745F7400 
 3242              	.LASF58:
 3243 04cc 63757272 		.ascii	"current\000"
 3243      656E7400 
 3244              	.LASF208:
ARM GAS  /tmp/cc60mVCx.s 			page 62


 3245 04d4 7472616E 		.ascii	"transmit\000"
 3245      736D6974 
 3245      00
 3246              	.LASF150:
 3247 04dd 4932435F 		.ascii	"I2C_READY\000"
 3247      52454144 
 3247      5900
 3248              	.LASF91:
 3249 04e7 6F666673 		.ascii	"offset\000"
 3249      657400
 3250              	.LASF222:
 3251 04ee 69326363 		.ascii	"i2ccfg\000"
 3251      666700
 3252              	.LASF203:
 3253 04f5 79315F64 		.ascii	"y1_data\000"
 3253      61746100 
 3254              	.LASF79:
 3255 04fd 444D415F 		.ascii	"DMA_Stream_TypeDef\000"
 3255      53747265 
 3255      616D5F54 
 3255      79706544 
 3255      656600
 3256              	.LASF200:
 3257 0510 78305F64 		.ascii	"x0_data\000"
 3257      61746100 
 3258              	.LASF32:
 3259 0518 74687265 		.ascii	"thread_t\000"
 3259      61645F74 
 3259      00
 3260              	.LASF110:
 3261 0521 77666C61 		.ascii	"wflags\000"
 3261      677300
 3262              	.LASF163:
 3263 0528 46415354 		.ascii	"FAST_DUTY_CYCLE_16_9\000"
 3263      5F445554 
 3263      595F4359 
 3263      434C455F 
 3263      31365F39 
 3264              	.LASF48:
 3265 053d 74687265 		.ascii	"thread_reference_t\000"
 3265      61645F72 
 3265      65666572 
 3265      656E6365 
 3265      5F7400
 3266              	.LASF97:
 3267 0550 73656E74 		.ascii	"sentmsg\000"
 3267      6D736700 
 3268              	.LASF90:
 3269 0558 706F7274 		.ascii	"port_intctx\000"
 3269      5F696E74 
 3269      63747800 
 3270              	.LASF198:
 3271 0564 636F6E74 		.ascii	"control_9_write_byte\000"
 3271      726F6C5F 
 3271      395F7772 
 3271      6974655F 
 3271      62797465 
ARM GAS  /tmp/cc60mVCx.s 			page 63


 3272              	.LASF205:
 3273 0579 7A315F64 		.ascii	"z1_data\000"
 3273      61746100 
 3274              	.LASF217:
 3275 0581 795F6461 		.ascii	"y_data\000"
 3275      746100
 3276              	.LASF168:
 3277 0588 49324343 		.ascii	"I2CConfig\000"
 3277      6F6E6669 
 3277      6700
 3278              	.LASF202:
 3279 0592 79305F64 		.ascii	"y0_data\000"
 3279      61746100 
 3280              	.LASF61:
 3281 059a 63685F76 		.ascii	"ch_virtual_timer\000"
 3281      69727475 
 3281      616C5F74 
 3281      696D6572 
 3281      00
 3282              	.LASF225:
 3283 05ab 474E5520 		.ascii	"GNU C 4.9.3 20150529 (prerelease) -mcpu=cortex-m4 -"
 3283      4320342E 
 3283      392E3320 
 3283      32303135 
 3283      30353239 
 3284 05de 6D6E6F2D 		.ascii	"mno-thumb-interwork -mthumb -ggdb -O0 -fomit-frame-"
 3284      7468756D 
 3284      622D696E 
 3284      74657277 
 3284      6F726B20 
 3285 0611 706F696E 		.ascii	"pointer -falign-functions=16\000"
 3285      74657220 
 3285      2D66616C 
 3285      69676E2D 
 3285      66756E63 
 3286              	.LASF15:
 3287 062e 6C6F6E67 		.ascii	"long long unsigned int\000"
 3287      206C6F6E 
 3287      6720756E 
 3287      7369676E 
 3287      65642069 
 3288              	.LASF160:
 3289 0645 6932636F 		.ascii	"i2copmode_t\000"
 3289      706D6F64 
 3289      655F7400 
 3290              	.LASF18:
 3291 0651 75696E74 		.ascii	"uint16_t\000"
 3291      31365F74 
 3291      00
 3292              	.LASF27:
 3293 065a 6D73675F 		.ascii	"msg_t\000"
 3293      7400
 3294              	.LASF54:
 3295 0660 63685F74 		.ascii	"ch_threads_queue\000"
 3295      68726561 
 3295      64735F71 
 3295      75657565 
ARM GAS  /tmp/cc60mVCx.s 			page 64


 3295      00
 3296              	.LASF29:
 3297 0671 6576656E 		.ascii	"eventflags_t\000"
 3297      74666C61 
 3297      67735F74 
 3297      00
 3298              	.LASF158:
 3299 067e 4F504D4F 		.ascii	"OPMODE_SMBUS_DEVICE\000"
 3299      44455F53 
 3299      4D425553 
 3299      5F444556 
 3299      49434500 
 3300              	.LASF62:
 3301 0692 64656C74 		.ascii	"delta\000"
 3301      6100
 3302              	.LASF145:
 3303 0698 41465248 		.ascii	"AFRH\000"
 3303      00
 3304              	.LASF41:
 3305 069d 72656673 		.ascii	"refs\000"
 3305      00
 3306              	.LASF33:
 3307 06a2 71756575 		.ascii	"queue\000"
 3307      6500
 3308              	.LASF118:
 3309 06a8 76656374 		.ascii	"vector\000"
 3309      6F7200
 3310              	.LASF84:
 3311 06af 4932435F 		.ascii	"I2C_TypeDef\000"
 3311      54797065 
 3311      44656600 
 3312              	.LASF161:
 3313 06bb 5354445F 		.ascii	"STD_DUTY_CYCLE\000"
 3313      44555459 
 3313      5F435943 
 3313      4C4500
 3314              	.LASF74:
 3315 06ca 6D61696E 		.ascii	"mainthread\000"
 3315      74687265 
 3315      616400
 3316              	.LASF5:
 3317 06d5 5F5F696E 		.ascii	"__int16_t\000"
 3317      7431365F 
 3317      7400
 3318              	.LASF38:
 3319 06df 77616261 		.ascii	"wabase\000"
 3319      736500
 3320              	.LASF183:
 3321 06e6 53657269 		.ascii	"SerialDriver\000"
 3321      616C4472 
 3321      69766572 
 3321      00
 3322              	.LASF139:
 3323 06f3 4F545950 		.ascii	"OTYPER\000"
 3323      455200
 3324              	.LASF126:
 3325 06fa 715F7761 		.ascii	"q_waiting\000"
ARM GAS  /tmp/cc60mVCx.s 			page 65


 3325      6974696E 
 3325      6700
 3326              	.LASF120:
 3327 0704 42617365 		.ascii	"BaseSequentialStreamVMT\000"
 3327      53657175 
 3327      656E7469 
 3327      616C5374 
 3327      7265616D 
 3328              	.LASF72:
 3329 071c 726C6973 		.ascii	"rlist\000"
 3329      7400
 3330              	.LASF23:
 3331 0722 746D6F64 		.ascii	"tmode_t\000"
 3331      655F7400 
 3332              	.LASF80:
 3333 072a 4F415231 		.ascii	"OAR1\000"
 3333      00
 3334              	.LASF81:
 3335 072f 4F415232 		.ascii	"OAR2\000"
 3335      00
 3336              	.LASF182:
 3337 0734 73647374 		.ascii	"sdstate_t\000"
 3337      6174655F 
 3337      7400
 3338              	.LASF181:
 3339 073e 53445F52 		.ascii	"SD_READY\000"
 3339      45414459 
 3339      00
 3340              	.LASF92:
 3341 0747 746D5F63 		.ascii	"tm_calibration_t\000"
 3341      616C6962 
 3341      72617469 
 3341      6F6E5F74 
 3341      00
 3342              	.LASF173:
 3343 0758 74687265 		.ascii	"thread\000"
 3343      616400
 3344              	.LASF77:
 3345 075f 4D304152 		.ascii	"M0AR\000"
 3345      00
 3346              	.LASF37:
 3347 0764 6E616D65 		.ascii	"name\000"
 3347      00
 3348              	.LASF108:
 3349 0769 6C697374 		.ascii	"listener\000"
 3349      656E6572 
 3349      00
 3350              	.LASF6:
 3351 0772 73686F72 		.ascii	"short int\000"
 3351      7420696E 
 3351      7400
 3352              	.LASF111:
 3353 077c 6576656E 		.ascii	"event_source\000"
 3353      745F736F 
 3353      75726365 
 3353      00
 3354              	.LASF209:
ARM GAS  /tmp/cc60mVCx.s 			page 66


 3355 0789 65727231 		.ascii	"err1\000"
 3355      00
 3356              	.LASF210:
 3357 078e 65727232 		.ascii	"err2\000"
 3357      00
 3358              	.LASF21:
 3359 0793 75696E74 		.ascii	"uint64_t\000"
 3359      36345F74 
 3359      00
 3360              	.LASF214:
 3361 079c 65727234 		.ascii	"err4\000"
 3361      00
 3362              	.LASF215:
 3363 07a1 65727235 		.ascii	"err5\000"
 3363      00
 3364              	.LASF218:
 3365 07a6 65727236 		.ascii	"err6\000"
 3365      00
 3366              	.LASF63:
 3367 07ab 66756E63 		.ascii	"func\000"
 3367      00
 3368              	.LASF102:
 3369 07b0 63685F6D 		.ascii	"ch_mutex\000"
 3369      75746578 
 3369      00
 3370              	.LASF17:
 3371 07b9 696E7431 		.ascii	"int16_t\000"
 3371      365F7400 
 3372              	.LASF43:
 3373 07c1 6D736771 		.ascii	"msgqueue\000"
 3373      75657565 
 3373      00
 3374              	.LASF185:
 3375 07ca 69717565 		.ascii	"iqueue\000"
 3375      756500
 3376              	.LASF159:
 3377 07d1 4F504D4F 		.ascii	"OPMODE_SMBUS_HOST\000"
 3377      44455F53 
 3377      4D425553 
 3377      5F484F53 
 3377      5400
 3378              	.LASF68:
 3379 07e3 63685F73 		.ascii	"ch_system_debug\000"
 3379      79737465 
 3379      6D5F6465 
 3379      62756700 
 3380              	.LASF201:
 3381 07f3 78315F64 		.ascii	"x1_data\000"
 3381      61746100 
 3382              	.LASF196:
 3383 07fb 636F6E74 		.ascii	"control_1_write_byte\000"
 3383      726F6C5F 
 3383      315F7772 
 3383      6974655F 
 3383      62797465 
 3384              	.LASF124:
 3385 0810 696F5F71 		.ascii	"io_queue_t\000"
ARM GAS  /tmp/cc60mVCx.s 			page 67


 3385      75657565 
 3385      5F7400
 3386              	.LASF142:
 3387 081b 42535252 		.ascii	"BSRR\000"
 3387      00
 3388              	.LASF73:
 3389 0820 76746C69 		.ascii	"vtlist\000"
 3389      737400
 3390              	.LASF42:
 3391 0827 77616974 		.ascii	"waiting\000"
 3391      696E6700 
 3392              	.LASF194:
 3393 082f 74657374 		.ascii	"test_address\000"
 3393      5F616464 
 3393      72657373 
 3393      00
 3394              	.LASF105:
 3395 083c 6D757465 		.ascii	"mutex_t\000"
 3395      785F7400 
 3396              	.LASF25:
 3397 0844 74726566 		.ascii	"trefs_t\000"
 3397      735F7400 
 3398              	.LASF89:
 3399 084c 706F7274 		.ascii	"port_context\000"
 3399      5F636F6E 
 3399      74657874 
 3399      00
 3400              	.LASF49:
 3401 0859 74687265 		.ascii	"threads_list_t\000"
 3401      6164735F 
 3401      6C697374 
 3401      5F7400
 3402              	.LASF71:
 3403 0868 63685F73 		.ascii	"ch_system\000"
 3403      79737465 
 3403      6D00
 3404              	.LASF165:
 3405 0872 6F705F6D 		.ascii	"op_mode\000"
 3405      6F646500 
 3406              	.LASF35:
 3407 087a 6E657765 		.ascii	"newer\000"
 3407      7200
 3408              	.LASF20:
 3409 0880 75696E74 		.ascii	"uint32_t\000"
 3409      33325F74 
 3409      00
 3410              	.LASF135:
 3411 0889 696E7075 		.ascii	"input_queue_t\000"
 3411      745F7175 
 3411      6575655F 
 3411      7400
 3412              	.LASF156:
 3413 0897 69326366 		.ascii	"i2cflags_t\000"
 3413      6C616773 
 3413      5F7400
 3414              	.LASF107:
 3415 08a2 6576656E 		.ascii	"event_listener\000"
ARM GAS  /tmp/cc60mVCx.s 			page 68


 3415      745F6C69 
 3415      7374656E 
 3415      657200
 3416              	.LASF220:
 3417 08b1 755F7A5F 		.ascii	"u_z_data\000"
 3417      64617461 
 3417      00
 3418              	.LASF93:
 3419 08ba 7264796D 		.ascii	"rdymsg\000"
 3419      736700
 3420              	.LASF130:
 3421 08c1 715F7772 		.ascii	"q_wrptr\000"
 3421      70747200 
 3422              	.LASF8:
 3423 08c9 73686F72 		.ascii	"short unsigned int\000"
 3423      7420756E 
 3423      7369676E 
 3423      65642069 
 3423      6E7400
 3424              	.LASF166:
 3425 08dc 636C6F63 		.ascii	"clock_speed\000"
 3425      6B5F7370 
 3425      65656400 
 3426              	.LASF70:
 3427 08e8 63685F73 		.ascii	"ch_system_t\000"
 3427      79737465 
 3427      6D5F7400 
 3428              	.LASF136:
 3429 08f4 6F757470 		.ascii	"output_queue_t\000"
 3429      75745F71 
 3429      75657565 
 3429      5F7400
 3430              	.LASF227:
 3431 0903 2F686F6D 		.ascii	"/home/declan/ChibiOS2/ChibiOS/demos/STM32/RT-STM32F"
 3431      652F6465 
 3431      636C616E 
 3431      2F436869 
 3431      62694F53 
 3432 0936 3430372D 		.ascii	"407-DISCOVERY\000"
 3432      44495343 
 3432      4F564552 
 3432      5900
 3433              	.LASF9:
 3434 0944 5F5F696E 		.ascii	"__int32_t\000"
 3434      7433325F 
 3434      7400
 3435              	.LASF180:
 3436 094e 53445F53 		.ascii	"SD_STOP\000"
 3436      544F5000 
 3437              	.LASF76:
 3438 0956 4E445452 		.ascii	"NDTR\000"
 3438      00
 3439              	.LASF115:
 3440 095b 69666372 		.ascii	"ifcr\000"
 3440      00
 3441              	.LASF149:
 3442 0960 4932435F 		.ascii	"I2C_STOP\000"
ARM GAS  /tmp/cc60mVCx.s 			page 69


 3442      53544F50 
 3442      00
 3443              	.LASF109:
 3444 0969 6576656E 		.ascii	"events\000"
 3444      747300
 3445              	.LASF52:
 3446 0970 6E657874 		.ascii	"next\000"
 3446      00
 3447              	.LASF207:
 3448 0975 64617461 		.ascii	"data\000"
 3448      00
 3449              	.LASF55:
 3450 097a 70726576 		.ascii	"prev\000"
 3450      00
 3451              	.LASF176:
 3452 097f 7478646D 		.ascii	"txdmamode\000"
 3452      616D6F64 
 3452      6500
 3453              	.LASF216:
 3454 0989 755F795F 		.ascii	"u_y_data\000"
 3454      64617461 
 3454      00
 3455              		.ident	"GCC: (15:4.9.3+svn231177-1) 4.9.3 20150529 (prerelease)"
ARM GAS  /tmp/cc60mVCx.s 			page 70


DEFINED SYMBOLS
                            *ABS*:0000000000000000 main.c
     /tmp/cc60mVCx.s:19     .rodata:0000000000000000 $d
     /tmp/cc60mVCx.s:22     .rodata:0000000000000000 i2ccfg
     /tmp/cc60mVCx.s:29     .text:0000000000000000 $t
     /tmp/cc60mVCx.s:35     .text:0000000000000000 main
     /tmp/cc60mVCx.s:364    .text:00000000000002b4 $d
                     .debug_frame:0000000000000010 $d

UNDEFINED SYMBOLS
halInit
chSysInit
_pal_lld_setgroupmode
i2cStart
sdStart
i2cMasterTransmitTimeout
chThdSleep
I2CD1
SD3
