ARM GAS  /tmp/ccp4wxgw.s 			page 1


   1              		.syntax unified
   2              		.cpu cortex-m4
   3              		.fpu softvfp
   4              		.eabi_attribute 20, 1
   5              		.eabi_attribute 21, 1
   6              		.eabi_attribute 23, 3
   7              		.eabi_attribute 24, 1
   8              		.eabi_attribute 25, 1
   9              		.eabi_attribute 26, 1
  10              		.eabi_attribute 30, 6
  11              		.eabi_attribute 34, 1
  12              		.eabi_attribute 18, 4
  13              		.thumb
  14              		.file	"main.c"
  15              		.text
  16              	.Ltext0:
  17              		.cfi_sections	.debug_frame
  18              		.section	.rodata
  19              		.align	2
  20              	.LC0:
  21 0000 25642C20 		.ascii	"%d, %d, %d \015\012\000"
  21      25642C20 
  21      2564200D 
  21      0A00
  22              		.text
  23              		.align	2
  24              		.p2align 4,,15
  25              		.global	main
  26              		.thumb
  27              		.thumb_func
  28              		.type	main, %function
  29              	main:
  30              	.LFB279:
  31              		.file 1 "main.c"
  32              		.loc 1 38 0
  33              		.cfi_startproc
  34              		@ args = 0, pretend = 0, frame = 8
  35              		@ frame_needed = 0, uses_anonymous_args = 0
  36 0000 10B5     		push	{r4, lr}
  37              		.cfi_def_cfa_offset 8
  38              		.cfi_offset 4, -8
  39              		.cfi_offset 14, -4
  40 0002 84B0     		sub	sp, sp, #16
  41              		.cfi_def_cfa_offset 24
  42              		.loc 1 47 0
  43 0004 FFF7FEFF 		bl	halInit
  44              		.loc 1 48 0
  45 0008 FFF7FEFF 		bl	chSysInit
  46              	.L2:
  47              	.LBB2:
  48              		.loc 1 229 0 discriminator 1
  49 000c FFF7FEFF 		bl	AccelerometerInit
  50              		.loc 1 230 0 discriminator 1
  51 0010 0120     		movs	r0, #1
  52 0012 0121     		movs	r1, #1
  53 0014 FFF7FEFF 		bl	AccelerometerConfig
  54              		.loc 1 231 0 discriminator 1
ARM GAS  /tmp/ccp4wxgw.s 			page 2


  55 0018 02AB     		add	r3, sp, #8
  56 001a 1846     		mov	r0, r3
  57 001c FFF7FEFF 		bl	AccelerometerGetValues
  58              		.loc 1 235 0 discriminator 1
  59 0020 BDF80830 		ldrh	r3, [sp, #8]
  60 0024 1AB2     		sxth	r2, r3
  61 0026 BDF80A30 		ldrh	r3, [sp, #10]
  62 002a 1CB2     		sxth	r4, r3
  63 002c BDF80C30 		ldrh	r3, [sp, #12]
  64 0030 1BB2     		sxth	r3, r3
  65 0032 0093     		str	r3, [sp]
  66 0034 0448     		ldr	r0, .L3
  67 0036 0549     		ldr	r1, .L3+4
  68 0038 2346     		mov	r3, r4
  69 003a FFF7FEFF 		bl	chprintf
  70              		.loc 1 236 0 discriminator 1
  71 003e 4FF47A70 		mov	r0, #1000
  72 0042 FFF7FEFF 		bl	chThdSleep
  73              	.LBE2:
  74              		.loc 1 238 0 discriminator 1
  75 0046 E1E7     		b	.L2
  76              	.L4:
  77              		.align	2
  78              	.L3:
  79 0048 00000000 		.word	SD3
  80 004c 00000000 		.word	.LC0
  81              		.cfi_endproc
  82              	.LFE279:
  83              		.size	main, .-main
  84              	.Letext0:
  85              		.file 2 "/usr/lib/gcc/arm-none-eabi/4.9.3/include/stddef.h"
  86              		.file 3 "/usr/include/newlib/machine/_default_types.h"
  87              		.file 4 "/usr/include/newlib/sys/_stdint.h"
  88              		.file 5 "../../../os/common/ports/ARMCMx/compilers/GCC/chtypes.h"
  89              		.file 6 "../../../os/rt/include/chsystypes.h"
  90              		.file 7 "../../../os/rt/include/chschd.h"
  91              		.file 8 "../../../os/common/ext/CMSIS/ST/STM32F4xx/stm32f407xx.h"
  92              		.file 9 "../../../os/common/ports/ARMCMx/chcore.h"
  93              		.file 10 "../../../os/common/ports/ARMCMx/chcore_v7m.h"
  94              		.file 11 "../../../os/rt/include/chtm.h"
  95              		.file 12 "../../../os/rt/include/chsem.h"
  96              		.file 13 "../../../os/rt/include/chmtx.h"
  97              		.file 14 "../../../os/rt/include/chevents.h"
  98              		.file 15 "../../../os/hal/include/hal_streams.h"
  99              		.file 16 "../../../os/hal/include/hal_queues.h"
 100              		.file 17 "../../../os/hal/ports/STM32/LLD/GPIOv2/hal_pal_lld.h"
 101              		.file 18 "../../../os/hal/include/hal_serial.h"
 102              		.file 19 "../../../os/hal/ports/STM32/LLD/USARTv1/hal_serial_lld.h"
 103              		.file 20 "../../../os/common/ext/CMSIS/include/core_cm4.h"
 104              		.section	.debug_info,"",%progbits
 105              	.Ldebug_info0:
 106 0000 EC0B0000 		.4byte	0xbec
 107 0004 0400     		.2byte	0x4
 108 0006 00000000 		.4byte	.Ldebug_abbrev0
 109 000a 04       		.byte	0x4
 110 000b 01       		.uleb128 0x1
 111 000c E7040000 		.4byte	.LASF148
ARM GAS  /tmp/ccp4wxgw.s 			page 3


 112 0010 01       		.byte	0x1
 113 0011 1C060000 		.4byte	.LASF149
 114 0015 25020000 		.4byte	.LASF150
 115 0019 00000000 		.4byte	.Ltext0
 116 001d 50000000 		.4byte	.Letext0-.Ltext0
 117 0021 00000000 		.4byte	.Ldebug_line0
 118 0025 02       		.uleb128 0x2
 119 0026 04       		.byte	0x4
 120 0027 05       		.byte	0x5
 121 0028 696E7400 		.ascii	"int\000"
 122 002c 03       		.uleb128 0x3
 123 002d 12000000 		.4byte	.LASF2
 124 0031 02       		.byte	0x2
 125 0032 D4       		.byte	0xd4
 126 0033 37000000 		.4byte	0x37
 127 0037 04       		.uleb128 0x4
 128 0038 04       		.byte	0x4
 129 0039 07       		.byte	0x7
 130 003a EB010000 		.4byte	.LASF0
 131 003e 04       		.uleb128 0x4
 132 003f 01       		.byte	0x1
 133 0040 06       		.byte	0x6
 134 0041 FD000000 		.4byte	.LASF1
 135 0045 03       		.uleb128 0x3
 136 0046 2F000000 		.4byte	.LASF3
 137 004a 03       		.byte	0x3
 138 004b 1D       		.byte	0x1d
 139 004c 50000000 		.4byte	0x50
 140 0050 04       		.uleb128 0x4
 141 0051 01       		.byte	0x1
 142 0052 08       		.byte	0x8
 143 0053 0F040000 		.4byte	.LASF4
 144 0057 03       		.uleb128 0x3
 145 0058 84010000 		.4byte	.LASF5
 146 005c 03       		.byte	0x3
 147 005d 29       		.byte	0x29
 148 005e 62000000 		.4byte	0x62
 149 0062 04       		.uleb128 0x4
 150 0063 02       		.byte	0x2
 151 0064 05       		.byte	0x5
 152 0065 1D040000 		.4byte	.LASF6
 153 0069 03       		.uleb128 0x3
 154 006a 91050000 		.4byte	.LASF7
 155 006e 03       		.byte	0x3
 156 006f 2B       		.byte	0x2b
 157 0070 74000000 		.4byte	0x74
 158 0074 04       		.uleb128 0x4
 159 0075 02       		.byte	0x2
 160 0076 07       		.byte	0x7
 161 0077 DA050000 		.4byte	.LASF8
 162 007b 03       		.uleb128 0x3
 163 007c F1020000 		.4byte	.LASF9
 164 0080 03       		.byte	0x3
 165 0081 3F       		.byte	0x3f
 166 0082 86000000 		.4byte	0x86
 167 0086 04       		.uleb128 0x4
 168 0087 04       		.byte	0x4
ARM GAS  /tmp/ccp4wxgw.s 			page 4


 169 0088 05       		.byte	0x5
 170 0089 3A010000 		.4byte	.LASF10
 171 008d 03       		.uleb128 0x3
 172 008e 70010000 		.4byte	.LASF11
 173 0092 03       		.byte	0x3
 174 0093 41       		.byte	0x41
 175 0094 98000000 		.4byte	0x98
 176 0098 04       		.uleb128 0x4
 177 0099 04       		.byte	0x4
 178 009a 07       		.byte	0x7
 179 009b D5040000 		.4byte	.LASF12
 180 009f 04       		.uleb128 0x4
 181 00a0 08       		.byte	0x8
 182 00a1 05       		.byte	0x5
 183 00a2 EF000000 		.4byte	.LASF13
 184 00a6 03       		.uleb128 0x3
 185 00a7 B4030000 		.4byte	.LASF14
 186 00ab 03       		.byte	0x3
 187 00ac 5B       		.byte	0x5b
 188 00ad B1000000 		.4byte	0xb1
 189 00b1 04       		.uleb128 0x4
 190 00b2 08       		.byte	0x8
 191 00b3 07       		.byte	0x7
 192 00b4 61000000 		.4byte	.LASF15
 193 00b8 03       		.uleb128 0x3
 194 00b9 4E060000 		.4byte	.LASF16
 195 00bd 04       		.byte	0x4
 196 00be 14       		.byte	0x14
 197 00bf 45000000 		.4byte	0x45
 198 00c3 03       		.uleb128 0x3
 199 00c4 F9030000 		.4byte	.LASF17
 200 00c8 04       		.byte	0x4
 201 00c9 19       		.byte	0x19
 202 00ca 57000000 		.4byte	0x57
 203 00ce 03       		.uleb128 0x3
 204 00cf F8010000 		.4byte	.LASF18
 205 00d3 04       		.byte	0x4
 206 00d4 1A       		.byte	0x1a
 207 00d5 69000000 		.4byte	0x69
 208 00d9 03       		.uleb128 0x3
 209 00da 07040000 		.4byte	.LASF19
 210 00de 04       		.byte	0x4
 211 00df 1F       		.byte	0x1f
 212 00e0 7B000000 		.4byte	0x7b
 213 00e4 03       		.uleb128 0x3
 214 00e5 7F060000 		.4byte	.LASF20
 215 00e9 04       		.byte	0x4
 216 00ea 20       		.byte	0x20
 217 00eb 8D000000 		.4byte	0x8d
 218 00ef 03       		.uleb128 0x3
 219 00f0 26000000 		.4byte	.LASF21
 220 00f4 04       		.byte	0x4
 221 00f5 26       		.byte	0x26
 222 00f6 A6000000 		.4byte	0xa6
 223 00fa 03       		.uleb128 0x3
 224 00fb FE050000 		.4byte	.LASF22
 225 00ff 05       		.byte	0x5
ARM GAS  /tmp/ccp4wxgw.s 			page 5


 226 0100 39       		.byte	0x39
 227 0101 E4000000 		.4byte	0xe4
 228 0105 03       		.uleb128 0x3
 229 0106 CF020000 		.4byte	.LASF23
 230 010a 05       		.byte	0x5
 231 010b 3C       		.byte	0x3c
 232 010c B8000000 		.4byte	0xb8
 233 0110 03       		.uleb128 0x3
 234 0111 43010000 		.4byte	.LASF24
 235 0115 05       		.byte	0x5
 236 0116 3D       		.byte	0x3d
 237 0117 B8000000 		.4byte	0xb8
 238 011b 03       		.uleb128 0x3
 239 011c C9030000 		.4byte	.LASF25
 240 0120 05       		.byte	0x5
 241 0121 3E       		.byte	0x3e
 242 0122 B8000000 		.4byte	0xb8
 243 0126 03       		.uleb128 0x3
 244 0127 E9030000 		.4byte	.LASF26
 245 012b 05       		.byte	0x5
 246 012c 40       		.byte	0x40
 247 012d E4000000 		.4byte	0xe4
 248 0131 03       		.uleb128 0x3
 249 0132 9F020000 		.4byte	.LASF27
 250 0136 05       		.byte	0x5
 251 0137 41       		.byte	0x41
 252 0138 D9000000 		.4byte	0xd9
 253 013c 03       		.uleb128 0x3
 254 013d E5020000 		.4byte	.LASF28
 255 0141 05       		.byte	0x5
 256 0142 43       		.byte	0x43
 257 0143 E4000000 		.4byte	0xe4
 258 0147 03       		.uleb128 0x3
 259 0148 0F060000 		.4byte	.LASF29
 260 014c 05       		.byte	0x5
 261 014d 44       		.byte	0x44
 262 014e E4000000 		.4byte	0xe4
 263 0152 03       		.uleb128 0x3
 264 0153 DF010000 		.4byte	.LASF30
 265 0157 05       		.byte	0x5
 266 0158 45       		.byte	0x45
 267 0159 D9000000 		.4byte	0xd9
 268 015d 03       		.uleb128 0x3
 269 015e A5050000 		.4byte	.LASF31
 270 0162 06       		.byte	0x6
 271 0163 33       		.byte	0x33
 272 0164 E4000000 		.4byte	0xe4
 273 0168 03       		.uleb128 0x3
 274 0169 9C050000 		.4byte	.LASF32
 275 016d 06       		.byte	0x6
 276 016e 3F       		.byte	0x3f
 277 016f 73010000 		.4byte	0x173
 278 0173 05       		.uleb128 0x5
 279 0174 8A020000 		.4byte	.LASF50
 280 0178 44       		.byte	0x44
 281 0179 07       		.byte	0x7
 282 017a 9A       		.byte	0x9a
ARM GAS  /tmp/ccp4wxgw.s 			page 6


 283 017b 51020000 		.4byte	0x251
 284 017f 06       		.uleb128 0x6
 285 0180 70020000 		.4byte	.LASF33
 286 0184 07       		.byte	0x7
 287 0185 9B       		.byte	0x9b
 288 0186 86020000 		.4byte	0x286
 289 018a 00       		.byte	0
 290 018b 06       		.uleb128 0x6
 291 018c A7030000 		.4byte	.LASF34
 292 0190 07       		.byte	0x7
 293 0191 9C       		.byte	0x9c
 294 0192 26010000 		.4byte	0x126
 295 0196 08       		.byte	0x8
 296 0197 07       		.uleb128 0x7
 297 0198 63747800 		.ascii	"ctx\000"
 298 019c 07       		.byte	0x7
 299 019d 9D       		.byte	0x9d
 300 019e F2040000 		.4byte	0x4f2
 301 01a2 0C       		.byte	0xc
 302 01a3 06       		.uleb128 0x6
 303 01a4 10030000 		.4byte	.LASF35
 304 01a8 07       		.byte	0x7
 305 01a9 9F       		.byte	0x9f
 306 01aa 5C020000 		.4byte	0x25c
 307 01ae 10       		.byte	0x10
 308 01af 06       		.uleb128 0x6
 309 01b0 74050000 		.4byte	.LASF36
 310 01b4 07       		.byte	0x7
 311 01b5 A0       		.byte	0xa0
 312 01b6 5C020000 		.4byte	0x25c
 313 01ba 14       		.byte	0x14
 314 01bb 06       		.uleb128 0x6
 315 01bc 6B020000 		.4byte	.LASF37
 316 01c0 07       		.byte	0x7
 317 01c1 A7       		.byte	0xa7
 318 01c2 77060000 		.4byte	0x677
 319 01c6 18       		.byte	0x18
 320 01c7 06       		.uleb128 0x6
 321 01c8 23010000 		.4byte	.LASF38
 322 01cc 07       		.byte	0x7
 323 01cd B0       		.byte	0xb0
 324 01ce 89060000 		.4byte	0x689
 325 01d2 1C       		.byte	0x1c
 326 01d3 06       		.uleb128 0x6
 327 01d4 2A010000 		.4byte	.LASF39
 328 01d8 07       		.byte	0x7
 329 01d9 B5       		.byte	0xb5
 330 01da 10010000 		.4byte	0x110
 331 01de 20       		.byte	0x20
 332 01df 06       		.uleb128 0x6
 333 01e0 56060000 		.4byte	.LASF40
 334 01e4 07       		.byte	0x7
 335 01e5 B9       		.byte	0xb9
 336 01e6 05010000 		.4byte	0x105
 337 01ea 21       		.byte	0x21
 338 01eb 06       		.uleb128 0x6
 339 01ec E0000000 		.4byte	.LASF41
ARM GAS  /tmp/ccp4wxgw.s 			page 7


 340 01f0 07       		.byte	0x7
 341 01f1 BE       		.byte	0xbe
 342 01f2 1B010000 		.4byte	0x11b
 343 01f6 22       		.byte	0x22
 344 01f7 08       		.uleb128 0x8
 345 01f8 7500     		.ascii	"u\000"
 346 01fa 07       		.byte	0x7
 347 01fb 0F01     		.2byte	0x10f
 348 01fd AC050000 		.4byte	0x5ac
 349 0201 24       		.byte	0x24
 350 0202 09       		.uleb128 0x9
 351 0203 9E010000 		.4byte	.LASF42
 352 0207 07       		.byte	0x7
 353 0208 1401     		.2byte	0x114
 354 020a 62020000 		.4byte	0x262
 355 020e 28       		.byte	0x28
 356 020f 09       		.uleb128 0x9
 357 0210 1A010000 		.4byte	.LASF43
 358 0214 07       		.byte	0x7
 359 0215 1A01     		.2byte	0x11a
 360 0217 86020000 		.4byte	0x286
 361 021b 2C       		.byte	0x2c
 362 021c 09       		.uleb128 0x9
 363 021d A5020000 		.4byte	.LASF44
 364 0221 07       		.byte	0x7
 365 0222 2001     		.2byte	0x120
 366 0224 3C010000 		.4byte	0x13c
 367 0228 34       		.byte	0x34
 368 0229 09       		.uleb128 0x9
 369 022a 77060000 		.4byte	.LASF45
 370 022e 07       		.byte	0x7
 371 022f 2701     		.2byte	0x127
 372 0231 71060000 		.4byte	0x671
 373 0235 38       		.byte	0x38
 374 0236 09       		.uleb128 0x9
 375 0237 CC040000 		.4byte	.LASF46
 376 023b 07       		.byte	0x7
 377 023c 2B01     		.2byte	0x12b
 378 023e 26010000 		.4byte	0x126
 379 0242 3C       		.byte	0x3c
 380 0243 09       		.uleb128 0x9
 381 0244 76020000 		.4byte	.LASF47
 382 0248 07       		.byte	0x7
 383 0249 3201     		.2byte	0x132
 384 024b 39030000 		.4byte	0x339
 385 024f 40       		.byte	0x40
 386 0250 00       		.byte	0
 387 0251 03       		.uleb128 0x3
 388 0252 41030000 		.4byte	.LASF48
 389 0256 06       		.byte	0x6
 390 0257 44       		.byte	0x44
 391 0258 5C020000 		.4byte	0x25c
 392 025c 0A       		.uleb128 0xa
 393 025d 04       		.byte	0x4
 394 025e 68010000 		.4byte	0x168
 395 0262 03       		.uleb128 0x3
 396 0263 63060000 		.4byte	.LASF49
ARM GAS  /tmp/ccp4wxgw.s 			page 8


 397 0267 06       		.byte	0x6
 398 0268 49       		.byte	0x49
 399 0269 6D020000 		.4byte	0x26d
 400 026d 05       		.uleb128 0x5
 401 026e A9040000 		.4byte	.LASF51
 402 0272 04       		.byte	0x4
 403 0273 07       		.byte	0x7
 404 0274 88       		.byte	0x88
 405 0275 86020000 		.4byte	0x286
 406 0279 06       		.uleb128 0x6
 407 027a C4000000 		.4byte	.LASF52
 408 027e 07       		.byte	0x7
 409 027f 89       		.byte	0x89
 410 0280 5C020000 		.4byte	0x25c
 411 0284 00       		.byte	0
 412 0285 00       		.byte	0
 413 0286 03       		.uleb128 0x3
 414 0287 5B040000 		.4byte	.LASF53
 415 028b 06       		.byte	0x6
 416 028c 50       		.byte	0x50
 417 028d 91020000 		.4byte	0x291
 418 0291 05       		.uleb128 0x5
 419 0292 C9000000 		.4byte	.LASF54
 420 0296 08       		.byte	0x8
 421 0297 07       		.byte	0x7
 422 0298 8F       		.byte	0x8f
 423 0299 B6020000 		.4byte	0x2b6
 424 029d 06       		.uleb128 0x6
 425 029e C4000000 		.4byte	.LASF52
 426 02a2 07       		.byte	0x7
 427 02a3 90       		.byte	0x90
 428 02a4 5C020000 		.4byte	0x25c
 429 02a8 00       		.byte	0
 430 02a9 06       		.uleb128 0x6
 431 02aa 00000000 		.4byte	.LASF55
 432 02ae 07       		.byte	0x7
 433 02af 91       		.byte	0x91
 434 02b0 5C020000 		.4byte	0x25c
 435 02b4 04       		.byte	0x4
 436 02b5 00       		.byte	0
 437 02b6 03       		.uleb128 0x3
 438 02b7 05000000 		.4byte	.LASF56
 439 02bb 06       		.byte	0x6
 440 02bc 57       		.byte	0x57
 441 02bd C1020000 		.4byte	0x2c1
 442 02c1 0B       		.uleb128 0xb
 443 02c2 D7020000 		.4byte	.LASF57
 444 02c6 1C       		.byte	0x1c
 445 02c7 07       		.byte	0x7
 446 02c8 6A01     		.2byte	0x16a
 447 02ca 1D030000 		.4byte	0x31d
 448 02ce 09       		.uleb128 0x9
 449 02cf 70020000 		.4byte	.LASF33
 450 02d3 07       		.byte	0x7
 451 02d4 6B01     		.2byte	0x16b
 452 02d6 86020000 		.4byte	0x286
 453 02da 00       		.byte	0
ARM GAS  /tmp/ccp4wxgw.s 			page 9


 454 02db 09       		.uleb128 0x9
 455 02dc A7030000 		.4byte	.LASF34
 456 02e0 07       		.byte	0x7
 457 02e1 6C01     		.2byte	0x16c
 458 02e3 26010000 		.4byte	0x126
 459 02e7 08       		.byte	0x8
 460 02e8 08       		.uleb128 0x8
 461 02e9 63747800 		.ascii	"ctx\000"
 462 02ed 07       		.byte	0x7
 463 02ee 6E01     		.2byte	0x16e
 464 02f0 F2040000 		.4byte	0x4f2
 465 02f4 0C       		.byte	0xc
 466 02f5 09       		.uleb128 0x9
 467 02f6 10030000 		.4byte	.LASF35
 468 02fa 07       		.byte	0x7
 469 02fb 7101     		.2byte	0x171
 470 02fd 5C020000 		.4byte	0x25c
 471 0301 10       		.byte	0x10
 472 0302 09       		.uleb128 0x9
 473 0303 74050000 		.4byte	.LASF36
 474 0307 07       		.byte	0x7
 475 0308 7201     		.2byte	0x172
 476 030a 5C020000 		.4byte	0x25c
 477 030e 14       		.byte	0x14
 478 030f 09       		.uleb128 0x9
 479 0310 AC030000 		.4byte	.LASF58
 480 0314 07       		.byte	0x7
 481 0315 7501     		.2byte	0x175
 482 0317 5C020000 		.4byte	0x25c
 483 031b 18       		.byte	0x18
 484 031c 00       		.byte	0
 485 031d 03       		.uleb128 0x3
 486 031e AF050000 		.4byte	.LASF59
 487 0322 06       		.byte	0x6
 488 0323 5C       		.byte	0x5c
 489 0324 28030000 		.4byte	0x328
 490 0328 0A       		.uleb128 0xa
 491 0329 04       		.byte	0x4
 492 032a 2E030000 		.4byte	0x32e
 493 032e 0C       		.uleb128 0xc
 494 032f 39030000 		.4byte	0x339
 495 0333 0D       		.uleb128 0xd
 496 0334 39030000 		.4byte	0x339
 497 0338 00       		.byte	0
 498 0339 0E       		.uleb128 0xe
 499 033a 04       		.byte	0x4
 500 033b 03       		.uleb128 0x3
 501 033c D1030000 		.4byte	.LASF60
 502 0340 06       		.byte	0x6
 503 0341 61       		.byte	0x61
 504 0342 46030000 		.4byte	0x346
 505 0346 0B       		.uleb128 0xb
 506 0347 ED050000 		.4byte	.LASF61
 507 034b 14       		.byte	0x14
 508 034c 07       		.byte	0x7
 509 034d 4501     		.2byte	0x145
 510 034f 95030000 		.4byte	0x395
ARM GAS  /tmp/ccp4wxgw.s 			page 10


 511 0353 09       		.uleb128 0x9
 512 0354 C4000000 		.4byte	.LASF52
 513 0358 07       		.byte	0x7
 514 0359 4601     		.2byte	0x146
 515 035b 8F060000 		.4byte	0x68f
 516 035f 00       		.byte	0
 517 0360 09       		.uleb128 0x9
 518 0361 00000000 		.4byte	.LASF55
 519 0365 07       		.byte	0x7
 520 0366 4701     		.2byte	0x147
 521 0368 8F060000 		.4byte	0x68f
 522 036c 04       		.byte	0x4
 523 036d 09       		.uleb128 0x9
 524 036e 19000000 		.4byte	.LASF62
 525 0372 07       		.byte	0x7
 526 0373 4801     		.2byte	0x148
 527 0375 5D010000 		.4byte	0x15d
 528 0379 08       		.byte	0x8
 529 037a 09       		.uleb128 0x9
 530 037b 4C010000 		.4byte	.LASF63
 531 037f 07       		.byte	0x7
 532 0380 4901     		.2byte	0x149
 533 0382 1D030000 		.4byte	0x31d
 534 0386 0C       		.byte	0xc
 535 0387 08       		.uleb128 0x8
 536 0388 70617200 		.ascii	"par\000"
 537 038c 07       		.byte	0x7
 538 038d 4B01     		.2byte	0x14b
 539 038f 39030000 		.4byte	0x339
 540 0393 10       		.byte	0x10
 541 0394 00       		.byte	0
 542 0395 03       		.uleb128 0x3
 543 0396 96000000 		.4byte	.LASF64
 544 039a 06       		.byte	0x6
 545 039b 66       		.byte	0x66
 546 039c A0030000 		.4byte	0x3a0
 547 03a0 0B       		.uleb128 0xb
 548 03a1 5D030000 		.4byte	.LASF65
 549 03a5 10       		.byte	0x10
 550 03a6 07       		.byte	0x7
 551 03a7 5501     		.2byte	0x155
 552 03a9 E2030000 		.4byte	0x3e2
 553 03ad 09       		.uleb128 0x9
 554 03ae C4000000 		.4byte	.LASF52
 555 03b2 07       		.byte	0x7
 556 03b3 5601     		.2byte	0x156
 557 03b5 8F060000 		.4byte	0x68f
 558 03b9 00       		.byte	0
 559 03ba 09       		.uleb128 0x9
 560 03bb 00000000 		.4byte	.LASF55
 561 03bf 07       		.byte	0x7
 562 03c0 5801     		.2byte	0x158
 563 03c2 8F060000 		.4byte	0x68f
 564 03c6 04       		.byte	0x4
 565 03c7 09       		.uleb128 0x9
 566 03c8 19000000 		.4byte	.LASF62
 567 03cc 07       		.byte	0x7
ARM GAS  /tmp/ccp4wxgw.s 			page 11


 568 03cd 5A01     		.2byte	0x15a
 569 03cf 5D010000 		.4byte	0x15d
 570 03d3 08       		.byte	0x8
 571 03d4 09       		.uleb128 0x9
 572 03d5 27040000 		.4byte	.LASF66
 573 03d9 07       		.byte	0x7
 574 03da 6201     		.2byte	0x162
 575 03dc 5D010000 		.4byte	0x15d
 576 03e0 0C       		.byte	0xc
 577 03e1 00       		.byte	0
 578 03e2 03       		.uleb128 0x3
 579 03e3 4C000000 		.4byte	.LASF67
 580 03e7 06       		.byte	0x6
 581 03e8 6B       		.byte	0x6b
 582 03e9 ED030000 		.4byte	0x3ed
 583 03ed 0B       		.uleb128 0xb
 584 03ee 8E010000 		.4byte	.LASF68
 585 03f2 04       		.byte	0x4
 586 03f3 07       		.byte	0x7
 587 03f4 7C01     		.2byte	0x17c
 588 03f6 08040000 		.4byte	0x408
 589 03fa 09       		.uleb128 0x9
 590 03fb B8050000 		.4byte	.LASF69
 591 03ff 07       		.byte	0x7
 592 0400 8401     		.2byte	0x184
 593 0402 95060000 		.4byte	0x695
 594 0406 00       		.byte	0
 595 0407 00       		.byte	0
 596 0408 03       		.uleb128 0x3
 597 0409 AE020000 		.4byte	.LASF70
 598 040d 06       		.byte	0x6
 599 040e 70       		.byte	0x70
 600 040f 13040000 		.4byte	0x413
 601 0413 0B       		.uleb128 0xb
 602 0414 30010000 		.4byte	.LASF71
 603 0418 78       		.byte	0x78
 604 0419 07       		.byte	0x7
 605 041a 9C01     		.2byte	0x19c
 606 041c 61040000 		.4byte	0x461
 607 0420 09       		.uleb128 0x9
 608 0421 3B060000 		.4byte	.LASF72
 609 0425 07       		.byte	0x7
 610 0426 A001     		.2byte	0x1a0
 611 0428 B6020000 		.4byte	0x2b6
 612 042c 00       		.byte	0
 613 042d 09       		.uleb128 0x9
 614 042e 13010000 		.4byte	.LASF73
 615 0432 07       		.byte	0x7
 616 0433 A401     		.2byte	0x1a4
 617 0435 95030000 		.4byte	0x395
 618 0439 1C       		.byte	0x1c
 619 043a 08       		.uleb128 0x8
 620 043b 64626700 		.ascii	"dbg\000"
 621 043f 07       		.byte	0x7
 622 0440 A801     		.2byte	0x1a8
 623 0442 E2030000 		.4byte	0x3e2
 624 0446 2C       		.byte	0x2c
ARM GAS  /tmp/ccp4wxgw.s 			page 12


 625 0447 09       		.uleb128 0x9
 626 0448 94020000 		.4byte	.LASF74
 627 044c 07       		.byte	0x7
 628 044d AC01     		.2byte	0x1ac
 629 044f 68010000 		.4byte	0x168
 630 0453 30       		.byte	0x30
 631 0454 08       		.uleb128 0x8
 632 0455 746D00   		.ascii	"tm\000"
 633 0458 07       		.byte	0x7
 634 0459 B101     		.2byte	0x1b1
 635 045b A1050000 		.4byte	0x5a1
 636 045f 74       		.byte	0x74
 637 0460 00       		.byte	0
 638 0461 04       		.uleb128 0x4
 639 0462 04       		.byte	0x4
 640 0463 07       		.byte	0x7
 641 0464 38030000 		.4byte	.LASF75
 642 0468 0F       		.uleb128 0xf
 643 0469 E4000000 		.4byte	0xe4
 644 046d 10       		.uleb128 0x10
 645 046e 1C       		.byte	0x1c
 646 046f 08       		.byte	0x8
 647 0470 0803     		.2byte	0x308
 648 0472 D0040000 		.4byte	0x4d0
 649 0476 08       		.uleb128 0x8
 650 0477 535200   		.ascii	"SR\000"
 651 047a 08       		.byte	0x8
 652 047b 0A03     		.2byte	0x30a
 653 047d 68040000 		.4byte	0x468
 654 0481 00       		.byte	0
 655 0482 08       		.uleb128 0x8
 656 0483 445200   		.ascii	"DR\000"
 657 0486 08       		.byte	0x8
 658 0487 0B03     		.2byte	0x30b
 659 0489 68040000 		.4byte	0x468
 660 048d 04       		.byte	0x4
 661 048e 08       		.uleb128 0x8
 662 048f 42525200 		.ascii	"BRR\000"
 663 0493 08       		.byte	0x8
 664 0494 0C03     		.2byte	0x30c
 665 0496 68040000 		.4byte	0x468
 666 049a 08       		.byte	0x8
 667 049b 08       		.uleb128 0x8
 668 049c 43523100 		.ascii	"CR1\000"
 669 04a0 08       		.byte	0x8
 670 04a1 0D03     		.2byte	0x30d
 671 04a3 68040000 		.4byte	0x468
 672 04a7 0C       		.byte	0xc
 673 04a8 08       		.uleb128 0x8
 674 04a9 43523200 		.ascii	"CR2\000"
 675 04ad 08       		.byte	0x8
 676 04ae 0E03     		.2byte	0x30e
 677 04b0 68040000 		.4byte	0x468
 678 04b4 10       		.byte	0x10
 679 04b5 08       		.uleb128 0x8
 680 04b6 43523300 		.ascii	"CR3\000"
 681 04ba 08       		.byte	0x8
ARM GAS  /tmp/ccp4wxgw.s 			page 13


 682 04bb 0F03     		.2byte	0x30f
 683 04bd 68040000 		.4byte	0x468
 684 04c1 14       		.byte	0x14
 685 04c2 09       		.uleb128 0x9
 686 04c3 0E010000 		.4byte	.LASF76
 687 04c7 08       		.byte	0x8
 688 04c8 1003     		.2byte	0x310
 689 04ca 68040000 		.4byte	0x468
 690 04ce 18       		.byte	0x18
 691 04cf 00       		.byte	0
 692 04d0 11       		.uleb128 0x11
 693 04d1 BA020000 		.4byte	.LASF77
 694 04d5 08       		.byte	0x8
 695 04d6 1103     		.2byte	0x311
 696 04d8 6D040000 		.4byte	0x46d
 697 04dc 03       		.uleb128 0x3
 698 04dd 7B010000 		.4byte	.LASF78
 699 04e1 09       		.byte	0x9
 700 04e2 65       		.byte	0x65
 701 04e3 39030000 		.4byte	0x339
 702 04e7 03       		.uleb128 0x3
 703 04e8 05030000 		.4byte	.LASF79
 704 04ec 09       		.byte	0x9
 705 04ed 6D       		.byte	0x6d
 706 04ee EF000000 		.4byte	0xef
 707 04f2 05       		.uleb128 0x5
 708 04f3 89030000 		.4byte	.LASF80
 709 04f7 04       		.byte	0x4
 710 04f8 09       		.byte	0x9
 711 04f9 89       		.byte	0x89
 712 04fa 0A050000 		.4byte	0x50a
 713 04fe 07       		.uleb128 0x7
 714 04ff 737000   		.ascii	"sp\000"
 715 0502 09       		.byte	0x9
 716 0503 8A       		.byte	0x8a
 717 0504 86050000 		.4byte	0x586
 718 0508 00       		.byte	0
 719 0509 00       		.byte	0
 720 050a 0B       		.uleb128 0xb
 721 050b 40000000 		.4byte	.LASF81
 722 050f 24       		.byte	0x24
 723 0510 0A       		.byte	0xa
 724 0511 5901     		.2byte	0x159
 725 0513 86050000 		.4byte	0x586
 726 0517 08       		.uleb128 0x8
 727 0518 723400   		.ascii	"r4\000"
 728 051b 0A       		.byte	0xa
 729 051c 6C01     		.2byte	0x16c
 730 051e DC040000 		.4byte	0x4dc
 731 0522 00       		.byte	0
 732 0523 08       		.uleb128 0x8
 733 0524 723500   		.ascii	"r5\000"
 734 0527 0A       		.byte	0xa
 735 0528 6D01     		.2byte	0x16d
 736 052a DC040000 		.4byte	0x4dc
 737 052e 04       		.byte	0x4
 738 052f 08       		.uleb128 0x8
ARM GAS  /tmp/ccp4wxgw.s 			page 14


 739 0530 723600   		.ascii	"r6\000"
 740 0533 0A       		.byte	0xa
 741 0534 6E01     		.2byte	0x16e
 742 0536 DC040000 		.4byte	0x4dc
 743 053a 08       		.byte	0x8
 744 053b 08       		.uleb128 0x8
 745 053c 723700   		.ascii	"r7\000"
 746 053f 0A       		.byte	0xa
 747 0540 6F01     		.2byte	0x16f
 748 0542 DC040000 		.4byte	0x4dc
 749 0546 0C       		.byte	0xc
 750 0547 08       		.uleb128 0x8
 751 0548 723800   		.ascii	"r8\000"
 752 054b 0A       		.byte	0xa
 753 054c 7001     		.2byte	0x170
 754 054e DC040000 		.4byte	0x4dc
 755 0552 10       		.byte	0x10
 756 0553 08       		.uleb128 0x8
 757 0554 723900   		.ascii	"r9\000"
 758 0557 0A       		.byte	0xa
 759 0558 7101     		.2byte	0x171
 760 055a DC040000 		.4byte	0x4dc
 761 055e 14       		.byte	0x14
 762 055f 08       		.uleb128 0x8
 763 0560 72313000 		.ascii	"r10\000"
 764 0564 0A       		.byte	0xa
 765 0565 7201     		.2byte	0x172
 766 0567 DC040000 		.4byte	0x4dc
 767 056b 18       		.byte	0x18
 768 056c 08       		.uleb128 0x8
 769 056d 72313100 		.ascii	"r11\000"
 770 0571 0A       		.byte	0xa
 771 0572 7301     		.2byte	0x173
 772 0574 DC040000 		.4byte	0x4dc
 773 0578 1C       		.byte	0x1c
 774 0579 08       		.uleb128 0x8
 775 057a 6C7200   		.ascii	"lr\000"
 776 057d 0A       		.byte	0xa
 777 057e 7401     		.2byte	0x174
 778 0580 DC040000 		.4byte	0x4dc
 779 0584 20       		.byte	0x20
 780 0585 00       		.byte	0
 781 0586 0A       		.uleb128 0xa
 782 0587 04       		.byte	0x4
 783 0588 0A050000 		.4byte	0x50a
 784 058c 12       		.uleb128 0x12
 785 058d 04       		.byte	0x4
 786 058e 0B       		.byte	0xb
 787 058f 38       		.byte	0x38
 788 0590 A1050000 		.4byte	0x5a1
 789 0594 06       		.uleb128 0x6
 790 0595 C2050000 		.4byte	.LASF82
 791 0599 0B       		.byte	0xb
 792 059a 3C       		.byte	0x3c
 793 059b FA000000 		.4byte	0xfa
 794 059f 00       		.byte	0
 795 05a0 00       		.byte	0
ARM GAS  /tmp/ccp4wxgw.s 			page 15


 796 05a1 03       		.uleb128 0x3
 797 05a2 96030000 		.4byte	.LASF83
 798 05a6 0B       		.byte	0xb
 799 05a7 3D       		.byte	0x3d
 800 05a8 8C050000 		.4byte	0x58c
 801 05ac 13       		.uleb128 0x13
 802 05ad 04       		.byte	0x4
 803 05ae 07       		.byte	0x7
 804 05af D2       		.byte	0xd2
 805 05b0 0F060000 		.4byte	0x60f
 806 05b4 14       		.uleb128 0x14
 807 05b5 1F000000 		.4byte	.LASF84
 808 05b9 07       		.byte	0x7
 809 05ba D9       		.byte	0xd9
 810 05bb 31010000 		.4byte	0x131
 811 05bf 14       		.uleb128 0x14
 812 05c0 7E000000 		.4byte	.LASF85
 813 05c4 07       		.byte	0x7
 814 05c5 E0       		.byte	0xe0
 815 05c6 31010000 		.4byte	0x131
 816 05ca 14       		.uleb128 0x14
 817 05cb 5C060000 		.4byte	.LASF86
 818 05cf 07       		.byte	0x7
 819 05d0 E7       		.byte	0xe7
 820 05d1 39030000 		.4byte	0x339
 821 05d5 14       		.uleb128 0x14
 822 05d6 1F020000 		.4byte	.LASF87
 823 05da 07       		.byte	0x7
 824 05db EE       		.byte	0xee
 825 05dc 0F060000 		.4byte	0x60f
 826 05e0 14       		.uleb128 0x14
 827 05e1 8E000000 		.4byte	.LASF88
 828 05e5 07       		.byte	0x7
 829 05e6 F3       		.byte	0xf3
 830 05e7 31010000 		.4byte	0x131
 831 05eb 14       		.uleb128 0x14
 832 05ec 11020000 		.4byte	.LASF89
 833 05f0 07       		.byte	0x7
 834 05f1 FC       		.byte	0xfc
 835 05f2 3A060000 		.4byte	0x63a
 836 05f6 15       		.uleb128 0x15
 837 05f7 98040000 		.4byte	.LASF90
 838 05fb 07       		.byte	0x7
 839 05fc 0501     		.2byte	0x105
 840 05fe 71060000 		.4byte	0x671
 841 0602 15       		.uleb128 0x15
 842 0603 35040000 		.4byte	.LASF91
 843 0607 07       		.byte	0x7
 844 0608 0D01     		.2byte	0x10d
 845 060a 3C010000 		.4byte	0x13c
 846 060e 00       		.byte	0
 847 060f 0A       		.uleb128 0xa
 848 0610 04       		.byte	0x4
 849 0611 51020000 		.4byte	0x251
 850 0615 05       		.uleb128 0x5
 851 0616 70040000 		.4byte	.LASF92
 852 061a 0C       		.byte	0xc
ARM GAS  /tmp/ccp4wxgw.s 			page 16


 853 061b 0C       		.byte	0xc
 854 061c 34       		.byte	0x34
 855 061d 3A060000 		.4byte	0x63a
 856 0621 06       		.uleb128 0x6
 857 0622 70020000 		.4byte	.LASF33
 858 0626 0C       		.byte	0xc
 859 0627 35       		.byte	0x35
 860 0628 86020000 		.4byte	0x286
 861 062c 00       		.byte	0
 862 062d 07       		.uleb128 0x7
 863 062e 636E7400 		.ascii	"cnt\000"
 864 0632 0C       		.byte	0xc
 865 0633 37       		.byte	0x37
 866 0634 52010000 		.4byte	0x152
 867 0638 08       		.byte	0x8
 868 0639 00       		.byte	0
 869 063a 0A       		.uleb128 0xa
 870 063b 04       		.byte	0x4
 871 063c 15060000 		.4byte	0x615
 872 0640 05       		.uleb128 0x5
 873 0641 29060000 		.4byte	.LASF93
 874 0645 10       		.byte	0x10
 875 0646 0D       		.byte	0xd
 876 0647 39       		.byte	0x39
 877 0648 71060000 		.4byte	0x671
 878 064c 06       		.uleb128 0x6
 879 064d 70020000 		.4byte	.LASF33
 880 0651 0D       		.byte	0xd
 881 0652 3A       		.byte	0x3a
 882 0653 86020000 		.4byte	0x286
 883 0657 00       		.byte	0
 884 0658 06       		.uleb128 0x6
 885 0659 B9040000 		.4byte	.LASF94
 886 065d 0D       		.byte	0xd
 887 065e 3C       		.byte	0x3c
 888 065f 5C020000 		.4byte	0x25c
 889 0663 08       		.byte	0x8
 890 0664 06       		.uleb128 0x6
 891 0665 C4000000 		.4byte	.LASF52
 892 0669 0D       		.byte	0xd
 893 066a 3E       		.byte	0x3e
 894 066b A5060000 		.4byte	0x6a5
 895 066f 0C       		.byte	0xc
 896 0670 00       		.byte	0
 897 0671 0A       		.uleb128 0xa
 898 0672 04       		.byte	0x4
 899 0673 40060000 		.4byte	0x640
 900 0677 0A       		.uleb128 0xa
 901 0678 04       		.byte	0x4
 902 0679 7D060000 		.4byte	0x67d
 903 067d 16       		.uleb128 0x16
 904 067e 82060000 		.4byte	0x682
 905 0682 04       		.uleb128 0x4
 906 0683 01       		.byte	0x1
 907 0684 08       		.byte	0x8
 908 0685 6F050000 		.4byte	.LASF95
 909 0689 0A       		.uleb128 0xa
ARM GAS  /tmp/ccp4wxgw.s 			page 17


 910 068a 04       		.byte	0x4
 911 068b E7040000 		.4byte	0x4e7
 912 068f 0A       		.uleb128 0xa
 913 0690 04       		.byte	0x4
 914 0691 3B030000 		.4byte	0x33b
 915 0695 0F       		.uleb128 0xf
 916 0696 77060000 		.4byte	0x677
 917 069a 03       		.uleb128 0x3
 918 069b B3010000 		.4byte	.LASF96
 919 069f 0D       		.byte	0xd
 920 06a0 34       		.byte	0x34
 921 06a1 40060000 		.4byte	0x640
 922 06a5 0A       		.uleb128 0xa
 923 06a6 04       		.byte	0x4
 924 06a7 9A060000 		.4byte	0x69a
 925 06ab 03       		.uleb128 0x3
 926 06ac C9050000 		.4byte	.LASF97
 927 06b0 0E       		.byte	0xe
 928 06b1 34       		.byte	0x34
 929 06b2 B6060000 		.4byte	0x6b6
 930 06b6 05       		.uleb128 0x5
 931 06b7 88060000 		.4byte	.LASF98
 932 06bb 14       		.byte	0x14
 933 06bc 0E       		.byte	0xe
 934 06bd 39       		.byte	0x39
 935 06be FF060000 		.4byte	0x6ff
 936 06c2 06       		.uleb128 0x6
 937 06c3 C4000000 		.4byte	.LASF52
 938 06c7 0E       		.byte	0xe
 939 06c8 3A       		.byte	0x3a
 940 06c9 FF060000 		.4byte	0x6ff
 941 06cd 00       		.byte	0
 942 06ce 06       		.uleb128 0x6
 943 06cf 54030000 		.4byte	.LASF99
 944 06d3 0E       		.byte	0xe
 945 06d4 3D       		.byte	0x3d
 946 06d5 5C020000 		.4byte	0x25c
 947 06d9 04       		.byte	0x4
 948 06da 06       		.uleb128 0x6
 949 06db 87040000 		.4byte	.LASF100
 950 06df 0E       		.byte	0xe
 951 06e0 3F       		.byte	0x3f
 952 06e1 3C010000 		.4byte	0x13c
 953 06e5 08       		.byte	0x8
 954 06e6 06       		.uleb128 0x6
 955 06e7 56060000 		.4byte	.LASF40
 956 06eb 0E       		.byte	0xe
 957 06ec 41       		.byte	0x41
 958 06ed 47010000 		.4byte	0x147
 959 06f1 0C       		.byte	0xc
 960 06f2 06       		.uleb128 0x6
 961 06f3 61010000 		.4byte	.LASF101
 962 06f7 0E       		.byte	0xe
 963 06f8 43       		.byte	0x43
 964 06f9 47010000 		.4byte	0x147
 965 06fd 10       		.byte	0x10
 966 06fe 00       		.byte	0
ARM GAS  /tmp/ccp4wxgw.s 			page 18


 967 06ff 0A       		.uleb128 0xa
 968 0700 04       		.byte	0x4
 969 0701 AB060000 		.4byte	0x6ab
 970 0705 05       		.uleb128 0x5
 971 0706 41060000 		.4byte	.LASF102
 972 070a 04       		.byte	0x4
 973 070b 0E       		.byte	0xe
 974 070c 4A       		.byte	0x4a
 975 070d 1E070000 		.4byte	0x71e
 976 0711 06       		.uleb128 0x6
 977 0712 C4000000 		.4byte	.LASF52
 978 0716 0E       		.byte	0xe
 979 0717 4B       		.byte	0x4b
 980 0718 FF060000 		.4byte	0x6ff
 981 071c 00       		.byte	0
 982 071d 00       		.byte	0
 983 071e 03       		.uleb128 0x3
 984 071f D0010000 		.4byte	.LASF103
 985 0723 0E       		.byte	0xe
 986 0724 4E       		.byte	0x4e
 987 0725 05070000 		.4byte	0x705
 988 0729 04       		.uleb128 0x4
 989 072a 01       		.byte	0x1
 990 072b 02       		.byte	0x2
 991 072c 01040000 		.4byte	.LASF104
 992 0730 0A       		.uleb128 0xa
 993 0731 04       		.byte	0x4
 994 0732 B8000000 		.4byte	0xb8
 995 0736 05       		.uleb128 0x5
 996 0737 43040000 		.4byte	.LASF105
 997 073b 10       		.byte	0x10
 998 073c 0F       		.byte	0xf
 999 073d 46       		.byte	0x46
 1000 073e 73070000 		.4byte	0x773
 1001 0742 06       		.uleb128 0x6
 1002 0743 16030000 		.4byte	.LASF106
 1003 0747 0F       		.byte	0xf
 1004 0748 47       		.byte	0x47
 1005 0749 97070000 		.4byte	0x797
 1006 074d 00       		.byte	0
 1007 074e 06       		.uleb128 0x6
 1008 074f 6A050000 		.4byte	.LASF107
 1009 0753 0F       		.byte	0xf
 1010 0754 47       		.byte	0x47
 1011 0755 B6070000 		.4byte	0x7b6
 1012 0759 04       		.byte	0x4
 1013 075a 07       		.uleb128 0x7
 1014 075b 70757400 		.ascii	"put\000"
 1015 075f 0F       		.byte	0xf
 1016 0760 47       		.byte	0x47
 1017 0761 D0070000 		.4byte	0x7d0
 1018 0765 08       		.byte	0x8
 1019 0766 07       		.uleb128 0x7
 1020 0767 67657400 		.ascii	"get\000"
 1021 076b 0F       		.byte	0xf
 1022 076c 47       		.byte	0x47
 1023 076d E5070000 		.4byte	0x7e5
ARM GAS  /tmp/ccp4wxgw.s 			page 19


 1024 0771 0C       		.byte	0xc
 1025 0772 00       		.byte	0
 1026 0773 17       		.uleb128 0x17
 1027 0774 2C000000 		.4byte	0x2c
 1028 0778 8C070000 		.4byte	0x78c
 1029 077c 0D       		.uleb128 0xd
 1030 077d 39030000 		.4byte	0x339
 1031 0781 0D       		.uleb128 0xd
 1032 0782 8C070000 		.4byte	0x78c
 1033 0786 0D       		.uleb128 0xd
 1034 0787 2C000000 		.4byte	0x2c
 1035 078b 00       		.byte	0
 1036 078c 0A       		.uleb128 0xa
 1037 078d 04       		.byte	0x4
 1038 078e 92070000 		.4byte	0x792
 1039 0792 16       		.uleb128 0x16
 1040 0793 B8000000 		.4byte	0xb8
 1041 0797 0A       		.uleb128 0xa
 1042 0798 04       		.byte	0x4
 1043 0799 73070000 		.4byte	0x773
 1044 079d 17       		.uleb128 0x17
 1045 079e 2C000000 		.4byte	0x2c
 1046 07a2 B6070000 		.4byte	0x7b6
 1047 07a6 0D       		.uleb128 0xd
 1048 07a7 39030000 		.4byte	0x339
 1049 07ab 0D       		.uleb128 0xd
 1050 07ac 30070000 		.4byte	0x730
 1051 07b0 0D       		.uleb128 0xd
 1052 07b1 2C000000 		.4byte	0x2c
 1053 07b5 00       		.byte	0
 1054 07b6 0A       		.uleb128 0xa
 1055 07b7 04       		.byte	0x4
 1056 07b8 9D070000 		.4byte	0x79d
 1057 07bc 17       		.uleb128 0x17
 1058 07bd 31010000 		.4byte	0x131
 1059 07c1 D0070000 		.4byte	0x7d0
 1060 07c5 0D       		.uleb128 0xd
 1061 07c6 39030000 		.4byte	0x339
 1062 07ca 0D       		.uleb128 0xd
 1063 07cb B8000000 		.4byte	0xb8
 1064 07cf 00       		.byte	0
 1065 07d0 0A       		.uleb128 0xa
 1066 07d1 04       		.byte	0x4
 1067 07d2 BC070000 		.4byte	0x7bc
 1068 07d6 17       		.uleb128 0x17
 1069 07d7 31010000 		.4byte	0x131
 1070 07db E5070000 		.4byte	0x7e5
 1071 07df 0D       		.uleb128 0xd
 1072 07e0 39030000 		.4byte	0x339
 1073 07e4 00       		.byte	0
 1074 07e5 0A       		.uleb128 0xa
 1075 07e6 04       		.byte	0x4
 1076 07e7 D6070000 		.4byte	0x7d6
 1077 07eb 12       		.uleb128 0x12
 1078 07ec 04       		.byte	0x4
 1079 07ed 0F       		.byte	0xf
 1080 07ee 4F       		.byte	0x4f
ARM GAS  /tmp/ccp4wxgw.s 			page 20


 1081 07ef 00080000 		.4byte	0x800
 1082 07f3 07       		.uleb128 0x7
 1083 07f4 766D7400 		.ascii	"vmt\000"
 1084 07f8 0F       		.byte	0xf
 1085 07f9 51       		.byte	0x51
 1086 07fa 00080000 		.4byte	0x800
 1087 07fe 00       		.byte	0
 1088 07ff 00       		.byte	0
 1089 0800 0A       		.uleb128 0xa
 1090 0801 04       		.byte	0x4
 1091 0802 06080000 		.4byte	0x806
 1092 0806 16       		.uleb128 0x16
 1093 0807 36070000 		.4byte	0x736
 1094 080b 03       		.uleb128 0x3
 1095 080c BB010000 		.4byte	.LASF108
 1096 0810 0F       		.byte	0xf
 1097 0811 53       		.byte	0x53
 1098 0812 EB070000 		.4byte	0x7eb
 1099 0816 17       		.uleb128 0x17
 1100 0817 31010000 		.4byte	0x131
 1101 081b 2F080000 		.4byte	0x82f
 1102 081f 0D       		.uleb128 0xd
 1103 0820 39030000 		.4byte	0x339
 1104 0824 0D       		.uleb128 0xd
 1105 0825 B8000000 		.4byte	0xb8
 1106 0829 0D       		.uleb128 0xd
 1107 082a 5D010000 		.4byte	0x15d
 1108 082e 00       		.byte	0
 1109 082f 0A       		.uleb128 0xa
 1110 0830 04       		.byte	0x4
 1111 0831 16080000 		.4byte	0x816
 1112 0835 17       		.uleb128 0x17
 1113 0836 31010000 		.4byte	0x131
 1114 083a 49080000 		.4byte	0x849
 1115 083e 0D       		.uleb128 0xd
 1116 083f 39030000 		.4byte	0x339
 1117 0843 0D       		.uleb128 0xd
 1118 0844 5D010000 		.4byte	0x15d
 1119 0848 00       		.byte	0
 1120 0849 0A       		.uleb128 0xa
 1121 084a 04       		.byte	0x4
 1122 084b 35080000 		.4byte	0x835
 1123 084f 17       		.uleb128 0x17
 1124 0850 2C000000 		.4byte	0x2c
 1125 0854 6D080000 		.4byte	0x86d
 1126 0858 0D       		.uleb128 0xd
 1127 0859 39030000 		.4byte	0x339
 1128 085d 0D       		.uleb128 0xd
 1129 085e 8C070000 		.4byte	0x78c
 1130 0862 0D       		.uleb128 0xd
 1131 0863 2C000000 		.4byte	0x2c
 1132 0867 0D       		.uleb128 0xd
 1133 0868 5D010000 		.4byte	0x15d
 1134 086c 00       		.byte	0
 1135 086d 0A       		.uleb128 0xa
 1136 086e 04       		.byte	0x4
 1137 086f 4F080000 		.4byte	0x84f
ARM GAS  /tmp/ccp4wxgw.s 			page 21


 1138 0873 17       		.uleb128 0x17
 1139 0874 2C000000 		.4byte	0x2c
 1140 0878 91080000 		.4byte	0x891
 1141 087c 0D       		.uleb128 0xd
 1142 087d 39030000 		.4byte	0x339
 1143 0881 0D       		.uleb128 0xd
 1144 0882 30070000 		.4byte	0x730
 1145 0886 0D       		.uleb128 0xd
 1146 0887 2C000000 		.4byte	0x2c
 1147 088b 0D       		.uleb128 0xd
 1148 088c 5D010000 		.4byte	0x15d
 1149 0890 00       		.byte	0
 1150 0891 0A       		.uleb128 0xa
 1151 0892 04       		.byte	0x4
 1152 0893 73080000 		.4byte	0x873
 1153 0897 0F       		.uleb128 0xf
 1154 0898 2C000000 		.4byte	0x2c
 1155 089c 03       		.uleb128 0x3
 1156 089d B9000000 		.4byte	.LASF109
 1157 08a1 10       		.byte	0x10
 1158 08a2 2A       		.byte	0x2a
 1159 08a3 A7080000 		.4byte	0x8a7
 1160 08a7 05       		.uleb128 0x5
 1161 08a8 2F030000 		.4byte	.LASF110
 1162 08ac 24       		.byte	0x24
 1163 08ad 10       		.byte	0x10
 1164 08ae 3B       		.byte	0x3b
 1165 08af 14090000 		.4byte	0x914
 1166 08b3 06       		.uleb128 0x6
 1167 08b4 E5000000 		.4byte	.LASF111
 1168 08b8 10       		.byte	0x10
 1169 08b9 3C       		.byte	0x3c
 1170 08ba 86020000 		.4byte	0x286
 1171 08be 00       		.byte	0
 1172 08bf 06       		.uleb128 0x6
 1173 08c0 8E040000 		.4byte	.LASF112
 1174 08c4 10       		.byte	0x10
 1175 08c5 3D       		.byte	0x3d
 1176 08c6 97080000 		.4byte	0x897
 1177 08ca 08       		.byte	0x8
 1178 08cb 06       		.uleb128 0x6
 1179 08cc 51010000 		.4byte	.LASF113
 1180 08d0 10       		.byte	0x10
 1181 08d1 3E       		.byte	0x3e
 1182 08d2 30070000 		.4byte	0x730
 1183 08d6 0C       		.byte	0xc
 1184 08d7 06       		.uleb128 0x6
 1185 08d8 23060000 		.4byte	.LASF114
 1186 08dc 10       		.byte	0x10
 1187 08dd 3F       		.byte	0x3f
 1188 08de 30070000 		.4byte	0x730
 1189 08e2 10       		.byte	0x10
 1190 08e3 06       		.uleb128 0x6
 1191 08e4 82020000 		.4byte	.LASF115
 1192 08e8 10       		.byte	0x10
 1193 08e9 41       		.byte	0x41
 1194 08ea 30070000 		.4byte	0x730
ARM GAS  /tmp/ccp4wxgw.s 			page 22


 1195 08ee 14       		.byte	0x14
 1196 08ef 06       		.uleb128 0x6
 1197 08f0 F1030000 		.4byte	.LASF116
 1198 08f4 10       		.byte	0x10
 1199 08f5 42       		.byte	0x42
 1200 08f6 30070000 		.4byte	0x730
 1201 08fa 18       		.byte	0x18
 1202 08fb 06       		.uleb128 0x6
 1203 08fc 32060000 		.4byte	.LASF117
 1204 0900 10       		.byte	0x10
 1205 0901 43       		.byte	0x43
 1206 0902 14090000 		.4byte	0x914
 1207 0906 1C       		.byte	0x1c
 1208 0907 06       		.uleb128 0x6
 1209 0908 5A010000 		.4byte	.LASF118
 1210 090c 10       		.byte	0x10
 1211 090d 44       		.byte	0x44
 1212 090e 39030000 		.4byte	0x339
 1213 0912 20       		.byte	0x20
 1214 0913 00       		.byte	0
 1215 0914 03       		.uleb128 0x3
 1216 0915 FB020000 		.4byte	.LASF119
 1217 0919 10       		.byte	0x10
 1218 091a 31       		.byte	0x31
 1219 091b 1F090000 		.4byte	0x91f
 1220 091f 0A       		.uleb128 0xa
 1221 0920 04       		.byte	0x4
 1222 0921 25090000 		.4byte	0x925
 1223 0925 0C       		.uleb128 0xc
 1224 0926 30090000 		.4byte	0x930
 1225 092a 0D       		.uleb128 0xd
 1226 092b 30090000 		.4byte	0x930
 1227 092f 00       		.byte	0
 1228 0930 0A       		.uleb128 0xa
 1229 0931 04       		.byte	0x4
 1230 0932 9C080000 		.4byte	0x89c
 1231 0936 03       		.uleb128 0x3
 1232 0937 1C030000 		.4byte	.LASF120
 1233 093b 10       		.byte	0x10
 1234 093c 7A       		.byte	0x7a
 1235 093d 9C080000 		.4byte	0x89c
 1236 0941 03       		.uleb128 0x3
 1237 0942 7A030000 		.4byte	.LASF121
 1238 0946 10       		.byte	0x10
 1239 0947 CA       		.byte	0xca
 1240 0948 9C080000 		.4byte	0x89c
 1241 094c 12       		.uleb128 0x12
 1242 094d 04       		.byte	0x4
 1243 094e 11       		.byte	0x11
 1244 094f E7       		.byte	0xe7
 1245 0950 6D090000 		.4byte	0x96d
 1246 0954 07       		.uleb128 0x7
 1247 0955 73657400 		.ascii	"set\000"
 1248 0959 11       		.byte	0x11
 1249 095a E8       		.byte	0xe8
 1250 095b CE000000 		.4byte	0xce
 1251 095f 00       		.byte	0
ARM GAS  /tmp/ccp4wxgw.s 			page 23


 1252 0960 06       		.uleb128 0x6
 1253 0961 74030000 		.4byte	.LASF122
 1254 0965 11       		.byte	0x11
 1255 0966 E9       		.byte	0xe9
 1256 0967 CE000000 		.4byte	0xce
 1257 096b 02       		.byte	0x2
 1258 096c 00       		.byte	0
 1259 096d 13       		.uleb128 0x13
 1260 096e 04       		.byte	0x4
 1261 096f 11       		.byte	0x11
 1262 0970 E5       		.byte	0xe5
 1263 0971 88090000 		.4byte	0x988
 1264 0975 18       		.uleb128 0x18
 1265 0976 5700     		.ascii	"W\000"
 1266 0978 11       		.byte	0x11
 1267 0979 E6       		.byte	0xe6
 1268 097a E4000000 		.4byte	0xe4
 1269 097e 18       		.uleb128 0x18
 1270 097f 4800     		.ascii	"H\000"
 1271 0981 11       		.byte	0x11
 1272 0982 EA       		.byte	0xea
 1273 0983 4C090000 		.4byte	0x94c
 1274 0987 00       		.byte	0
 1275 0988 12       		.uleb128 0x12
 1276 0989 2C       		.byte	0x2c
 1277 098a 11       		.byte	0x11
 1278 098b DD       		.byte	0xdd
 1279 098c 150A0000 		.4byte	0xa15
 1280 0990 06       		.uleb128 0x6
 1281 0991 5B000000 		.4byte	.LASF123
 1282 0995 11       		.byte	0x11
 1283 0996 DF       		.byte	0xdf
 1284 0997 68040000 		.4byte	0x468
 1285 099b 00       		.byte	0
 1286 099c 06       		.uleb128 0x6
 1287 099d 39000000 		.4byte	.LASF124
 1288 09a1 11       		.byte	0x11
 1289 09a2 E0       		.byte	0xe0
 1290 09a3 68040000 		.4byte	0x468
 1291 09a7 04       		.byte	0x4
 1292 09a8 06       		.uleb128 0x6
 1293 09a9 68010000 		.4byte	.LASF125
 1294 09ad 11       		.byte	0x11
 1295 09ae E1       		.byte	0xe1
 1296 09af 68040000 		.4byte	0x468
 1297 09b3 08       		.byte	0x8
 1298 09b4 06       		.uleb128 0x6
 1299 09b5 78000000 		.4byte	.LASF126
 1300 09b9 11       		.byte	0x11
 1301 09ba E2       		.byte	0xe2
 1302 09bb 68040000 		.4byte	0x468
 1303 09bf 0C       		.byte	0xc
 1304 09c0 07       		.uleb128 0x7
 1305 09c1 49445200 		.ascii	"IDR\000"
 1306 09c5 11       		.byte	0x11
 1307 09c6 E3       		.byte	0xe3
 1308 09c7 68040000 		.4byte	0x468
ARM GAS  /tmp/ccp4wxgw.s 			page 24


 1309 09cb 10       		.byte	0x10
 1310 09cc 07       		.uleb128 0x7
 1311 09cd 4F445200 		.ascii	"ODR\000"
 1312 09d1 11       		.byte	0x11
 1313 09d2 E4       		.byte	0xe4
 1314 09d3 68040000 		.4byte	0x468
 1315 09d7 14       		.byte	0x14
 1316 09d8 06       		.uleb128 0x6
 1317 09d9 09010000 		.4byte	.LASF127
 1318 09dd 11       		.byte	0x11
 1319 09de EB       		.byte	0xeb
 1320 09df 150A0000 		.4byte	0xa15
 1321 09e3 18       		.byte	0x18
 1322 09e4 06       		.uleb128 0x6
 1323 09e5 6B040000 		.4byte	.LASF128
 1324 09e9 11       		.byte	0x11
 1325 09ea EC       		.byte	0xec
 1326 09eb 68040000 		.4byte	0x468
 1327 09ef 1C       		.byte	0x1c
 1328 09f0 06       		.uleb128 0x6
 1329 09f1 C4030000 		.4byte	.LASF129
 1330 09f5 11       		.byte	0x11
 1331 09f6 ED       		.byte	0xed
 1332 09f7 68040000 		.4byte	0x468
 1333 09fb 20       		.byte	0x20
 1334 09fc 06       		.uleb128 0x6
 1335 09fd BF030000 		.4byte	.LASF130
 1336 0a01 11       		.byte	0x11
 1337 0a02 EE       		.byte	0xee
 1338 0a03 68040000 		.4byte	0x468
 1339 0a07 24       		.byte	0x24
 1340 0a08 07       		.uleb128 0x7
 1341 0a09 42525200 		.ascii	"BRR\000"
 1342 0a0d 11       		.byte	0x11
 1343 0a0e EF       		.byte	0xef
 1344 0a0f 68040000 		.4byte	0x468
 1345 0a13 28       		.byte	0x28
 1346 0a14 00       		.byte	0
 1347 0a15 0F       		.uleb128 0xf
 1348 0a16 6D090000 		.4byte	0x96d
 1349 0a1a 03       		.uleb128 0x3
 1350 0a1b A6010000 		.4byte	.LASF131
 1351 0a1f 11       		.byte	0x11
 1352 0a20 F0       		.byte	0xf0
 1353 0a21 88090000 		.4byte	0x988
 1354 0a25 19       		.uleb128 0x19
 1355 0a26 01       		.byte	0x1
 1356 0a27 12       		.byte	0x12
 1357 0a28 58       		.byte	0x58
 1358 0a29 400A0000 		.4byte	0xa40
 1359 0a2d 1A       		.uleb128 0x1a
 1360 0a2e 7D040000 		.4byte	.LASF132
 1361 0a32 00       		.sleb128 0
 1362 0a33 1A       		.uleb128 0x1a
 1363 0a34 E1030000 		.4byte	.LASF133
 1364 0a38 01       		.sleb128 1
 1365 0a39 1A       		.uleb128 0x1a
ARM GAS  /tmp/ccp4wxgw.s 			page 25


 1366 0a3a 06060000 		.4byte	.LASF134
 1367 0a3e 02       		.sleb128 2
 1368 0a3f 00       		.byte	0
 1369 0a40 03       		.uleb128 0x3
 1370 0a41 9F040000 		.4byte	.LASF135
 1371 0a45 12       		.byte	0x12
 1372 0a46 5C       		.byte	0x5c
 1373 0a47 250A0000 		.4byte	0xa25
 1374 0a4b 03       		.uleb128 0x3
 1375 0a4c BF040000 		.4byte	.LASF136
 1376 0a50 12       		.byte	0x12
 1377 0a51 61       		.byte	0x61
 1378 0a52 560A0000 		.4byte	0xa56
 1379 0a56 05       		.uleb128 0x5
 1380 0a57 BF040000 		.4byte	.LASF136
 1381 0a5b 7C       		.byte	0x7c
 1382 0a5c 12       		.byte	0x12
 1383 0a5d 7B       		.byte	0x7b
 1384 0a5e CD0A0000 		.4byte	0xacd
 1385 0a62 07       		.uleb128 0x7
 1386 0a63 766D7400 		.ascii	"vmt\000"
 1387 0a67 12       		.byte	0x12
 1388 0a68 7D       		.byte	0x7d
 1389 0a69 3A0B0000 		.4byte	0xb3a
 1390 0a6d 00       		.byte	0
 1391 0a6e 06       		.uleb128 0x6
 1392 0a6f 7C020000 		.4byte	.LASF137
 1393 0a73 12       		.byte	0x12
 1394 0a74 7E       		.byte	0x7e
 1395 0a75 1E070000 		.4byte	0x71e
 1396 0a79 04       		.byte	0x4
 1397 0a7a 06       		.uleb128 0x6
 1398 0a7b 2A010000 		.4byte	.LASF39
 1399 0a7f 12       		.byte	0x12
 1400 0a80 7E       		.byte	0x7e
 1401 0a81 400A0000 		.4byte	0xa40
 1402 0a85 08       		.byte	0x8
 1403 0a86 06       		.uleb128 0x6
 1404 0a87 18020000 		.4byte	.LASF138
 1405 0a8b 12       		.byte	0x12
 1406 0a8c 7E       		.byte	0x7e
 1407 0a8d 36090000 		.4byte	0x936
 1408 0a91 0C       		.byte	0xc
 1409 0a92 06       		.uleb128 0x6
 1410 0a93 3C040000 		.4byte	.LASF139
 1411 0a97 12       		.byte	0x12
 1412 0a98 7E       		.byte	0x7e
 1413 0a99 41090000 		.4byte	0x941
 1414 0a9d 30       		.byte	0x30
 1415 0a9e 07       		.uleb128 0x7
 1416 0a9f 696200   		.ascii	"ib\000"
 1417 0aa2 12       		.byte	0x12
 1418 0aa3 7E       		.byte	0x7e
 1419 0aa4 450B0000 		.4byte	0xb45
 1420 0aa8 54       		.byte	0x54
 1421 0aa9 07       		.uleb128 0x7
 1422 0aaa 6F6200   		.ascii	"ob\000"
ARM GAS  /tmp/ccp4wxgw.s 			page 26


 1423 0aad 12       		.byte	0x12
 1424 0aae 7E       		.byte	0x7e
 1425 0aaf 450B0000 		.4byte	0xb45
 1426 0ab3 64       		.byte	0x64
 1427 0ab4 06       		.uleb128 0x6
 1428 0ab5 E5010000 		.4byte	.LASF140
 1429 0ab9 12       		.byte	0x12
 1430 0aba 7E       		.byte	0x7e
 1431 0abb 550B0000 		.4byte	0xb55
 1432 0abf 74       		.byte	0x74
 1433 0ac0 06       		.uleb128 0x6
 1434 0ac1 87000000 		.4byte	.LASF141
 1435 0ac5 12       		.byte	0x12
 1436 0ac6 7E       		.byte	0x7e
 1437 0ac7 B8000000 		.4byte	0xb8
 1438 0acb 78       		.byte	0x78
 1439 0acc 00       		.byte	0
 1440 0acd 05       		.uleb128 0x5
 1441 0ace 01020000 		.4byte	.LASF142
 1442 0ad2 20       		.byte	0x20
 1443 0ad3 12       		.byte	0x12
 1444 0ad4 70       		.byte	0x70
 1445 0ad5 3A0B0000 		.4byte	0xb3a
 1446 0ad9 06       		.uleb128 0x6
 1447 0ada 16030000 		.4byte	.LASF106
 1448 0ade 12       		.byte	0x12
 1449 0adf 71       		.byte	0x71
 1450 0ae0 97070000 		.4byte	0x797
 1451 0ae4 00       		.byte	0
 1452 0ae5 06       		.uleb128 0x6
 1453 0ae6 6A050000 		.4byte	.LASF107
 1454 0aea 12       		.byte	0x12
 1455 0aeb 71       		.byte	0x71
 1456 0aec B6070000 		.4byte	0x7b6
 1457 0af0 04       		.byte	0x4
 1458 0af1 07       		.uleb128 0x7
 1459 0af2 70757400 		.ascii	"put\000"
 1460 0af6 12       		.byte	0x12
 1461 0af7 71       		.byte	0x71
 1462 0af8 D0070000 		.4byte	0x7d0
 1463 0afc 08       		.byte	0x8
 1464 0afd 07       		.uleb128 0x7
 1465 0afe 67657400 		.ascii	"get\000"
 1466 0b02 12       		.byte	0x12
 1467 0b03 71       		.byte	0x71
 1468 0b04 E5070000 		.4byte	0x7e5
 1469 0b08 0C       		.byte	0xc
 1470 0b09 06       		.uleb128 0x6
 1471 0b0a 2A030000 		.4byte	.LASF143
 1472 0b0e 12       		.byte	0x12
 1473 0b0f 71       		.byte	0x71
 1474 0b10 2F080000 		.4byte	0x82f
 1475 0b14 10       		.byte	0x10
 1476 0b15 06       		.uleb128 0x6
 1477 0b16 66020000 		.4byte	.LASF144
 1478 0b1a 12       		.byte	0x12
 1479 0b1b 71       		.byte	0x71
ARM GAS  /tmp/ccp4wxgw.s 			page 27


 1480 0b1c 49080000 		.4byte	0x849
 1481 0b20 14       		.byte	0x14
 1482 0b21 06       		.uleb128 0x6
 1483 0b22 C8020000 		.4byte	.LASF145
 1484 0b26 12       		.byte	0x12
 1485 0b27 71       		.byte	0x71
 1486 0b28 6D080000 		.4byte	0x86d
 1487 0b2c 18       		.byte	0x18
 1488 0b2d 06       		.uleb128 0x6
 1489 0b2e DA000000 		.4byte	.LASF146
 1490 0b32 12       		.byte	0x12
 1491 0b33 71       		.byte	0x71
 1492 0b34 91080000 		.4byte	0x891
 1493 0b38 1C       		.byte	0x1c
 1494 0b39 00       		.byte	0
 1495 0b3a 0A       		.uleb128 0xa
 1496 0b3b 04       		.byte	0x4
 1497 0b3c 400B0000 		.4byte	0xb40
 1498 0b40 16       		.uleb128 0x16
 1499 0b41 CD0A0000 		.4byte	0xacd
 1500 0b45 1B       		.uleb128 0x1b
 1501 0b46 B8000000 		.4byte	0xb8
 1502 0b4a 550B0000 		.4byte	0xb55
 1503 0b4e 1C       		.uleb128 0x1c
 1504 0b4f 61040000 		.4byte	0x461
 1505 0b53 0F       		.byte	0xf
 1506 0b54 00       		.byte	0
 1507 0b55 0A       		.uleb128 0xa
 1508 0b56 04       		.byte	0x4
 1509 0b57 D0040000 		.4byte	0x4d0
 1510 0b5b 1D       		.uleb128 0x1d
 1511 0b5c 72060000 		.4byte	.LASF151
 1512 0b60 01       		.byte	0x1
 1513 0b61 26       		.byte	0x26
 1514 0b62 25000000 		.4byte	0x25
 1515 0b66 00000000 		.4byte	.LFB279
 1516 0b6a 50000000 		.4byte	.LFE279-.LFB279
 1517 0b6e 01       		.uleb128 0x1
 1518 0b6f 9C       		.byte	0x9c
 1519 0b70 AB0B0000 		.4byte	0xbab
 1520 0b74 1E       		.uleb128 0x1e
 1521 0b75 30040000 		.4byte	.LASF152
 1522 0b79 01       		.byte	0x1
 1523 0b7a E2       		.byte	0xe2
 1524 0b7b AB0B0000 		.4byte	0xbab
 1525 0b7f 02       		.uleb128 0x2
 1526 0b80 91       		.byte	0x91
 1527 0b81 70       		.sleb128 -16
 1528 0b82 1F       		.uleb128 0x1f
 1529 0b83 0C000000 		.4byte	.LBB2
 1530 0b87 3A000000 		.4byte	.LBE2-.LBB2
 1531 0b8b 20       		.uleb128 0x20
 1532 0b8c 7A050000 		.4byte	.LASF153
 1533 0b90 01       		.byte	0x1
 1534 0b91 E7       		.byte	0xe7
 1535 0b92 25000000 		.4byte	0x25
 1536 0b96 9C0B0000 		.4byte	0xb9c
ARM GAS  /tmp/ccp4wxgw.s 			page 28


 1537 0b9a 21       		.uleb128 0x21
 1538 0b9b 00       		.byte	0
 1539 0b9c 22       		.uleb128 0x22
 1540 0b9d 97060000 		.4byte	.LASF154
 1541 0ba1 01       		.byte	0x1
 1542 0ba2 EB       		.byte	0xeb
 1543 0ba3 25000000 		.4byte	0x25
 1544 0ba7 21       		.uleb128 0x21
 1545 0ba8 00       		.byte	0
 1546 0ba9 00       		.byte	0
 1547 0baa 00       		.byte	0
 1548 0bab 1B       		.uleb128 0x1b
 1549 0bac C3000000 		.4byte	0xc3
 1550 0bb0 BB0B0000 		.4byte	0xbbb
 1551 0bb4 1C       		.uleb128 0x1c
 1552 0bb5 61040000 		.4byte	0x461
 1553 0bb9 02       		.byte	0x2
 1554 0bba 00       		.byte	0
 1555 0bbb 23       		.uleb128 0x23
 1556 0bbc AC000000 		.4byte	.LASF147
 1557 0bc0 14       		.byte	0x14
 1558 0bc1 4407     		.2byte	0x744
 1559 0bc3 C70B0000 		.4byte	0xbc7
 1560 0bc7 0F       		.uleb128 0xf
 1561 0bc8 D9000000 		.4byte	0xd9
 1562 0bcc 24       		.uleb128 0x24
 1563 0bcd 636800   		.ascii	"ch\000"
 1564 0bd0 07       		.byte	0x7
 1565 0bd1 D201     		.2byte	0x1d2
 1566 0bd3 08040000 		.4byte	0x408
 1567 0bd7 24       		.uleb128 0x24
 1568 0bd8 53443200 		.ascii	"SD2\000"
 1569 0bdc 13       		.byte	0x13
 1570 0bdd 4701     		.2byte	0x147
 1571 0bdf 4B0A0000 		.4byte	0xa4b
 1572 0be3 24       		.uleb128 0x24
 1573 0be4 53443300 		.ascii	"SD3\000"
 1574 0be8 13       		.byte	0x13
 1575 0be9 4A01     		.2byte	0x14a
 1576 0beb 4B0A0000 		.4byte	0xa4b
 1577 0bef 00       		.byte	0
 1578              		.section	.debug_abbrev,"",%progbits
 1579              	.Ldebug_abbrev0:
 1580 0000 01       		.uleb128 0x1
 1581 0001 11       		.uleb128 0x11
 1582 0002 01       		.byte	0x1
 1583 0003 25       		.uleb128 0x25
 1584 0004 0E       		.uleb128 0xe
 1585 0005 13       		.uleb128 0x13
 1586 0006 0B       		.uleb128 0xb
 1587 0007 03       		.uleb128 0x3
 1588 0008 0E       		.uleb128 0xe
 1589 0009 1B       		.uleb128 0x1b
 1590 000a 0E       		.uleb128 0xe
 1591 000b 11       		.uleb128 0x11
 1592 000c 01       		.uleb128 0x1
 1593 000d 12       		.uleb128 0x12
ARM GAS  /tmp/ccp4wxgw.s 			page 29


 1594 000e 06       		.uleb128 0x6
 1595 000f 10       		.uleb128 0x10
 1596 0010 17       		.uleb128 0x17
 1597 0011 00       		.byte	0
 1598 0012 00       		.byte	0
 1599 0013 02       		.uleb128 0x2
 1600 0014 24       		.uleb128 0x24
 1601 0015 00       		.byte	0
 1602 0016 0B       		.uleb128 0xb
 1603 0017 0B       		.uleb128 0xb
 1604 0018 3E       		.uleb128 0x3e
 1605 0019 0B       		.uleb128 0xb
 1606 001a 03       		.uleb128 0x3
 1607 001b 08       		.uleb128 0x8
 1608 001c 00       		.byte	0
 1609 001d 00       		.byte	0
 1610 001e 03       		.uleb128 0x3
 1611 001f 16       		.uleb128 0x16
 1612 0020 00       		.byte	0
 1613 0021 03       		.uleb128 0x3
 1614 0022 0E       		.uleb128 0xe
 1615 0023 3A       		.uleb128 0x3a
 1616 0024 0B       		.uleb128 0xb
 1617 0025 3B       		.uleb128 0x3b
 1618 0026 0B       		.uleb128 0xb
 1619 0027 49       		.uleb128 0x49
 1620 0028 13       		.uleb128 0x13
 1621 0029 00       		.byte	0
 1622 002a 00       		.byte	0
 1623 002b 04       		.uleb128 0x4
 1624 002c 24       		.uleb128 0x24
 1625 002d 00       		.byte	0
 1626 002e 0B       		.uleb128 0xb
 1627 002f 0B       		.uleb128 0xb
 1628 0030 3E       		.uleb128 0x3e
 1629 0031 0B       		.uleb128 0xb
 1630 0032 03       		.uleb128 0x3
 1631 0033 0E       		.uleb128 0xe
 1632 0034 00       		.byte	0
 1633 0035 00       		.byte	0
 1634 0036 05       		.uleb128 0x5
 1635 0037 13       		.uleb128 0x13
 1636 0038 01       		.byte	0x1
 1637 0039 03       		.uleb128 0x3
 1638 003a 0E       		.uleb128 0xe
 1639 003b 0B       		.uleb128 0xb
 1640 003c 0B       		.uleb128 0xb
 1641 003d 3A       		.uleb128 0x3a
 1642 003e 0B       		.uleb128 0xb
 1643 003f 3B       		.uleb128 0x3b
 1644 0040 0B       		.uleb128 0xb
 1645 0041 01       		.uleb128 0x1
 1646 0042 13       		.uleb128 0x13
 1647 0043 00       		.byte	0
 1648 0044 00       		.byte	0
 1649 0045 06       		.uleb128 0x6
 1650 0046 0D       		.uleb128 0xd
ARM GAS  /tmp/ccp4wxgw.s 			page 30


 1651 0047 00       		.byte	0
 1652 0048 03       		.uleb128 0x3
 1653 0049 0E       		.uleb128 0xe
 1654 004a 3A       		.uleb128 0x3a
 1655 004b 0B       		.uleb128 0xb
 1656 004c 3B       		.uleb128 0x3b
 1657 004d 0B       		.uleb128 0xb
 1658 004e 49       		.uleb128 0x49
 1659 004f 13       		.uleb128 0x13
 1660 0050 38       		.uleb128 0x38
 1661 0051 0B       		.uleb128 0xb
 1662 0052 00       		.byte	0
 1663 0053 00       		.byte	0
 1664 0054 07       		.uleb128 0x7
 1665 0055 0D       		.uleb128 0xd
 1666 0056 00       		.byte	0
 1667 0057 03       		.uleb128 0x3
 1668 0058 08       		.uleb128 0x8
 1669 0059 3A       		.uleb128 0x3a
 1670 005a 0B       		.uleb128 0xb
 1671 005b 3B       		.uleb128 0x3b
 1672 005c 0B       		.uleb128 0xb
 1673 005d 49       		.uleb128 0x49
 1674 005e 13       		.uleb128 0x13
 1675 005f 38       		.uleb128 0x38
 1676 0060 0B       		.uleb128 0xb
 1677 0061 00       		.byte	0
 1678 0062 00       		.byte	0
 1679 0063 08       		.uleb128 0x8
 1680 0064 0D       		.uleb128 0xd
 1681 0065 00       		.byte	0
 1682 0066 03       		.uleb128 0x3
 1683 0067 08       		.uleb128 0x8
 1684 0068 3A       		.uleb128 0x3a
 1685 0069 0B       		.uleb128 0xb
 1686 006a 3B       		.uleb128 0x3b
 1687 006b 05       		.uleb128 0x5
 1688 006c 49       		.uleb128 0x49
 1689 006d 13       		.uleb128 0x13
 1690 006e 38       		.uleb128 0x38
 1691 006f 0B       		.uleb128 0xb
 1692 0070 00       		.byte	0
 1693 0071 00       		.byte	0
 1694 0072 09       		.uleb128 0x9
 1695 0073 0D       		.uleb128 0xd
 1696 0074 00       		.byte	0
 1697 0075 03       		.uleb128 0x3
 1698 0076 0E       		.uleb128 0xe
 1699 0077 3A       		.uleb128 0x3a
 1700 0078 0B       		.uleb128 0xb
 1701 0079 3B       		.uleb128 0x3b
 1702 007a 05       		.uleb128 0x5
 1703 007b 49       		.uleb128 0x49
 1704 007c 13       		.uleb128 0x13
 1705 007d 38       		.uleb128 0x38
 1706 007e 0B       		.uleb128 0xb
 1707 007f 00       		.byte	0
ARM GAS  /tmp/ccp4wxgw.s 			page 31


 1708 0080 00       		.byte	0
 1709 0081 0A       		.uleb128 0xa
 1710 0082 0F       		.uleb128 0xf
 1711 0083 00       		.byte	0
 1712 0084 0B       		.uleb128 0xb
 1713 0085 0B       		.uleb128 0xb
 1714 0086 49       		.uleb128 0x49
 1715 0087 13       		.uleb128 0x13
 1716 0088 00       		.byte	0
 1717 0089 00       		.byte	0
 1718 008a 0B       		.uleb128 0xb
 1719 008b 13       		.uleb128 0x13
 1720 008c 01       		.byte	0x1
 1721 008d 03       		.uleb128 0x3
 1722 008e 0E       		.uleb128 0xe
 1723 008f 0B       		.uleb128 0xb
 1724 0090 0B       		.uleb128 0xb
 1725 0091 3A       		.uleb128 0x3a
 1726 0092 0B       		.uleb128 0xb
 1727 0093 3B       		.uleb128 0x3b
 1728 0094 05       		.uleb128 0x5
 1729 0095 01       		.uleb128 0x1
 1730 0096 13       		.uleb128 0x13
 1731 0097 00       		.byte	0
 1732 0098 00       		.byte	0
 1733 0099 0C       		.uleb128 0xc
 1734 009a 15       		.uleb128 0x15
 1735 009b 01       		.byte	0x1
 1736 009c 27       		.uleb128 0x27
 1737 009d 19       		.uleb128 0x19
 1738 009e 01       		.uleb128 0x1
 1739 009f 13       		.uleb128 0x13
 1740 00a0 00       		.byte	0
 1741 00a1 00       		.byte	0
 1742 00a2 0D       		.uleb128 0xd
 1743 00a3 05       		.uleb128 0x5
 1744 00a4 00       		.byte	0
 1745 00a5 49       		.uleb128 0x49
 1746 00a6 13       		.uleb128 0x13
 1747 00a7 00       		.byte	0
 1748 00a8 00       		.byte	0
 1749 00a9 0E       		.uleb128 0xe
 1750 00aa 0F       		.uleb128 0xf
 1751 00ab 00       		.byte	0
 1752 00ac 0B       		.uleb128 0xb
 1753 00ad 0B       		.uleb128 0xb
 1754 00ae 00       		.byte	0
 1755 00af 00       		.byte	0
 1756 00b0 0F       		.uleb128 0xf
 1757 00b1 35       		.uleb128 0x35
 1758 00b2 00       		.byte	0
 1759 00b3 49       		.uleb128 0x49
 1760 00b4 13       		.uleb128 0x13
 1761 00b5 00       		.byte	0
 1762 00b6 00       		.byte	0
 1763 00b7 10       		.uleb128 0x10
 1764 00b8 13       		.uleb128 0x13
ARM GAS  /tmp/ccp4wxgw.s 			page 32


 1765 00b9 01       		.byte	0x1
 1766 00ba 0B       		.uleb128 0xb
 1767 00bb 0B       		.uleb128 0xb
 1768 00bc 3A       		.uleb128 0x3a
 1769 00bd 0B       		.uleb128 0xb
 1770 00be 3B       		.uleb128 0x3b
 1771 00bf 05       		.uleb128 0x5
 1772 00c0 01       		.uleb128 0x1
 1773 00c1 13       		.uleb128 0x13
 1774 00c2 00       		.byte	0
 1775 00c3 00       		.byte	0
 1776 00c4 11       		.uleb128 0x11
 1777 00c5 16       		.uleb128 0x16
 1778 00c6 00       		.byte	0
 1779 00c7 03       		.uleb128 0x3
 1780 00c8 0E       		.uleb128 0xe
 1781 00c9 3A       		.uleb128 0x3a
 1782 00ca 0B       		.uleb128 0xb
 1783 00cb 3B       		.uleb128 0x3b
 1784 00cc 05       		.uleb128 0x5
 1785 00cd 49       		.uleb128 0x49
 1786 00ce 13       		.uleb128 0x13
 1787 00cf 00       		.byte	0
 1788 00d0 00       		.byte	0
 1789 00d1 12       		.uleb128 0x12
 1790 00d2 13       		.uleb128 0x13
 1791 00d3 01       		.byte	0x1
 1792 00d4 0B       		.uleb128 0xb
 1793 00d5 0B       		.uleb128 0xb
 1794 00d6 3A       		.uleb128 0x3a
 1795 00d7 0B       		.uleb128 0xb
 1796 00d8 3B       		.uleb128 0x3b
 1797 00d9 0B       		.uleb128 0xb
 1798 00da 01       		.uleb128 0x1
 1799 00db 13       		.uleb128 0x13
 1800 00dc 00       		.byte	0
 1801 00dd 00       		.byte	0
 1802 00de 13       		.uleb128 0x13
 1803 00df 17       		.uleb128 0x17
 1804 00e0 01       		.byte	0x1
 1805 00e1 0B       		.uleb128 0xb
 1806 00e2 0B       		.uleb128 0xb
 1807 00e3 3A       		.uleb128 0x3a
 1808 00e4 0B       		.uleb128 0xb
 1809 00e5 3B       		.uleb128 0x3b
 1810 00e6 0B       		.uleb128 0xb
 1811 00e7 01       		.uleb128 0x1
 1812 00e8 13       		.uleb128 0x13
 1813 00e9 00       		.byte	0
 1814 00ea 00       		.byte	0
 1815 00eb 14       		.uleb128 0x14
 1816 00ec 0D       		.uleb128 0xd
 1817 00ed 00       		.byte	0
 1818 00ee 03       		.uleb128 0x3
 1819 00ef 0E       		.uleb128 0xe
 1820 00f0 3A       		.uleb128 0x3a
 1821 00f1 0B       		.uleb128 0xb
ARM GAS  /tmp/ccp4wxgw.s 			page 33


 1822 00f2 3B       		.uleb128 0x3b
 1823 00f3 0B       		.uleb128 0xb
 1824 00f4 49       		.uleb128 0x49
 1825 00f5 13       		.uleb128 0x13
 1826 00f6 00       		.byte	0
 1827 00f7 00       		.byte	0
 1828 00f8 15       		.uleb128 0x15
 1829 00f9 0D       		.uleb128 0xd
 1830 00fa 00       		.byte	0
 1831 00fb 03       		.uleb128 0x3
 1832 00fc 0E       		.uleb128 0xe
 1833 00fd 3A       		.uleb128 0x3a
 1834 00fe 0B       		.uleb128 0xb
 1835 00ff 3B       		.uleb128 0x3b
 1836 0100 05       		.uleb128 0x5
 1837 0101 49       		.uleb128 0x49
 1838 0102 13       		.uleb128 0x13
 1839 0103 00       		.byte	0
 1840 0104 00       		.byte	0
 1841 0105 16       		.uleb128 0x16
 1842 0106 26       		.uleb128 0x26
 1843 0107 00       		.byte	0
 1844 0108 49       		.uleb128 0x49
 1845 0109 13       		.uleb128 0x13
 1846 010a 00       		.byte	0
 1847 010b 00       		.byte	0
 1848 010c 17       		.uleb128 0x17
 1849 010d 15       		.uleb128 0x15
 1850 010e 01       		.byte	0x1
 1851 010f 27       		.uleb128 0x27
 1852 0110 19       		.uleb128 0x19
 1853 0111 49       		.uleb128 0x49
 1854 0112 13       		.uleb128 0x13
 1855 0113 01       		.uleb128 0x1
 1856 0114 13       		.uleb128 0x13
 1857 0115 00       		.byte	0
 1858 0116 00       		.byte	0
 1859 0117 18       		.uleb128 0x18
 1860 0118 0D       		.uleb128 0xd
 1861 0119 00       		.byte	0
 1862 011a 03       		.uleb128 0x3
 1863 011b 08       		.uleb128 0x8
 1864 011c 3A       		.uleb128 0x3a
 1865 011d 0B       		.uleb128 0xb
 1866 011e 3B       		.uleb128 0x3b
 1867 011f 0B       		.uleb128 0xb
 1868 0120 49       		.uleb128 0x49
 1869 0121 13       		.uleb128 0x13
 1870 0122 00       		.byte	0
 1871 0123 00       		.byte	0
 1872 0124 19       		.uleb128 0x19
 1873 0125 04       		.uleb128 0x4
 1874 0126 01       		.byte	0x1
 1875 0127 0B       		.uleb128 0xb
 1876 0128 0B       		.uleb128 0xb
 1877 0129 3A       		.uleb128 0x3a
 1878 012a 0B       		.uleb128 0xb
ARM GAS  /tmp/ccp4wxgw.s 			page 34


 1879 012b 3B       		.uleb128 0x3b
 1880 012c 0B       		.uleb128 0xb
 1881 012d 01       		.uleb128 0x1
 1882 012e 13       		.uleb128 0x13
 1883 012f 00       		.byte	0
 1884 0130 00       		.byte	0
 1885 0131 1A       		.uleb128 0x1a
 1886 0132 28       		.uleb128 0x28
 1887 0133 00       		.byte	0
 1888 0134 03       		.uleb128 0x3
 1889 0135 0E       		.uleb128 0xe
 1890 0136 1C       		.uleb128 0x1c
 1891 0137 0D       		.uleb128 0xd
 1892 0138 00       		.byte	0
 1893 0139 00       		.byte	0
 1894 013a 1B       		.uleb128 0x1b
 1895 013b 01       		.uleb128 0x1
 1896 013c 01       		.byte	0x1
 1897 013d 49       		.uleb128 0x49
 1898 013e 13       		.uleb128 0x13
 1899 013f 01       		.uleb128 0x1
 1900 0140 13       		.uleb128 0x13
 1901 0141 00       		.byte	0
 1902 0142 00       		.byte	0
 1903 0143 1C       		.uleb128 0x1c
 1904 0144 21       		.uleb128 0x21
 1905 0145 00       		.byte	0
 1906 0146 49       		.uleb128 0x49
 1907 0147 13       		.uleb128 0x13
 1908 0148 2F       		.uleb128 0x2f
 1909 0149 0B       		.uleb128 0xb
 1910 014a 00       		.byte	0
 1911 014b 00       		.byte	0
 1912 014c 1D       		.uleb128 0x1d
 1913 014d 2E       		.uleb128 0x2e
 1914 014e 01       		.byte	0x1
 1915 014f 3F       		.uleb128 0x3f
 1916 0150 19       		.uleb128 0x19
 1917 0151 03       		.uleb128 0x3
 1918 0152 0E       		.uleb128 0xe
 1919 0153 3A       		.uleb128 0x3a
 1920 0154 0B       		.uleb128 0xb
 1921 0155 3B       		.uleb128 0x3b
 1922 0156 0B       		.uleb128 0xb
 1923 0157 27       		.uleb128 0x27
 1924 0158 19       		.uleb128 0x19
 1925 0159 49       		.uleb128 0x49
 1926 015a 13       		.uleb128 0x13
 1927 015b 11       		.uleb128 0x11
 1928 015c 01       		.uleb128 0x1
 1929 015d 12       		.uleb128 0x12
 1930 015e 06       		.uleb128 0x6
 1931 015f 40       		.uleb128 0x40
 1932 0160 18       		.uleb128 0x18
 1933 0161 9642     		.uleb128 0x2116
 1934 0163 19       		.uleb128 0x19
 1935 0164 01       		.uleb128 0x1
ARM GAS  /tmp/ccp4wxgw.s 			page 35


 1936 0165 13       		.uleb128 0x13
 1937 0166 00       		.byte	0
 1938 0167 00       		.byte	0
 1939 0168 1E       		.uleb128 0x1e
 1940 0169 34       		.uleb128 0x34
 1941 016a 00       		.byte	0
 1942 016b 03       		.uleb128 0x3
 1943 016c 0E       		.uleb128 0xe
 1944 016d 3A       		.uleb128 0x3a
 1945 016e 0B       		.uleb128 0xb
 1946 016f 3B       		.uleb128 0x3b
 1947 0170 0B       		.uleb128 0xb
 1948 0171 49       		.uleb128 0x49
 1949 0172 13       		.uleb128 0x13
 1950 0173 02       		.uleb128 0x2
 1951 0174 18       		.uleb128 0x18
 1952 0175 00       		.byte	0
 1953 0176 00       		.byte	0
 1954 0177 1F       		.uleb128 0x1f
 1955 0178 0B       		.uleb128 0xb
 1956 0179 01       		.byte	0x1
 1957 017a 11       		.uleb128 0x11
 1958 017b 01       		.uleb128 0x1
 1959 017c 12       		.uleb128 0x12
 1960 017d 06       		.uleb128 0x6
 1961 017e 00       		.byte	0
 1962 017f 00       		.byte	0
 1963 0180 20       		.uleb128 0x20
 1964 0181 2E       		.uleb128 0x2e
 1965 0182 01       		.byte	0x1
 1966 0183 3F       		.uleb128 0x3f
 1967 0184 19       		.uleb128 0x19
 1968 0185 03       		.uleb128 0x3
 1969 0186 0E       		.uleb128 0xe
 1970 0187 3A       		.uleb128 0x3a
 1971 0188 0B       		.uleb128 0xb
 1972 0189 3B       		.uleb128 0x3b
 1973 018a 0B       		.uleb128 0xb
 1974 018b 49       		.uleb128 0x49
 1975 018c 13       		.uleb128 0x13
 1976 018d 3C       		.uleb128 0x3c
 1977 018e 19       		.uleb128 0x19
 1978 018f 01       		.uleb128 0x1
 1979 0190 13       		.uleb128 0x13
 1980 0191 00       		.byte	0
 1981 0192 00       		.byte	0
 1982 0193 21       		.uleb128 0x21
 1983 0194 18       		.uleb128 0x18
 1984 0195 00       		.byte	0
 1985 0196 00       		.byte	0
 1986 0197 00       		.byte	0
 1987 0198 22       		.uleb128 0x22
 1988 0199 2E       		.uleb128 0x2e
 1989 019a 01       		.byte	0x1
 1990 019b 3F       		.uleb128 0x3f
 1991 019c 19       		.uleb128 0x19
 1992 019d 03       		.uleb128 0x3
ARM GAS  /tmp/ccp4wxgw.s 			page 36


 1993 019e 0E       		.uleb128 0xe
 1994 019f 3A       		.uleb128 0x3a
 1995 01a0 0B       		.uleb128 0xb
 1996 01a1 3B       		.uleb128 0x3b
 1997 01a2 0B       		.uleb128 0xb
 1998 01a3 49       		.uleb128 0x49
 1999 01a4 13       		.uleb128 0x13
 2000 01a5 3C       		.uleb128 0x3c
 2001 01a6 19       		.uleb128 0x19
 2002 01a7 00       		.byte	0
 2003 01a8 00       		.byte	0
 2004 01a9 23       		.uleb128 0x23
 2005 01aa 34       		.uleb128 0x34
 2006 01ab 00       		.byte	0
 2007 01ac 03       		.uleb128 0x3
 2008 01ad 0E       		.uleb128 0xe
 2009 01ae 3A       		.uleb128 0x3a
 2010 01af 0B       		.uleb128 0xb
 2011 01b0 3B       		.uleb128 0x3b
 2012 01b1 05       		.uleb128 0x5
 2013 01b2 49       		.uleb128 0x49
 2014 01b3 13       		.uleb128 0x13
 2015 01b4 3F       		.uleb128 0x3f
 2016 01b5 19       		.uleb128 0x19
 2017 01b6 3C       		.uleb128 0x3c
 2018 01b7 19       		.uleb128 0x19
 2019 01b8 00       		.byte	0
 2020 01b9 00       		.byte	0
 2021 01ba 24       		.uleb128 0x24
 2022 01bb 34       		.uleb128 0x34
 2023 01bc 00       		.byte	0
 2024 01bd 03       		.uleb128 0x3
 2025 01be 08       		.uleb128 0x8
 2026 01bf 3A       		.uleb128 0x3a
 2027 01c0 0B       		.uleb128 0xb
 2028 01c1 3B       		.uleb128 0x3b
 2029 01c2 05       		.uleb128 0x5
 2030 01c3 49       		.uleb128 0x49
 2031 01c4 13       		.uleb128 0x13
 2032 01c5 3F       		.uleb128 0x3f
 2033 01c6 19       		.uleb128 0x19
 2034 01c7 3C       		.uleb128 0x3c
 2035 01c8 19       		.uleb128 0x19
 2036 01c9 00       		.byte	0
 2037 01ca 00       		.byte	0
 2038 01cb 00       		.byte	0
 2039              		.section	.debug_aranges,"",%progbits
 2040 0000 1C000000 		.4byte	0x1c
 2041 0004 0200     		.2byte	0x2
 2042 0006 00000000 		.4byte	.Ldebug_info0
 2043 000a 04       		.byte	0x4
 2044 000b 00       		.byte	0
 2045 000c 0000     		.2byte	0
 2046 000e 0000     		.2byte	0
 2047 0010 00000000 		.4byte	.Ltext0
 2048 0014 50000000 		.4byte	.Letext0-.Ltext0
 2049 0018 00000000 		.4byte	0
ARM GAS  /tmp/ccp4wxgw.s 			page 37


 2050 001c 00000000 		.4byte	0
 2051              		.section	.debug_line,"",%progbits
 2052              	.Ldebug_line0:
 2053 0000 E4020000 		.section	.debug_str,"MS",%progbits,1
 2053      0200AA02 
 2053      00000201 
 2053      FB0E0D00 
 2053      01010101 
 2054              	.LASF55:
 2055 0000 70726576 		.ascii	"prev\000"
 2055      00
 2056              	.LASF56:
 2057 0005 72656164 		.ascii	"ready_list_t\000"
 2057      795F6C69 
 2057      73745F74 
 2057      00
 2058              	.LASF2:
 2059 0012 73697A65 		.ascii	"size_t\000"
 2059      5F7400
 2060              	.LASF62:
 2061 0019 64656C74 		.ascii	"delta\000"
 2061      6100
 2062              	.LASF84:
 2063 001f 7264796D 		.ascii	"rdymsg\000"
 2063      736700
 2064              	.LASF21:
 2065 0026 75696E74 		.ascii	"uint64_t\000"
 2065      36345F74 
 2065      00
 2066              	.LASF3:
 2067 002f 5F5F7569 		.ascii	"__uint8_t\000"
 2067      6E74385F 
 2067      7400
 2068              	.LASF124:
 2069 0039 4F545950 		.ascii	"OTYPER\000"
 2069      455200
 2070              	.LASF81:
 2071 0040 706F7274 		.ascii	"port_intctx\000"
 2071      5F696E74 
 2071      63747800 
 2072              	.LASF67:
 2073 004c 73797374 		.ascii	"system_debug_t\000"
 2073      656D5F64 
 2073      65627567 
 2073      5F7400
 2074              	.LASF123:
 2075 005b 4D4F4445 		.ascii	"MODER\000"
 2075      5200
 2076              	.LASF15:
 2077 0061 6C6F6E67 		.ascii	"long long unsigned int\000"
 2077      206C6F6E 
 2077      6720756E 
 2077      7369676E 
 2077      65642069 
 2078              	.LASF126:
 2079 0078 50555044 		.ascii	"PUPDR\000"
 2079      5200
ARM GAS  /tmp/ccp4wxgw.s 			page 38


 2080              	.LASF85:
 2081 007e 65786974 		.ascii	"exitcode\000"
 2081      636F6465 
 2081      00
 2082              	.LASF141:
 2083 0087 72786D61 		.ascii	"rxmask\000"
 2083      736B00
 2084              	.LASF88:
 2085 008e 73656E74 		.ascii	"sentmsg\000"
 2085      6D736700 
 2086              	.LASF64:
 2087 0096 76697274 		.ascii	"virtual_timers_list_t\000"
 2087      75616C5F 
 2087      74696D65 
 2087      72735F6C 
 2087      6973745F 
 2088              	.LASF147:
 2089 00ac 49544D5F 		.ascii	"ITM_RxBuffer\000"
 2089      52784275 
 2089      66666572 
 2089      00
 2090              	.LASF109:
 2091 00b9 696F5F71 		.ascii	"io_queue_t\000"
 2091      75657565 
 2091      5F7400
 2092              	.LASF52:
 2093 00c4 6E657874 		.ascii	"next\000"
 2093      00
 2094              	.LASF54:
 2095 00c9 63685F74 		.ascii	"ch_threads_queue\000"
 2095      68726561 
 2095      64735F71 
 2095      75657565 
 2095      00
 2096              	.LASF146:
 2097 00da 72656164 		.ascii	"readt\000"
 2097      7400
 2098              	.LASF41:
 2099 00e0 72656673 		.ascii	"refs\000"
 2099      00
 2100              	.LASF111:
 2101 00e5 715F7761 		.ascii	"q_waiting\000"
 2101      6974696E 
 2101      6700
 2102              	.LASF13:
 2103 00ef 6C6F6E67 		.ascii	"long long int\000"
 2103      206C6F6E 
 2103      6720696E 
 2103      7400
 2104              	.LASF1:
 2105 00fd 7369676E 		.ascii	"signed char\000"
 2105      65642063 
 2105      68617200 
 2106              	.LASF127:
 2107 0109 42535252 		.ascii	"BSRR\000"
 2107      00
 2108              	.LASF76:
ARM GAS  /tmp/ccp4wxgw.s 			page 39


 2109 010e 47545052 		.ascii	"GTPR\000"
 2109      00
 2110              	.LASF73:
 2111 0113 76746C69 		.ascii	"vtlist\000"
 2111      737400
 2112              	.LASF43:
 2113 011a 6D736771 		.ascii	"msgqueue\000"
 2113      75657565 
 2113      00
 2114              	.LASF38:
 2115 0123 77616261 		.ascii	"wabase\000"
 2115      736500
 2116              	.LASF39:
 2117 012a 73746174 		.ascii	"state\000"
 2117      6500
 2118              	.LASF71:
 2119 0130 63685F73 		.ascii	"ch_system\000"
 2119      79737465 
 2119      6D00
 2120              	.LASF10:
 2121 013a 6C6F6E67 		.ascii	"long int\000"
 2121      20696E74 
 2121      00
 2122              	.LASF24:
 2123 0143 74737461 		.ascii	"tstate_t\000"
 2123      74655F74 
 2123      00
 2124              	.LASF63:
 2125 014c 66756E63 		.ascii	"func\000"
 2125      00
 2126              	.LASF113:
 2127 0151 715F6275 		.ascii	"q_buffer\000"
 2127      66666572 
 2127      00
 2128              	.LASF118:
 2129 015a 715F6C69 		.ascii	"q_link\000"
 2129      6E6B00
 2130              	.LASF101:
 2131 0161 77666C61 		.ascii	"wflags\000"
 2131      677300
 2132              	.LASF125:
 2133 0168 4F535045 		.ascii	"OSPEEDR\000"
 2133      45445200 
 2134              	.LASF11:
 2135 0170 5F5F7569 		.ascii	"__uint32_t\000"
 2135      6E743332 
 2135      5F7400
 2136              	.LASF78:
 2137 017b 72656761 		.ascii	"regarm_t\000"
 2137      726D5F74 
 2137      00
 2138              	.LASF5:
 2139 0184 5F5F696E 		.ascii	"__int16_t\000"
 2139      7431365F 
 2139      7400
 2140              	.LASF68:
 2141 018e 63685F73 		.ascii	"ch_system_debug\000"
ARM GAS  /tmp/ccp4wxgw.s 			page 40


 2141      79737465 
 2141      6D5F6465 
 2141      62756700 
 2142              	.LASF42:
 2143 019e 77616974 		.ascii	"waiting\000"
 2143      696E6700 
 2144              	.LASF131:
 2145 01a6 73746D33 		.ascii	"stm32_gpio_t\000"
 2145      325F6770 
 2145      696F5F74 
 2145      00
 2146              	.LASF96:
 2147 01b3 6D757465 		.ascii	"mutex_t\000"
 2147      785F7400 
 2148              	.LASF108:
 2149 01bb 42617365 		.ascii	"BaseSequentialStream\000"
 2149      53657175 
 2149      656E7469 
 2149      616C5374 
 2149      7265616D 
 2150              	.LASF103:
 2151 01d0 6576656E 		.ascii	"event_source_t\000"
 2151      745F736F 
 2151      75726365 
 2151      5F7400
 2152              	.LASF30:
 2153 01df 636E745F 		.ascii	"cnt_t\000"
 2153      7400
 2154              	.LASF140:
 2155 01e5 75736172 		.ascii	"usart\000"
 2155      7400
 2156              	.LASF0:
 2157 01eb 756E7369 		.ascii	"unsigned int\000"
 2157      676E6564 
 2157      20696E74 
 2157      00
 2158              	.LASF18:
 2159 01f8 75696E74 		.ascii	"uint16_t\000"
 2159      31365F74 
 2159      00
 2160              	.LASF142:
 2161 0201 53657269 		.ascii	"SerialDriverVMT\000"
 2161      616C4472 
 2161      69766572 
 2161      564D5400 
 2162              	.LASF89:
 2163 0211 77747365 		.ascii	"wtsemp\000"
 2163      6D7000
 2164              	.LASF138:
 2165 0218 69717565 		.ascii	"iqueue\000"
 2165      756500
 2166              	.LASF87:
 2167 021f 77747472 		.ascii	"wttrp\000"
 2167      7000
 2168              	.LASF150:
 2169 0225 2F686F6D 		.ascii	"/home/declan/ChibiOS2/ChibiOS/demos/STM32/RT-STM32F"
 2169      652F6465 
ARM GAS  /tmp/ccp4wxgw.s 			page 41


 2169      636C616E 
 2169      2F436869 
 2169      62694F53 
 2170 0258 3430372D 		.ascii	"407-DISCOVERY\000"
 2170      44495343 
 2170      4F564552 
 2170      5900
 2171              	.LASF144:
 2172 0266 67657474 		.ascii	"gett\000"
 2172      00
 2173              	.LASF37:
 2174 026b 6E616D65 		.ascii	"name\000"
 2174      00
 2175              	.LASF33:
 2176 0270 71756575 		.ascii	"queue\000"
 2176      6500
 2177              	.LASF47:
 2178 0276 6D706F6F 		.ascii	"mpool\000"
 2178      6C00
 2179              	.LASF137:
 2180 027c 6576656E 		.ascii	"event\000"
 2180      7400
 2181              	.LASF115:
 2182 0282 715F7772 		.ascii	"q_wrptr\000"
 2182      70747200 
 2183              	.LASF50:
 2184 028a 63685F74 		.ascii	"ch_thread\000"
 2184      68726561 
 2184      6400
 2185              	.LASF74:
 2186 0294 6D61696E 		.ascii	"mainthread\000"
 2186      74687265 
 2186      616400
 2187              	.LASF27:
 2188 029f 6D73675F 		.ascii	"msg_t\000"
 2188      7400
 2189              	.LASF44:
 2190 02a5 6570656E 		.ascii	"epending\000"
 2190      64696E67 
 2190      00
 2191              	.LASF70:
 2192 02ae 63685F73 		.ascii	"ch_system_t\000"
 2192      79737465 
 2192      6D5F7400 
 2193              	.LASF77:
 2194 02ba 55534152 		.ascii	"USART_TypeDef\000"
 2194      545F5479 
 2194      70654465 
 2194      6600
 2195              	.LASF145:
 2196 02c8 77726974 		.ascii	"writet\000"
 2196      657400
 2197              	.LASF23:
 2198 02cf 746D6F64 		.ascii	"tmode_t\000"
 2198      655F7400 
 2199              	.LASF57:
 2200 02d7 63685F72 		.ascii	"ch_ready_list\000"
ARM GAS  /tmp/ccp4wxgw.s 			page 42


 2200      65616479 
 2200      5F6C6973 
 2200      7400
 2201              	.LASF28:
 2202 02e5 6576656E 		.ascii	"eventmask_t\000"
 2202      746D6173 
 2202      6B5F7400 
 2203              	.LASF9:
 2204 02f1 5F5F696E 		.ascii	"__int32_t\000"
 2204      7433325F 
 2204      7400
 2205              	.LASF119:
 2206 02fb 716E6F74 		.ascii	"qnotify_t\000"
 2206      6966795F 
 2206      7400
 2207              	.LASF79:
 2208 0305 73746B61 		.ascii	"stkalign_t\000"
 2208      6C69676E 
 2208      5F7400
 2209              	.LASF35:
 2210 0310 6E657765 		.ascii	"newer\000"
 2210      7200
 2211              	.LASF106:
 2212 0316 77726974 		.ascii	"write\000"
 2212      6500
 2213              	.LASF120:
 2214 031c 696E7075 		.ascii	"input_queue_t\000"
 2214      745F7175 
 2214      6575655F 
 2214      7400
 2215              	.LASF143:
 2216 032a 70757474 		.ascii	"putt\000"
 2216      00
 2217              	.LASF110:
 2218 032f 696F5F71 		.ascii	"io_queue\000"
 2218      75657565 
 2218      00
 2219              	.LASF75:
 2220 0338 73697A65 		.ascii	"sizetype\000"
 2220      74797065 
 2220      00
 2221              	.LASF48:
 2222 0341 74687265 		.ascii	"thread_reference_t\000"
 2222      61645F72 
 2222      65666572 
 2222      656E6365 
 2222      5F7400
 2223              	.LASF99:
 2224 0354 6C697374 		.ascii	"listener\000"
 2224      656E6572 
 2224      00
 2225              	.LASF65:
 2226 035d 63685F76 		.ascii	"ch_virtual_timers_list\000"
 2226      69727475 
 2226      616C5F74 
 2226      696D6572 
 2226      735F6C69 
ARM GAS  /tmp/ccp4wxgw.s 			page 43


 2227              	.LASF122:
 2228 0374 636C6561 		.ascii	"clear\000"
 2228      7200
 2229              	.LASF121:
 2230 037a 6F757470 		.ascii	"output_queue_t\000"
 2230      75745F71 
 2230      75657565 
 2230      5F7400
 2231              	.LASF80:
 2232 0389 706F7274 		.ascii	"port_context\000"
 2232      5F636F6E 
 2232      74657874 
 2232      00
 2233              	.LASF83:
 2234 0396 746D5F63 		.ascii	"tm_calibration_t\000"
 2234      616C6962 
 2234      72617469 
 2234      6F6E5F74 
 2234      00
 2235              	.LASF34:
 2236 03a7 7072696F 		.ascii	"prio\000"
 2236      00
 2237              	.LASF58:
 2238 03ac 63757272 		.ascii	"current\000"
 2238      656E7400 
 2239              	.LASF14:
 2240 03b4 5F5F7569 		.ascii	"__uint64_t\000"
 2240      6E743634 
 2240      5F7400
 2241              	.LASF130:
 2242 03bf 41465248 		.ascii	"AFRH\000"
 2242      00
 2243              	.LASF129:
 2244 03c4 4146524C 		.ascii	"AFRL\000"
 2244      00
 2245              	.LASF25:
 2246 03c9 74726566 		.ascii	"trefs_t\000"
 2246      735F7400 
 2247              	.LASF60:
 2248 03d1 76697274 		.ascii	"virtual_timer_t\000"
 2248      75616C5F 
 2248      74696D65 
 2248      725F7400 
 2249              	.LASF133:
 2250 03e1 53445F53 		.ascii	"SD_STOP\000"
 2250      544F5000 
 2251              	.LASF26:
 2252 03e9 74707269 		.ascii	"tprio_t\000"
 2252      6F5F7400 
 2253              	.LASF116:
 2254 03f1 715F7264 		.ascii	"q_rdptr\000"
 2254      70747200 
 2255              	.LASF17:
 2256 03f9 696E7431 		.ascii	"int16_t\000"
 2256      365F7400 
 2257              	.LASF104:
 2258 0401 5F426F6F 		.ascii	"_Bool\000"
ARM GAS  /tmp/ccp4wxgw.s 			page 44


 2258      6C00
 2259              	.LASF19:
 2260 0407 696E7433 		.ascii	"int32_t\000"
 2260      325F7400 
 2261              	.LASF4:
 2262 040f 756E7369 		.ascii	"unsigned char\000"
 2262      676E6564 
 2262      20636861 
 2262      7200
 2263              	.LASF6:
 2264 041d 73686F72 		.ascii	"short int\000"
 2264      7420696E 
 2264      7400
 2265              	.LASF66:
 2266 0427 6C617374 		.ascii	"lasttime\000"
 2266      74696D65 
 2266      00
 2267              	.LASF152:
 2268 0430 62756666 		.ascii	"buff\000"
 2268      00
 2269              	.LASF91:
 2270 0435 65776D61 		.ascii	"ewmask\000"
 2270      736B00
 2271              	.LASF139:
 2272 043c 6F717565 		.ascii	"oqueue\000"
 2272      756500
 2273              	.LASF105:
 2274 0443 42617365 		.ascii	"BaseSequentialStreamVMT\000"
 2274      53657175 
 2274      656E7469 
 2274      616C5374 
 2274      7265616D 
 2275              	.LASF53:
 2276 045b 74687265 		.ascii	"threads_queue_t\000"
 2276      6164735F 
 2276      71756575 
 2276      655F7400 
 2277              	.LASF128:
 2278 046b 4C434B52 		.ascii	"LCKR\000"
 2278      00
 2279              	.LASF92:
 2280 0470 63685F73 		.ascii	"ch_semaphore\000"
 2280      656D6170 
 2280      686F7265 
 2280      00
 2281              	.LASF132:
 2282 047d 53445F55 		.ascii	"SD_UNINIT\000"
 2282      4E494E49 
 2282      5400
 2283              	.LASF100:
 2284 0487 6576656E 		.ascii	"events\000"
 2284      747300
 2285              	.LASF112:
 2286 048e 715F636F 		.ascii	"q_counter\000"
 2286      756E7465 
 2286      7200
 2287              	.LASF90:
ARM GAS  /tmp/ccp4wxgw.s 			page 45


 2288 0498 77746D74 		.ascii	"wtmtxp\000"
 2288      787000
 2289              	.LASF135:
 2290 049f 73647374 		.ascii	"sdstate_t\000"
 2290      6174655F 
 2290      7400
 2291              	.LASF51:
 2292 04a9 63685F74 		.ascii	"ch_threads_list\000"
 2292      68726561 
 2292      64735F6C 
 2292      69737400 
 2293              	.LASF94:
 2294 04b9 6F776E65 		.ascii	"owner\000"
 2294      7200
 2295              	.LASF136:
 2296 04bf 53657269 		.ascii	"SerialDriver\000"
 2296      616C4472 
 2296      69766572 
 2296      00
 2297              	.LASF46:
 2298 04cc 7265616C 		.ascii	"realprio\000"
 2298      7072696F 
 2298      00
 2299              	.LASF12:
 2300 04d5 6C6F6E67 		.ascii	"long unsigned int\000"
 2300      20756E73 
 2300      69676E65 
 2300      6420696E 
 2300      7400
 2301              	.LASF148:
 2302 04e7 474E5520 		.ascii	"GNU C 4.9.3 20150529 (prerelease) -mcpu=cortex-m4 -"
 2302      4320342E 
 2302      392E3320 
 2302      32303135 
 2302      30353239 
 2303 051a 6D6E6F2D 		.ascii	"mno-thumb-interwork -mthumb -ggdb -O0 -fomit-frame-"
 2303      7468756D 
 2303      622D696E 
 2303      74657277 
 2303      6F726B20 
 2304 054d 706F696E 		.ascii	"pointer -falign-functions=16\000"
 2304      74657220 
 2304      2D66616C 
 2304      69676E2D 
 2304      66756E63 
 2305              	.LASF107:
 2306 056a 72656164 		.ascii	"read\000"
 2306      00
 2307              	.LASF95:
 2308 056f 63686172 		.ascii	"char\000"
 2308      00
 2309              	.LASF36:
 2310 0574 6F6C6465 		.ascii	"older\000"
 2310      7200
 2311              	.LASF153:
 2312 057a 41636365 		.ascii	"AccelerometerGetValues\000"
 2312      6C65726F 
ARM GAS  /tmp/ccp4wxgw.s 			page 46


 2312      6D657465 
 2312      72476574 
 2312      56616C75 
 2313              	.LASF7:
 2314 0591 5F5F7569 		.ascii	"__uint16_t\000"
 2314      6E743136 
 2314      5F7400
 2315              	.LASF32:
 2316 059c 74687265 		.ascii	"thread_t\000"
 2316      61645F74 
 2316      00
 2317              	.LASF31:
 2318 05a5 73797374 		.ascii	"systime_t\000"
 2318      696D655F 
 2318      7400
 2319              	.LASF59:
 2320 05af 76746675 		.ascii	"vtfunc_t\000"
 2320      6E635F74 
 2320      00
 2321              	.LASF69:
 2322 05b8 70616E69 		.ascii	"panic_msg\000"
 2322      635F6D73 
 2322      6700
 2323              	.LASF82:
 2324 05c2 6F666673 		.ascii	"offset\000"
 2324      657400
 2325              	.LASF97:
 2326 05c9 6576656E 		.ascii	"event_listener_t\000"
 2326      745F6C69 
 2326      7374656E 
 2326      65725F74 
 2326      00
 2327              	.LASF8:
 2328 05da 73686F72 		.ascii	"short unsigned int\000"
 2328      7420756E 
 2328      7369676E 
 2328      65642069 
 2328      6E7400
 2329              	.LASF61:
 2330 05ed 63685F76 		.ascii	"ch_virtual_timer\000"
 2330      69727475 
 2330      616C5F74 
 2330      696D6572 
 2330      00
 2331              	.LASF22:
 2332 05fe 7274636E 		.ascii	"rtcnt_t\000"
 2332      745F7400 
 2333              	.LASF134:
 2334 0606 53445F52 		.ascii	"SD_READY\000"
 2334      45414459 
 2334      00
 2335              	.LASF29:
 2336 060f 6576656E 		.ascii	"eventflags_t\000"
 2336      74666C61 
 2336      67735F74 
 2336      00
 2337              	.LASF149:
ARM GAS  /tmp/ccp4wxgw.s 			page 47


 2338 061c 6D61696E 		.ascii	"main.c\000"
 2338      2E6300
 2339              	.LASF114:
 2340 0623 715F746F 		.ascii	"q_top\000"
 2340      7000
 2341              	.LASF93:
 2342 0629 63685F6D 		.ascii	"ch_mutex\000"
 2342      75746578 
 2342      00
 2343              	.LASF117:
 2344 0632 715F6E6F 		.ascii	"q_notify\000"
 2344      74696679 
 2344      00
 2345              	.LASF72:
 2346 063b 726C6973 		.ascii	"rlist\000"
 2346      7400
 2347              	.LASF102:
 2348 0641 6576656E 		.ascii	"event_source\000"
 2348      745F736F 
 2348      75726365 
 2348      00
 2349              	.LASF16:
 2350 064e 75696E74 		.ascii	"uint8_t\000"
 2350      385F7400 
 2351              	.LASF40:
 2352 0656 666C6167 		.ascii	"flags\000"
 2352      7300
 2353              	.LASF86:
 2354 065c 77746F62 		.ascii	"wtobjp\000"
 2354      6A7000
 2355              	.LASF49:
 2356 0663 74687265 		.ascii	"threads_list_t\000"
 2356      6164735F 
 2356      6C697374 
 2356      5F7400
 2357              	.LASF151:
 2358 0672 6D61696E 		.ascii	"main\000"
 2358      00
 2359              	.LASF45:
 2360 0677 6D74786C 		.ascii	"mtxlist\000"
 2360      69737400 
 2361              	.LASF20:
 2362 067f 75696E74 		.ascii	"uint32_t\000"
 2362      33325F74 
 2362      00
 2363              	.LASF98:
 2364 0688 6576656E 		.ascii	"event_listener\000"
 2364      745F6C69 
 2364      7374656E 
 2364      657200
 2365              	.LASF154:
 2366 0697 63687072 		.ascii	"chprintf\000"
 2366      696E7466 
 2366      00
 2367              		.ident	"GCC: (15:4.9.3+svn231177-1) 4.9.3 20150529 (prerelease)"
ARM GAS  /tmp/ccp4wxgw.s 			page 48


DEFINED SYMBOLS
                            *ABS*:0000000000000000 main.c
     /tmp/ccp4wxgw.s:19     .rodata:0000000000000000 $d
     /tmp/ccp4wxgw.s:23     .text:0000000000000000 $t
     /tmp/ccp4wxgw.s:29     .text:0000000000000000 main
     /tmp/ccp4wxgw.s:79     .text:0000000000000048 $d
                     .debug_frame:0000000000000010 $d

UNDEFINED SYMBOLS
halInit
chSysInit
AccelerometerInit
AccelerometerConfig
AccelerometerGetValues
chprintf
chThdSleep
SD3
