ARM GAS  /tmp/ccCmk7MO.s 			page 1


   1              		.syntax unified
   2              		.cpu cortex-m4
   3              		.fpu softvfp
   4              		.eabi_attribute 20, 1
   5              		.eabi_attribute 21, 1
   6              		.eabi_attribute 23, 3
   7              		.eabi_attribute 24, 1
   8              		.eabi_attribute 25, 1
   9              		.eabi_attribute 26, 1
  10              		.eabi_attribute 30, 6
  11              		.eabi_attribute 34, 1
  12              		.eabi_attribute 18, 4
  13              		.thumb
  14              		.file	"memstreams.c"
  15              		.text
  16              	.Ltext0:
  17              		.cfi_sections	.debug_frame
  18              		.align	2
  19              		.p2align 4,,15
  20              		.thumb
  21              		.thumb_func
  22              		.type	_writes, %function
  23              	_writes:
  24              	.LFB279:
  25              		.file 1 "../../../os/hal/lib/streams/memstreams.c"
  26              		.loc 1 46 0
  27              		.cfi_startproc
  28              		@ args = 0, pretend = 0, frame = 24
  29              		@ frame_needed = 0, uses_anonymous_args = 0
  30 0000 00B5     		push	{lr}
  31              		.cfi_def_cfa_offset 4
  32              		.cfi_offset 14, -4
  33 0002 87B0     		sub	sp, sp, #28
  34              		.cfi_def_cfa_offset 32
  35 0004 0390     		str	r0, [sp, #12]
  36 0006 0291     		str	r1, [sp, #8]
  37 0008 0192     		str	r2, [sp, #4]
  38              		.loc 1 47 0
  39 000a 039B     		ldr	r3, [sp, #12]
  40 000c 0593     		str	r3, [sp, #20]
  41              		.loc 1 49 0
  42 000e 059B     		ldr	r3, [sp, #20]
  43 0010 9A68     		ldr	r2, [r3, #8]
  44 0012 059B     		ldr	r3, [sp, #20]
  45 0014 DB68     		ldr	r3, [r3, #12]
  46 0016 D21A     		subs	r2, r2, r3
  47 0018 019B     		ldr	r3, [sp, #4]
  48 001a 9A42     		cmp	r2, r3
  49 001c 05D2     		bcs	.L2
  50              		.loc 1 50 0
  51 001e 059B     		ldr	r3, [sp, #20]
  52 0020 9A68     		ldr	r2, [r3, #8]
  53 0022 059B     		ldr	r3, [sp, #20]
  54 0024 DB68     		ldr	r3, [r3, #12]
  55 0026 D31A     		subs	r3, r2, r3
  56 0028 0193     		str	r3, [sp, #4]
  57              	.L2:
ARM GAS  /tmp/ccCmk7MO.s 			page 2


  58              		.loc 1 51 0
  59 002a 059B     		ldr	r3, [sp, #20]
  60 002c 5A68     		ldr	r2, [r3, #4]
  61 002e 059B     		ldr	r3, [sp, #20]
  62 0030 DB68     		ldr	r3, [r3, #12]
  63 0032 1344     		add	r3, r3, r2
  64 0034 1846     		mov	r0, r3
  65 0036 0299     		ldr	r1, [sp, #8]
  66 0038 019A     		ldr	r2, [sp, #4]
  67 003a FFF7FEFF 		bl	memcpy
  68              		.loc 1 52 0
  69 003e 059B     		ldr	r3, [sp, #20]
  70 0040 DA68     		ldr	r2, [r3, #12]
  71 0042 019B     		ldr	r3, [sp, #4]
  72 0044 1A44     		add	r2, r2, r3
  73 0046 059B     		ldr	r3, [sp, #20]
  74 0048 DA60     		str	r2, [r3, #12]
  75              		.loc 1 53 0
  76 004a 019B     		ldr	r3, [sp, #4]
  77              		.loc 1 54 0
  78 004c 1846     		mov	r0, r3
  79 004e 07B0     		add	sp, sp, #28
  80              		.cfi_def_cfa_offset 4
  81              		@ sp needed
  82 0050 5DF804FB 		ldr	pc, [sp], #4
  83              		.cfi_endproc
  84              	.LFE279:
  85              		.size	_writes, .-_writes
  86              		.align	2
  87 0054 AFF30080 		.p2align 4,,15
  87      AFF30080 
  87      AFF30080 
  88              		.thumb
  89              		.thumb_func
  90              		.type	_reads, %function
  91              	_reads:
  92              	.LFB280:
  93              		.loc 1 56 0
  94              		.cfi_startproc
  95              		@ args = 0, pretend = 0, frame = 24
  96              		@ frame_needed = 0, uses_anonymous_args = 0
  97 0060 00B5     		push	{lr}
  98              		.cfi_def_cfa_offset 4
  99              		.cfi_offset 14, -4
 100 0062 87B0     		sub	sp, sp, #28
 101              		.cfi_def_cfa_offset 32
 102 0064 0390     		str	r0, [sp, #12]
 103 0066 0291     		str	r1, [sp, #8]
 104 0068 0192     		str	r2, [sp, #4]
 105              		.loc 1 57 0
 106 006a 039B     		ldr	r3, [sp, #12]
 107 006c 0593     		str	r3, [sp, #20]
 108              		.loc 1 59 0
 109 006e 059B     		ldr	r3, [sp, #20]
 110 0070 DA68     		ldr	r2, [r3, #12]
 111 0072 059B     		ldr	r3, [sp, #20]
 112 0074 1B69     		ldr	r3, [r3, #16]
ARM GAS  /tmp/ccCmk7MO.s 			page 3


 113 0076 D21A     		subs	r2, r2, r3
 114 0078 019B     		ldr	r3, [sp, #4]
 115 007a 9A42     		cmp	r2, r3
 116 007c 05D2     		bcs	.L5
 117              		.loc 1 60 0
 118 007e 059B     		ldr	r3, [sp, #20]
 119 0080 DA68     		ldr	r2, [r3, #12]
 120 0082 059B     		ldr	r3, [sp, #20]
 121 0084 1B69     		ldr	r3, [r3, #16]
 122 0086 D31A     		subs	r3, r2, r3
 123 0088 0193     		str	r3, [sp, #4]
 124              	.L5:
 125              		.loc 1 61 0
 126 008a 059B     		ldr	r3, [sp, #20]
 127 008c 5A68     		ldr	r2, [r3, #4]
 128 008e 059B     		ldr	r3, [sp, #20]
 129 0090 1B69     		ldr	r3, [r3, #16]
 130 0092 1344     		add	r3, r3, r2
 131 0094 0298     		ldr	r0, [sp, #8]
 132 0096 1946     		mov	r1, r3
 133 0098 019A     		ldr	r2, [sp, #4]
 134 009a FFF7FEFF 		bl	memcpy
 135              		.loc 1 62 0
 136 009e 059B     		ldr	r3, [sp, #20]
 137 00a0 1A69     		ldr	r2, [r3, #16]
 138 00a2 019B     		ldr	r3, [sp, #4]
 139 00a4 1A44     		add	r2, r2, r3
 140 00a6 059B     		ldr	r3, [sp, #20]
 141 00a8 1A61     		str	r2, [r3, #16]
 142              		.loc 1 63 0
 143 00aa 019B     		ldr	r3, [sp, #4]
 144              		.loc 1 64 0
 145 00ac 1846     		mov	r0, r3
 146 00ae 07B0     		add	sp, sp, #28
 147              		.cfi_def_cfa_offset 4
 148              		@ sp needed
 149 00b0 5DF804FB 		ldr	pc, [sp], #4
 150              		.cfi_endproc
 151              	.LFE280:
 152              		.size	_reads, .-_reads
 153              		.align	2
 154 00b4 AFF30080 		.p2align 4,,15
 154      AFF30080 
 154      AFF30080 
 155              		.thumb
 156              		.thumb_func
 157              		.type	_put, %function
 158              	_put:
 159              	.LFB281:
 160              		.loc 1 66 0
 161              		.cfi_startproc
 162              		@ args = 0, pretend = 0, frame = 16
 163              		@ frame_needed = 0, uses_anonymous_args = 0
 164              		@ link register save eliminated.
 165 00c0 84B0     		sub	sp, sp, #16
 166              		.cfi_def_cfa_offset 16
 167 00c2 0190     		str	r0, [sp, #4]
ARM GAS  /tmp/ccCmk7MO.s 			page 4


 168 00c4 0B46     		mov	r3, r1
 169 00c6 8DF80330 		strb	r3, [sp, #3]
 170              		.loc 1 67 0
 171 00ca 019B     		ldr	r3, [sp, #4]
 172 00cc 0393     		str	r3, [sp, #12]
 173              		.loc 1 69 0
 174 00ce 039B     		ldr	r3, [sp, #12]
 175 00d0 9A68     		ldr	r2, [r3, #8]
 176 00d2 039B     		ldr	r3, [sp, #12]
 177 00d4 DB68     		ldr	r3, [r3, #12]
 178 00d6 9A42     		cmp	r2, r3
 179 00d8 02D1     		bne	.L8
 180              		.loc 1 70 0
 181 00da 6FF00103 		mvn	r3, #1
 182 00de 0DE0     		b	.L9
 183              	.L8:
 184              		.loc 1 71 0
 185 00e0 039B     		ldr	r3, [sp, #12]
 186 00e2 5A68     		ldr	r2, [r3, #4]
 187 00e4 039B     		ldr	r3, [sp, #12]
 188 00e6 DB68     		ldr	r3, [r3, #12]
 189 00e8 1344     		add	r3, r3, r2
 190 00ea 9DF80320 		ldrb	r2, [sp, #3]
 191 00ee 1A70     		strb	r2, [r3]
 192              		.loc 1 72 0
 193 00f0 039B     		ldr	r3, [sp, #12]
 194 00f2 DB68     		ldr	r3, [r3, #12]
 195 00f4 5A1C     		adds	r2, r3, #1
 196 00f6 039B     		ldr	r3, [sp, #12]
 197 00f8 DA60     		str	r2, [r3, #12]
 198              		.loc 1 73 0
 199 00fa 0023     		movs	r3, #0
 200              	.L9:
 201              		.loc 1 74 0
 202 00fc 1846     		mov	r0, r3
 203 00fe 04B0     		add	sp, sp, #16
 204              		.cfi_def_cfa_offset 0
 205              		@ sp needed
 206 0100 7047     		bx	lr
 207              		.cfi_endproc
 208              	.LFE281:
 209              		.size	_put, .-_put
 210 0102 00BF     		.align	2
 211 0104 AFF30080 		.p2align 4,,15
 211      AFF30080 
 211      AFF30080 
 212              		.thumb
 213              		.thumb_func
 214              		.type	_get, %function
 215              	_get:
 216              	.LFB282:
 217              		.loc 1 76 0
 218              		.cfi_startproc
 219              		@ args = 0, pretend = 0, frame = 16
 220              		@ frame_needed = 0, uses_anonymous_args = 0
 221              		@ link register save eliminated.
 222 0110 84B0     		sub	sp, sp, #16
ARM GAS  /tmp/ccCmk7MO.s 			page 5


 223              		.cfi_def_cfa_offset 16
 224 0112 0190     		str	r0, [sp, #4]
 225              		.loc 1 78 0
 226 0114 019B     		ldr	r3, [sp, #4]
 227 0116 0393     		str	r3, [sp, #12]
 228              		.loc 1 80 0
 229 0118 039B     		ldr	r3, [sp, #12]
 230 011a DA68     		ldr	r2, [r3, #12]
 231 011c 039B     		ldr	r3, [sp, #12]
 232 011e 1B69     		ldr	r3, [r3, #16]
 233 0120 9A42     		cmp	r2, r3
 234 0122 02D1     		bne	.L11
 235              		.loc 1 81 0
 236 0124 6FF00103 		mvn	r3, #1
 237 0128 0EE0     		b	.L12
 238              	.L11:
 239              		.loc 1 82 0
 240 012a 039B     		ldr	r3, [sp, #12]
 241 012c 5A68     		ldr	r2, [r3, #4]
 242 012e 039B     		ldr	r3, [sp, #12]
 243 0130 1B69     		ldr	r3, [r3, #16]
 244 0132 1344     		add	r3, r3, r2
 245 0134 1B78     		ldrb	r3, [r3]
 246 0136 8DF80B30 		strb	r3, [sp, #11]
 247              		.loc 1 83 0
 248 013a 039B     		ldr	r3, [sp, #12]
 249 013c 1B69     		ldr	r3, [r3, #16]
 250 013e 5A1C     		adds	r2, r3, #1
 251 0140 039B     		ldr	r3, [sp, #12]
 252 0142 1A61     		str	r2, [r3, #16]
 253              		.loc 1 84 0
 254 0144 9DF80B30 		ldrb	r3, [sp, #11]	@ zero_extendqisi2
 255              	.L12:
 256              		.loc 1 85 0
 257 0148 1846     		mov	r0, r3
 258 014a 04B0     		add	sp, sp, #16
 259              		.cfi_def_cfa_offset 0
 260              		@ sp needed
 261 014c 7047     		bx	lr
 262              		.cfi_endproc
 263              	.LFE282:
 264              		.size	_get, .-_get
 265              		.section	.rodata
 266              		.align	2
 267              		.type	vmt, %object
 268              		.size	vmt, 16
 269              	vmt:
 270 0000 00000000 		.word	_writes
 271 0004 00000000 		.word	_reads
 272 0008 00000000 		.word	_put
 273 000c 00000000 		.word	_get
 274              		.text
 275 014e 00BF     		.align	2
 276              		.p2align 4,,15
 277              		.global	msObjectInit
 278              		.thumb
 279              		.thumb_func
ARM GAS  /tmp/ccCmk7MO.s 			page 6


 280              		.type	msObjectInit, %function
 281              	msObjectInit:
 282              	.LFB283:
 283              		.loc 1 104 0
 284              		.cfi_startproc
 285              		@ args = 0, pretend = 0, frame = 16
 286              		@ frame_needed = 0, uses_anonymous_args = 0
 287              		@ link register save eliminated.
 288 0150 84B0     		sub	sp, sp, #16
 289              		.cfi_def_cfa_offset 16
 290 0152 0390     		str	r0, [sp, #12]
 291 0154 0291     		str	r1, [sp, #8]
 292 0156 0192     		str	r2, [sp, #4]
 293 0158 0093     		str	r3, [sp]
 294              		.loc 1 106 0
 295 015a 039B     		ldr	r3, [sp, #12]
 296 015c 074A     		ldr	r2, .L14
 297 015e 1A60     		str	r2, [r3]
 298              		.loc 1 107 0
 299 0160 039B     		ldr	r3, [sp, #12]
 300 0162 029A     		ldr	r2, [sp, #8]
 301 0164 5A60     		str	r2, [r3, #4]
 302              		.loc 1 108 0
 303 0166 039B     		ldr	r3, [sp, #12]
 304 0168 019A     		ldr	r2, [sp, #4]
 305 016a 9A60     		str	r2, [r3, #8]
 306              		.loc 1 109 0
 307 016c 039B     		ldr	r3, [sp, #12]
 308 016e 009A     		ldr	r2, [sp]
 309 0170 DA60     		str	r2, [r3, #12]
 310              		.loc 1 110 0
 311 0172 039B     		ldr	r3, [sp, #12]
 312 0174 0022     		movs	r2, #0
 313 0176 1A61     		str	r2, [r3, #16]
 314              		.loc 1 111 0
 315 0178 04B0     		add	sp, sp, #16
 316              		.cfi_def_cfa_offset 0
 317              		@ sp needed
 318 017a 7047     		bx	lr
 319              	.L15:
 320              		.align	2
 321              	.L14:
 322 017c 00000000 		.word	vmt
 323              		.cfi_endproc
 324              	.LFE283:
 325              		.size	msObjectInit, .-msObjectInit
 326              	.Letext0:
 327              		.file 2 "/usr/lib/gcc/arm-none-eabi/4.9.3/include/stddef.h"
 328              		.file 3 "/usr/include/newlib/machine/_default_types.h"
 329              		.file 4 "/usr/include/newlib/sys/_stdint.h"
 330              		.file 5 "../../../os/common/ports/ARMCMx/compilers/GCC/chtypes.h"
 331              		.file 6 "../../../os/rt/include/chsystypes.h"
 332              		.file 7 "../../../os/rt/include/chschd.h"
 333              		.file 8 "../../../os/common/ports/ARMCMx/chcore.h"
 334              		.file 9 "../../../os/common/ports/ARMCMx/chcore_v7m.h"
 335              		.file 10 "../../../os/rt/include/chtm.h"
 336              		.file 11 "../../../os/rt/include/chsem.h"
ARM GAS  /tmp/ccCmk7MO.s 			page 7


 337              		.file 12 "../../../os/rt/include/chmtx.h"
 338              		.file 13 "../../../os/hal/lib/streams/memstreams.h"
 339              		.file 14 "../../../os/common/ext/CMSIS/include/core_cm4.h"