ARM GAS  /tmp/ccEHFH0X.s 			page 1


   1              		.syntax unified
   2              		.cpu cortex-m4
   3              		.fpu softvfp
   4              		.eabi_attribute 20, 1
   5              		.eabi_attribute 21, 1
   6              		.eabi_attribute 23, 3
   7              		.eabi_attribute 24, 1
   8              		.eabi_attribute 25, 1
   9              		.eabi_attribute 26, 1
  10              		.eabi_attribute 30, 6
  11              		.eabi_attribute 34, 1
  12              		.eabi_attribute 18, 4
  13              		.thumb
  14              		.file	"nullstreams.c"
  15              		.text
  16              	.Ltext0:
  17              		.cfi_sections	.debug_frame
  18              		.align	2
  19              		.p2align 4,,15
  20              		.thumb
  21              		.thumb_func
  22              		.type	writes, %function
  23              	writes:
  24              	.LFB279:
  25              		.file 1 "../../../os/hal/lib/streams/nullstreams.c"
  26              		.loc 1 44 0
  27              		.cfi_startproc
  28              		@ args = 0, pretend = 0, frame = 16
  29              		@ frame_needed = 0, uses_anonymous_args = 0
  30              		@ link register save eliminated.
  31 0000 84B0     		sub	sp, sp, #16
  32              		.cfi_def_cfa_offset 16
  33 0002 0390     		str	r0, [sp, #12]
  34 0004 0291     		str	r1, [sp, #8]
  35 0006 0192     		str	r2, [sp, #4]
  36              		.loc 1 49 0
  37 0008 019B     		ldr	r3, [sp, #4]
  38              		.loc 1 50 0
  39 000a 1846     		mov	r0, r3
  40 000c 04B0     		add	sp, sp, #16
  41              		.cfi_def_cfa_offset 0
  42              		@ sp needed
  43 000e 7047     		bx	lr
  44              		.cfi_endproc
  45              	.LFE279:
  46              		.size	writes, .-writes
  47              		.align	2
  48              		.p2align 4,,15
  49              		.thumb
  50              		.thumb_func
  51              		.type	reads, %function
  52              	reads:
  53              	.LFB280:
  54              		.loc 1 52 0
  55              		.cfi_startproc
  56              		@ args = 0, pretend = 0, frame = 16
  57              		@ frame_needed = 0, uses_anonymous_args = 0
ARM GAS  /tmp/ccEHFH0X.s 			page 2


  58              		@ link register save eliminated.
  59 0010 84B0     		sub	sp, sp, #16
  60              		.cfi_def_cfa_offset 16
  61 0012 0390     		str	r0, [sp, #12]
  62 0014 0291     		str	r1, [sp, #8]
  63 0016 0192     		str	r2, [sp, #4]
  64              		.loc 1 58 0
  65 0018 0023     		movs	r3, #0
  66              		.loc 1 59 0
  67 001a 1846     		mov	r0, r3
  68 001c 04B0     		add	sp, sp, #16
  69              		.cfi_def_cfa_offset 0
  70              		@ sp needed
  71 001e 7047     		bx	lr
  72              		.cfi_endproc
  73              	.LFE280:
  74              		.size	reads, .-reads
  75              		.align	2
  76              		.p2align 4,,15
  77              		.thumb
  78              		.thumb_func
  79              		.type	put, %function
  80              	put:
  81              	.LFB281:
  82              		.loc 1 61 0
  83              		.cfi_startproc
  84              		@ args = 0, pretend = 0, frame = 8
  85              		@ frame_needed = 0, uses_anonymous_args = 0
  86              		@ link register save eliminated.
  87 0020 82B0     		sub	sp, sp, #8
  88              		.cfi_def_cfa_offset 8
  89 0022 0190     		str	r0, [sp, #4]
  90 0024 0B46     		mov	r3, r1
  91 0026 8DF80330 		strb	r3, [sp, #3]
  92              		.loc 1 66 0
  93 002a 0023     		movs	r3, #0
  94              		.loc 1 67 0
  95 002c 1846     		mov	r0, r3
  96 002e 02B0     		add	sp, sp, #8
  97              		.cfi_def_cfa_offset 0
  98              		@ sp needed
  99 0030 7047     		bx	lr
 100              		.cfi_endproc
 101              	.LFE281:
 102              		.size	put, .-put
 103 0032 00BF     		.align	2
 104 0034 AFF30080 		.p2align 4,,15
 104      AFF30080 
 104      AFF30080 
 105              		.thumb
 106              		.thumb_func
 107              		.type	get, %function
 108              	get:
 109              	.LFB282:
 110              		.loc 1 69 0
 111              		.cfi_startproc
 112              		@ args = 0, pretend = 0, frame = 8
ARM GAS  /tmp/ccEHFH0X.s 			page 3


 113              		@ frame_needed = 0, uses_anonymous_args = 0
 114              		@ link register save eliminated.
 115 0040 82B0     		sub	sp, sp, #8
 116              		.cfi_def_cfa_offset 8
 117 0042 0190     		str	r0, [sp, #4]
 118              		.loc 1 73 0
 119 0044 0423     		movs	r3, #4
 120              		.loc 1 74 0
 121 0046 1846     		mov	r0, r3
 122 0048 02B0     		add	sp, sp, #8
 123              		.cfi_def_cfa_offset 0
 124              		@ sp needed
 125 004a 7047     		bx	lr
 126              		.cfi_endproc
 127              	.LFE282:
 128              		.size	get, .-get
 129              		.section	.rodata
 130              		.align	2
 131              		.type	vmt, %object
 132              		.size	vmt, 16
 133              	vmt:
 134 0000 00000000 		.word	writes
 135 0004 00000000 		.word	reads
 136 0008 00000000 		.word	put
 137 000c 00000000 		.word	get
 138              		.text
 139              		.align	2
 140 004c AFF30080 		.p2align 4,,15
 141              		.global	nullObjectInit
 142              		.thumb
 143              		.thumb_func
 144              		.type	nullObjectInit, %function
 145              	nullObjectInit:
 146              	.LFB283:
 147              		.loc 1 87 0
 148              		.cfi_startproc
 149              		@ args = 0, pretend = 0, frame = 8
 150              		@ frame_needed = 0, uses_anonymous_args = 0
 151              		@ link register save eliminated.
 152 0050 82B0     		sub	sp, sp, #8
 153              		.cfi_def_cfa_offset 8
 154 0052 0190     		str	r0, [sp, #4]
 155              		.loc 1 89 0
 156 0054 019B     		ldr	r3, [sp, #4]
 157 0056 024A     		ldr	r2, .L10
 158 0058 1A60     		str	r2, [r3]
 159              		.loc 1 90 0
 160 005a 02B0     		add	sp, sp, #8
 161              		.cfi_def_cfa_offset 0
 162              		@ sp needed
 163 005c 7047     		bx	lr
 164              	.L11:
 165 005e 00BF     		.align	2
 166              	.L10:
 167 0060 00000000 		.word	vmt
 168              		.cfi_endproc
 169              	.LFE283:
ARM GAS  /tmp/ccEHFH0X.s 			page 4


 170              		.size	nullObjectInit, .-nullObjectInit
 171              	.Letext0:
 172              		.file 2 "/usr/lib/gcc/arm-none-eabi/4.9.3/include/stddef.h"
 173              		.file 3 "/usr/include/newlib/machine/_default_types.h"
 174              		.file 4 "/usr/include/newlib/sys/_stdint.h"
 175              		.file 5 "../../../os/common/ports/ARMCMx/compilers/GCC/chtypes.h"
 176              		.file 6 "../../../os/rt/include/chsystypes.h"
 177              		.file 7 "../../../os/rt/include/chschd.h"
 178              		.file 8 "../../../os/common/ports/ARMCMx/chcore.h"
 179              		.file 9 "../../../os/common/ports/ARMCMx/chcore_v7m.h"
 180              		.file 10 "../../../os/rt/include/chtm.h"
 181              		.file 11 "../../../os/rt/include/chsem.h"
 182              		.file 12 "../../../os/rt/include/chmtx.h"
 183              		.file 13 "../../../os/hal/lib/streams/nullstreams.h"
 184              		.file 14 "../../../os/common/ext/CMSIS/include/core_cm4.h"