ARM GAS  /tmp/cctNZnlz.s 			page 1


   1              		.syntax unified
   2              		.cpu cortex-m4
   3              		.fpu softvfp
   4              		.eabi_attribute 20, 1
   5              		.eabi_attribute 21, 1
   6              		.eabi_attribute 23, 3
   7              		.eabi_attribute 24, 1
   8              		.eabi_attribute 25, 1
   9              		.eabi_attribute 26, 1
  10              		.eabi_attribute 30, 6
  11              		.eabi_attribute 34, 1
  12              		.eabi_attribute 18, 4
  13              		.thumb
  14              		.file	"nvic.c"
  15              		.text
  16              	.Ltext0:
  17              		.cfi_sections	.debug_frame
  18              		.align	2
  19              		.p2align 4,,15
  20              		.global	nvicEnableVector
  21              		.thumb
  22              		.thumb_func
  23              		.type	nvicEnableVector, %function
  24              	nvicEnableVector:
  25              	.LFB279:
  26              		.file 1 "../../../os/hal/ports/common/ARMCMx/nvic.c"
  27              		.loc 1 57 0
  28              		.cfi_startproc
  29              		@ args = 0, pretend = 0, frame = 8
  30              		@ frame_needed = 0, uses_anonymous_args = 0
  31              		@ link register save eliminated.
  32 0000 82B0     		sub	sp, sp, #8
  33              		.cfi_def_cfa_offset 8
  34 0002 0190     		str	r0, [sp, #4]
  35 0004 0091     		str	r1, [sp]
  36              		.loc 1 63 0
  37 0006 124A     		ldr	r2, .L2
  38 0008 009B     		ldr	r3, [sp]
  39 000a DBB2     		uxtb	r3, r3
  40 000c 1B01     		lsls	r3, r3, #4
  41 000e D9B2     		uxtb	r1, r3
  42 0010 019B     		ldr	r3, [sp, #4]
  43 0012 1344     		add	r3, r3, r2
  44 0014 03F54073 		add	r3, r3, #768
  45 0018 0A46     		mov	r2, r1
  46 001a 1A70     		strb	r2, [r3]
  47              		.loc 1 65 0
  48 001c 0C49     		ldr	r1, .L2
  49 001e 019B     		ldr	r3, [sp, #4]
  50 0020 5B09     		lsrs	r3, r3, #5
  51 0022 019A     		ldr	r2, [sp, #4]
  52 0024 02F01F02 		and	r2, r2, #31
  53 0028 0120     		movs	r0, #1
  54 002a 00FA02F2 		lsl	r2, r0, r2
  55 002e 6033     		adds	r3, r3, #96
  56 0030 41F82320 		str	r2, [r1, r3, lsl #2]
  57              		.loc 1 66 0
ARM GAS  /tmp/cctNZnlz.s 			page 2


  58 0034 0649     		ldr	r1, .L2
  59 0036 019B     		ldr	r3, [sp, #4]
  60 0038 5B09     		lsrs	r3, r3, #5
  61 003a 019A     		ldr	r2, [sp, #4]
  62 003c 02F01F02 		and	r2, r2, #31
  63 0040 0120     		movs	r0, #1
  64 0042 00FA02F2 		lsl	r2, r0, r2
  65 0046 41F82320 		str	r2, [r1, r3, lsl #2]
  66              		.loc 1 67 0
  67 004a 02B0     		add	sp, sp, #8
  68              		.cfi_def_cfa_offset 0
  69              		@ sp needed
  70 004c 7047     		bx	lr
  71              	.L3:
  72 004e 00BF     		.align	2
  73              	.L2:
  74 0050 00E100E0 		.word	-536813312
  75              		.cfi_endproc
  76              	.LFE279:
  77              		.size	nvicEnableVector, .-nvicEnableVector
  78              		.align	2
  79 0054 AFF30080 		.p2align 4,,15
  79      AFF30080 
  79      AFF30080 
  80              		.global	nvicDisableVector
  81              		.thumb
  82              		.thumb_func
  83              		.type	nvicDisableVector, %function
  84              	nvicDisableVector:
  85              	.LFB280:
  86              		.loc 1 74 0
  87              		.cfi_startproc
  88              		@ args = 0, pretend = 0, frame = 8
  89              		@ frame_needed = 0, uses_anonymous_args = 0
  90              		@ link register save eliminated.
  91 0060 82B0     		sub	sp, sp, #8
  92              		.cfi_def_cfa_offset 8
  93 0062 0190     		str	r0, [sp, #4]
  94              		.loc 1 76 0
  95 0064 0A49     		ldr	r1, .L5
  96 0066 019B     		ldr	r3, [sp, #4]
  97 0068 5B09     		lsrs	r3, r3, #5
  98 006a 019A     		ldr	r2, [sp, #4]
  99 006c 02F01F02 		and	r2, r2, #31
 100 0070 0120     		movs	r0, #1
 101 0072 00FA02F2 		lsl	r2, r0, r2
 102 0076 2033     		adds	r3, r3, #32
 103 0078 41F82320 		str	r2, [r1, r3, lsl #2]
 104              		.loc 1 80 0
 105 007c 044A     		ldr	r2, .L5
 106 007e 019B     		ldr	r3, [sp, #4]
 107 0080 1344     		add	r3, r3, r2
 108 0082 03F54073 		add	r3, r3, #768
 109 0086 0022     		movs	r2, #0
 110 0088 1A70     		strb	r2, [r3]
 111              		.loc 1 82 0
 112 008a 02B0     		add	sp, sp, #8
ARM GAS  /tmp/cctNZnlz.s 			page 3


 113              		.cfi_def_cfa_offset 0
 114              		@ sp needed
 115 008c 7047     		bx	lr
 116              	.L6:
 117 008e 00BF     		.align	2
 118              	.L5:
 119 0090 00E100E0 		.word	-536813312
 120              		.cfi_endproc
 121              	.LFE280:
 122              		.size	nvicDisableVector, .-nvicDisableVector
 123              		.align	2
 124 0094 AFF30080 		.p2align 4,,15
 124      AFF30080 
 124      AFF30080 
 125              		.global	nvicSetSystemHandlerPriority
 126              		.thumb
 127              		.thumb_func
 128              		.type	nvicSetSystemHandlerPriority, %function
 129              	nvicSetSystemHandlerPriority:
 130              	.LFB281:
 131              		.loc 1 90 0
 132              		.cfi_startproc
 133              		@ args = 0, pretend = 0, frame = 8
 134              		@ frame_needed = 0, uses_anonymous_args = 0
 135              		@ link register save eliminated.
 136 00a0 82B0     		sub	sp, sp, #8
 137              		.cfi_def_cfa_offset 8
 138 00a2 0190     		str	r0, [sp, #4]
 139 00a4 0091     		str	r1, [sp]
 140              		.loc 1 100 0
 141 00a6 064A     		ldr	r2, .L8
 142 00a8 009B     		ldr	r3, [sp]
 143 00aa DBB2     		uxtb	r3, r3
 144 00ac 1B01     		lsls	r3, r3, #4
 145 00ae D9B2     		uxtb	r1, r3
 146 00b0 019B     		ldr	r3, [sp, #4]
 147 00b2 1344     		add	r3, r3, r2
 148 00b4 1833     		adds	r3, r3, #24
 149 00b6 0A46     		mov	r2, r1
 150 00b8 1A70     		strb	r2, [r3]
 151              		.loc 1 102 0
 152 00ba 02B0     		add	sp, sp, #8
 153              		.cfi_def_cfa_offset 0
 154              		@ sp needed
 155 00bc 7047     		bx	lr
 156              	.L9:
 157 00be 00BF     		.align	2
 158              	.L8:
 159 00c0 00ED00E0 		.word	-536810240
 160              		.cfi_endproc
 161              	.LFE281:
 162              		.size	nvicSetSystemHandlerPriority, .-nvicSetSystemHandlerPriority
 163              		.align	2
 164 00c4 AFF30080 		.p2align 4,,15
 164      AFF30080 
 164      AFF30080 
 165              		.global	nvicClearPending
ARM GAS  /tmp/cctNZnlz.s 			page 4


 166              		.thumb
 167              		.thumb_func
 168              		.type	nvicClearPending, %function
 169              	nvicClearPending:
 170              	.LFB282:
 171              		.loc 1 109 0
 172              		.cfi_startproc
 173              		@ args = 0, pretend = 0, frame = 8
 174              		@ frame_needed = 0, uses_anonymous_args = 0
 175              		@ link register save eliminated.
 176 00d0 82B0     		sub	sp, sp, #8
 177              		.cfi_def_cfa_offset 8
 178 00d2 0190     		str	r0, [sp, #4]
 179              		.loc 1 111 0
 180 00d4 0649     		ldr	r1, .L11
 181 00d6 019B     		ldr	r3, [sp, #4]
 182 00d8 5B09     		lsrs	r3, r3, #5
 183 00da 019A     		ldr	r2, [sp, #4]
 184 00dc 02F01F02 		and	r2, r2, #31
 185 00e0 0120     		movs	r0, #1
 186 00e2 00FA02F2 		lsl	r2, r0, r2
 187 00e6 6033     		adds	r3, r3, #96
 188 00e8 41F82320 		str	r2, [r1, r3, lsl #2]
 189              		.loc 1 112 0
 190 00ec 02B0     		add	sp, sp, #8
 191              		.cfi_def_cfa_offset 0
 192              		@ sp needed
 193 00ee 7047     		bx	lr
 194              	.L12:
 195              		.align	2
 196              	.L11:
 197 00f0 00E100E0 		.word	-536813312
 198              		.cfi_endproc
 199              	.LFE282:
 200              		.size	nvicClearPending, .-nvicClearPending
 201              	.Letext0:
 202              		.file 2 "/usr/include/newlib/machine/_default_types.h"
 203              		.file 3 "/usr/include/newlib/sys/_stdint.h"
 204              		.file 4 "../../../os/common/ports/ARMCMx/compilers/GCC/chtypes.h"
 205              		.file 5 "../../../os/rt/include/chsystypes.h"
 206              		.file 6 "../../../os/rt/include/chschd.h"
 207              		.file 7 "../../../os/common/ext/CMSIS/include/core_cm4.h"
 208              		.file 8 "../../../os/common/ports/ARMCMx/chcore.h"
 209              		.file 9 "../../../os/common/ports/ARMCMx/chcore_v7m.h"
 210              		.file 10 "../../../os/rt/include/chtm.h"
 211              		.file 11 "../../../os/rt/include/chsem.h"
 212              		.file 12 "../../../os/rt/include/chmtx.h"