ARM GAS  /tmp/cc0xlfIL.s 			page 1


   1              		.syntax unified
   2              		.cpu cortex-m4
   3              		.fpu softvfp
   4              		.eabi_attribute 20, 1
   5              		.eabi_attribute 21, 1
   6              		.eabi_attribute 23, 3
   7              		.eabi_attribute 24, 1
   8              		.eabi_attribute 25, 1
   9              		.eabi_attribute 26, 1
  10              		.eabi_attribute 30, 6
  11              		.eabi_attribute 34, 1
  12              		.eabi_attribute 18, 4
  13              		.thumb
  14              		.file	"stm32_dma.c"
  15              		.text
  16              	.Ltext0:
  17              		.cfi_sections	.debug_frame
  18              		.global	_stm32_dma_streams
  19              		.section	.rodata
  20              		.align	2
  21              		.type	_stm32_dma_streams, %object
  22              		.size	_stm32_dma_streams, 192
  23              	_stm32_dma_streams:
  24 0000 10600240 		.word	1073897488
  25 0004 08600240 		.word	1073897480
  26 0008 00       		.byte	0
  27 0009 00       		.byte	0
  28 000a 0B       		.byte	11
  29 000b 00       		.space	1
  30 000c 28600240 		.word	1073897512
  31 0010 08600240 		.word	1073897480
  32 0014 06       		.byte	6
  33 0015 01       		.byte	1
  34 0016 0C       		.byte	12
  35 0017 00       		.space	1
  36 0018 40600240 		.word	1073897536
  37 001c 08600240 		.word	1073897480
  38 0020 10       		.byte	16
  39 0021 02       		.byte	2
  40 0022 0D       		.byte	13
  41 0023 00       		.space	1
  42 0024 58600240 		.word	1073897560
  43 0028 08600240 		.word	1073897480
  44 002c 16       		.byte	22
  45 002d 03       		.byte	3
  46 002e 0E       		.byte	14
  47 002f 00       		.space	1
  48 0030 70600240 		.word	1073897584
  49 0034 0C600240 		.word	1073897484
  50 0038 00       		.byte	0
  51 0039 04       		.byte	4
  52 003a 0F       		.byte	15
  53 003b 00       		.space	1
  54 003c 88600240 		.word	1073897608
  55 0040 0C600240 		.word	1073897484
  56 0044 06       		.byte	6
  57 0045 05       		.byte	5
ARM GAS  /tmp/cc0xlfIL.s 			page 2


  58 0046 10       		.byte	16
  59 0047 00       		.space	1
  60 0048 A0600240 		.word	1073897632
  61 004c 0C600240 		.word	1073897484
  62 0050 10       		.byte	16
  63 0051 06       		.byte	6
  64 0052 11       		.byte	17
  65 0053 00       		.space	1
  66 0054 B8600240 		.word	1073897656
  67 0058 0C600240 		.word	1073897484
  68 005c 16       		.byte	22
  69 005d 07       		.byte	7
  70 005e 2F       		.byte	47
  71 005f 00       		.space	1
  72 0060 10640240 		.word	1073898512
  73 0064 08640240 		.word	1073898504
  74 0068 00       		.byte	0
  75 0069 08       		.byte	8
  76 006a 38       		.byte	56
  77 006b 00       		.space	1
  78 006c 28640240 		.word	1073898536
  79 0070 08640240 		.word	1073898504
  80 0074 06       		.byte	6
  81 0075 09       		.byte	9
  82 0076 39       		.byte	57
  83 0077 00       		.space	1
  84 0078 40640240 		.word	1073898560
  85 007c 08640240 		.word	1073898504
  86 0080 10       		.byte	16
  87 0081 0A       		.byte	10
  88 0082 3A       		.byte	58
  89 0083 00       		.space	1
  90 0084 58640240 		.word	1073898584
  91 0088 08640240 		.word	1073898504
  92 008c 16       		.byte	22
  93 008d 0B       		.byte	11
  94 008e 3B       		.byte	59
  95 008f 00       		.space	1
  96 0090 70640240 		.word	1073898608
  97 0094 0C640240 		.word	1073898508
  98 0098 00       		.byte	0
  99 0099 0C       		.byte	12
 100 009a 3C       		.byte	60
 101 009b 00       		.space	1
 102 009c 88640240 		.word	1073898632
 103 00a0 0C640240 		.word	1073898508
 104 00a4 06       		.byte	6
 105 00a5 0D       		.byte	13
 106 00a6 44       		.byte	68
 107 00a7 00       		.space	1
 108 00a8 A0640240 		.word	1073898656
 109 00ac 0C640240 		.word	1073898508
 110 00b0 10       		.byte	16
 111 00b1 0E       		.byte	14
 112 00b2 45       		.byte	69
 113 00b3 00       		.space	1
 114 00b4 B8640240 		.word	1073898680
ARM GAS  /tmp/cc0xlfIL.s 			page 3


 115 00b8 0C640240 		.word	1073898508
 116 00bc 16       		.byte	22
 117 00bd 0F       		.byte	15
 118 00be 46       		.byte	70
 119 00bf 00       		.space	1
 120              		.bss
 121              		.align	2
 122              	dma_streams_mask:
 123 0000 00000000 		.space	4
 124              		.align	2
 125              	dma_isr_redir:
 126 0004 00000000 		.space	128
 126      00000000 
 126      00000000 
 126      00000000 
 126      00000000 
 127              		.text
 128              		.align	2
 129              		.p2align 4,,15
 130              		.global	Vector6C
 131              		.thumb
 132              		.thumb_func
 133              		.type	Vector6C, %function
 134              	Vector6C:
 135              	.LFB279:
 136              		.file 1 "../../../os/hal/ports/STM32/LLD/DMAv2/stm32_dma.c"
 137              		.loc 1 117 0
 138              		.cfi_startproc
 139              		@ args = 0, pretend = 0, frame = 8
 140              		@ frame_needed = 0, uses_anonymous_args = 0
 141 0000 00B5     		push	{lr}
 142              		.cfi_def_cfa_offset 4
 143              		.cfi_offset 14, -4
 144 0002 83B0     		sub	sp, sp, #12
 145              		.cfi_def_cfa_offset 16
 146              		.loc 1 122 0
 147 0004 0B4B     		ldr	r3, .L3
 148 0006 1B68     		ldr	r3, [r3]
 149 0008 03F03D03 		and	r3, r3, #61
 150 000c 0193     		str	r3, [sp, #4]
 151              		.loc 1 123 0
 152 000e 094A     		ldr	r2, .L3
 153 0010 019B     		ldr	r3, [sp, #4]
 154 0012 9360     		str	r3, [r2, #8]
 155              		.loc 1 124 0
 156 0014 084B     		ldr	r3, .L3+4
 157 0016 1B68     		ldr	r3, [r3]
 158 0018 002B     		cmp	r3, #0
 159 001a 06D0     		beq	.L2
 160              		.loc 1 125 0
 161 001c 064B     		ldr	r3, .L3+4
 162 001e 1B68     		ldr	r3, [r3]
 163 0020 054A     		ldr	r2, .L3+4
 164 0022 5268     		ldr	r2, [r2, #4]
 165 0024 1046     		mov	r0, r2
 166 0026 0199     		ldr	r1, [sp, #4]
 167 0028 9847     		blx	r3
ARM GAS  /tmp/cc0xlfIL.s 			page 4


 168              	.L2:
 169              		.loc 1 127 0
 170 002a FFF7FEFF 		bl	_port_irq_epilogue
 171              		.loc 1 128 0
 172 002e 03B0     		add	sp, sp, #12
 173              		.cfi_def_cfa_offset 4
 174              		@ sp needed
 175 0030 5DF804FB 		ldr	pc, [sp], #4
 176              	.L4:
 177              		.align	2
 178              	.L3:
 179 0034 00600240 		.word	1073897472
 180 0038 04000000 		.word	dma_isr_redir
 181              		.cfi_endproc
 182              	.LFE279:
 183              		.size	Vector6C, .-Vector6C
 184              		.align	2
 185 003c AFF30080 		.p2align 4,,15
 186              		.global	Vector70
 187              		.thumb
 188              		.thumb_func
 189              		.type	Vector70, %function
 190              	Vector70:
 191              	.LFB280:
 192              		.loc 1 135 0
 193              		.cfi_startproc
 194              		@ args = 0, pretend = 0, frame = 8
 195              		@ frame_needed = 0, uses_anonymous_args = 0
 196 0040 00B5     		push	{lr}
 197              		.cfi_def_cfa_offset 4
 198              		.cfi_offset 14, -4
 199 0042 83B0     		sub	sp, sp, #12
 200              		.cfi_def_cfa_offset 16
 201              		.loc 1 140 0
 202 0044 0C4B     		ldr	r3, .L7
 203 0046 1B68     		ldr	r3, [r3]
 204 0048 9B09     		lsrs	r3, r3, #6
 205 004a 03F03D03 		and	r3, r3, #61
 206 004e 0193     		str	r3, [sp, #4]
 207              		.loc 1 141 0
 208 0050 094A     		ldr	r2, .L7
 209 0052 019B     		ldr	r3, [sp, #4]
 210 0054 9B01     		lsls	r3, r3, #6
 211 0056 9360     		str	r3, [r2, #8]
 212              		.loc 1 142 0
 213 0058 084B     		ldr	r3, .L7+4
 214 005a 9B68     		ldr	r3, [r3, #8]
 215 005c 002B     		cmp	r3, #0
 216 005e 06D0     		beq	.L6
 217              		.loc 1 143 0
 218 0060 064B     		ldr	r3, .L7+4
 219 0062 9B68     		ldr	r3, [r3, #8]
 220 0064 054A     		ldr	r2, .L7+4
 221 0066 D268     		ldr	r2, [r2, #12]
 222 0068 1046     		mov	r0, r2
 223 006a 0199     		ldr	r1, [sp, #4]
 224 006c 9847     		blx	r3
ARM GAS  /tmp/cc0xlfIL.s 			page 5


 225              	.L6:
 226              		.loc 1 145 0
 227 006e FFF7FEFF 		bl	_port_irq_epilogue
 228              		.loc 1 146 0
 229 0072 03B0     		add	sp, sp, #12
 230              		.cfi_def_cfa_offset 4
 231              		@ sp needed
 232 0074 5DF804FB 		ldr	pc, [sp], #4
 233              	.L8:
 234              		.align	2
 235              	.L7:
 236 0078 00600240 		.word	1073897472
 237 007c 04000000 		.word	dma_isr_redir
 238              		.cfi_endproc
 239              	.LFE280:
 240              		.size	Vector70, .-Vector70
 241              		.align	2
 242              		.p2align 4,,15
 243              		.global	Vector74
 244              		.thumb
 245              		.thumb_func
 246              		.type	Vector74, %function
 247              	Vector74:
 248              	.LFB281:
 249              		.loc 1 153 0
 250              		.cfi_startproc
 251              		@ args = 0, pretend = 0, frame = 8
 252              		@ frame_needed = 0, uses_anonymous_args = 0
 253 0080 00B5     		push	{lr}
 254              		.cfi_def_cfa_offset 4
 255              		.cfi_offset 14, -4
 256 0082 83B0     		sub	sp, sp, #12
 257              		.cfi_def_cfa_offset 16
 258              		.loc 1 158 0
 259 0084 0C4B     		ldr	r3, .L11
 260 0086 1B68     		ldr	r3, [r3]
 261 0088 1B0C     		lsrs	r3, r3, #16
 262 008a 03F03D03 		and	r3, r3, #61
 263 008e 0193     		str	r3, [sp, #4]
 264              		.loc 1 159 0
 265 0090 094A     		ldr	r2, .L11
 266 0092 019B     		ldr	r3, [sp, #4]
 267 0094 1B04     		lsls	r3, r3, #16
 268 0096 9360     		str	r3, [r2, #8]
 269              		.loc 1 160 0
 270 0098 084B     		ldr	r3, .L11+4
 271 009a 1B69     		ldr	r3, [r3, #16]
 272 009c 002B     		cmp	r3, #0
 273 009e 06D0     		beq	.L10
 274              		.loc 1 161 0
 275 00a0 064B     		ldr	r3, .L11+4
 276 00a2 1B69     		ldr	r3, [r3, #16]
 277 00a4 054A     		ldr	r2, .L11+4
 278 00a6 5269     		ldr	r2, [r2, #20]
 279 00a8 1046     		mov	r0, r2
 280 00aa 0199     		ldr	r1, [sp, #4]
 281 00ac 9847     		blx	r3
ARM GAS  /tmp/cc0xlfIL.s 			page 6


 282              	.L10:
 283              		.loc 1 163 0
 284 00ae FFF7FEFF 		bl	_port_irq_epilogue
 285              		.loc 1 164 0
 286 00b2 03B0     		add	sp, sp, #12
 287              		.cfi_def_cfa_offset 4
 288              		@ sp needed
 289 00b4 5DF804FB 		ldr	pc, [sp], #4
 290              	.L12:
 291              		.align	2
 292              	.L11:
 293 00b8 00600240 		.word	1073897472
 294 00bc 04000000 		.word	dma_isr_redir
 295              		.cfi_endproc
 296              	.LFE281:
 297              		.size	Vector74, .-Vector74
 298              		.align	2
 299              		.p2align 4,,15
 300              		.global	Vector78
 301              		.thumb
 302              		.thumb_func
 303              		.type	Vector78, %function
 304              	Vector78:
 305              	.LFB282:
 306              		.loc 1 171 0
 307              		.cfi_startproc
 308              		@ args = 0, pretend = 0, frame = 8
 309              		@ frame_needed = 0, uses_anonymous_args = 0
 310 00c0 00B5     		push	{lr}
 311              		.cfi_def_cfa_offset 4
 312              		.cfi_offset 14, -4
 313 00c2 83B0     		sub	sp, sp, #12
 314              		.cfi_def_cfa_offset 16
 315              		.loc 1 176 0
 316 00c4 0C4B     		ldr	r3, .L15
 317 00c6 1B68     		ldr	r3, [r3]
 318 00c8 9B0D     		lsrs	r3, r3, #22
 319 00ca 03F03D03 		and	r3, r3, #61
 320 00ce 0193     		str	r3, [sp, #4]
 321              		.loc 1 177 0
 322 00d0 094A     		ldr	r2, .L15
 323 00d2 019B     		ldr	r3, [sp, #4]
 324 00d4 9B05     		lsls	r3, r3, #22
 325 00d6 9360     		str	r3, [r2, #8]
 326              		.loc 1 178 0
 327 00d8 084B     		ldr	r3, .L15+4
 328 00da 9B69     		ldr	r3, [r3, #24]
 329 00dc 002B     		cmp	r3, #0
 330 00de 06D0     		beq	.L14
 331              		.loc 1 179 0
 332 00e0 064B     		ldr	r3, .L15+4
 333 00e2 9B69     		ldr	r3, [r3, #24]
 334 00e4 054A     		ldr	r2, .L15+4
 335 00e6 D269     		ldr	r2, [r2, #28]
 336 00e8 1046     		mov	r0, r2
 337 00ea 0199     		ldr	r1, [sp, #4]
 338 00ec 9847     		blx	r3
ARM GAS  /tmp/cc0xlfIL.s 			page 7


 339              	.L14:
 340              		.loc 1 181 0
 341 00ee FFF7FEFF 		bl	_port_irq_epilogue
 342              		.loc 1 182 0
 343 00f2 03B0     		add	sp, sp, #12
 344              		.cfi_def_cfa_offset 4
 345              		@ sp needed
 346 00f4 5DF804FB 		ldr	pc, [sp], #4
 347              	.L16:
 348              		.align	2
 349              	.L15:
 350 00f8 00600240 		.word	1073897472
 351 00fc 04000000 		.word	dma_isr_redir
 352              		.cfi_endproc
 353              	.LFE282:
 354              		.size	Vector78, .-Vector78
 355              		.align	2
 356              		.p2align 4,,15
 357              		.global	Vector7C
 358              		.thumb
 359              		.thumb_func
 360              		.type	Vector7C, %function
 361              	Vector7C:
 362              	.LFB283:
 363              		.loc 1 189 0
 364              		.cfi_startproc
 365              		@ args = 0, pretend = 0, frame = 8
 366              		@ frame_needed = 0, uses_anonymous_args = 0
 367 0100 00B5     		push	{lr}
 368              		.cfi_def_cfa_offset 4
 369              		.cfi_offset 14, -4
 370 0102 83B0     		sub	sp, sp, #12
 371              		.cfi_def_cfa_offset 16
 372              		.loc 1 194 0
 373 0104 0B4B     		ldr	r3, .L19
 374 0106 5B68     		ldr	r3, [r3, #4]
 375 0108 03F03D03 		and	r3, r3, #61
 376 010c 0193     		str	r3, [sp, #4]
 377              		.loc 1 195 0
 378 010e 094A     		ldr	r2, .L19
 379 0110 019B     		ldr	r3, [sp, #4]
 380 0112 D360     		str	r3, [r2, #12]
 381              		.loc 1 196 0
 382 0114 084B     		ldr	r3, .L19+4
 383 0116 1B6A     		ldr	r3, [r3, #32]
 384 0118 002B     		cmp	r3, #0
 385 011a 06D0     		beq	.L18
 386              		.loc 1 197 0
 387 011c 064B     		ldr	r3, .L19+4
 388 011e 1B6A     		ldr	r3, [r3, #32]
 389 0120 054A     		ldr	r2, .L19+4
 390 0122 526A     		ldr	r2, [r2, #36]
 391 0124 1046     		mov	r0, r2
 392 0126 0199     		ldr	r1, [sp, #4]
 393 0128 9847     		blx	r3
 394              	.L18:
 395              		.loc 1 199 0
ARM GAS  /tmp/cc0xlfIL.s 			page 8


 396 012a FFF7FEFF 		bl	_port_irq_epilogue
 397              		.loc 1 200 0
 398 012e 03B0     		add	sp, sp, #12
 399              		.cfi_def_cfa_offset 4
 400              		@ sp needed
 401 0130 5DF804FB 		ldr	pc, [sp], #4
 402              	.L20:
 403              		.align	2
 404              	.L19:
 405 0134 00600240 		.word	1073897472
 406 0138 04000000 		.word	dma_isr_redir
 407              		.cfi_endproc
 408              	.LFE283:
 409              		.size	Vector7C, .-Vector7C
 410              		.align	2
 411 013c AFF30080 		.p2align 4,,15
 412              		.global	Vector80
 413              		.thumb
 414              		.thumb_func
 415              		.type	Vector80, %function
 416              	Vector80:
 417              	.LFB284:
 418              		.loc 1 207 0
 419              		.cfi_startproc
 420              		@ args = 0, pretend = 0, frame = 8
 421              		@ frame_needed = 0, uses_anonymous_args = 0
 422 0140 00B5     		push	{lr}
 423              		.cfi_def_cfa_offset 4
 424              		.cfi_offset 14, -4
 425 0142 83B0     		sub	sp, sp, #12
 426              		.cfi_def_cfa_offset 16
 427              		.loc 1 212 0
 428 0144 0C4B     		ldr	r3, .L23
 429 0146 5B68     		ldr	r3, [r3, #4]
 430 0148 9B09     		lsrs	r3, r3, #6
 431 014a 03F03D03 		and	r3, r3, #61
 432 014e 0193     		str	r3, [sp, #4]
 433              		.loc 1 213 0
 434 0150 094A     		ldr	r2, .L23
 435 0152 019B     		ldr	r3, [sp, #4]
 436 0154 9B01     		lsls	r3, r3, #6
 437 0156 D360     		str	r3, [r2, #12]
 438              		.loc 1 214 0
 439 0158 084B     		ldr	r3, .L23+4
 440 015a 9B6A     		ldr	r3, [r3, #40]
 441 015c 002B     		cmp	r3, #0
 442 015e 06D0     		beq	.L22
 443              		.loc 1 215 0
 444 0160 064B     		ldr	r3, .L23+4
 445 0162 9B6A     		ldr	r3, [r3, #40]
 446 0164 054A     		ldr	r2, .L23+4
 447 0166 D26A     		ldr	r2, [r2, #44]
 448 0168 1046     		mov	r0, r2
 449 016a 0199     		ldr	r1, [sp, #4]
 450 016c 9847     		blx	r3
 451              	.L22:
 452              		.loc 1 217 0
ARM GAS  /tmp/cc0xlfIL.s 			page 9


 453 016e FFF7FEFF 		bl	_port_irq_epilogue
 454              		.loc 1 218 0
 455 0172 03B0     		add	sp, sp, #12
 456              		.cfi_def_cfa_offset 4
 457              		@ sp needed
 458 0174 5DF804FB 		ldr	pc, [sp], #4
 459              	.L24:
 460              		.align	2
 461              	.L23:
 462 0178 00600240 		.word	1073897472
 463 017c 04000000 		.word	dma_isr_redir
 464              		.cfi_endproc
 465              	.LFE284:
 466              		.size	Vector80, .-Vector80
 467              		.align	2
 468              		.p2align 4,,15
 469              		.global	Vector84
 470              		.thumb
 471              		.thumb_func
 472              		.type	Vector84, %function
 473              	Vector84:
 474              	.LFB285:
 475              		.loc 1 225 0
 476              		.cfi_startproc
 477              		@ args = 0, pretend = 0, frame = 8
 478              		@ frame_needed = 0, uses_anonymous_args = 0
 479 0180 00B5     		push	{lr}
 480              		.cfi_def_cfa_offset 4
 481              		.cfi_offset 14, -4
 482 0182 83B0     		sub	sp, sp, #12
 483              		.cfi_def_cfa_offset 16
 484              		.loc 1 230 0
 485 0184 0C4B     		ldr	r3, .L27
 486 0186 5B68     		ldr	r3, [r3, #4]
 487 0188 1B0C     		lsrs	r3, r3, #16
 488 018a 03F03D03 		and	r3, r3, #61
 489 018e 0193     		str	r3, [sp, #4]
 490              		.loc 1 231 0
 491 0190 094A     		ldr	r2, .L27
 492 0192 019B     		ldr	r3, [sp, #4]
 493 0194 1B04     		lsls	r3, r3, #16
 494 0196 D360     		str	r3, [r2, #12]
 495              		.loc 1 232 0
 496 0198 084B     		ldr	r3, .L27+4
 497 019a 1B6B     		ldr	r3, [r3, #48]
 498 019c 002B     		cmp	r3, #0
 499 019e 06D0     		beq	.L26
 500              		.loc 1 233 0
 501 01a0 064B     		ldr	r3, .L27+4
 502 01a2 1B6B     		ldr	r3, [r3, #48]
 503 01a4 054A     		ldr	r2, .L27+4
 504 01a6 526B     		ldr	r2, [r2, #52]
 505 01a8 1046     		mov	r0, r2
 506 01aa 0199     		ldr	r1, [sp, #4]
 507 01ac 9847     		blx	r3
 508              	.L26:
 509              		.loc 1 235 0
ARM GAS  /tmp/cc0xlfIL.s 			page 10


 510 01ae FFF7FEFF 		bl	_port_irq_epilogue
 511              		.loc 1 236 0
 512 01b2 03B0     		add	sp, sp, #12
 513              		.cfi_def_cfa_offset 4
 514              		@ sp needed
 515 01b4 5DF804FB 		ldr	pc, [sp], #4
 516              	.L28:
 517              		.align	2
 518              	.L27:
 519 01b8 00600240 		.word	1073897472
 520 01bc 04000000 		.word	dma_isr_redir
 521              		.cfi_endproc
 522              	.LFE285:
 523              		.size	Vector84, .-Vector84
 524              		.align	2
 525              		.p2align 4,,15
 526              		.global	VectorFC
 527              		.thumb
 528              		.thumb_func
 529              		.type	VectorFC, %function
 530              	VectorFC:
 531              	.LFB286:
 532              		.loc 1 243 0
 533              		.cfi_startproc
 534              		@ args = 0, pretend = 0, frame = 8
 535              		@ frame_needed = 0, uses_anonymous_args = 0
 536 01c0 00B5     		push	{lr}
 537              		.cfi_def_cfa_offset 4
 538              		.cfi_offset 14, -4
 539 01c2 83B0     		sub	sp, sp, #12
 540              		.cfi_def_cfa_offset 16
 541              		.loc 1 248 0
 542 01c4 0C4B     		ldr	r3, .L31
 543 01c6 5B68     		ldr	r3, [r3, #4]
 544 01c8 9B0D     		lsrs	r3, r3, #22
 545 01ca 03F03D03 		and	r3, r3, #61
 546 01ce 0193     		str	r3, [sp, #4]
 547              		.loc 1 249 0
 548 01d0 094A     		ldr	r2, .L31
 549 01d2 019B     		ldr	r3, [sp, #4]
 550 01d4 9B05     		lsls	r3, r3, #22
 551 01d6 D360     		str	r3, [r2, #12]
 552              		.loc 1 250 0
 553 01d8 084B     		ldr	r3, .L31+4
 554 01da 9B6B     		ldr	r3, [r3, #56]
 555 01dc 002B     		cmp	r3, #0
 556 01de 06D0     		beq	.L30
 557              		.loc 1 251 0
 558 01e0 064B     		ldr	r3, .L31+4
 559 01e2 9B6B     		ldr	r3, [r3, #56]
 560 01e4 054A     		ldr	r2, .L31+4
 561 01e6 D26B     		ldr	r2, [r2, #60]
 562 01e8 1046     		mov	r0, r2
 563 01ea 0199     		ldr	r1, [sp, #4]
 564 01ec 9847     		blx	r3
 565              	.L30:
 566              		.loc 1 253 0
ARM GAS  /tmp/cc0xlfIL.s 			page 11


 567 01ee FFF7FEFF 		bl	_port_irq_epilogue
 568              		.loc 1 254 0
 569 01f2 03B0     		add	sp, sp, #12
 570              		.cfi_def_cfa_offset 4
 571              		@ sp needed
 572 01f4 5DF804FB 		ldr	pc, [sp], #4
 573              	.L32:
 574              		.align	2
 575              	.L31:
 576 01f8 00600240 		.word	1073897472
 577 01fc 04000000 		.word	dma_isr_redir
 578              		.cfi_endproc
 579              	.LFE286:
 580              		.size	VectorFC, .-VectorFC
 581              		.align	2
 582              		.p2align 4,,15
 583              		.global	Vector120
 584              		.thumb
 585              		.thumb_func
 586              		.type	Vector120, %function
 587              	Vector120:
 588              	.LFB287:
 589              		.loc 1 261 0
 590              		.cfi_startproc
 591              		@ args = 0, pretend = 0, frame = 8
 592              		@ frame_needed = 0, uses_anonymous_args = 0
 593 0200 00B5     		push	{lr}
 594              		.cfi_def_cfa_offset 4
 595              		.cfi_offset 14, -4
 596 0202 83B0     		sub	sp, sp, #12
 597              		.cfi_def_cfa_offset 16
 598              		.loc 1 266 0
 599 0204 0B4B     		ldr	r3, .L35
 600 0206 1B68     		ldr	r3, [r3]
 601 0208 03F03D03 		and	r3, r3, #61
 602 020c 0193     		str	r3, [sp, #4]
 603              		.loc 1 267 0
 604 020e 094A     		ldr	r2, .L35
 605 0210 019B     		ldr	r3, [sp, #4]
 606 0212 9360     		str	r3, [r2, #8]
 607              		.loc 1 268 0
 608 0214 084B     		ldr	r3, .L35+4
 609 0216 1B6C     		ldr	r3, [r3, #64]
 610 0218 002B     		cmp	r3, #0
 611 021a 06D0     		beq	.L34
 612              		.loc 1 269 0
 613 021c 064B     		ldr	r3, .L35+4
 614 021e 1B6C     		ldr	r3, [r3, #64]
 615 0220 054A     		ldr	r2, .L35+4
 616 0222 526C     		ldr	r2, [r2, #68]
 617 0224 1046     		mov	r0, r2
 618 0226 0199     		ldr	r1, [sp, #4]
 619 0228 9847     		blx	r3
 620              	.L34:
 621              		.loc 1 271 0
 622 022a FFF7FEFF 		bl	_port_irq_epilogue
 623              		.loc 1 272 0
ARM GAS  /tmp/cc0xlfIL.s 			page 12


 624 022e 03B0     		add	sp, sp, #12
 625              		.cfi_def_cfa_offset 4
 626              		@ sp needed
 627 0230 5DF804FB 		ldr	pc, [sp], #4
 628              	.L36:
 629              		.align	2
 630              	.L35:
 631 0234 00640240 		.word	1073898496
 632 0238 04000000 		.word	dma_isr_redir
 633              		.cfi_endproc
 634              	.LFE287:
 635              		.size	Vector120, .-Vector120
 636              		.align	2
 637 023c AFF30080 		.p2align 4,,15
 638              		.global	Vector124
 639              		.thumb
 640              		.thumb_func
 641              		.type	Vector124, %function
 642              	Vector124:
 643              	.LFB288:
 644              		.loc 1 279 0
 645              		.cfi_startproc
 646              		@ args = 0, pretend = 0, frame = 8
 647              		@ frame_needed = 0, uses_anonymous_args = 0
 648 0240 00B5     		push	{lr}
 649              		.cfi_def_cfa_offset 4
 650              		.cfi_offset 14, -4
 651 0242 83B0     		sub	sp, sp, #12
 652              		.cfi_def_cfa_offset 16
 653              		.loc 1 284 0
 654 0244 0C4B     		ldr	r3, .L39
 655 0246 1B68     		ldr	r3, [r3]
 656 0248 9B09     		lsrs	r3, r3, #6
 657 024a 03F03D03 		and	r3, r3, #61
 658 024e 0193     		str	r3, [sp, #4]
 659              		.loc 1 285 0
 660 0250 094A     		ldr	r2, .L39
 661 0252 019B     		ldr	r3, [sp, #4]
 662 0254 9B01     		lsls	r3, r3, #6
 663 0256 9360     		str	r3, [r2, #8]
 664              		.loc 1 286 0
 665 0258 084B     		ldr	r3, .L39+4
 666 025a 9B6C     		ldr	r3, [r3, #72]
 667 025c 002B     		cmp	r3, #0
 668 025e 06D0     		beq	.L38
 669              		.loc 1 287 0
 670 0260 064B     		ldr	r3, .L39+4
 671 0262 9B6C     		ldr	r3, [r3, #72]
 672 0264 054A     		ldr	r2, .L39+4
 673 0266 D26C     		ldr	r2, [r2, #76]
 674 0268 1046     		mov	r0, r2
 675 026a 0199     		ldr	r1, [sp, #4]
 676 026c 9847     		blx	r3
 677              	.L38:
 678              		.loc 1 289 0
 679 026e FFF7FEFF 		bl	_port_irq_epilogue
 680              		.loc 1 290 0
ARM GAS  /tmp/cc0xlfIL.s 			page 13


 681 0272 03B0     		add	sp, sp, #12
 682              		.cfi_def_cfa_offset 4
 683              		@ sp needed
 684 0274 5DF804FB 		ldr	pc, [sp], #4
 685              	.L40:
 686              		.align	2
 687              	.L39:
 688 0278 00640240 		.word	1073898496
 689 027c 04000000 		.word	dma_isr_redir
 690              		.cfi_endproc
 691              	.LFE288:
 692              		.size	Vector124, .-Vector124
 693              		.align	2
 694              		.p2align 4,,15
 695              		.global	Vector128
 696              		.thumb
 697              		.thumb_func
 698              		.type	Vector128, %function
 699              	Vector128:
 700              	.LFB289:
 701              		.loc 1 297 0
 702              		.cfi_startproc
 703              		@ args = 0, pretend = 0, frame = 8
 704              		@ frame_needed = 0, uses_anonymous_args = 0
 705 0280 00B5     		push	{lr}
 706              		.cfi_def_cfa_offset 4
 707              		.cfi_offset 14, -4
 708 0282 83B0     		sub	sp, sp, #12
 709              		.cfi_def_cfa_offset 16
 710              		.loc 1 302 0
 711 0284 0C4B     		ldr	r3, .L43
 712 0286 1B68     		ldr	r3, [r3]
 713 0288 1B0C     		lsrs	r3, r3, #16
 714 028a 03F03D03 		and	r3, r3, #61
 715 028e 0193     		str	r3, [sp, #4]
 716              		.loc 1 303 0
 717 0290 094A     		ldr	r2, .L43
 718 0292 019B     		ldr	r3, [sp, #4]
 719 0294 1B04     		lsls	r3, r3, #16
 720 0296 9360     		str	r3, [r2, #8]
 721              		.loc 1 304 0
 722 0298 084B     		ldr	r3, .L43+4
 723 029a 1B6D     		ldr	r3, [r3, #80]
 724 029c 002B     		cmp	r3, #0
 725 029e 06D0     		beq	.L42
 726              		.loc 1 305 0
 727 02a0 064B     		ldr	r3, .L43+4
 728 02a2 1B6D     		ldr	r3, [r3, #80]
 729 02a4 054A     		ldr	r2, .L43+4
 730 02a6 526D     		ldr	r2, [r2, #84]
 731 02a8 1046     		mov	r0, r2
 732 02aa 0199     		ldr	r1, [sp, #4]
 733 02ac 9847     		blx	r3
 734              	.L42:
 735              		.loc 1 307 0
 736 02ae FFF7FEFF 		bl	_port_irq_epilogue
 737              		.loc 1 308 0
ARM GAS  /tmp/cc0xlfIL.s 			page 14


 738 02b2 03B0     		add	sp, sp, #12
 739              		.cfi_def_cfa_offset 4
 740              		@ sp needed
 741 02b4 5DF804FB 		ldr	pc, [sp], #4
 742              	.L44:
 743              		.align	2
 744              	.L43:
 745 02b8 00640240 		.word	1073898496
 746 02bc 04000000 		.word	dma_isr_redir
 747              		.cfi_endproc
 748              	.LFE289:
 749              		.size	Vector128, .-Vector128
 750              		.align	2
 751              		.p2align 4,,15
 752              		.global	Vector12C
 753              		.thumb
 754              		.thumb_func
 755              		.type	Vector12C, %function
 756              	Vector12C:
 757              	.LFB290:
 758              		.loc 1 315 0
 759              		.cfi_startproc
 760              		@ args = 0, pretend = 0, frame = 8
 761              		@ frame_needed = 0, uses_anonymous_args = 0
 762 02c0 00B5     		push	{lr}
 763              		.cfi_def_cfa_offset 4
 764              		.cfi_offset 14, -4
 765 02c2 83B0     		sub	sp, sp, #12
 766              		.cfi_def_cfa_offset 16
 767              		.loc 1 320 0
 768 02c4 0C4B     		ldr	r3, .L47
 769 02c6 1B68     		ldr	r3, [r3]
 770 02c8 9B0D     		lsrs	r3, r3, #22
 771 02ca 03F03D03 		and	r3, r3, #61
 772 02ce 0193     		str	r3, [sp, #4]
 773              		.loc 1 321 0
 774 02d0 094A     		ldr	r2, .L47
 775 02d2 019B     		ldr	r3, [sp, #4]
 776 02d4 9B05     		lsls	r3, r3, #22
 777 02d6 9360     		str	r3, [r2, #8]
 778              		.loc 1 322 0
 779 02d8 084B     		ldr	r3, .L47+4
 780 02da 9B6D     		ldr	r3, [r3, #88]
 781 02dc 002B     		cmp	r3, #0
 782 02de 06D0     		beq	.L46
 783              		.loc 1 323 0
 784 02e0 064B     		ldr	r3, .L47+4
 785 02e2 9B6D     		ldr	r3, [r3, #88]
 786 02e4 054A     		ldr	r2, .L47+4
 787 02e6 D26D     		ldr	r2, [r2, #92]
 788 02e8 1046     		mov	r0, r2
 789 02ea 0199     		ldr	r1, [sp, #4]
 790 02ec 9847     		blx	r3
 791              	.L46:
 792              		.loc 1 325 0
 793 02ee FFF7FEFF 		bl	_port_irq_epilogue
 794              		.loc 1 326 0
ARM GAS  /tmp/cc0xlfIL.s 			page 15


 795 02f2 03B0     		add	sp, sp, #12
 796              		.cfi_def_cfa_offset 4
 797              		@ sp needed
 798 02f4 5DF804FB 		ldr	pc, [sp], #4
 799              	.L48:
 800              		.align	2
 801              	.L47:
 802 02f8 00640240 		.word	1073898496
 803 02fc 04000000 		.word	dma_isr_redir
 804              		.cfi_endproc
 805              	.LFE290:
 806              		.size	Vector12C, .-Vector12C
 807              		.align	2
 808              		.p2align 4,,15
 809              		.global	Vector130
 810              		.thumb
 811              		.thumb_func
 812              		.type	Vector130, %function
 813              	Vector130:
 814              	.LFB291:
 815              		.loc 1 333 0
 816              		.cfi_startproc
 817              		@ args = 0, pretend = 0, frame = 8
 818              		@ frame_needed = 0, uses_anonymous_args = 0
 819 0300 00B5     		push	{lr}
 820              		.cfi_def_cfa_offset 4
 821              		.cfi_offset 14, -4
 822 0302 83B0     		sub	sp, sp, #12
 823              		.cfi_def_cfa_offset 16
 824              		.loc 1 338 0
 825 0304 0B4B     		ldr	r3, .L51
 826 0306 5B68     		ldr	r3, [r3, #4]
 827 0308 03F03D03 		and	r3, r3, #61
 828 030c 0193     		str	r3, [sp, #4]
 829              		.loc 1 339 0
 830 030e 094A     		ldr	r2, .L51
 831 0310 019B     		ldr	r3, [sp, #4]
 832 0312 D360     		str	r3, [r2, #12]
 833              		.loc 1 340 0
 834 0314 084B     		ldr	r3, .L51+4
 835 0316 1B6E     		ldr	r3, [r3, #96]
 836 0318 002B     		cmp	r3, #0
 837 031a 06D0     		beq	.L50
 838              		.loc 1 341 0
 839 031c 064B     		ldr	r3, .L51+4
 840 031e 1B6E     		ldr	r3, [r3, #96]
 841 0320 054A     		ldr	r2, .L51+4
 842 0322 526E     		ldr	r2, [r2, #100]
 843 0324 1046     		mov	r0, r2
 844 0326 0199     		ldr	r1, [sp, #4]
 845 0328 9847     		blx	r3
 846              	.L50:
 847              		.loc 1 343 0
 848 032a FFF7FEFF 		bl	_port_irq_epilogue
 849              		.loc 1 344 0
 850 032e 03B0     		add	sp, sp, #12
 851              		.cfi_def_cfa_offset 4
ARM GAS  /tmp/cc0xlfIL.s 			page 16


 852              		@ sp needed
 853 0330 5DF804FB 		ldr	pc, [sp], #4
 854              	.L52:
 855              		.align	2
 856              	.L51:
 857 0334 00640240 		.word	1073898496
 858 0338 04000000 		.word	dma_isr_redir
 859              		.cfi_endproc
 860              	.LFE291:
 861              		.size	Vector130, .-Vector130
 862              		.align	2
 863 033c AFF30080 		.p2align 4,,15
 864              		.global	Vector150
 865              		.thumb
 866              		.thumb_func
 867              		.type	Vector150, %function
 868              	Vector150:
 869              	.LFB292:
 870              		.loc 1 351 0
 871              		.cfi_startproc
 872              		@ args = 0, pretend = 0, frame = 8
 873              		@ frame_needed = 0, uses_anonymous_args = 0
 874 0340 00B5     		push	{lr}
 875              		.cfi_def_cfa_offset 4
 876              		.cfi_offset 14, -4
 877 0342 83B0     		sub	sp, sp, #12
 878              		.cfi_def_cfa_offset 16
 879              		.loc 1 356 0
 880 0344 0C4B     		ldr	r3, .L55
 881 0346 5B68     		ldr	r3, [r3, #4]
 882 0348 9B09     		lsrs	r3, r3, #6
 883 034a 03F03D03 		and	r3, r3, #61
 884 034e 0193     		str	r3, [sp, #4]
 885              		.loc 1 357 0
 886 0350 094A     		ldr	r2, .L55
 887 0352 019B     		ldr	r3, [sp, #4]
 888 0354 9B01     		lsls	r3, r3, #6
 889 0356 D360     		str	r3, [r2, #12]
 890              		.loc 1 358 0
 891 0358 084B     		ldr	r3, .L55+4
 892 035a 9B6E     		ldr	r3, [r3, #104]
 893 035c 002B     		cmp	r3, #0
 894 035e 06D0     		beq	.L54
 895              		.loc 1 359 0
 896 0360 064B     		ldr	r3, .L55+4
 897 0362 9B6E     		ldr	r3, [r3, #104]
 898 0364 054A     		ldr	r2, .L55+4
 899 0366 D26E     		ldr	r2, [r2, #108]
 900 0368 1046     		mov	r0, r2
 901 036a 0199     		ldr	r1, [sp, #4]
 902 036c 9847     		blx	r3
 903              	.L54:
 904              		.loc 1 361 0
 905 036e FFF7FEFF 		bl	_port_irq_epilogue
 906              		.loc 1 362 0
 907 0372 03B0     		add	sp, sp, #12
 908              		.cfi_def_cfa_offset 4
ARM GAS  /tmp/cc0xlfIL.s 			page 17


 909              		@ sp needed
 910 0374 5DF804FB 		ldr	pc, [sp], #4
 911              	.L56:
 912              		.align	2
 913              	.L55:
 914 0378 00640240 		.word	1073898496
 915 037c 04000000 		.word	dma_isr_redir
 916              		.cfi_endproc
 917              	.LFE292:
 918              		.size	Vector150, .-Vector150
 919              		.align	2
 920              		.p2align 4,,15
 921              		.global	Vector154
 922              		.thumb
 923              		.thumb_func
 924              		.type	Vector154, %function
 925              	Vector154:
 926              	.LFB293:
 927              		.loc 1 369 0
 928              		.cfi_startproc
 929              		@ args = 0, pretend = 0, frame = 8
 930              		@ frame_needed = 0, uses_anonymous_args = 0
 931 0380 00B5     		push	{lr}
 932              		.cfi_def_cfa_offset 4
 933              		.cfi_offset 14, -4
 934 0382 83B0     		sub	sp, sp, #12
 935              		.cfi_def_cfa_offset 16
 936              		.loc 1 374 0
 937 0384 0C4B     		ldr	r3, .L59
 938 0386 5B68     		ldr	r3, [r3, #4]
 939 0388 1B0C     		lsrs	r3, r3, #16
 940 038a 03F03D03 		and	r3, r3, #61
 941 038e 0193     		str	r3, [sp, #4]
 942              		.loc 1 375 0
 943 0390 094A     		ldr	r2, .L59
 944 0392 019B     		ldr	r3, [sp, #4]
 945 0394 1B04     		lsls	r3, r3, #16
 946 0396 D360     		str	r3, [r2, #12]
 947              		.loc 1 376 0
 948 0398 084B     		ldr	r3, .L59+4
 949 039a 1B6F     		ldr	r3, [r3, #112]
 950 039c 002B     		cmp	r3, #0
 951 039e 06D0     		beq	.L58
 952              		.loc 1 377 0
 953 03a0 064B     		ldr	r3, .L59+4
 954 03a2 1B6F     		ldr	r3, [r3, #112]
 955 03a4 054A     		ldr	r2, .L59+4
 956 03a6 526F     		ldr	r2, [r2, #116]
 957 03a8 1046     		mov	r0, r2
 958 03aa 0199     		ldr	r1, [sp, #4]
 959 03ac 9847     		blx	r3
 960              	.L58:
 961              		.loc 1 379 0
 962 03ae FFF7FEFF 		bl	_port_irq_epilogue
 963              		.loc 1 380 0
 964 03b2 03B0     		add	sp, sp, #12
 965              		.cfi_def_cfa_offset 4
ARM GAS  /tmp/cc0xlfIL.s 			page 18


 966              		@ sp needed
 967 03b4 5DF804FB 		ldr	pc, [sp], #4
 968              	.L60:
 969              		.align	2
 970              	.L59:
 971 03b8 00640240 		.word	1073898496
 972 03bc 04000000 		.word	dma_isr_redir
 973              		.cfi_endproc
 974              	.LFE293:
 975              		.size	Vector154, .-Vector154
 976              		.align	2
 977              		.p2align 4,,15
 978              		.global	Vector158
 979              		.thumb
 980              		.thumb_func
 981              		.type	Vector158, %function
 982              	Vector158:
 983              	.LFB294:
 984              		.loc 1 387 0
 985              		.cfi_startproc
 986              		@ args = 0, pretend = 0, frame = 8
 987              		@ frame_needed = 0, uses_anonymous_args = 0
 988 03c0 00B5     		push	{lr}
 989              		.cfi_def_cfa_offset 4
 990              		.cfi_offset 14, -4
 991 03c2 83B0     		sub	sp, sp, #12
 992              		.cfi_def_cfa_offset 16
 993              		.loc 1 392 0
 994 03c4 0C4B     		ldr	r3, .L63
 995 03c6 5B68     		ldr	r3, [r3, #4]
 996 03c8 9B0D     		lsrs	r3, r3, #22
 997 03ca 03F03D03 		and	r3, r3, #61
 998 03ce 0193     		str	r3, [sp, #4]
 999              		.loc 1 393 0
 1000 03d0 094A     		ldr	r2, .L63
 1001 03d2 019B     		ldr	r3, [sp, #4]
 1002 03d4 9B05     		lsls	r3, r3, #22
 1003 03d6 D360     		str	r3, [r2, #12]
 1004              		.loc 1 394 0
 1005 03d8 084B     		ldr	r3, .L63+4
 1006 03da 9B6F     		ldr	r3, [r3, #120]
 1007 03dc 002B     		cmp	r3, #0
 1008 03de 06D0     		beq	.L62
 1009              		.loc 1 395 0
 1010 03e0 064B     		ldr	r3, .L63+4
 1011 03e2 9B6F     		ldr	r3, [r3, #120]
 1012 03e4 054A     		ldr	r2, .L63+4
 1013 03e6 D26F     		ldr	r2, [r2, #124]
 1014 03e8 1046     		mov	r0, r2
 1015 03ea 0199     		ldr	r1, [sp, #4]
 1016 03ec 9847     		blx	r3
 1017              	.L62:
 1018              		.loc 1 397 0
 1019 03ee FFF7FEFF 		bl	_port_irq_epilogue
 1020              		.loc 1 398 0
 1021 03f2 03B0     		add	sp, sp, #12
 1022              		.cfi_def_cfa_offset 4
ARM GAS  /tmp/cc0xlfIL.s 			page 19


 1023              		@ sp needed
 1024 03f4 5DF804FB 		ldr	pc, [sp], #4
 1025              	.L64:
 1026              		.align	2
 1027              	.L63:
 1028 03f8 00640240 		.word	1073898496
 1029 03fc 04000000 		.word	dma_isr_redir
 1030              		.cfi_endproc
 1031              	.LFE294:
 1032              		.size	Vector158, .-Vector158
 1033              		.align	2
 1034              		.p2align 4,,15
 1035              		.global	dmaInit
 1036              		.thumb
 1037              		.thumb_func
 1038              		.type	dmaInit, %function
 1039              	dmaInit:
 1040              	.LFB295:
 1041              		.loc 1 409 0
 1042              		.cfi_startproc
 1043              		@ args = 0, pretend = 0, frame = 8
 1044              		@ frame_needed = 0, uses_anonymous_args = 0
 1045              		@ link register save eliminated.
 1046 0400 82B0     		sub	sp, sp, #8
 1047              		.cfi_def_cfa_offset 8
 1048              		.loc 1 412 0
 1049 0402 164B     		ldr	r3, .L68
 1050 0404 0022     		movs	r2, #0
 1051 0406 1A60     		str	r2, [r3]
 1052              		.loc 1 413 0
 1053 0408 0023     		movs	r3, #0
 1054 040a 0193     		str	r3, [sp, #4]
 1055 040c 11E0     		b	.L66
 1056              	.L67:
 1057              		.loc 1 414 0 discriminator 3
 1058 040e 1449     		ldr	r1, .L68+4
 1059 0410 019A     		ldr	r2, [sp, #4]
 1060 0412 1346     		mov	r3, r2
 1061 0414 5B00     		lsls	r3, r3, #1
 1062 0416 1344     		add	r3, r3, r2
 1063 0418 9B00     		lsls	r3, r3, #2
 1064 041a 0B44     		add	r3, r3, r1
 1065 041c 1B68     		ldr	r3, [r3]
 1066 041e 0022     		movs	r2, #0
 1067 0420 1A60     		str	r2, [r3]
 1068              		.loc 1 415 0 discriminator 3
 1069 0422 104A     		ldr	r2, .L68+8
 1070 0424 019B     		ldr	r3, [sp, #4]
 1071 0426 0021     		movs	r1, #0
 1072 0428 42F83310 		str	r1, [r2, r3, lsl #3]
 1073              		.loc 1 413 0 discriminator 3
 1074 042c 019B     		ldr	r3, [sp, #4]
 1075 042e 0133     		adds	r3, r3, #1
 1076 0430 0193     		str	r3, [sp, #4]
 1077              	.L66:
 1078              		.loc 1 413 0 is_stmt 0 discriminator 1
 1079 0432 019B     		ldr	r3, [sp, #4]
ARM GAS  /tmp/cc0xlfIL.s 			page 20


 1080 0434 0F2B     		cmp	r3, #15
 1081 0436 EAD9     		bls	.L67
 1082              		.loc 1 417 0 is_stmt 1
 1083 0438 0B4B     		ldr	r3, .L68+12
 1084 043a 4FF0FF32 		mov	r2, #-1
 1085 043e 9A60     		str	r2, [r3, #8]
 1086              		.loc 1 418 0
 1087 0440 094B     		ldr	r3, .L68+12
 1088 0442 4FF0FF32 		mov	r2, #-1
 1089 0446 DA60     		str	r2, [r3, #12]
 1090              		.loc 1 419 0
 1091 0448 084B     		ldr	r3, .L68+16
 1092 044a 4FF0FF32 		mov	r2, #-1
 1093 044e 9A60     		str	r2, [r3, #8]
 1094              		.loc 1 420 0
 1095 0450 064B     		ldr	r3, .L68+16
 1096 0452 4FF0FF32 		mov	r2, #-1
 1097 0456 DA60     		str	r2, [r3, #12]
 1098              		.loc 1 421 0
 1099 0458 02B0     		add	sp, sp, #8
 1100              		.cfi_def_cfa_offset 0
 1101              		@ sp needed
 1102 045a 7047     		bx	lr
 1103              	.L69:
 1104              		.align	2
 1105              	.L68:
 1106 045c 00000000 		.word	dma_streams_mask
 1107 0460 00000000 		.word	_stm32_dma_streams
 1108 0464 04000000 		.word	dma_isr_redir
 1109 0468 00600240 		.word	1073897472
 1110 046c 00640240 		.word	1073898496
 1111              		.cfi_endproc
 1112              	.LFE295:
 1113              		.size	dmaInit, .-dmaInit
 1114              		.align	2
 1115              		.p2align 4,,15
 1116              		.global	dmaStreamAllocate
 1117              		.thumb
 1118              		.thumb_func
 1119              		.type	dmaStreamAllocate, %function
 1120              	dmaStreamAllocate:
 1121              	.LFB296:
 1122              		.loc 1 450 0
 1123              		.cfi_startproc
 1124              		@ args = 0, pretend = 0, frame = 16
 1125              		@ frame_needed = 0, uses_anonymous_args = 0
 1126 0470 00B5     		push	{lr}
 1127              		.cfi_def_cfa_offset 4
 1128              		.cfi_offset 14, -4
 1129 0472 85B0     		sub	sp, sp, #20
 1130              		.cfi_def_cfa_offset 24
 1131 0474 0390     		str	r0, [sp, #12]
 1132 0476 0291     		str	r1, [sp, #8]
 1133 0478 0192     		str	r2, [sp, #4]
 1134 047a 0093     		str	r3, [sp]
 1135              		.loc 1 455 0
 1136 047c 039B     		ldr	r3, [sp, #12]
ARM GAS  /tmp/cc0xlfIL.s 			page 21


 1137 047e 5B7A     		ldrb	r3, [r3, #9]	@ zero_extendqisi2
 1138 0480 1A46     		mov	r2, r3
 1139 0482 0123     		movs	r3, #1
 1140 0484 03FA02F2 		lsl	r2, r3, r2
 1141 0488 324B     		ldr	r3, .L77
 1142 048a 1B68     		ldr	r3, [r3]
 1143 048c 1340     		ands	r3, r3, r2
 1144 048e 002B     		cmp	r3, #0
 1145 0490 01D0     		beq	.L71
 1146              		.loc 1 456 0
 1147 0492 0123     		movs	r3, #1
 1148 0494 59E0     		b	.L72
 1149              	.L71:
 1150              		.loc 1 459 0
 1151 0496 039B     		ldr	r3, [sp, #12]
 1152 0498 5B7A     		ldrb	r3, [r3, #9]	@ zero_extendqisi2
 1153 049a 1946     		mov	r1, r3
 1154 049c 2E4A     		ldr	r2, .L77+4
 1155 049e 019B     		ldr	r3, [sp, #4]
 1156 04a0 42F83130 		str	r3, [r2, r1, lsl #3]
 1157              		.loc 1 460 0
 1158 04a4 039B     		ldr	r3, [sp, #12]
 1159 04a6 5B7A     		ldrb	r3, [r3, #9]	@ zero_extendqisi2
 1160 04a8 2B4A     		ldr	r2, .L77+4
 1161 04aa DB00     		lsls	r3, r3, #3
 1162 04ac 1344     		add	r3, r3, r2
 1163 04ae 009A     		ldr	r2, [sp]
 1164 04b0 5A60     		str	r2, [r3, #4]
 1165              		.loc 1 461 0
 1166 04b2 039B     		ldr	r3, [sp, #12]
 1167 04b4 5B7A     		ldrb	r3, [r3, #9]	@ zero_extendqisi2
 1168 04b6 1A46     		mov	r2, r3
 1169 04b8 0123     		movs	r3, #1
 1170 04ba 03FA02F2 		lsl	r2, r3, r2
 1171 04be 254B     		ldr	r3, .L77
 1172 04c0 1B68     		ldr	r3, [r3]
 1173 04c2 1343     		orrs	r3, r3, r2
 1174 04c4 234A     		ldr	r2, .L77
 1175 04c6 1360     		str	r3, [r2]
 1176              		.loc 1 464 0
 1177 04c8 224B     		ldr	r3, .L77
 1178 04ca 1B68     		ldr	r3, [r3]
 1179 04cc DBB2     		uxtb	r3, r3
 1180 04ce 002B     		cmp	r3, #0
 1181 04d0 05D0     		beq	.L73
 1182              		.loc 1 465 0
 1183 04d2 224A     		ldr	r2, .L77+8
 1184 04d4 214B     		ldr	r3, .L77+8
 1185 04d6 1B6B     		ldr	r3, [r3, #48]
 1186 04d8 43F40013 		orr	r3, r3, #2097152
 1187 04dc 1363     		str	r3, [r2, #48]
 1188              	.L73:
 1189              		.loc 1 467 0
 1190 04de 1D4B     		ldr	r3, .L77
 1191 04e0 1B68     		ldr	r3, [r3]
 1192 04e2 03F47F43 		and	r3, r3, #65280
 1193 04e6 002B     		cmp	r3, #0
ARM GAS  /tmp/cc0xlfIL.s 			page 22


 1194 04e8 05D0     		beq	.L74
 1195              		.loc 1 468 0
 1196 04ea 1C4A     		ldr	r2, .L77+8
 1197 04ec 1B4B     		ldr	r3, .L77+8
 1198 04ee 1B6B     		ldr	r3, [r3, #48]
 1199 04f0 43F48003 		orr	r3, r3, #4194304
 1200 04f4 1363     		str	r3, [r2, #48]
 1201              	.L74:
 1202              		.loc 1 472 0
 1203 04f6 039B     		ldr	r3, [sp, #12]
 1204 04f8 1B68     		ldr	r3, [r3]
 1205 04fa 039A     		ldr	r2, [sp, #12]
 1206 04fc 1268     		ldr	r2, [r2]
 1207 04fe 1268     		ldr	r2, [r2]
 1208 0500 22F01F02 		bic	r2, r2, #31
 1209 0504 1A60     		str	r2, [r3]
 1210 0506 00BF     		nop
 1211              	.L75:
 1212              		.loc 1 472 0 is_stmt 0 discriminator 2
 1213 0508 039B     		ldr	r3, [sp, #12]
 1214 050a 1B68     		ldr	r3, [r3]
 1215 050c 1B68     		ldr	r3, [r3]
 1216 050e 03F00103 		and	r3, r3, #1
 1217 0512 002B     		cmp	r3, #0
 1218 0514 F8D1     		bne	.L75
 1219              		.loc 1 472 0 discriminator 3
 1220 0516 039B     		ldr	r3, [sp, #12]
 1221 0518 5B68     		ldr	r3, [r3, #4]
 1222 051a 039A     		ldr	r2, [sp, #12]
 1223 051c 127A     		ldrb	r2, [r2, #8]	@ zero_extendqisi2
 1224 051e 1146     		mov	r1, r2
 1225 0520 3D22     		movs	r2, #61
 1226 0522 8A40     		lsls	r2, r2, r1
 1227 0524 1A60     		str	r2, [r3]
 1228              		.loc 1 473 0 is_stmt 1 discriminator 3
 1229 0526 039B     		ldr	r3, [sp, #12]
 1230 0528 1B68     		ldr	r3, [r3]
 1231 052a 0022     		movs	r2, #0
 1232 052c 1A60     		str	r2, [r3]
 1233              		.loc 1 474 0 discriminator 3
 1234 052e 039B     		ldr	r3, [sp, #12]
 1235 0530 1B68     		ldr	r3, [r3]
 1236 0532 2122     		movs	r2, #33
 1237 0534 5A61     		str	r2, [r3, #20]
 1238              		.loc 1 477 0 discriminator 3
 1239 0536 019B     		ldr	r3, [sp, #4]
 1240 0538 002B     		cmp	r3, #0
 1241 053a 05D0     		beq	.L76
 1242              		.loc 1 478 0
 1243 053c 039B     		ldr	r3, [sp, #12]
 1244 053e 9B7A     		ldrb	r3, [r3, #10]	@ zero_extendqisi2
 1245 0540 1846     		mov	r0, r3
 1246 0542 0299     		ldr	r1, [sp, #8]
 1247 0544 FFF7FEFF 		bl	nvicEnableVector
 1248              	.L76:
 1249              		.loc 1 481 0
 1250 0548 0023     		movs	r3, #0
ARM GAS  /tmp/cc0xlfIL.s 			page 23


 1251              	.L72:
 1252              		.loc 1 482 0
 1253 054a 1846     		mov	r0, r3
 1254 054c 05B0     		add	sp, sp, #20
 1255              		.cfi_def_cfa_offset 4
 1256              		@ sp needed
 1257 054e 5DF804FB 		ldr	pc, [sp], #4
 1258              	.L78:
 1259 0552 00BF     		.align	2
 1260              	.L77:
 1261 0554 00000000 		.word	dma_streams_mask
 1262 0558 04000000 		.word	dma_isr_redir
 1263 055c 00380240 		.word	1073887232
 1264              		.cfi_endproc
 1265              	.LFE296:
 1266              		.size	dmaStreamAllocate, .-dmaStreamAllocate
 1267              		.align	2
 1268              		.p2align 4,,15
 1269              		.global	dmaStreamRelease
 1270              		.thumb
 1271              		.thumb_func
 1272              		.type	dmaStreamRelease, %function
 1273              	dmaStreamRelease:
 1274              	.LFB297:
 1275              		.loc 1 497 0
 1276              		.cfi_startproc
 1277              		@ args = 0, pretend = 0, frame = 8
 1278              		@ frame_needed = 0, uses_anonymous_args = 0
 1279 0560 00B5     		push	{lr}
 1280              		.cfi_def_cfa_offset 4
 1281              		.cfi_offset 14, -4
 1282 0562 83B0     		sub	sp, sp, #12
 1283              		.cfi_def_cfa_offset 16
 1284 0564 0190     		str	r0, [sp, #4]
 1285              		.loc 1 506 0
 1286 0566 019B     		ldr	r3, [sp, #4]
 1287 0568 9B7A     		ldrb	r3, [r3, #10]	@ zero_extendqisi2
 1288 056a 1846     		mov	r0, r3
 1289 056c FFF7FEFF 		bl	nvicDisableVector
 1290              		.loc 1 509 0
 1291 0570 019B     		ldr	r3, [sp, #4]
 1292 0572 5B7A     		ldrb	r3, [r3, #9]	@ zero_extendqisi2
 1293 0574 1A46     		mov	r2, r3
 1294 0576 0123     		movs	r3, #1
 1295 0578 9340     		lsls	r3, r3, r2
 1296 057a DA43     		mvns	r2, r3
 1297 057c 0F4B     		ldr	r3, .L82
 1298 057e 1B68     		ldr	r3, [r3]
 1299 0580 1340     		ands	r3, r3, r2
 1300 0582 0E4A     		ldr	r2, .L82
 1301 0584 1360     		str	r3, [r2]
 1302              		.loc 1 512 0
 1303 0586 0D4B     		ldr	r3, .L82
 1304 0588 1B68     		ldr	r3, [r3]
 1305 058a DBB2     		uxtb	r3, r3
 1306 058c 002B     		cmp	r3, #0
 1307 058e 05D1     		bne	.L80
ARM GAS  /tmp/cc0xlfIL.s 			page 24


 1308              		.loc 1 513 0
 1309 0590 0B4A     		ldr	r2, .L82+4
 1310 0592 0B4B     		ldr	r3, .L82+4
 1311 0594 1B6B     		ldr	r3, [r3, #48]
 1312 0596 23F40013 		bic	r3, r3, #2097152
 1313 059a 1363     		str	r3, [r2, #48]
 1314              	.L80:
 1315              		.loc 1 515 0
 1316 059c 074B     		ldr	r3, .L82
 1317 059e 1B68     		ldr	r3, [r3]
 1318 05a0 03F47F43 		and	r3, r3, #65280
 1319 05a4 002B     		cmp	r3, #0
 1320 05a6 05D1     		bne	.L79
 1321              		.loc 1 516 0
 1322 05a8 054A     		ldr	r2, .L82+4
 1323 05aa 054B     		ldr	r3, .L82+4
 1324 05ac 1B6B     		ldr	r3, [r3, #48]
 1325 05ae 23F48003 		bic	r3, r3, #4194304
 1326 05b2 1363     		str	r3, [r2, #48]
 1327              	.L79:
 1328              		.loc 1 518 0
 1329 05b4 03B0     		add	sp, sp, #12
 1330              		.cfi_def_cfa_offset 4
 1331              		@ sp needed
 1332 05b6 5DF804FB 		ldr	pc, [sp], #4
 1333              	.L83:
 1334 05ba 00BF     		.align	2
 1335              	.L82:
 1336 05bc 00000000 		.word	dma_streams_mask
 1337 05c0 00380240 		.word	1073887232
 1338              		.cfi_endproc
 1339              	.LFE297:
 1340              		.size	dmaStreamRelease, .-dmaStreamRelease
 1341              	.Letext0:
 1342              		.file 2 "/usr/include/newlib/machine/_default_types.h"
 1343              		.file 3 "/usr/include/newlib/sys/_stdint.h"
 1344              		.file 4 "../../../os/common/ports/ARMCMx/compilers/GCC/chtypes.h"
 1345              		.file 5 "../../../os/rt/include/chsystypes.h"
 1346              		.file 6 "../../../os/rt/include/chschd.h"
 1347              		.file 7 "../../../os/common/ext/CMSIS/ST/STM32F4xx/stm32f407xx.h"
 1348              		.file 8 "../../../os/common/ports/ARMCMx/chcore.h"
 1349              		.file 9 "../../../os/common/ports/ARMCMx/chcore_v7m.h"
 1350              		.file 10 "../../../os/rt/include/chtm.h"
 1351              		.file 11 "../../../os/rt/include/chsem.h"
 1352              		.file 12 "../../../os/rt/include/chmtx.h"
 1353              		.file 13 "../../../os/hal/ports/STM32/LLD/DMAv2/stm32_dma.h"
 1354              		.file 14 "../../../os/common/ext/CMSIS/include/core_cm4.h"