ARM GAS  /tmp/ccSQgpq0.s 			page 1


   1              		.syntax unified
   2              		.cpu cortex-m4
   3              		.fpu softvfp
   4              		.eabi_attribute 20, 1
   5              		.eabi_attribute 21, 1
   6              		.eabi_attribute 23, 3
   7              		.eabi_attribute 24, 1
   8              		.eabi_attribute 25, 1
   9              		.eabi_attribute 26, 1
  10              		.eabi_attribute 30, 6
  11              		.eabi_attribute 34, 1
  12              		.eabi_attribute 18, 4
  13              		.thumb
  14              		.file	"test_sequence_009.c"
  15              		.text
  16              	.Ltext0:
  17              		.cfi_sections	.debug_frame
  18              		.align	2
  19              		.p2align 4,,15
  20              		.thumb
  21              		.thumb_func
  22              		.type	port_lock, %function
  23              	port_lock:
  24              	.LFB127:
  25              		.file 1 "../../../os/common/ports/ARMCMx/chcore_v7m.h"
  26              		.loc 1 594 0
  27              		.cfi_startproc
  28              		@ args = 0, pretend = 0, frame = 8
  29              		@ frame_needed = 0, uses_anonymous_args = 0
  30              		@ link register save eliminated.
  31 0000 82B0     		sub	sp, sp, #8
  32              		.cfi_def_cfa_offset 8
  33 0002 2023     		movs	r3, #32
  34 0004 0193     		str	r3, [sp, #4]
  35              	.LBB6:
  36              	.LBB7:
  37              		.file 2 "../../../os/common/ext/CMSIS/include/cmsis_gcc.h"
  38              		.loc 2 264 0
  39 0006 019B     		ldr	r3, [sp, #4]
  40              	@ 264 "../../../os/common/ext/CMSIS/include/cmsis_gcc.h" 1
  41 0008 83F31188 		MSR basepri, r3
  42              	@ 0 "" 2
  43              		.thumb
  44              	.LBE7:
  45              	.LBE6:
  46              		.loc 1 611 0
  47 000c 02B0     		add	sp, sp, #8
  48              		.cfi_def_cfa_offset 0
  49              		@ sp needed
  50 000e 7047     		bx	lr
  51              		.cfi_endproc
  52              	.LFE127:
  53              		.size	port_lock, .-port_lock
  54              		.align	2
  55              		.p2align 4,,15
  56              		.thumb
  57              		.thumb_func
ARM GAS  /tmp/ccSQgpq0.s 			page 2


  58              		.type	port_unlock, %function
  59              	port_unlock:
  60              	.LFB128:
  61              		.loc 1 618 0
  62              		.cfi_startproc
  63              		@ args = 0, pretend = 0, frame = 8
  64              		@ frame_needed = 0, uses_anonymous_args = 0
  65              		@ link register save eliminated.
  66 0010 82B0     		sub	sp, sp, #8
  67              		.cfi_def_cfa_offset 8
  68 0012 0023     		movs	r3, #0
  69 0014 0193     		str	r3, [sp, #4]
  70              	.LBB8:
  71              	.LBB9:
  72              		.loc 2 264 0
  73 0016 019B     		ldr	r3, [sp, #4]
  74              	@ 264 "../../../os/common/ext/CMSIS/include/cmsis_gcc.h" 1
  75 0018 83F31188 		MSR basepri, r3
  76              	@ 0 "" 2
  77              		.thumb
  78              	.LBE9:
  79              	.LBE8:
  80              		.loc 1 625 0
  81 001c 02B0     		add	sp, sp, #8
  82              		.cfi_def_cfa_offset 0
  83              		@ sp needed
  84 001e 7047     		bx	lr
  85              		.cfi_endproc
  86              	.LFE128:
  87              		.size	port_unlock, .-port_unlock
  88              		.align	2
  89              		.p2align 4,,15
  90              		.thumb
  91              		.thumb_func
  92              		.type	chSysLock, %function
  93              	chSysLock:
  94              	.LFB167:
  95              		.file 3 "../../../os/rt/include/chsys.h"
  96              		.loc 3 374 0
  97              		.cfi_startproc
  98              		@ args = 0, pretend = 0, frame = 0
  99              		@ frame_needed = 0, uses_anonymous_args = 0
 100 0020 08B5     		push	{r3, lr}
 101              		.cfi_def_cfa_offset 8
 102              		.cfi_offset 3, -8
 103              		.cfi_offset 14, -4
 104              		.loc 3 376 0
 105 0022 FFF7EDFF 		bl	port_lock
 106              		.loc 3 379 0
 107 0026 08BD     		pop	{r3, pc}
 108              		.cfi_endproc
 109              	.LFE167:
 110              		.size	chSysLock, .-chSysLock
 111              		.align	2
 112 0028 AFF30080 		.p2align 4,,15
 112      AFF30080 
 113              		.thumb
ARM GAS  /tmp/ccSQgpq0.s 			page 3


 114              		.thumb_func
 115              		.type	chSysUnlock, %function
 116              	chSysUnlock:
 117              	.LFB168:
 118              		.loc 3 386 0
 119              		.cfi_startproc
 120              		@ args = 0, pretend = 0, frame = 0
 121              		@ frame_needed = 0, uses_anonymous_args = 0
 122 0030 08B5     		push	{r3, lr}
 123              		.cfi_def_cfa_offset 8
 124              		.cfi_offset 3, -8
 125              		.cfi_offset 14, -4
 126              		.loc 3 399 0
 127 0032 FFF7EDFF 		bl	port_unlock
 128              		.loc 3 400 0
 129 0036 08BD     		pop	{r3, pc}
 130              		.cfi_endproc
 131              	.LFE168:
 132              		.size	chSysUnlock, .-chSysUnlock
 133              		.align	2
 134 0038 AFF30080 		.p2align 4,,15
 134      AFF30080 
 135              		.thumb
 136              		.thumb_func
 137              		.type	chMBGetSizeI, %function
 138              	chMBGetSizeI:
 139              	.LFB233:
 140              		.file 4 "../../../os/common/oslib/include/chmboxes.h"
 141              		.loc 4 136 0
 142              		.cfi_startproc
 143              		@ args = 0, pretend = 0, frame = 8
 144              		@ frame_needed = 0, uses_anonymous_args = 0
 145              		@ link register save eliminated.
 146 0040 82B0     		sub	sp, sp, #8
 147              		.cfi_def_cfa_offset 8
 148 0042 0190     		str	r0, [sp, #4]
 149              		.loc 4 140 0
 150 0044 019B     		ldr	r3, [sp, #4]
 151 0046 5B68     		ldr	r3, [r3, #4]
 152 0048 1A46     		mov	r2, r3
 153 004a 019B     		ldr	r3, [sp, #4]
 154 004c 1B68     		ldr	r3, [r3]
 155 004e D31A     		subs	r3, r2, r3
 156 0050 9B10     		asrs	r3, r3, #2
 157              		.loc 4 142 0
 158 0052 1846     		mov	r0, r3
 159 0054 02B0     		add	sp, sp, #8
 160              		.cfi_def_cfa_offset 0
 161              		@ sp needed
 162 0056 7047     		bx	lr
 163              		.cfi_endproc
 164              	.LFE233:
 165              		.size	chMBGetSizeI, .-chMBGetSizeI
 166              		.align	2
 167 0058 AFF30080 		.p2align 4,,15
 167      AFF30080 
 168              		.thumb
ARM GAS  /tmp/ccSQgpq0.s 			page 4


 169              		.thumb_func
 170              		.type	chMBGetUsedCountI, %function
 171              	chMBGetUsedCountI:
 172              	.LFB234:
 173              		.loc 4 153 0
 174              		.cfi_startproc
 175              		@ args = 0, pretend = 0, frame = 8
 176              		@ frame_needed = 0, uses_anonymous_args = 0
 177              		@ link register save eliminated.
 178 0060 82B0     		sub	sp, sp, #8
 179              		.cfi_def_cfa_offset 8
 180 0062 0190     		str	r0, [sp, #4]
 181              		.loc 4 157 0
 182 0064 019B     		ldr	r3, [sp, #4]
 183 0066 1B69     		ldr	r3, [r3, #16]
 184              		.loc 4 158 0
 185 0068 1846     		mov	r0, r3
 186 006a 02B0     		add	sp, sp, #8
 187              		.cfi_def_cfa_offset 0
 188              		@ sp needed
 189 006c 7047     		bx	lr
 190              		.cfi_endproc
 191              	.LFE234:
 192              		.size	chMBGetUsedCountI, .-chMBGetUsedCountI
 193 006e 00BF     		.align	2
 194              		.p2align 4,,15
 195              		.thumb
 196              		.thumb_func
 197              		.type	chMBGetFreeCountI, %function
 198              	chMBGetFreeCountI:
 199              	.LFB235:
 200              		.loc 4 168 0
 201              		.cfi_startproc
 202              		@ args = 0, pretend = 0, frame = 8
 203              		@ frame_needed = 0, uses_anonymous_args = 0
 204 0070 10B5     		push	{r4, lr}
 205              		.cfi_def_cfa_offset 8
 206              		.cfi_offset 4, -8
 207              		.cfi_offset 14, -4
 208 0072 82B0     		sub	sp, sp, #8
 209              		.cfi_def_cfa_offset 16
 210 0074 0190     		str	r0, [sp, #4]
 211              		.loc 4 172 0
 212 0076 0198     		ldr	r0, [sp, #4]
 213 0078 FFF7E2FF 		bl	chMBGetSizeI
 214 007c 0446     		mov	r4, r0
 215 007e 0198     		ldr	r0, [sp, #4]
 216 0080 FFF7EEFF 		bl	chMBGetUsedCountI
 217 0084 0346     		mov	r3, r0
 218 0086 E31A     		subs	r3, r4, r3
 219              		.loc 4 173 0
 220 0088 1846     		mov	r0, r3
 221 008a 02B0     		add	sp, sp, #8
 222              		.cfi_def_cfa_offset 8
 223              		@ sp needed
 224 008c 10BD     		pop	{r4, pc}
 225              		.cfi_endproc
ARM GAS  /tmp/ccSQgpq0.s 			page 5


 226              	.LFE235:
 227              		.size	chMBGetFreeCountI, .-chMBGetFreeCountI
 228 008e 00BF     		.align	2
 229              		.p2align 4,,15
 230              		.thumb
 231              		.thumb_func
 232              		.type	chMBResumeX, %function
 233              	chMBResumeX:
 234              	.LFB237:
 235              		.loc 4 201 0
 236              		.cfi_startproc
 237              		@ args = 0, pretend = 0, frame = 8
 238              		@ frame_needed = 0, uses_anonymous_args = 0
 239              		@ link register save eliminated.
 240 0090 82B0     		sub	sp, sp, #8
 241              		.cfi_def_cfa_offset 8
 242 0092 0190     		str	r0, [sp, #4]
 243              		.loc 4 203 0
 244 0094 019B     		ldr	r3, [sp, #4]
 245 0096 0022     		movs	r2, #0
 246 0098 1A75     		strb	r2, [r3, #20]
 247              		.loc 4 204 0
 248 009a 02B0     		add	sp, sp, #8
 249              		.cfi_def_cfa_offset 0
 250              		@ sp needed
 251 009c 7047     		bx	lr
 252              		.cfi_endproc
 253              	.LFE237:
 254              		.size	chMBResumeX, .-chMBResumeX
 255 009e 00BF     		.align	2
 256              		.p2align 4,,15
 257              		.thumb
 258              		.thumb_func
 259              		.type	osalSysLock, %function
 260              	osalSysLock:
 261              	.LFB252:
 262              		.file 5 "../../../os/hal/osal/rt/osal.h"
 263              		.loc 5 491 0
 264              		.cfi_startproc
 265              		@ args = 0, pretend = 0, frame = 0
 266              		@ frame_needed = 0, uses_anonymous_args = 0
 267 00a0 08B5     		push	{r3, lr}
 268              		.cfi_def_cfa_offset 8
 269              		.cfi_offset 3, -8
 270              		.cfi_offset 14, -4
 271              		.loc 5 493 0
 272 00a2 FFF7BDFF 		bl	chSysLock
 273              		.loc 5 494 0
 274 00a6 08BD     		pop	{r3, pc}
 275              		.cfi_endproc
 276              	.LFE252:
 277              		.size	osalSysLock, .-osalSysLock
 278              		.align	2
 279 00a8 AFF30080 		.p2align 4,,15
 279      AFF30080 
 280              		.thumb
 281              		.thumb_func
ARM GAS  /tmp/ccSQgpq0.s 			page 6


 282              		.type	osalSysUnlock, %function
 283              	osalSysUnlock:
 284              	.LFB253:
 285              		.loc 5 502 0
 286              		.cfi_startproc
 287              		@ args = 0, pretend = 0, frame = 0
 288              		@ frame_needed = 0, uses_anonymous_args = 0
 289 00b0 08B5     		push	{r3, lr}
 290              		.cfi_def_cfa_offset 8
 291              		.cfi_offset 3, -8
 292              		.cfi_offset 14, -4
 293              		.loc 5 504 0
 294 00b2 FFF7BDFF 		bl	chSysUnlock
 295              		.loc 5 505 0
 296 00b6 08BD     		pop	{r3, pc}
 297              		.cfi_endproc
 298              	.LFE253:
 299              		.size	osalSysUnlock, .-osalSysUnlock
 300              		.bss
 301              		.align	2
 302              	mb_buffer:
 303 0000 00000000 		.space	16
 303      00000000 
 303      00000000 
 303      00000000 
 304              		.data
 305              		.align	2
 306              		.type	mb1, %object
 307              		.size	mb1, 40
 308              	mb1:
 309 0000 00000000 		.word	mb_buffer
 310 0004 10000000 		.word	mb_buffer+16
 311 0008 00000000 		.word	mb_buffer
 312 000c 00000000 		.word	mb_buffer
 313 0010 00000000 		.word	0
 314 0014 00       		.byte	0
 315 0015 000000   		.space	3
 316 0018 18000000 		.word	mb1+24
 317 001c 18000000 		.word	mb1+24
 318 0020 20000000 		.word	mb1+32
 319 0024 20000000 		.word	mb1+32
 320              		.text
 321              		.align	2
 322 00b8 AFF30080 		.p2align 4,,15
 322      AFF30080 
 323              		.thumb
 324              		.thumb_func
 325              		.type	test_009_001_setup, %function
 326              	test_009_001_setup:
 327              	.LFB279:
 328              		.file 6 "../../../test/rt/source/test/test_sequence_009.c"
 329              		.loc 6 87 0
 330              		.cfi_startproc
 331              		@ args = 0, pretend = 0, frame = 0
 332              		@ frame_needed = 0, uses_anonymous_args = 0
 333 00c0 08B5     		push	{r3, lr}
 334              		.cfi_def_cfa_offset 8
ARM GAS  /tmp/ccSQgpq0.s 			page 7


 335              		.cfi_offset 3, -8
 336              		.cfi_offset 14, -4
 337              		.loc 6 88 0
 338 00c2 0348     		ldr	r0, .L15
 339 00c4 0349     		ldr	r1, .L15+4
 340 00c6 0422     		movs	r2, #4
 341 00c8 FFF7FEFF 		bl	chMBObjectInit
 342              		.loc 6 89 0
 343 00cc 08BD     		pop	{r3, pc}
 344              	.L16:
 345 00ce 00BF     		.align	2
 346              	.L15:
 347 00d0 00000000 		.word	mb1
 348 00d4 00000000 		.word	mb_buffer
 349              		.cfi_endproc
 350              	.LFE279:
 351              		.size	test_009_001_setup, .-test_009_001_setup
 352              		.align	2
 353 00d8 AFF30080 		.p2align 4,,15
 353      AFF30080 
 354              		.thumb
 355              		.thumb_func
 356              		.type	test_009_001_teardown, %function
 357              	test_009_001_teardown:
 358              	.LFB280:
 359              		.loc 6 91 0
 360              		.cfi_startproc
 361              		@ args = 0, pretend = 0, frame = 0
 362              		@ frame_needed = 0, uses_anonymous_args = 0
 363 00e0 08B5     		push	{r3, lr}
 364              		.cfi_def_cfa_offset 8
 365              		.cfi_offset 3, -8
 366              		.cfi_offset 14, -4
 367              		.loc 6 92 0
 368 00e2 0248     		ldr	r0, .L18
 369 00e4 FFF7FEFF 		bl	chMBReset
 370              		.loc 6 93 0
 371 00e8 08BD     		pop	{r3, pc}
 372              	.L19:
 373 00ea 00BF     		.align	2
 374              	.L18:
 375 00ec 00000000 		.word	mb1
 376              		.cfi_endproc
 377              	.LFE280:
 378              		.size	test_009_001_teardown, .-test_009_001_teardown
 379              		.section	.rodata
 380              		.align	2
 381              	.LC0:
 382 0000 77726F6E 		.ascii	"wrong size\000"
 382      67207369 
 382      7A6500
 383 000b 00       		.align	2
 384              	.LC1:
 385 000c 6E6F7420 		.ascii	"not empty\000"
 385      656D7074 
 385      7900
 386 0016 0000     		.align	2
ARM GAS  /tmp/ccSQgpq0.s 			page 8


 387              	.LC2:
 388 0018 7374696C 		.ascii	"still full\000"
 388      6C206675 
 388      6C6C00
 389 0023 00       		.align	2
 390              	.LC3:
 391 0024 77726974 		.ascii	"write pointer not aligned to base\000"
 391      6520706F 
 391      696E7465 
 391      72206E6F 
 391      7420616C 
 392 0046 0000     		.align	2
 393              	.LC4:
 394 0048 72656164 		.ascii	"read pointer not aligned to base\000"
 394      20706F69 
 394      6E746572 
 394      206E6F74 
 394      20616C69 
 395 0069 000000   		.align	2
 396              	.LC5:
 397 006c 6E6F7420 		.ascii	"not in reset state\000"
 397      696E2072 
 397      65736574 
 397      20737461 
 397      746500
 398 007f 00       		.align	2
 399              	.LC6:
 400 0080 77726F6E 		.ascii	"wrong wake-up message\000"
 400      67207761 
 400      6B652D75 
 400      70206D65 
 400      73736167 
 401 0096 0000     		.align	2
 402              	.LC7:
 403 0098 7374696C 		.ascii	"still empty\000"
 403      6C20656D 
 403      70747900 
 404              		.align	2
 405              	.LC8:
 406 00a4 6E6F7420 		.ascii	"not full\000"
 406      66756C6C 
 406      00
 407 00ad 000000   		.align	2
 408              	.LC9:
 409 00b0 706F696E 		.ascii	"pointers not aligned\000"
 409      74657273 
 409      206E6F74 
 409      20616C69 
 409      676E6564 
 410 00c5 000000   		.align	2
 411              	.LC10:
 412 00c8 41424344 		.ascii	"ABCD\000"
 412      00
 413 00cd 000000   		.align	2
 414              	.LC11:
 415 00d0 77726F6E 		.ascii	"wrong get sequence\000"
 415      67206765 
ARM GAS  /tmp/ccSQgpq0.s 			page 9


 415      74207365 
 415      7175656E 
 415      636500
 416              		.text
 417              		.align	2
 418              		.p2align 4,,15
 419              		.thumb
 420              		.thumb_func
 421              		.type	test_009_001_execute, %function
 422              	test_009_001_execute:
 423              	.LFB281:
 424              		.loc 6 95 0
 425              		.cfi_startproc
 426              		@ args = 0, pretend = 0, frame = 16
 427              		@ frame_needed = 0, uses_anonymous_args = 0
 428 00f0 00B5     		push	{lr}
 429              		.cfi_def_cfa_offset 4
 430              		.cfi_offset 14, -4
 431 00f2 85B0     		sub	sp, sp, #20
 432              		.cfi_def_cfa_offset 24
 433              		.loc 6 100 0
 434 00f4 A54B     		ldr	r3, .L48
 435 00f6 0122     		movs	r2, #1
 436 00f8 1A60     		str	r2, [r3]
 437              		.loc 6 102 0
 438 00fa FFF7D1FF 		bl	osalSysLock
 439 00fe A448     		ldr	r0, .L48+4
 440 0100 FFF7B6FF 		bl	chMBGetFreeCountI
 441 0104 0346     		mov	r3, r0
 442 0106 042B     		cmp	r3, #4
 443 0108 0CBF     		ite	eq
 444 010a 0123     		moveq	r3, #1
 445 010c 0023     		movne	r3, #0
 446 010e DBB2     		uxtb	r3, r3
 447 0110 1846     		mov	r0, r3
 448 0112 A049     		ldr	r1, .L48+8
 449 0114 FFF7FEFF 		bl	_test_assert
 450 0118 0346     		mov	r3, r0
 451 011a 002B     		cmp	r3, #0
 452 011c 02D0     		beq	.L21
 453              		.loc 6 102 0 is_stmt 0 discriminator 1
 454 011e FFF7C7FF 		bl	osalSysUnlock
 455 0122 F7E1     		b	.L20
 456              	.L21:
 457              		.loc 6 102 0 discriminator 2
 458 0124 FFF7C4FF 		bl	osalSysUnlock
 459              		.loc 6 107 0 is_stmt 1 discriminator 2
 460 0128 984B     		ldr	r3, .L48
 461 012a 0222     		movs	r2, #2
 462 012c 1A60     		str	r2, [r3]
 463              		.loc 6 109 0 discriminator 2
 464 012e 9848     		ldr	r0, .L48+4
 465 0130 FFF7FEFF 		bl	chMBReset
 466              		.loc 6 110 0 discriminator 2
 467 0134 FFF7B4FF 		bl	osalSysLock
 468 0138 9548     		ldr	r0, .L48+4
 469 013a FFF799FF 		bl	chMBGetFreeCountI
ARM GAS  /tmp/ccSQgpq0.s 			page 10


 470 013e 0346     		mov	r3, r0
 471 0140 042B     		cmp	r3, #4
 472 0142 0CBF     		ite	eq
 473 0144 0123     		moveq	r3, #1
 474 0146 0023     		movne	r3, #0
 475 0148 DBB2     		uxtb	r3, r3
 476 014a 1846     		mov	r0, r3
 477 014c 9249     		ldr	r1, .L48+12
 478 014e FFF7FEFF 		bl	_test_assert
 479 0152 0346     		mov	r3, r0
 480 0154 002B     		cmp	r3, #0
 481 0156 02D0     		beq	.L23
 482              		.loc 6 110 0 is_stmt 0 discriminator 1
 483 0158 FFF7AAFF 		bl	osalSysUnlock
 484 015c DAE1     		b	.L20
 485              	.L23:
 486              		.loc 6 110 0 discriminator 2
 487 015e FFF7A7FF 		bl	osalSysUnlock
 488              		.loc 6 111 0 is_stmt 1 discriminator 2
 489 0162 FFF79DFF 		bl	osalSysLock
 490 0166 8A48     		ldr	r0, .L48+4
 491 0168 FFF77AFF 		bl	chMBGetUsedCountI
 492 016c 0346     		mov	r3, r0
 493 016e 002B     		cmp	r3, #0
 494 0170 0CBF     		ite	eq
 495 0172 0123     		moveq	r3, #1
 496 0174 0023     		movne	r3, #0
 497 0176 DBB2     		uxtb	r3, r3
 498 0178 1846     		mov	r0, r3
 499 017a 8849     		ldr	r1, .L48+16
 500 017c FFF7FEFF 		bl	_test_assert
 501 0180 0346     		mov	r3, r0
 502 0182 002B     		cmp	r3, #0
 503 0184 02D0     		beq	.L24
 504              		.loc 6 111 0 is_stmt 0 discriminator 1
 505 0186 FFF793FF 		bl	osalSysUnlock
 506 018a C3E1     		b	.L20
 507              	.L24:
 508              		.loc 6 111 0 discriminator 2
 509 018c FFF790FF 		bl	osalSysUnlock
 510              		.loc 6 112 0 is_stmt 1 discriminator 2
 511 0190 FFF786FF 		bl	osalSysLock
 512 0194 7E4B     		ldr	r3, .L48+4
 513 0196 1A68     		ldr	r2, [r3]
 514 0198 7D4B     		ldr	r3, .L48+4
 515 019a 9B68     		ldr	r3, [r3, #8]
 516 019c 9A42     		cmp	r2, r3
 517 019e 0CBF     		ite	eq
 518 01a0 0123     		moveq	r3, #1
 519 01a2 0023     		movne	r3, #0
 520 01a4 DBB2     		uxtb	r3, r3
 521 01a6 1846     		mov	r0, r3
 522 01a8 7D49     		ldr	r1, .L48+20
 523 01aa FFF7FEFF 		bl	_test_assert
 524 01ae 0346     		mov	r3, r0
 525 01b0 002B     		cmp	r3, #0
 526 01b2 02D0     		beq	.L25
ARM GAS  /tmp/ccSQgpq0.s 			page 11


 527              		.loc 6 112 0 is_stmt 0 discriminator 1
 528 01b4 FFF77CFF 		bl	osalSysUnlock
 529 01b8 ACE1     		b	.L20
 530              	.L25:
 531              		.loc 6 112 0 discriminator 2
 532 01ba FFF779FF 		bl	osalSysUnlock
 533              		.loc 6 113 0 is_stmt 1 discriminator 2
 534 01be FFF76FFF 		bl	osalSysLock
 535 01c2 734B     		ldr	r3, .L48+4
 536 01c4 1A68     		ldr	r2, [r3]
 537 01c6 724B     		ldr	r3, .L48+4
 538 01c8 DB68     		ldr	r3, [r3, #12]
 539 01ca 9A42     		cmp	r2, r3
 540 01cc 0CBF     		ite	eq
 541 01ce 0123     		moveq	r3, #1
 542 01d0 0023     		movne	r3, #0
 543 01d2 DBB2     		uxtb	r3, r3
 544 01d4 1846     		mov	r0, r3
 545 01d6 7349     		ldr	r1, .L48+24
 546 01d8 FFF7FEFF 		bl	_test_assert
 547 01dc 0346     		mov	r3, r0
 548 01de 002B     		cmp	r3, #0
 549 01e0 02D0     		beq	.L26
 550              		.loc 6 113 0 is_stmt 0 discriminator 1
 551 01e2 FFF765FF 		bl	osalSysUnlock
 552 01e6 95E1     		b	.L20
 553              	.L26:
 554              		.loc 6 113 0 discriminator 2
 555 01e8 FFF762FF 		bl	osalSysUnlock
 556              		.loc 6 118 0 is_stmt 1 discriminator 2
 557 01ec 674B     		ldr	r3, .L48
 558 01ee 0322     		movs	r2, #3
 559 01f0 1A60     		str	r2, [r3]
 560              		.loc 6 120 0 discriminator 2
 561 01f2 6748     		ldr	r0, .L48+4
 562 01f4 0021     		movs	r1, #0
 563 01f6 4FF0FF32 		mov	r2, #-1
 564 01fa FFF7FEFF 		bl	chMBPost
 565 01fe 0290     		str	r0, [sp, #8]
 566              		.loc 6 121 0 discriminator 2
 567 0200 029B     		ldr	r3, [sp, #8]
 568 0202 13F1020F 		cmn	r3, #2
 569 0206 0CBF     		ite	eq
 570 0208 0123     		moveq	r3, #1
 571 020a 0023     		movne	r3, #0
 572 020c DBB2     		uxtb	r3, r3
 573 020e 1846     		mov	r0, r3
 574 0210 6549     		ldr	r1, .L48+28
 575 0212 FFF7FEFF 		bl	_test_assert
 576 0216 0346     		mov	r3, r0
 577 0218 002B     		cmp	r3, #0
 578 021a 00D0     		beq	.L27
 579              		.loc 6 121 0 is_stmt 0
 580 021c 7AE1     		b	.L20
 581              	.L27:
 582              		.loc 6 122 0 is_stmt 1
 583 021e 5C48     		ldr	r0, .L48+4
ARM GAS  /tmp/ccSQgpq0.s 			page 12


 584 0220 0021     		movs	r1, #0
 585 0222 4FF0FF32 		mov	r2, #-1
 586 0226 FFF7FEFF 		bl	chMBPostAhead
 587 022a 0290     		str	r0, [sp, #8]
 588              		.loc 6 123 0
 589 022c 029B     		ldr	r3, [sp, #8]
 590 022e 13F1020F 		cmn	r3, #2
 591 0232 0CBF     		ite	eq
 592 0234 0123     		moveq	r3, #1
 593 0236 0023     		movne	r3, #0
 594 0238 DBB2     		uxtb	r3, r3
 595 023a 1846     		mov	r0, r3
 596 023c 5A49     		ldr	r1, .L48+28
 597 023e FFF7FEFF 		bl	_test_assert
 598 0242 0346     		mov	r3, r0
 599 0244 002B     		cmp	r3, #0
 600 0246 00D0     		beq	.L28
 601 0248 64E1     		b	.L20
 602              	.L28:
 603              		.loc 6 124 0
 604 024a 01AB     		add	r3, sp, #4
 605 024c 5048     		ldr	r0, .L48+4
 606 024e 1946     		mov	r1, r3
 607 0250 4FF0FF32 		mov	r2, #-1
 608 0254 FFF7FEFF 		bl	chMBFetch
 609 0258 0290     		str	r0, [sp, #8]
 610              		.loc 6 125 0
 611 025a 029B     		ldr	r3, [sp, #8]
 612 025c 13F1020F 		cmn	r3, #2
 613 0260 0CBF     		ite	eq
 614 0262 0123     		moveq	r3, #1
 615 0264 0023     		movne	r3, #0
 616 0266 DBB2     		uxtb	r3, r3
 617 0268 1846     		mov	r0, r3
 618 026a 4F49     		ldr	r1, .L48+28
 619 026c FFF7FEFF 		bl	_test_assert
 620 0270 0346     		mov	r3, r0
 621 0272 002B     		cmp	r3, #0
 622 0274 00D0     		beq	.L29
 623 0276 4DE1     		b	.L20
 624              	.L29:
 625              		.loc 6 126 0
 626 0278 4548     		ldr	r0, .L48+4
 627 027a FFF709FF 		bl	chMBResumeX
 628              		.loc 6 131 0
 629 027e 434B     		ldr	r3, .L48
 630 0280 0422     		movs	r2, #4
 631 0282 1A60     		str	r2, [r3]
 632              		.loc 6 133 0
 633 0284 0023     		movs	r3, #0
 634 0286 0393     		str	r3, [sp, #12]
 635 0288 19E0     		b	.L30
 636              	.L32:
 637              		.loc 6 134 0
 638 028a 039B     		ldr	r3, [sp, #12]
 639 028c 4233     		adds	r3, r3, #66
 640 028e 4048     		ldr	r0, .L48+4
ARM GAS  /tmp/ccSQgpq0.s 			page 13


 641 0290 1946     		mov	r1, r3
 642 0292 4FF0FF32 		mov	r2, #-1
 643 0296 FFF7FEFF 		bl	chMBPost
 644 029a 0290     		str	r0, [sp, #8]
 645              		.loc 6 135 0
 646 029c 029B     		ldr	r3, [sp, #8]
 647 029e 002B     		cmp	r3, #0
 648 02a0 0CBF     		ite	eq
 649 02a2 0123     		moveq	r3, #1
 650 02a4 0023     		movne	r3, #0
 651 02a6 DBB2     		uxtb	r3, r3
 652 02a8 1846     		mov	r0, r3
 653 02aa 4049     		ldr	r1, .L48+32
 654 02ac FFF7FEFF 		bl	_test_assert
 655 02b0 0346     		mov	r3, r0
 656 02b2 002B     		cmp	r3, #0
 657 02b4 00D0     		beq	.L31
 658 02b6 2DE1     		b	.L20
 659              	.L31:
 660              		.loc 6 133 0 discriminator 2
 661 02b8 039B     		ldr	r3, [sp, #12]
 662 02ba 0133     		adds	r3, r3, #1
 663 02bc 0393     		str	r3, [sp, #12]
 664              	.L30:
 665              		.loc 6 133 0 is_stmt 0 discriminator 1
 666 02be 039B     		ldr	r3, [sp, #12]
 667 02c0 022B     		cmp	r3, #2
 668 02c2 E2D9     		bls	.L32
 669              		.loc 6 137 0 is_stmt 1
 670 02c4 3248     		ldr	r0, .L48+4
 671 02c6 4121     		movs	r1, #65
 672 02c8 4FF0FF32 		mov	r2, #-1
 673 02cc FFF7FEFF 		bl	chMBPostAhead
 674 02d0 0290     		str	r0, [sp, #8]
 675              		.loc 6 138 0
 676 02d2 029B     		ldr	r3, [sp, #8]
 677 02d4 002B     		cmp	r3, #0
 678 02d6 0CBF     		ite	eq
 679 02d8 0123     		moveq	r3, #1
 680 02da 0023     		movne	r3, #0
 681 02dc DBB2     		uxtb	r3, r3
 682 02de 1846     		mov	r0, r3
 683 02e0 3249     		ldr	r1, .L48+32
 684 02e2 FFF7FEFF 		bl	_test_assert
 685 02e6 0346     		mov	r3, r0
 686 02e8 002B     		cmp	r3, #0
 687 02ea 00D0     		beq	.L33
 688 02ec 12E1     		b	.L20
 689              	.L33:
 690              		.loc 6 143 0
 691 02ee 274B     		ldr	r3, .L48
 692 02f0 0522     		movs	r2, #5
 693 02f2 1A60     		str	r2, [r3]
 694              		.loc 6 145 0
 695 02f4 FFF7D4FE 		bl	osalSysLock
 696 02f8 2548     		ldr	r0, .L48+4
 697 02fa FFF7B9FE 		bl	chMBGetFreeCountI
ARM GAS  /tmp/ccSQgpq0.s 			page 14


 698 02fe 0346     		mov	r3, r0
 699 0300 002B     		cmp	r3, #0
 700 0302 0CBF     		ite	eq
 701 0304 0123     		moveq	r3, #1
 702 0306 0023     		movne	r3, #0
 703 0308 DBB2     		uxtb	r3, r3
 704 030a 1846     		mov	r0, r3
 705 030c 2849     		ldr	r1, .L48+36
 706 030e FFF7FEFF 		bl	_test_assert
 707 0312 0346     		mov	r3, r0
 708 0314 002B     		cmp	r3, #0
 709 0316 02D0     		beq	.L34
 710              		.loc 6 145 0 is_stmt 0 discriminator 1
 711 0318 FFF7CAFE 		bl	osalSysUnlock
 712 031c FAE0     		b	.L20
 713              	.L34:
 714              		.loc 6 145 0 discriminator 2
 715 031e FFF7C7FE 		bl	osalSysUnlock
 716              		.loc 6 146 0 is_stmt 1 discriminator 2
 717 0322 FFF7BDFE 		bl	osalSysLock
 718 0326 1A48     		ldr	r0, .L48+4
 719 0328 FFF79AFE 		bl	chMBGetUsedCountI
 720 032c 0346     		mov	r3, r0
 721 032e 042B     		cmp	r3, #4
 722 0330 0CBF     		ite	eq
 723 0332 0123     		moveq	r3, #1
 724 0334 0023     		movne	r3, #0
 725 0336 DBB2     		uxtb	r3, r3
 726 0338 1846     		mov	r0, r3
 727 033a 1E49     		ldr	r1, .L48+40
 728 033c FFF7FEFF 		bl	_test_assert
 729 0340 0346     		mov	r3, r0
 730 0342 002B     		cmp	r3, #0
 731 0344 02D0     		beq	.L35
 732              		.loc 6 146 0 is_stmt 0 discriminator 1
 733 0346 FFF7B3FE 		bl	osalSysUnlock
 734 034a E3E0     		b	.L20
 735              	.L35:
 736              		.loc 6 146 0 discriminator 2
 737 034c FFF7B0FE 		bl	osalSysUnlock
 738              		.loc 6 147 0 is_stmt 1 discriminator 2
 739 0350 FFF7A6FE 		bl	osalSysLock
 740 0354 0E4B     		ldr	r3, .L48+4
 741 0356 DA68     		ldr	r2, [r3, #12]
 742 0358 0D4B     		ldr	r3, .L48+4
 743 035a 9B68     		ldr	r3, [r3, #8]
 744 035c 9A42     		cmp	r2, r3
 745 035e 0CBF     		ite	eq
 746 0360 0123     		moveq	r3, #1
 747 0362 0023     		movne	r3, #0
 748 0364 DBB2     		uxtb	r3, r3
 749 0366 1846     		mov	r0, r3
 750 0368 1349     		ldr	r1, .L48+44
 751 036a FFF7FEFF 		bl	_test_assert
 752 036e 0346     		mov	r3, r0
 753 0370 002B     		cmp	r3, #0
 754 0372 02D0     		beq	.L36
ARM GAS  /tmp/ccSQgpq0.s 			page 15


 755              		.loc 6 147 0 is_stmt 0 discriminator 1
 756 0374 FFF79CFE 		bl	osalSysUnlock
 757 0378 CCE0     		b	.L20
 758              	.L36:
 759              		.loc 6 147 0 discriminator 2
 760 037a FFF799FE 		bl	osalSysUnlock
 761              		.loc 6 152 0 is_stmt 1 discriminator 2
 762 037e 034B     		ldr	r3, .L48
 763 0380 0622     		movs	r2, #6
 764 0382 1A60     		str	r2, [r3]
 765              		.loc 6 154 0 discriminator 2
 766 0384 0023     		movs	r3, #0
 767 0386 0393     		str	r3, [sp, #12]
 768 0388 36E0     		b	.L37
 769              	.L49:
 770 038a 00BF     		.align	2
 771              	.L48:
 772 038c 00000000 		.word	test_step
 773 0390 00000000 		.word	mb1
 774 0394 00000000 		.word	.LC0
 775 0398 0C000000 		.word	.LC1
 776 039c 18000000 		.word	.LC2
 777 03a0 24000000 		.word	.LC3
 778 03a4 48000000 		.word	.LC4
 779 03a8 6C000000 		.word	.LC5
 780 03ac 80000000 		.word	.LC6
 781 03b0 98000000 		.word	.LC7
 782 03b4 A4000000 		.word	.LC8
 783 03b8 B0000000 		.word	.LC9
 784              	.L39:
 785              		.loc 6 155 0
 786 03bc 01AB     		add	r3, sp, #4
 787 03be 5748     		ldr	r0, .L50
 788 03c0 1946     		mov	r1, r3
 789 03c2 4FF0FF32 		mov	r2, #-1
 790 03c6 FFF7FEFF 		bl	chMBFetch
 791 03ca 0290     		str	r0, [sp, #8]
 792              		.loc 6 156 0
 793 03cc 029B     		ldr	r3, [sp, #8]
 794 03ce 002B     		cmp	r3, #0
 795 03d0 0CBF     		ite	eq
 796 03d2 0123     		moveq	r3, #1
 797 03d4 0023     		movne	r3, #0
 798 03d6 DBB2     		uxtb	r3, r3
 799 03d8 1846     		mov	r0, r3
 800 03da 5149     		ldr	r1, .L50+4
 801 03dc FFF7FEFF 		bl	_test_assert
 802 03e0 0346     		mov	r3, r0
 803 03e2 002B     		cmp	r3, #0
 804 03e4 00D0     		beq	.L38
 805 03e6 95E0     		b	.L20
 806              	.L38:
 807              		.loc 6 157 0 discriminator 2
 808 03e8 019B     		ldr	r3, [sp, #4]
 809 03ea DBB2     		uxtb	r3, r3
 810 03ec 1846     		mov	r0, r3
 811 03ee FFF7FEFF 		bl	test_emit_token
ARM GAS  /tmp/ccSQgpq0.s 			page 16


 812              		.loc 6 154 0 discriminator 2
 813 03f2 039B     		ldr	r3, [sp, #12]
 814 03f4 0133     		adds	r3, r3, #1
 815 03f6 0393     		str	r3, [sp, #12]
 816              	.L37:
 817              		.loc 6 154 0 is_stmt 0 discriminator 1
 818 03f8 039B     		ldr	r3, [sp, #12]
 819 03fa 032B     		cmp	r3, #3
 820 03fc DED9     		bls	.L39
 821              		.loc 6 159 0 is_stmt 1
 822 03fe 4948     		ldr	r0, .L50+8
 823 0400 4949     		ldr	r1, .L50+12
 824 0402 FFF7FEFF 		bl	_test_assert_sequence
 825 0406 0346     		mov	r3, r0
 826 0408 002B     		cmp	r3, #0
 827 040a 00D0     		beq	.L40
 828 040c 82E0     		b	.L20
 829              	.L40:
 830              		.loc 6 164 0
 831 040e 474B     		ldr	r3, .L50+16
 832 0410 0722     		movs	r2, #7
 833 0412 1A60     		str	r2, [r3]
 834              		.loc 6 166 0
 835 0414 039B     		ldr	r3, [sp, #12]
 836 0416 4233     		adds	r3, r3, #66
 837 0418 4048     		ldr	r0, .L50
 838 041a 1946     		mov	r1, r3
 839 041c 4FF0FF32 		mov	r2, #-1
 840 0420 FFF7FEFF 		bl	chMBPost
 841 0424 0290     		str	r0, [sp, #8]
 842              		.loc 6 167 0
 843 0426 029B     		ldr	r3, [sp, #8]
 844 0428 002B     		cmp	r3, #0
 845 042a 0CBF     		ite	eq
 846 042c 0123     		moveq	r3, #1
 847 042e 0023     		movne	r3, #0
 848 0430 DBB2     		uxtb	r3, r3
 849 0432 1846     		mov	r0, r3
 850 0434 3A49     		ldr	r1, .L50+4
 851 0436 FFF7FEFF 		bl	_test_assert
 852 043a 0346     		mov	r3, r0
 853 043c 002B     		cmp	r3, #0
 854 043e 00D0     		beq	.L41
 855 0440 68E0     		b	.L20
 856              	.L41:
 857              		.loc 6 168 0
 858 0442 01AB     		add	r3, sp, #4
 859 0444 3548     		ldr	r0, .L50
 860 0446 1946     		mov	r1, r3
 861 0448 4FF0FF32 		mov	r2, #-1
 862 044c FFF7FEFF 		bl	chMBFetch
 863 0450 0290     		str	r0, [sp, #8]
 864              		.loc 6 169 0
 865 0452 029B     		ldr	r3, [sp, #8]
 866 0454 002B     		cmp	r3, #0
 867 0456 0CBF     		ite	eq
 868 0458 0123     		moveq	r3, #1
ARM GAS  /tmp/ccSQgpq0.s 			page 17


 869 045a 0023     		movne	r3, #0
 870 045c DBB2     		uxtb	r3, r3
 871 045e 1846     		mov	r0, r3
 872 0460 2F49     		ldr	r1, .L50+4
 873 0462 FFF7FEFF 		bl	_test_assert
 874 0466 0346     		mov	r3, r0
 875 0468 002B     		cmp	r3, #0
 876 046a 00D0     		beq	.L42
 877 046c 52E0     		b	.L20
 878              	.L42:
 879              		.loc 6 174 0
 880 046e 2F4B     		ldr	r3, .L50+16
 881 0470 0822     		movs	r2, #8
 882 0472 1A60     		str	r2, [r3]
 883              		.loc 6 176 0
 884 0474 FFF714FE 		bl	osalSysLock
 885 0478 2848     		ldr	r0, .L50
 886 047a FFF7F9FD 		bl	chMBGetFreeCountI
 887 047e 0346     		mov	r3, r0
 888 0480 042B     		cmp	r3, #4
 889 0482 0CBF     		ite	eq
 890 0484 0123     		moveq	r3, #1
 891 0486 0023     		movne	r3, #0
 892 0488 DBB2     		uxtb	r3, r3
 893 048a 1846     		mov	r0, r3
 894 048c 2849     		ldr	r1, .L50+20
 895 048e FFF7FEFF 		bl	_test_assert
 896 0492 0346     		mov	r3, r0
 897 0494 002B     		cmp	r3, #0
 898 0496 02D0     		beq	.L43
 899              		.loc 6 176 0 is_stmt 0 discriminator 1
 900 0498 FFF70AFE 		bl	osalSysUnlock
 901 049c 3AE0     		b	.L20
 902              	.L43:
 903              		.loc 6 176 0 discriminator 2
 904 049e FFF707FE 		bl	osalSysUnlock
 905              		.loc 6 177 0 is_stmt 1 discriminator 2
 906 04a2 FFF7FDFD 		bl	osalSysLock
 907 04a6 1D48     		ldr	r0, .L50
 908 04a8 FFF7DAFD 		bl	chMBGetUsedCountI
 909 04ac 0346     		mov	r3, r0
 910 04ae 002B     		cmp	r3, #0
 911 04b0 0CBF     		ite	eq
 912 04b2 0123     		moveq	r3, #1
 913 04b4 0023     		movne	r3, #0
 914 04b6 DBB2     		uxtb	r3, r3
 915 04b8 1846     		mov	r0, r3
 916 04ba 1E49     		ldr	r1, .L50+24
 917 04bc FFF7FEFF 		bl	_test_assert
 918 04c0 0346     		mov	r3, r0
 919 04c2 002B     		cmp	r3, #0
 920 04c4 02D0     		beq	.L44
 921              		.loc 6 177 0 is_stmt 0 discriminator 1
 922 04c6 FFF7F3FD 		bl	osalSysUnlock
 923 04ca 23E0     		b	.L20
 924              	.L44:
 925              		.loc 6 177 0 discriminator 2
ARM GAS  /tmp/ccSQgpq0.s 			page 18


 926 04cc FFF7F0FD 		bl	osalSysUnlock
 927              		.loc 6 178 0 is_stmt 1 discriminator 2
 928 04d0 124B     		ldr	r3, .L50
 929 04d2 1A68     		ldr	r2, [r3]
 930 04d4 114B     		ldr	r3, .L50
 931 04d6 9B68     		ldr	r3, [r3, #8]
 932 04d8 9A42     		cmp	r2, r3
 933 04da 0CBF     		ite	eq
 934 04dc 0123     		moveq	r3, #1
 935 04de 0023     		movne	r3, #0
 936 04e0 DBB2     		uxtb	r3, r3
 937 04e2 1846     		mov	r0, r3
 938 04e4 1449     		ldr	r1, .L50+28
 939 04e6 FFF7FEFF 		bl	_test_assert
 940 04ea 0346     		mov	r3, r0
 941 04ec 002B     		cmp	r3, #0
 942 04ee 00D0     		beq	.L45
 943              		.loc 6 178 0 is_stmt 0
 944 04f0 10E0     		b	.L20
 945              	.L45:
 946              		.loc 6 179 0 is_stmt 1
 947 04f2 0A4B     		ldr	r3, .L50
 948 04f4 1A68     		ldr	r2, [r3]
 949 04f6 094B     		ldr	r3, .L50
 950 04f8 DB68     		ldr	r3, [r3, #12]
 951 04fa 9A42     		cmp	r2, r3
 952 04fc 0CBF     		ite	eq
 953 04fe 0123     		moveq	r3, #1
 954 0500 0023     		movne	r3, #0
 955 0502 DBB2     		uxtb	r3, r3
 956 0504 1846     		mov	r0, r3
 957 0506 0D49     		ldr	r1, .L50+32
 958 0508 FFF7FEFF 		bl	_test_assert
 959 050c 0346     		mov	r3, r0
 960 050e 002B     		cmp	r3, #0
 961 0510 00D0     		beq	.L20
 962 0512 00BF     		nop
 963              	.L20:
 964              		.loc 6 181 0
 965 0514 05B0     		add	sp, sp, #20
 966              		.cfi_def_cfa_offset 4
 967              		@ sp needed
 968 0516 5DF804FB 		ldr	pc, [sp], #4
 969              	.L51:
 970 051a 00BF     		.align	2
 971              	.L50:
 972 051c 00000000 		.word	mb1
 973 0520 80000000 		.word	.LC6
 974 0524 C8000000 		.word	.LC10
 975 0528 D0000000 		.word	.LC11
 976 052c 00000000 		.word	test_step
 977 0530 0C000000 		.word	.LC1
 978 0534 18000000 		.word	.LC2
 979 0538 24000000 		.word	.LC3
 980 053c 48000000 		.word	.LC4
 981              		.cfi_endproc
 982              	.LFE281:
ARM GAS  /tmp/ccSQgpq0.s 			page 19


 983              		.size	test_009_001_execute, .-test_009_001_execute
 984              		.section	.rodata
 985 00e3 00       		.align	2
 986              	.LC12:
 987 00e4 4D61696C 		.ascii	"Mailbox normal API, non-blocking tests\000"
 987      626F7820 
 987      6E6F726D 
 987      616C2041 
 987      50492C20 
 988 010b 00       		.align	2
 989              		.type	test_009_001, %object
 990              		.size	test_009_001, 16
 991              	test_009_001:
 992 010c E4000000 		.word	.LC12
 993 0110 00000000 		.word	test_009_001_setup
 994 0114 00000000 		.word	test_009_001_teardown
 995 0118 00000000 		.word	test_009_001_execute
 996              		.text
 997              		.align	2
 998              		.p2align 4,,15
 999              		.thumb
 1000              		.thumb_func
 1001              		.type	test_009_002_setup, %function
 1002              	test_009_002_setup:
 1003              	.LFB282:
 1004              		.loc 6 214 0
 1005              		.cfi_startproc
 1006              		@ args = 0, pretend = 0, frame = 0
 1007              		@ frame_needed = 0, uses_anonymous_args = 0
 1008 0540 08B5     		push	{r3, lr}
 1009              		.cfi_def_cfa_offset 8
 1010              		.cfi_offset 3, -8
 1011              		.cfi_offset 14, -4
 1012              		.loc 6 215 0
 1013 0542 0348     		ldr	r0, .L53
 1014 0544 0349     		ldr	r1, .L53+4
 1015 0546 0422     		movs	r2, #4
 1016 0548 FFF7FEFF 		bl	chMBObjectInit
 1017              		.loc 6 216 0
 1018 054c 08BD     		pop	{r3, pc}
 1019              	.L54:
 1020 054e 00BF     		.align	2
 1021              	.L53:
 1022 0550 00000000 		.word	mb1
 1023 0554 00000000 		.word	mb_buffer
 1024              		.cfi_endproc
 1025              	.LFE282:
 1026              		.size	test_009_002_setup, .-test_009_002_setup
 1027              		.align	2
 1028 0558 AFF30080 		.p2align 4,,15
 1028      AFF30080 
 1029              		.thumb
 1030              		.thumb_func
 1031              		.type	test_009_002_teardown, %function
 1032              	test_009_002_teardown:
 1033              	.LFB283:
 1034              		.loc 6 218 0
ARM GAS  /tmp/ccSQgpq0.s 			page 20


 1035              		.cfi_startproc
 1036              		@ args = 0, pretend = 0, frame = 0
 1037              		@ frame_needed = 0, uses_anonymous_args = 0
 1038 0560 08B5     		push	{r3, lr}
 1039              		.cfi_def_cfa_offset 8
 1040              		.cfi_offset 3, -8
 1041              		.cfi_offset 14, -4
 1042              		.loc 6 219 0
 1043 0562 0248     		ldr	r0, .L56
 1044 0564 FFF7FEFF 		bl	chMBReset
 1045              		.loc 6 220 0
 1046 0568 08BD     		pop	{r3, pc}
 1047              	.L57:
 1048 056a 00BF     		.align	2
 1049              	.L56:
 1050 056c 00000000 		.word	mb1
 1051              		.cfi_endproc
 1052              	.LFE283:
 1053              		.size	test_009_002_teardown, .-test_009_002_teardown
 1054              		.align	2
 1055              		.p2align 4,,15
 1056              		.thumb
 1057              		.thumb_func
 1058              		.type	test_009_002_execute, %function
 1059              	test_009_002_execute:
 1060              	.LFB284:
 1061              		.loc 6 222 0
 1062              		.cfi_startproc
 1063              		@ args = 0, pretend = 0, frame = 16
 1064              		@ frame_needed = 0, uses_anonymous_args = 0
 1065 0570 00B5     		push	{lr}
 1066              		.cfi_def_cfa_offset 4
 1067              		.cfi_offset 14, -4
 1068 0572 85B0     		sub	sp, sp, #20
 1069              		.cfi_def_cfa_offset 24
 1070              		.loc 6 227 0
 1071 0574 A84B     		ldr	r3, .L83
 1072 0576 0122     		movs	r2, #1
 1073 0578 1A60     		str	r2, [r3]
 1074              		.loc 6 229 0
 1075 057a FFF791FD 		bl	osalSysLock
 1076 057e A748     		ldr	r0, .L83+4
 1077 0580 FFF776FD 		bl	chMBGetFreeCountI
 1078 0584 0346     		mov	r3, r0
 1079 0586 042B     		cmp	r3, #4
 1080 0588 0CBF     		ite	eq
 1081 058a 0123     		moveq	r3, #1
 1082 058c 0023     		movne	r3, #0
 1083 058e DBB2     		uxtb	r3, r3
 1084 0590 1846     		mov	r0, r3
 1085 0592 A349     		ldr	r1, .L83+8
 1086 0594 FFF7FEFF 		bl	_test_assert
 1087 0598 0346     		mov	r3, r0
 1088 059a 002B     		cmp	r3, #0
 1089 059c 02D0     		beq	.L59
 1090              		.loc 6 229 0 is_stmt 0 discriminator 1
 1091 059e FFF787FD 		bl	osalSysUnlock
ARM GAS  /tmp/ccSQgpq0.s 			page 21


 1092 05a2 BCE1     		b	.L58
 1093              	.L59:
 1094              		.loc 6 229 0 discriminator 2
 1095 05a4 FFF784FD 		bl	osalSysUnlock
 1096              		.loc 6 234 0 is_stmt 1 discriminator 2
 1097 05a8 9B4B     		ldr	r3, .L83
 1098 05aa 0222     		movs	r2, #2
 1099 05ac 1A60     		str	r2, [r3]
 1100              		.loc 6 236 0 discriminator 2
 1101 05ae FFF737FD 		bl	chSysLock
 1102              		.loc 6 237 0 discriminator 2
 1103 05b2 9A48     		ldr	r0, .L83+4
 1104 05b4 FFF7FEFF 		bl	chMBResetI
 1105              		.loc 6 238 0 discriminator 2
 1106 05b8 FFF73AFD 		bl	chSysUnlock
 1107              		.loc 6 239 0 discriminator 2
 1108 05bc FFF770FD 		bl	osalSysLock
 1109 05c0 9648     		ldr	r0, .L83+4
 1110 05c2 FFF755FD 		bl	chMBGetFreeCountI
 1111 05c6 0346     		mov	r3, r0
 1112 05c8 042B     		cmp	r3, #4
 1113 05ca 0CBF     		ite	eq
 1114 05cc 0123     		moveq	r3, #1
 1115 05ce 0023     		movne	r3, #0
 1116 05d0 DBB2     		uxtb	r3, r3
 1117 05d2 1846     		mov	r0, r3
 1118 05d4 9349     		ldr	r1, .L83+12
 1119 05d6 FFF7FEFF 		bl	_test_assert
 1120 05da 0346     		mov	r3, r0
 1121 05dc 002B     		cmp	r3, #0
 1122 05de 02D0     		beq	.L61
 1123              		.loc 6 239 0 is_stmt 0 discriminator 1
 1124 05e0 FFF766FD 		bl	osalSysUnlock
 1125 05e4 9BE1     		b	.L58
 1126              	.L61:
 1127              		.loc 6 239 0 discriminator 2
 1128 05e6 FFF763FD 		bl	osalSysUnlock
 1129              		.loc 6 240 0 is_stmt 1 discriminator 2
 1130 05ea FFF759FD 		bl	osalSysLock
 1131 05ee 8B48     		ldr	r0, .L83+4
 1132 05f0 FFF736FD 		bl	chMBGetUsedCountI
 1133 05f4 0346     		mov	r3, r0
 1134 05f6 002B     		cmp	r3, #0
 1135 05f8 0CBF     		ite	eq
 1136 05fa 0123     		moveq	r3, #1
 1137 05fc 0023     		movne	r3, #0
 1138 05fe DBB2     		uxtb	r3, r3
 1139 0600 1846     		mov	r0, r3
 1140 0602 8949     		ldr	r1, .L83+16
 1141 0604 FFF7FEFF 		bl	_test_assert
 1142 0608 0346     		mov	r3, r0
 1143 060a 002B     		cmp	r3, #0
 1144 060c 02D0     		beq	.L62
 1145              		.loc 6 240 0 is_stmt 0 discriminator 1
 1146 060e FFF74FFD 		bl	osalSysUnlock
 1147 0612 84E1     		b	.L58
 1148              	.L62:
ARM GAS  /tmp/ccSQgpq0.s 			page 22


 1149              		.loc 6 240 0 discriminator 2
 1150 0614 FFF74CFD 		bl	osalSysUnlock
 1151              		.loc 6 241 0 is_stmt 1 discriminator 2
 1152 0618 FFF742FD 		bl	osalSysLock
 1153 061c 7F4B     		ldr	r3, .L83+4
 1154 061e 1A68     		ldr	r2, [r3]
 1155 0620 7E4B     		ldr	r3, .L83+4
 1156 0622 9B68     		ldr	r3, [r3, #8]
 1157 0624 9A42     		cmp	r2, r3
 1158 0626 0CBF     		ite	eq
 1159 0628 0123     		moveq	r3, #1
 1160 062a 0023     		movne	r3, #0
 1161 062c DBB2     		uxtb	r3, r3
 1162 062e 1846     		mov	r0, r3
 1163 0630 7E49     		ldr	r1, .L83+20
 1164 0632 FFF7FEFF 		bl	_test_assert
 1165 0636 0346     		mov	r3, r0
 1166 0638 002B     		cmp	r3, #0
 1167 063a 02D0     		beq	.L63
 1168              		.loc 6 241 0 is_stmt 0 discriminator 1
 1169 063c FFF738FD 		bl	osalSysUnlock
 1170 0640 6DE1     		b	.L58
 1171              	.L63:
 1172              		.loc 6 241 0 discriminator 2
 1173 0642 FFF735FD 		bl	osalSysUnlock
 1174              		.loc 6 242 0 is_stmt 1 discriminator 2
 1175 0646 FFF72BFD 		bl	osalSysLock
 1176 064a 744B     		ldr	r3, .L83+4
 1177 064c 1A68     		ldr	r2, [r3]
 1178 064e 734B     		ldr	r3, .L83+4
 1179 0650 DB68     		ldr	r3, [r3, #12]
 1180 0652 9A42     		cmp	r2, r3
 1181 0654 0CBF     		ite	eq
 1182 0656 0123     		moveq	r3, #1
 1183 0658 0023     		movne	r3, #0
 1184 065a DBB2     		uxtb	r3, r3
 1185 065c 1846     		mov	r0, r3
 1186 065e 7449     		ldr	r1, .L83+24
 1187 0660 FFF7FEFF 		bl	_test_assert
 1188 0664 0346     		mov	r3, r0
 1189 0666 002B     		cmp	r3, #0
 1190 0668 02D0     		beq	.L64
 1191              		.loc 6 242 0 is_stmt 0 discriminator 1
 1192 066a FFF721FD 		bl	osalSysUnlock
 1193 066e 56E1     		b	.L58
 1194              	.L64:
 1195              		.loc 6 242 0 discriminator 2
 1196 0670 FFF71EFD 		bl	osalSysUnlock
 1197              		.loc 6 243 0 is_stmt 1 discriminator 2
 1198 0674 6948     		ldr	r0, .L83+4
 1199 0676 FFF70BFD 		bl	chMBResumeX
 1200              		.loc 6 248 0 discriminator 2
 1201 067a 674B     		ldr	r3, .L83
 1202 067c 0322     		movs	r2, #3
 1203 067e 1A60     		str	r2, [r3]
 1204              		.loc 6 250 0 discriminator 2
 1205 0680 0023     		movs	r3, #0
ARM GAS  /tmp/ccSQgpq0.s 			page 23


 1206 0682 0393     		str	r3, [sp, #12]
 1207 0684 1BE0     		b	.L65
 1208              	.L67:
 1209              		.loc 6 251 0
 1210 0686 FFF7CBFC 		bl	chSysLock
 1211              		.loc 6 252 0
 1212 068a 039B     		ldr	r3, [sp, #12]
 1213 068c 4233     		adds	r3, r3, #66
 1214 068e 6348     		ldr	r0, .L83+4
 1215 0690 1946     		mov	r1, r3
 1216 0692 FFF7FEFF 		bl	chMBPostI
 1217 0696 0290     		str	r0, [sp, #8]
 1218              		.loc 6 253 0
 1219 0698 FFF7CAFC 		bl	chSysUnlock
 1220              		.loc 6 254 0
 1221 069c 029B     		ldr	r3, [sp, #8]
 1222 069e 002B     		cmp	r3, #0
 1223 06a0 0CBF     		ite	eq
 1224 06a2 0123     		moveq	r3, #1
 1225 06a4 0023     		movne	r3, #0
 1226 06a6 DBB2     		uxtb	r3, r3
 1227 06a8 1846     		mov	r0, r3
 1228 06aa 6249     		ldr	r1, .L83+28
 1229 06ac FFF7FEFF 		bl	_test_assert
 1230 06b0 0346     		mov	r3, r0
 1231 06b2 002B     		cmp	r3, #0
 1232 06b4 00D0     		beq	.L66
 1233 06b6 32E1     		b	.L58
 1234              	.L66:
 1235              		.loc 6 250 0 discriminator 2
 1236 06b8 039B     		ldr	r3, [sp, #12]
 1237 06ba 0133     		adds	r3, r3, #1
 1238 06bc 0393     		str	r3, [sp, #12]
 1239              	.L65:
 1240              		.loc 6 250 0 is_stmt 0 discriminator 1
 1241 06be 039B     		ldr	r3, [sp, #12]
 1242 06c0 022B     		cmp	r3, #2
 1243 06c2 E0D9     		bls	.L67
 1244              		.loc 6 256 0 is_stmt 1
 1245 06c4 FFF7ACFC 		bl	chSysLock
 1246              		.loc 6 257 0
 1247 06c8 5448     		ldr	r0, .L83+4
 1248 06ca 4121     		movs	r1, #65
 1249 06cc FFF7FEFF 		bl	chMBPostAheadI
 1250 06d0 0290     		str	r0, [sp, #8]
 1251              		.loc 6 258 0
 1252 06d2 FFF7ADFC 		bl	chSysUnlock
 1253              		.loc 6 259 0
 1254 06d6 029B     		ldr	r3, [sp, #8]
 1255 06d8 002B     		cmp	r3, #0
 1256 06da 0CBF     		ite	eq
 1257 06dc 0123     		moveq	r3, #1
 1258 06de 0023     		movne	r3, #0
 1259 06e0 DBB2     		uxtb	r3, r3
 1260 06e2 1846     		mov	r0, r3
 1261 06e4 5349     		ldr	r1, .L83+28
 1262 06e6 FFF7FEFF 		bl	_test_assert
ARM GAS  /tmp/ccSQgpq0.s 			page 24


 1263 06ea 0346     		mov	r3, r0
 1264 06ec 002B     		cmp	r3, #0
 1265 06ee 00D0     		beq	.L68
 1266 06f0 15E1     		b	.L58
 1267              	.L68:
 1268              		.loc 6 264 0
 1269 06f2 494B     		ldr	r3, .L83
 1270 06f4 0422     		movs	r2, #4
 1271 06f6 1A60     		str	r2, [r3]
 1272              		.loc 6 266 0
 1273 06f8 FFF7D2FC 		bl	osalSysLock
 1274 06fc 4748     		ldr	r0, .L83+4
 1275 06fe FFF7B7FC 		bl	chMBGetFreeCountI
 1276 0702 0346     		mov	r3, r0
 1277 0704 002B     		cmp	r3, #0
 1278 0706 0CBF     		ite	eq
 1279 0708 0123     		moveq	r3, #1
 1280 070a 0023     		movne	r3, #0
 1281 070c DBB2     		uxtb	r3, r3
 1282 070e 1846     		mov	r0, r3
 1283 0710 4949     		ldr	r1, .L83+32
 1284 0712 FFF7FEFF 		bl	_test_assert
 1285 0716 0346     		mov	r3, r0
 1286 0718 002B     		cmp	r3, #0
 1287 071a 02D0     		beq	.L69
 1288              		.loc 6 266 0 is_stmt 0 discriminator 1
 1289 071c FFF7C8FC 		bl	osalSysUnlock
 1290 0720 FDE0     		b	.L58
 1291              	.L69:
 1292              		.loc 6 266 0 discriminator 2
 1293 0722 FFF7C5FC 		bl	osalSysUnlock
 1294              		.loc 6 267 0 is_stmt 1 discriminator 2
 1295 0726 FFF7BBFC 		bl	osalSysLock
 1296 072a 3C48     		ldr	r0, .L83+4
 1297 072c FFF798FC 		bl	chMBGetUsedCountI
 1298 0730 0346     		mov	r3, r0
 1299 0732 042B     		cmp	r3, #4
 1300 0734 0CBF     		ite	eq
 1301 0736 0123     		moveq	r3, #1
 1302 0738 0023     		movne	r3, #0
 1303 073a DBB2     		uxtb	r3, r3
 1304 073c 1846     		mov	r0, r3
 1305 073e 3F49     		ldr	r1, .L83+36
 1306 0740 FFF7FEFF 		bl	_test_assert
 1307 0744 0346     		mov	r3, r0
 1308 0746 002B     		cmp	r3, #0
 1309 0748 02D0     		beq	.L70
 1310              		.loc 6 267 0 is_stmt 0 discriminator 1
 1311 074a FFF7B1FC 		bl	osalSysUnlock
 1312 074e E6E0     		b	.L58
 1313              	.L70:
 1314              		.loc 6 267 0 discriminator 2
 1315 0750 FFF7AEFC 		bl	osalSysUnlock
 1316              		.loc 6 268 0 is_stmt 1 discriminator 2
 1317 0754 FFF7A4FC 		bl	osalSysLock
 1318 0758 304B     		ldr	r3, .L83+4
 1319 075a DA68     		ldr	r2, [r3, #12]
ARM GAS  /tmp/ccSQgpq0.s 			page 25


 1320 075c 2F4B     		ldr	r3, .L83+4
 1321 075e 9B68     		ldr	r3, [r3, #8]
 1322 0760 9A42     		cmp	r2, r3
 1323 0762 0CBF     		ite	eq
 1324 0764 0123     		moveq	r3, #1
 1325 0766 0023     		movne	r3, #0
 1326 0768 DBB2     		uxtb	r3, r3
 1327 076a 1846     		mov	r0, r3
 1328 076c 3449     		ldr	r1, .L83+40
 1329 076e FFF7FEFF 		bl	_test_assert
 1330 0772 0346     		mov	r3, r0
 1331 0774 002B     		cmp	r3, #0
 1332 0776 02D0     		beq	.L71
 1333              		.loc 6 268 0 is_stmt 0 discriminator 1
 1334 0778 FFF79AFC 		bl	osalSysUnlock
 1335 077c CFE0     		b	.L58
 1336              	.L71:
 1337              		.loc 6 268 0 discriminator 2
 1338 077e FFF797FC 		bl	osalSysUnlock
 1339              		.loc 6 273 0 is_stmt 1 discriminator 2
 1340 0782 254B     		ldr	r3, .L83
 1341 0784 0522     		movs	r2, #5
 1342 0786 1A60     		str	r2, [r3]
 1343              		.loc 6 275 0 discriminator 2
 1344 0788 0023     		movs	r3, #0
 1345 078a 0393     		str	r3, [sp, #12]
 1346 078c 1FE0     		b	.L72
 1347              	.L74:
 1348              		.loc 6 276 0
 1349 078e FFF747FC 		bl	chSysLock
 1350              		.loc 6 277 0
 1351 0792 01AB     		add	r3, sp, #4
 1352 0794 2148     		ldr	r0, .L83+4
 1353 0796 1946     		mov	r1, r3
 1354 0798 FFF7FEFF 		bl	chMBFetchI
 1355 079c 0290     		str	r0, [sp, #8]
 1356              		.loc 6 278 0
 1357 079e FFF747FC 		bl	chSysUnlock
 1358              		.loc 6 279 0
 1359 07a2 029B     		ldr	r3, [sp, #8]
 1360 07a4 002B     		cmp	r3, #0
 1361 07a6 0CBF     		ite	eq
 1362 07a8 0123     		moveq	r3, #1
 1363 07aa 0023     		movne	r3, #0
 1364 07ac DBB2     		uxtb	r3, r3
 1365 07ae 1846     		mov	r0, r3
 1366 07b0 2049     		ldr	r1, .L83+28
 1367 07b2 FFF7FEFF 		bl	_test_assert
 1368 07b6 0346     		mov	r3, r0
 1369 07b8 002B     		cmp	r3, #0
 1370 07ba 00D0     		beq	.L73
 1371 07bc AFE0     		b	.L58
 1372              	.L73:
 1373              		.loc 6 280 0 discriminator 2
 1374 07be 019B     		ldr	r3, [sp, #4]
 1375 07c0 DBB2     		uxtb	r3, r3
 1376 07c2 1846     		mov	r0, r3
ARM GAS  /tmp/ccSQgpq0.s 			page 26


 1377 07c4 FFF7FEFF 		bl	test_emit_token
 1378              		.loc 6 275 0 discriminator 2
 1379 07c8 039B     		ldr	r3, [sp, #12]
 1380 07ca 0133     		adds	r3, r3, #1
 1381 07cc 0393     		str	r3, [sp, #12]
 1382              	.L72:
 1383              		.loc 6 275 0 is_stmt 0 discriminator 1
 1384 07ce 039B     		ldr	r3, [sp, #12]
 1385 07d0 032B     		cmp	r3, #3
 1386 07d2 DCD9     		bls	.L74
 1387              		.loc 6 282 0 is_stmt 1
 1388 07d4 1B48     		ldr	r0, .L83+44
 1389 07d6 1C49     		ldr	r1, .L83+48
 1390 07d8 FFF7FEFF 		bl	_test_assert_sequence
 1391 07dc 0346     		mov	r3, r0
 1392 07de 002B     		cmp	r3, #0
 1393 07e0 00D0     		beq	.L75
 1394 07e2 9CE0     		b	.L58
 1395              	.L75:
 1396              		.loc 6 287 0
 1397 07e4 0C4B     		ldr	r3, .L83
 1398 07e6 0622     		movs	r2, #6
 1399 07e8 1A60     		str	r2, [r3]
 1400              		.loc 6 289 0
 1401 07ea 039B     		ldr	r3, [sp, #12]
 1402 07ec 4233     		adds	r3, r3, #66
 1403 07ee 0B48     		ldr	r0, .L83+4
 1404 07f0 1946     		mov	r1, r3
 1405 07f2 4FF0FF32 		mov	r2, #-1
 1406 07f6 FFF7FEFF 		bl	chMBPost
 1407 07fa 0290     		str	r0, [sp, #8]
 1408              		.loc 6 290 0
 1409 07fc 029B     		ldr	r3, [sp, #8]
 1410 07fe 002B     		cmp	r3, #0
 1411 0800 0CBF     		ite	eq
 1412 0802 0123     		moveq	r3, #1
 1413 0804 0023     		movne	r3, #0
 1414 0806 DBB2     		uxtb	r3, r3
 1415 0808 1846     		mov	r0, r3
 1416 080a 0A49     		ldr	r1, .L83+28
 1417 080c FFF7FEFF 		bl	_test_assert
 1418 0810 0346     		mov	r3, r0
 1419 0812 002B     		cmp	r3, #0
 1420 0814 1AD0     		beq	.L76
 1421 0816 82E0     		b	.L58
 1422              	.L84:
 1423              		.align	2
 1424              	.L83:
 1425 0818 00000000 		.word	test_step
 1426 081c 00000000 		.word	mb1
 1427 0820 00000000 		.word	.LC0
 1428 0824 0C000000 		.word	.LC1
 1429 0828 18000000 		.word	.LC2
 1430 082c 24000000 		.word	.LC3
 1431 0830 48000000 		.word	.LC4
 1432 0834 80000000 		.word	.LC6
 1433 0838 98000000 		.word	.LC7
ARM GAS  /tmp/ccSQgpq0.s 			page 27


 1434 083c A4000000 		.word	.LC8
 1435 0840 B0000000 		.word	.LC9
 1436 0844 C8000000 		.word	.LC10
 1437 0848 D0000000 		.word	.LC11
 1438              	.L76:
 1439              		.loc 6 291 0
 1440 084c 01AB     		add	r3, sp, #4
 1441 084e 3548     		ldr	r0, .L85
 1442 0850 1946     		mov	r1, r3
 1443 0852 4FF0FF32 		mov	r2, #-1
 1444 0856 FFF7FEFF 		bl	chMBFetch
 1445 085a 0290     		str	r0, [sp, #8]
 1446              		.loc 6 292 0
 1447 085c 029B     		ldr	r3, [sp, #8]
 1448 085e 002B     		cmp	r3, #0
 1449 0860 0CBF     		ite	eq
 1450 0862 0123     		moveq	r3, #1
 1451 0864 0023     		movne	r3, #0
 1452 0866 DBB2     		uxtb	r3, r3
 1453 0868 1846     		mov	r0, r3
 1454 086a 2F49     		ldr	r1, .L85+4
 1455 086c FFF7FEFF 		bl	_test_assert
 1456 0870 0346     		mov	r3, r0
 1457 0872 002B     		cmp	r3, #0
 1458 0874 00D0     		beq	.L77
 1459 0876 52E0     		b	.L58
 1460              	.L77:
 1461              		.loc 6 297 0
 1462 0878 2C4B     		ldr	r3, .L85+8
 1463 087a 0722     		movs	r2, #7
 1464 087c 1A60     		str	r2, [r3]
 1465              		.loc 6 299 0
 1466 087e FFF70FFC 		bl	osalSysLock
 1467 0882 2848     		ldr	r0, .L85
 1468 0884 FFF7F4FB 		bl	chMBGetFreeCountI
 1469 0888 0346     		mov	r3, r0
 1470 088a 042B     		cmp	r3, #4
 1471 088c 0CBF     		ite	eq
 1472 088e 0123     		moveq	r3, #1
 1473 0890 0023     		movne	r3, #0
 1474 0892 DBB2     		uxtb	r3, r3
 1475 0894 1846     		mov	r0, r3
 1476 0896 2649     		ldr	r1, .L85+12
 1477 0898 FFF7FEFF 		bl	_test_assert
 1478 089c 0346     		mov	r3, r0
 1479 089e 002B     		cmp	r3, #0
 1480 08a0 02D0     		beq	.L78
 1481              		.loc 6 299 0 is_stmt 0 discriminator 1
 1482 08a2 FFF705FC 		bl	osalSysUnlock
 1483 08a6 3AE0     		b	.L58
 1484              	.L78:
 1485              		.loc 6 299 0 discriminator 2
 1486 08a8 FFF702FC 		bl	osalSysUnlock
 1487              		.loc 6 300 0 is_stmt 1 discriminator 2
 1488 08ac FFF7F8FB 		bl	osalSysLock
 1489 08b0 1C48     		ldr	r0, .L85
 1490 08b2 FFF7D5FB 		bl	chMBGetUsedCountI
ARM GAS  /tmp/ccSQgpq0.s 			page 28


 1491 08b6 0346     		mov	r3, r0
 1492 08b8 002B     		cmp	r3, #0
 1493 08ba 0CBF     		ite	eq
 1494 08bc 0123     		moveq	r3, #1
 1495 08be 0023     		movne	r3, #0
 1496 08c0 DBB2     		uxtb	r3, r3
 1497 08c2 1846     		mov	r0, r3
 1498 08c4 1B49     		ldr	r1, .L85+16
 1499 08c6 FFF7FEFF 		bl	_test_assert
 1500 08ca 0346     		mov	r3, r0
 1501 08cc 002B     		cmp	r3, #0
 1502 08ce 02D0     		beq	.L79
 1503              		.loc 6 300 0 is_stmt 0 discriminator 1
 1504 08d0 FFF7EEFB 		bl	osalSysUnlock
 1505 08d4 23E0     		b	.L58
 1506              	.L79:
 1507              		.loc 6 300 0 discriminator 2
 1508 08d6 FFF7EBFB 		bl	osalSysUnlock
 1509              		.loc 6 301 0 is_stmt 1 discriminator 2
 1510 08da 124B     		ldr	r3, .L85
 1511 08dc 1A68     		ldr	r2, [r3]
 1512 08de 114B     		ldr	r3, .L85
 1513 08e0 9B68     		ldr	r3, [r3, #8]
 1514 08e2 9A42     		cmp	r2, r3
 1515 08e4 0CBF     		ite	eq
 1516 08e6 0123     		moveq	r3, #1
 1517 08e8 0023     		movne	r3, #0
 1518 08ea DBB2     		uxtb	r3, r3
 1519 08ec 1846     		mov	r0, r3
 1520 08ee 1249     		ldr	r1, .L85+20
 1521 08f0 FFF7FEFF 		bl	_test_assert
 1522 08f4 0346     		mov	r3, r0
 1523 08f6 002B     		cmp	r3, #0
 1524 08f8 00D0     		beq	.L80
 1525              		.loc 6 301 0 is_stmt 0
 1526 08fa 10E0     		b	.L58
 1527              	.L80:
 1528              		.loc 6 302 0 is_stmt 1
 1529 08fc 094B     		ldr	r3, .L85
 1530 08fe 1A68     		ldr	r2, [r3]
 1531 0900 084B     		ldr	r3, .L85
 1532 0902 DB68     		ldr	r3, [r3, #12]
 1533 0904 9A42     		cmp	r2, r3
 1534 0906 0CBF     		ite	eq
 1535 0908 0123     		moveq	r3, #1
 1536 090a 0023     		movne	r3, #0
 1537 090c DBB2     		uxtb	r3, r3
 1538 090e 1846     		mov	r0, r3
 1539 0910 0A49     		ldr	r1, .L85+24
 1540 0912 FFF7FEFF 		bl	_test_assert
 1541 0916 0346     		mov	r3, r0
 1542 0918 002B     		cmp	r3, #0
 1543 091a 00D0     		beq	.L58
 1544 091c 00BF     		nop
 1545              	.L58:
 1546              		.loc 6 304 0
 1547 091e 05B0     		add	sp, sp, #20
ARM GAS  /tmp/ccSQgpq0.s 			page 29


 1548              		.cfi_def_cfa_offset 4
 1549              		@ sp needed
 1550 0920 5DF804FB 		ldr	pc, [sp], #4
 1551              	.L86:
 1552              		.align	2
 1553              	.L85:
 1554 0924 00000000 		.word	mb1
 1555 0928 80000000 		.word	.LC6
 1556 092c 00000000 		.word	test_step
 1557 0930 0C000000 		.word	.LC1
 1558 0934 18000000 		.word	.LC2
 1559 0938 24000000 		.word	.LC3
 1560 093c 48000000 		.word	.LC4
 1561              		.cfi_endproc
 1562              	.LFE284:
 1563              		.size	test_009_002_execute, .-test_009_002_execute
 1564              		.section	.rodata
 1565              		.align	2
 1566              	.LC13:
 1567 011c 4D61696C 		.ascii	"Mailbox I-Class API, non-blocking tests\000"
 1567      626F7820 
 1567      492D436C 
 1567      61737320 
 1567      4150492C 
 1568              		.align	2
 1569              		.type	test_009_002, %object
 1570              		.size	test_009_002, 16
 1571              	test_009_002:
 1572 0144 1C010000 		.word	.LC13
 1573 0148 00000000 		.word	test_009_002_setup
 1574 014c 00000000 		.word	test_009_002_teardown
 1575 0150 00000000 		.word	test_009_002_execute
 1576              		.text
 1577              		.align	2
 1578              		.p2align 4,,15
 1579              		.thumb
 1580              		.thumb_func
 1581              		.type	test_009_003_setup, %function
 1582              	test_009_003_setup:
 1583              	.LFB285:
 1584              		.loc 6 329 0
 1585              		.cfi_startproc
 1586              		@ args = 0, pretend = 0, frame = 0
 1587              		@ frame_needed = 0, uses_anonymous_args = 0
 1588 0940 08B5     		push	{r3, lr}
 1589              		.cfi_def_cfa_offset 8
 1590              		.cfi_offset 3, -8
 1591              		.cfi_offset 14, -4
 1592              		.loc 6 330 0
 1593 0942 0348     		ldr	r0, .L88
 1594 0944 0349     		ldr	r1, .L88+4
 1595 0946 0422     		movs	r2, #4
 1596 0948 FFF7FEFF 		bl	chMBObjectInit
 1597              		.loc 6 331 0
 1598 094c 08BD     		pop	{r3, pc}
 1599              	.L89:
 1600 094e 00BF     		.align	2
ARM GAS  /tmp/ccSQgpq0.s 			page 30


 1601              	.L88:
 1602 0950 00000000 		.word	mb1
 1603 0954 00000000 		.word	mb_buffer
 1604              		.cfi_endproc
 1605              	.LFE285:
 1606              		.size	test_009_003_setup, .-test_009_003_setup
 1607              		.align	2
 1608 0958 AFF30080 		.p2align 4,,15
 1608      AFF30080 
 1609              		.thumb
 1610              		.thumb_func
 1611              		.type	test_009_003_teardown, %function
 1612              	test_009_003_teardown:
 1613              	.LFB286:
 1614              		.loc 6 333 0
 1615              		.cfi_startproc
 1616              		@ args = 0, pretend = 0, frame = 0
 1617              		@ frame_needed = 0, uses_anonymous_args = 0
 1618 0960 08B5     		push	{r3, lr}
 1619              		.cfi_def_cfa_offset 8
 1620              		.cfi_offset 3, -8
 1621              		.cfi_offset 14, -4
 1622              		.loc 6 334 0
 1623 0962 0248     		ldr	r0, .L91
 1624 0964 FFF7FEFF 		bl	chMBReset
 1625              		.loc 6 335 0
 1626 0968 08BD     		pop	{r3, pc}
 1627              	.L92:
 1628 096a 00BF     		.align	2
 1629              	.L91:
 1630 096c 00000000 		.word	mb1
 1631              		.cfi_endproc
 1632              	.LFE286:
 1633              		.size	test_009_003_teardown, .-test_009_003_teardown
 1634              		.align	2
 1635              		.p2align 4,,15
 1636              		.thumb
 1637              		.thumb_func
 1638              		.type	test_009_003_execute, %function
 1639              	test_009_003_execute:
 1640              	.LFB287:
 1641              		.loc 6 337 0
 1642              		.cfi_startproc
 1643              		@ args = 0, pretend = 0, frame = 16
 1644              		@ frame_needed = 0, uses_anonymous_args = 0
 1645 0970 00B5     		push	{lr}
 1646              		.cfi_def_cfa_offset 4
 1647              		.cfi_offset 14, -4
 1648 0972 85B0     		sub	sp, sp, #20
 1649              		.cfi_def_cfa_offset 24
 1650              		.loc 6 342 0
 1651 0974 5E4B     		ldr	r3, .L105
 1652 0976 0122     		movs	r2, #1
 1653 0978 1A60     		str	r2, [r3]
 1654              		.loc 6 344 0
 1655 097a 0023     		movs	r3, #0
 1656 097c 0393     		str	r3, [sp, #12]
ARM GAS  /tmp/ccSQgpq0.s 			page 31


 1657 097e 19E0     		b	.L94
 1658              	.L97:
 1659              		.loc 6 345 0
 1660 0980 039B     		ldr	r3, [sp, #12]
 1661 0982 4233     		adds	r3, r3, #66
 1662 0984 5B48     		ldr	r0, .L105+4
 1663 0986 1946     		mov	r1, r3
 1664 0988 4FF0FF32 		mov	r2, #-1
 1665 098c FFF7FEFF 		bl	chMBPost
 1666 0990 0290     		str	r0, [sp, #8]
 1667              		.loc 6 346 0
 1668 0992 029B     		ldr	r3, [sp, #8]
 1669 0994 002B     		cmp	r3, #0
 1670 0996 0CBF     		ite	eq
 1671 0998 0123     		moveq	r3, #1
 1672 099a 0023     		movne	r3, #0
 1673 099c DBB2     		uxtb	r3, r3
 1674 099e 1846     		mov	r0, r3
 1675 09a0 5549     		ldr	r1, .L105+8
 1676 09a2 FFF7FEFF 		bl	_test_assert
 1677 09a6 0346     		mov	r3, r0
 1678 09a8 002B     		cmp	r3, #0
 1679 09aa 00D0     		beq	.L95
 1680 09ac 9DE0     		b	.L93
 1681              	.L95:
 1682              		.loc 6 344 0 discriminator 2
 1683 09ae 039B     		ldr	r3, [sp, #12]
 1684 09b0 0133     		adds	r3, r3, #1
 1685 09b2 0393     		str	r3, [sp, #12]
 1686              	.L94:
 1687              		.loc 6 344 0 is_stmt 0 discriminator 1
 1688 09b4 039B     		ldr	r3, [sp, #12]
 1689 09b6 032B     		cmp	r3, #3
 1690 09b8 E2D9     		bls	.L97
 1691              		.loc 6 352 0 is_stmt 1
 1692 09ba 4D4B     		ldr	r3, .L105
 1693 09bc 0222     		movs	r2, #2
 1694 09be 1A60     		str	r2, [r3]
 1695              		.loc 6 354 0
 1696 09c0 4C48     		ldr	r0, .L105+4
 1697 09c2 5821     		movs	r1, #88
 1698 09c4 0122     		movs	r2, #1
 1699 09c6 FFF7FEFF 		bl	chMBPost
 1700 09ca 0290     		str	r0, [sp, #8]
 1701              		.loc 6 355 0
 1702 09cc 029B     		ldr	r3, [sp, #8]
 1703 09ce B3F1FF3F 		cmp	r3, #-1
 1704 09d2 0CBF     		ite	eq
 1705 09d4 0123     		moveq	r3, #1
 1706 09d6 0023     		movne	r3, #0
 1707 09d8 DBB2     		uxtb	r3, r3
 1708 09da 1846     		mov	r0, r3
 1709 09dc 4649     		ldr	r1, .L105+8
 1710 09de FFF7FEFF 		bl	_test_assert
 1711 09e2 0346     		mov	r3, r0
 1712 09e4 002B     		cmp	r3, #0
 1713 09e6 00D0     		beq	.L98
ARM GAS  /tmp/ccSQgpq0.s 			page 32


 1714 09e8 7FE0     		b	.L93
 1715              	.L98:
 1716              		.loc 6 356 0
 1717 09ea FFF719FB 		bl	chSysLock
 1718              		.loc 6 357 0
 1719 09ee 4148     		ldr	r0, .L105+4
 1720 09f0 5821     		movs	r1, #88
 1721 09f2 FFF7FEFF 		bl	chMBPostI
 1722 09f6 0290     		str	r0, [sp, #8]
 1723              		.loc 6 358 0
 1724 09f8 FFF71AFB 		bl	chSysUnlock
 1725              		.loc 6 359 0
 1726 09fc 029B     		ldr	r3, [sp, #8]
 1727 09fe B3F1FF3F 		cmp	r3, #-1
 1728 0a02 0CBF     		ite	eq
 1729 0a04 0123     		moveq	r3, #1
 1730 0a06 0023     		movne	r3, #0
 1731 0a08 DBB2     		uxtb	r3, r3
 1732 0a0a 1846     		mov	r0, r3
 1733 0a0c 3A49     		ldr	r1, .L105+8
 1734 0a0e FFF7FEFF 		bl	_test_assert
 1735 0a12 0346     		mov	r3, r0
 1736 0a14 002B     		cmp	r3, #0
 1737 0a16 00D0     		beq	.L99
 1738 0a18 67E0     		b	.L93
 1739              	.L99:
 1740              		.loc 6 360 0
 1741 0a1a 3648     		ldr	r0, .L105+4
 1742 0a1c 5821     		movs	r1, #88
 1743 0a1e 0122     		movs	r2, #1
 1744 0a20 FFF7FEFF 		bl	chMBPostAhead
 1745 0a24 0290     		str	r0, [sp, #8]
 1746              		.loc 6 361 0
 1747 0a26 029B     		ldr	r3, [sp, #8]
 1748 0a28 B3F1FF3F 		cmp	r3, #-1
 1749 0a2c 0CBF     		ite	eq
 1750 0a2e 0123     		moveq	r3, #1
 1751 0a30 0023     		movne	r3, #0
 1752 0a32 DBB2     		uxtb	r3, r3
 1753 0a34 1846     		mov	r0, r3
 1754 0a36 3049     		ldr	r1, .L105+8
 1755 0a38 FFF7FEFF 		bl	_test_assert
 1756 0a3c 0346     		mov	r3, r0
 1757 0a3e 002B     		cmp	r3, #0
 1758 0a40 00D0     		beq	.L100
 1759 0a42 52E0     		b	.L93
 1760              	.L100:
 1761              		.loc 6 362 0
 1762 0a44 FFF7ECFA 		bl	chSysLock
 1763              		.loc 6 363 0
 1764 0a48 2A48     		ldr	r0, .L105+4
 1765 0a4a 5821     		movs	r1, #88
 1766 0a4c FFF7FEFF 		bl	chMBPostAheadI
 1767 0a50 0290     		str	r0, [sp, #8]
 1768              		.loc 6 364 0
 1769 0a52 FFF7EDFA 		bl	chSysUnlock
 1770              		.loc 6 365 0
ARM GAS  /tmp/ccSQgpq0.s 			page 33


 1771 0a56 029B     		ldr	r3, [sp, #8]
 1772 0a58 B3F1FF3F 		cmp	r3, #-1
 1773 0a5c 0CBF     		ite	eq
 1774 0a5e 0123     		moveq	r3, #1
 1775 0a60 0023     		movne	r3, #0
 1776 0a62 DBB2     		uxtb	r3, r3
 1777 0a64 1846     		mov	r0, r3
 1778 0a66 2449     		ldr	r1, .L105+8
 1779 0a68 FFF7FEFF 		bl	_test_assert
 1780 0a6c 0346     		mov	r3, r0
 1781 0a6e 002B     		cmp	r3, #0
 1782 0a70 00D0     		beq	.L101
 1783 0a72 3AE0     		b	.L93
 1784              	.L101:
 1785              		.loc 6 370 0
 1786 0a74 1E4B     		ldr	r3, .L105
 1787 0a76 0322     		movs	r2, #3
 1788 0a78 1A60     		str	r2, [r3]
 1789              		.loc 6 372 0
 1790 0a7a 1E48     		ldr	r0, .L105+4
 1791 0a7c FFF7FEFF 		bl	chMBReset
 1792              		.loc 6 373 0
 1793 0a80 1C48     		ldr	r0, .L105+4
 1794 0a82 FFF705FB 		bl	chMBResumeX
 1795              		.loc 6 377 0
 1796 0a86 1A4B     		ldr	r3, .L105
 1797 0a88 0422     		movs	r2, #4
 1798 0a8a 1A60     		str	r2, [r3]
 1799              		.loc 6 379 0
 1800 0a8c 01AB     		add	r3, sp, #4
 1801 0a8e 1948     		ldr	r0, .L105+4
 1802 0a90 1946     		mov	r1, r3
 1803 0a92 0122     		movs	r2, #1
 1804 0a94 FFF7FEFF 		bl	chMBFetch
 1805 0a98 0290     		str	r0, [sp, #8]
 1806              		.loc 6 380 0
 1807 0a9a 029B     		ldr	r3, [sp, #8]
 1808 0a9c B3F1FF3F 		cmp	r3, #-1
 1809 0aa0 0CBF     		ite	eq
 1810 0aa2 0123     		moveq	r3, #1
 1811 0aa4 0023     		movne	r3, #0
 1812 0aa6 DBB2     		uxtb	r3, r3
 1813 0aa8 1846     		mov	r0, r3
 1814 0aaa 1349     		ldr	r1, .L105+8
 1815 0aac FFF7FEFF 		bl	_test_assert
 1816 0ab0 0346     		mov	r3, r0
 1817 0ab2 002B     		cmp	r3, #0
 1818 0ab4 00D0     		beq	.L102
 1819 0ab6 18E0     		b	.L93
 1820              	.L102:
 1821              		.loc 6 381 0
 1822 0ab8 FFF7B2FA 		bl	chSysLock
 1823              		.loc 6 382 0
 1824 0abc 01AB     		add	r3, sp, #4
 1825 0abe 0D48     		ldr	r0, .L105+4
 1826 0ac0 1946     		mov	r1, r3
 1827 0ac2 FFF7FEFF 		bl	chMBFetchI
ARM GAS  /tmp/ccSQgpq0.s 			page 34


 1828 0ac6 0290     		str	r0, [sp, #8]
 1829              		.loc 6 383 0
 1830 0ac8 FFF7B2FA 		bl	chSysUnlock
 1831              		.loc 6 384 0
 1832 0acc 029B     		ldr	r3, [sp, #8]
 1833 0ace B3F1FF3F 		cmp	r3, #-1
 1834 0ad2 0CBF     		ite	eq
 1835 0ad4 0123     		moveq	r3, #1
 1836 0ad6 0023     		movne	r3, #0
 1837 0ad8 DBB2     		uxtb	r3, r3
 1838 0ada 1846     		mov	r0, r3
 1839 0adc 0649     		ldr	r1, .L105+8
 1840 0ade FFF7FEFF 		bl	_test_assert
 1841 0ae2 0346     		mov	r3, r0
 1842 0ae4 002B     		cmp	r3, #0
 1843 0ae6 00D0     		beq	.L93
 1844 0ae8 00BF     		nop
 1845              	.L93:
 1846              		.loc 6 386 0
 1847 0aea 05B0     		add	sp, sp, #20
 1848              		.cfi_def_cfa_offset 4
 1849              		@ sp needed
 1850 0aec 5DF804FB 		ldr	pc, [sp], #4
 1851              	.L106:
 1852              		.align	2
 1853              	.L105:
 1854 0af0 00000000 		.word	test_step
 1855 0af4 00000000 		.word	mb1
 1856 0af8 80000000 		.word	.LC6
 1857              		.cfi_endproc
 1858              	.LFE287:
 1859              		.size	test_009_003_execute, .-test_009_003_execute
 1860              		.section	.rodata
 1861              		.align	2
 1862              	.LC14:
 1863 0154 4D61696C 		.ascii	"Mailbox timeouts\000"
 1863      626F7820 
 1863      74696D65 
 1863      6F757473 
 1863      00
 1864 0165 000000   		.align	2
 1865              		.type	test_009_003, %object
 1866              		.size	test_009_003, 16
 1867              	test_009_003:
 1868 0168 54010000 		.word	.LC14
 1869 016c 00000000 		.word	test_009_003_setup
 1870 0170 00000000 		.word	test_009_003_teardown
 1871 0174 00000000 		.word	test_009_003_execute
 1872              		.global	test_sequence_009
 1873              		.align	2
 1874              		.type	test_sequence_009, %object
 1875              		.size	test_sequence_009, 16
 1876              	test_sequence_009:
 1877 0178 0C010000 		.word	test_009_001
 1878 017c 44010000 		.word	test_009_002
 1879 0180 68010000 		.word	test_009_003
 1880 0184 00000000 		.word	0
ARM GAS  /tmp/ccSQgpq0.s 			page 35


 1881              		.text
 1882              	.Letext0:
 1883              		.file 7 "/usr/lib/gcc/arm-none-eabi/4.9.3/include/stddef.h"
 1884              		.file 8 "/usr/include/newlib/machine/_default_types.h"
 1885              		.file 9 "/usr/include/newlib/sys/_stdint.h"
 1886              		.file 10 "../../../os/common/ports/ARMCMx/compilers/GCC/chtypes.h"
 1887              		.file 11 "../../../os/rt/include/chsystypes.h"
 1888              		.file 12 "../../../os/rt/include/chschd.h"
 1889              		.file 13 "../../../os/common/ports/ARMCMx/chcore.h"
 1890              		.file 14 "../../../os/rt/include/chtm.h"
 1891              		.file 15 "../../../os/rt/include/chsem.h"
 1892              		.file 16 "../../../os/rt/include/chmtx.h"
 1893              		.file 17 "../../../test/lib/ch_test.h"
 1894              		.file 18 "../../../os/common/ext/CMSIS/include/core_cm4.h"