ARM GAS  /tmp/ccBg4X09.s 			page 1


   1              		.syntax unified
   2              		.cpu cortex-m4
   3              		.fpu softvfp
   4              		.eabi_attribute 20, 1
   5              		.eabi_attribute 21, 1
   6              		.eabi_attribute 23, 3
   7              		.eabi_attribute 24, 1
   8              		.eabi_attribute 25, 1
   9              		.eabi_attribute 26, 1
  10              		.eabi_attribute 30, 6
  11              		.eabi_attribute 34, 1
  12              		.eabi_attribute 18, 4
  13              		.thumb
  14              		.file	"test_sequence_003.c"
  15              		.text
  16              	.Ltext0:
  17              		.cfi_sections	.debug_frame
  18              		.align	2
  19              		.p2align 4,,15
  20              		.thumb
  21              		.thumb_func
  22              		.type	port_lock, %function
  23              	port_lock:
  24              	.LFB127:
  25              		.file 1 "../../../os/common/ports/ARMCMx/chcore_v7m.h"
  26              		.loc 1 594 0
  27              		.cfi_startproc
  28              		@ args = 0, pretend = 0, frame = 8
  29              		@ frame_needed = 0, uses_anonymous_args = 0
  30              		@ link register save eliminated.
  31 0000 82B0     		sub	sp, sp, #8
  32              		.cfi_def_cfa_offset 8
  33 0002 2023     		movs	r3, #32
  34 0004 0193     		str	r3, [sp, #4]
  35              	.LBB6:
  36              	.LBB7:
  37              		.file 2 "../../../os/common/ext/CMSIS/include/cmsis_gcc.h"
  38              		.loc 2 264 0
  39 0006 019B     		ldr	r3, [sp, #4]
  40              	@ 264 "../../../os/common/ext/CMSIS/include/cmsis_gcc.h" 1
  41 0008 83F31188 		MSR basepri, r3
  42              	@ 0 "" 2
  43              		.thumb
  44              	.LBE7:
  45              	.LBE6:
  46              		.loc 1 611 0
  47 000c 02B0     		add	sp, sp, #8
  48              		.cfi_def_cfa_offset 0
  49              		@ sp needed
  50 000e 7047     		bx	lr
  51              		.cfi_endproc
  52              	.LFE127:
  53              		.size	port_lock, .-port_lock
  54              		.align	2
  55              		.p2align 4,,15
  56              		.thumb
  57              		.thumb_func
ARM GAS  /tmp/ccBg4X09.s 			page 2


  58              		.type	port_unlock, %function
  59              	port_unlock:
  60              	.LFB128:
  61              		.loc 1 618 0
  62              		.cfi_startproc
  63              		@ args = 0, pretend = 0, frame = 8
  64              		@ frame_needed = 0, uses_anonymous_args = 0
  65              		@ link register save eliminated.
  66 0010 82B0     		sub	sp, sp, #8
  67              		.cfi_def_cfa_offset 8
  68 0012 0023     		movs	r3, #0
  69 0014 0193     		str	r3, [sp, #4]
  70              	.LBB8:
  71              	.LBB9:
  72              		.loc 2 264 0
  73 0016 019B     		ldr	r3, [sp, #4]
  74              	@ 264 "../../../os/common/ext/CMSIS/include/cmsis_gcc.h" 1
  75 0018 83F31188 		MSR basepri, r3
  76              	@ 0 "" 2
  77              		.thumb
  78              	.LBE9:
  79              	.LBE8:
  80              		.loc 1 625 0
  81 001c 02B0     		add	sp, sp, #8
  82              		.cfi_def_cfa_offset 0
  83              		@ sp needed
  84 001e 7047     		bx	lr
  85              		.cfi_endproc
  86              	.LFE128:
  87              		.size	port_unlock, .-port_unlock
  88              		.align	2
  89              		.p2align 4,,15
  90              		.thumb
  91              		.thumb_func
  92              		.type	st_lld_get_counter, %function
  93              	st_lld_get_counter:
  94              	.LFB136:
  95              		.file 3 "../../../os/hal/ports/STM32/LLD/TIMv1/hal_st_lld.h"
  96              		.loc 3 139 0
  97              		.cfi_startproc
  98              		@ args = 0, pretend = 0, frame = 0
  99              		@ frame_needed = 0, uses_anonymous_args = 0
 100              		@ link register save eliminated.
 101              		.loc 3 141 0
 102 0020 4FF08043 		mov	r3, #1073741824
 103 0024 5B6A     		ldr	r3, [r3, #36]
 104              		.loc 3 142 0
 105 0026 1846     		mov	r0, r3
 106 0028 7047     		bx	lr
 107              		.cfi_endproc
 108              	.LFE136:
 109              		.size	st_lld_get_counter, .-st_lld_get_counter
 110 002a 00BF     		.align	2
 111 002c AFF30080 		.p2align 4,,15
 112              		.thumb
 113              		.thumb_func
 114              		.type	port_timer_get_time, %function
ARM GAS  /tmp/ccBg4X09.s 			page 3


 115              	port_timer_get_time:
 116              	.LFB145:
 117              		.file 4 "../../../os/common/ports/ARMCMx/chcore_timer.h"
 118              		.loc 4 105 0
 119              		.cfi_startproc
 120              		@ args = 0, pretend = 0, frame = 0
 121              		@ frame_needed = 0, uses_anonymous_args = 0
 122 0030 08B5     		push	{r3, lr}
 123              		.cfi_def_cfa_offset 8
 124              		.cfi_offset 3, -8
 125              		.cfi_offset 14, -4
 126              		.loc 4 107 0
 127 0032 FFF7F5FF 		bl	st_lld_get_counter
 128 0036 0346     		mov	r3, r0
 129              		.loc 4 108 0
 130 0038 1846     		mov	r0, r3
 131 003a 08BD     		pop	{r3, pc}
 132              		.cfi_endproc
 133              	.LFE145:
 134              		.size	port_timer_get_time, .-port_timer_get_time
 135              		.align	2
 136 003c AFF30080 		.p2align 4,,15
 137              		.thumb
 138              		.thumb_func
 139              		.type	chSysLock, %function
 140              	chSysLock:
 141              	.LFB167:
 142              		.file 5 "../../../os/rt/include/chsys.h"
 143              		.loc 5 374 0
 144              		.cfi_startproc
 145              		@ args = 0, pretend = 0, frame = 0
 146              		@ frame_needed = 0, uses_anonymous_args = 0
 147 0040 08B5     		push	{r3, lr}
 148              		.cfi_def_cfa_offset 8
 149              		.cfi_offset 3, -8
 150              		.cfi_offset 14, -4
 151              		.loc 5 376 0
 152 0042 FFF7DDFF 		bl	port_lock
 153              		.loc 5 379 0
 154 0046 08BD     		pop	{r3, pc}
 155              		.cfi_endproc
 156              	.LFE167:
 157              		.size	chSysLock, .-chSysLock
 158              		.align	2
 159 0048 AFF30080 		.p2align 4,,15
 159      AFF30080 
 160              		.thumb
 161              		.thumb_func
 162              		.type	chSysUnlock, %function
 163              	chSysUnlock:
 164              	.LFB168:
 165              		.loc 5 386 0
 166              		.cfi_startproc
 167              		@ args = 0, pretend = 0, frame = 0
 168              		@ frame_needed = 0, uses_anonymous_args = 0
 169 0050 08B5     		push	{r3, lr}
 170              		.cfi_def_cfa_offset 8
ARM GAS  /tmp/ccBg4X09.s 			page 4


 171              		.cfi_offset 3, -8
 172              		.cfi_offset 14, -4
 173              		.loc 5 399 0
 174 0052 FFF7DDFF 		bl	port_unlock
 175              		.loc 5 400 0
 176 0056 08BD     		pop	{r3, pc}
 177              		.cfi_endproc
 178              	.LFE168:
 179              		.size	chSysUnlock, .-chSysUnlock
 180              		.align	2
 181 0058 AFF30080 		.p2align 4,,15
 181      AFF30080 
 182              		.thumb
 183              		.thumb_func
 184              		.type	chVTGetSystemTimeX, %function
 185              	chVTGetSystemTimeX:
 186              	.LFB181:
 187              		.file 6 "../../../os/rt/include/chvt.h"
 188              		.loc 6 392 0
 189              		.cfi_startproc
 190              		@ args = 0, pretend = 0, frame = 0
 191              		@ frame_needed = 0, uses_anonymous_args = 0
 192 0060 08B5     		push	{r3, lr}
 193              		.cfi_def_cfa_offset 8
 194              		.cfi_offset 3, -8
 195              		.cfi_offset 14, -4
 196              		.loc 6 397 0
 197 0062 FFF7E5FF 		bl	port_timer_get_time
 198 0066 0346     		mov	r3, r0
 199              		.loc 6 399 0
 200 0068 1846     		mov	r0, r3
 201 006a 08BD     		pop	{r3, pc}
 202              		.cfi_endproc
 203              	.LFE181:
 204              		.size	chVTGetSystemTimeX, .-chVTGetSystemTimeX
 205              		.align	2
 206 006c AFF30080 		.p2align 4,,15
 207              		.thumb
 208              		.thumb_func
 209              		.type	chThdGetSelfX, %function
 210              	chThdGetSelfX:
 211              	.LFB195:
 212              		.file 7 "../../../os/rt/include/chthreads.h"
 213              		.loc 7 284 0
 214              		.cfi_startproc
 215              		@ args = 0, pretend = 0, frame = 0
 216              		@ frame_needed = 0, uses_anonymous_args = 0
 217              		@ link register save eliminated.
 218              		.loc 7 286 0
 219 0070 014B     		ldr	r3, .L13
 220 0072 9B69     		ldr	r3, [r3, #24]
 221              		.loc 7 287 0
 222 0074 1846     		mov	r0, r3
 223 0076 7047     		bx	lr
 224              	.L14:
 225              		.align	2
 226              	.L13:
ARM GAS  /tmp/ccBg4X09.s 			page 5


 227 0078 00000000 		.word	ch
 228              		.cfi_endproc
 229              	.LFE195:
 230              		.size	chThdGetSelfX, .-chThdGetSelfX
 231              		.align	2
 232 007c AFF30080 		.p2align 4,,15
 233              		.thumb
 234              		.thumb_func
 235              		.type	chThdGetPriorityX, %function
 236              	chThdGetPriorityX:
 237              	.LFB196:
 238              		.loc 7 297 0
 239              		.cfi_startproc
 240              		@ args = 0, pretend = 0, frame = 0
 241              		@ frame_needed = 0, uses_anonymous_args = 0
 242 0080 08B5     		push	{r3, lr}
 243              		.cfi_def_cfa_offset 8
 244              		.cfi_offset 3, -8
 245              		.cfi_offset 14, -4
 246              		.loc 7 299 0
 247 0082 FFF7F5FF 		bl	chThdGetSelfX
 248 0086 0346     		mov	r3, r0
 249 0088 9B68     		ldr	r3, [r3, #8]
 250              		.loc 7 300 0
 251 008a 1846     		mov	r0, r3
 252 008c 08BD     		pop	{r3, pc}
 253              		.cfi_endproc
 254              	.LFE196:
 255              		.size	chThdGetPriorityX, .-chThdGetPriorityX
 256 008e 00BF     		.align	2
 257              		.p2align 4,,15
 258              		.thumb
 259              		.thumb_func
 260              		.type	thread, %function
 261              	thread:
 262              	.LFB279:
 263              		.file 8 "../../../test/rt/source/test/test_sequence_003.c"
 264              		.loc 8 45 0
 265              		.cfi_startproc
 266              		@ args = 0, pretend = 0, frame = 8
 267              		@ frame_needed = 0, uses_anonymous_args = 0
 268 0090 00B5     		push	{lr}
 269              		.cfi_def_cfa_offset 4
 270              		.cfi_offset 14, -4
 271 0092 83B0     		sub	sp, sp, #12
 272              		.cfi_def_cfa_offset 16
 273 0094 0190     		str	r0, [sp, #4]
 274              		.loc 8 47 0
 275 0096 019B     		ldr	r3, [sp, #4]
 276 0098 1B78     		ldrb	r3, [r3]	@ zero_extendqisi2
 277 009a 1846     		mov	r0, r3
 278 009c FFF7FEFF 		bl	test_emit_token
 279              		.loc 8 48 0
 280 00a0 03B0     		add	sp, sp, #12
 281              		.cfi_def_cfa_offset 4
 282              		@ sp needed
 283 00a2 5DF804FB 		ldr	pc, [sp], #4
ARM GAS  /tmp/ccBg4X09.s 			page 6


 284              		.cfi_endproc
 285              	.LFE279:
 286              		.size	thread, .-thread
 287              		.section	.rodata
 288              		.align	2
 289              	.LC0:
 290 0000 6F757420 		.ascii	"out of time window\000"
 290      6F662074 
 290      696D6520 
 290      77696E64 
 290      6F7700
 291              		.text
 292 00a6 00BF     		.align	2
 293 00a8 AFF30080 		.p2align 4,,15
 293      AFF30080 
 294              		.thumb
 295              		.thumb_func
 296              		.type	test_003_001_execute, %function
 297              	test_003_001_execute:
 298              	.LFB280:
 299              		.loc 8 77 0
 300              		.cfi_startproc
 301              		@ args = 0, pretend = 0, frame = 8
 302              		@ frame_needed = 0, uses_anonymous_args = 0
 303 00b0 00B5     		push	{lr}
 304              		.cfi_def_cfa_offset 4
 305              		.cfi_offset 14, -4
 306 00b2 83B0     		sub	sp, sp, #12
 307              		.cfi_def_cfa_offset 16
 308              		.loc 8 83 0
 309 00b4 3F4B     		ldr	r3, .L24
 310 00b6 0122     		movs	r2, #1
 311 00b8 1A60     		str	r2, [r3]
 312              		.loc 8 85 0
 313 00ba FFF7D1FF 		bl	chVTGetSystemTimeX
 314 00be 0190     		str	r0, [sp, #4]
 315              		.loc 8 86 0
 316 00c0 6420     		movs	r0, #100
 317 00c2 FFF7FEFF 		bl	chThdSleep
 318              		.loc 8 87 0
 319 00c6 019B     		ldr	r3, [sp, #4]
 320 00c8 03F16402 		add	r2, r3, #100
 321 00cc 019B     		ldr	r3, [sp, #4]
 322 00ce 6733     		adds	r3, r3, #103
 323 00d0 1046     		mov	r0, r2
 324 00d2 1946     		mov	r1, r3
 325 00d4 384A     		ldr	r2, .L24+4
 326 00d6 FFF7FEFF 		bl	_test_assert_time_window
 327 00da 0346     		mov	r3, r0
 328 00dc 002B     		cmp	r3, #0
 329 00de 00D0     		beq	.L19
 330 00e0 65E0     		b	.L18
 331              	.L19:
 332              		.loc 8 95 0
 333 00e2 344B     		ldr	r3, .L24
 334 00e4 0222     		movs	r2, #2
 335 00e6 1A60     		str	r2, [r3]
ARM GAS  /tmp/ccBg4X09.s 			page 7


 336              		.loc 8 97 0
 337 00e8 FFF7BAFF 		bl	chVTGetSystemTimeX
 338 00ec 0190     		str	r0, [sp, #4]
 339              		.loc 8 98 0
 340 00ee 4FF47A70 		mov	r0, #1000
 341 00f2 FFF7FEFF 		bl	chThdSleep
 342              		.loc 8 99 0
 343 00f6 019B     		ldr	r3, [sp, #4]
 344 00f8 03F57A72 		add	r2, r3, #1000
 345 00fc 019B     		ldr	r3, [sp, #4]
 346 00fe 03F2EB33 		addw	r3, r3, #1003
 347 0102 1046     		mov	r0, r2
 348 0104 1946     		mov	r1, r3
 349 0106 2C4A     		ldr	r2, .L24+4
 350 0108 FFF7FEFF 		bl	_test_assert_time_window
 351 010c 0346     		mov	r3, r0
 352 010e 002B     		cmp	r3, #0
 353 0110 00D0     		beq	.L21
 354              		.loc 8 99 0 is_stmt 0 discriminator 2
 355 0112 4CE0     		b	.L18
 356              	.L21:
 357              		.loc 8 107 0 is_stmt 1
 358 0114 274B     		ldr	r3, .L24
 359 0116 0322     		movs	r2, #3
 360 0118 1A60     		str	r2, [r3]
 361              		.loc 8 109 0
 362 011a FFF7A1FF 		bl	chVTGetSystemTimeX
 363 011e 0190     		str	r0, [sp, #4]
 364              		.loc 8 110 0
 365 0120 4FF47A70 		mov	r0, #1000
 366 0124 FFF7FEFF 		bl	chThdSleep
 367              		.loc 8 111 0
 368 0128 019B     		ldr	r3, [sp, #4]
 369 012a 03F57A72 		add	r2, r3, #1000
 370 012e 019B     		ldr	r3, [sp, #4]
 371 0130 03F2EB33 		addw	r3, r3, #1003
 372 0134 1046     		mov	r0, r2
 373 0136 1946     		mov	r1, r3
 374 0138 1F4A     		ldr	r2, .L24+4
 375 013a FFF7FEFF 		bl	_test_assert_time_window
 376 013e 0346     		mov	r3, r0
 377 0140 002B     		cmp	r3, #0
 378 0142 00D0     		beq	.L22
 379              		.loc 8 111 0 is_stmt 0 discriminator 3
 380 0144 33E0     		b	.L18
 381              	.L22:
 382              		.loc 8 118 0 is_stmt 1
 383 0146 1B4B     		ldr	r3, .L24
 384 0148 0422     		movs	r2, #4
 385 014a 1A60     		str	r2, [r3]
 386              		.loc 8 120 0
 387 014c FFF788FF 		bl	chVTGetSystemTimeX
 388 0150 0190     		str	r0, [sp, #4]
 389              		.loc 8 121 0
 390 0152 42F21070 		movw	r0, #10000
 391 0156 FFF7FEFF 		bl	chThdSleep
 392              		.loc 8 122 0
ARM GAS  /tmp/ccBg4X09.s 			page 8


 393 015a 019B     		ldr	r3, [sp, #4]
 394 015c 03F51C52 		add	r2, r3, #9984
 395 0160 1032     		adds	r2, r2, #16
 396 0162 019B     		ldr	r3, [sp, #4]
 397 0164 03F51C53 		add	r3, r3, #9984
 398 0168 1333     		adds	r3, r3, #19
 399 016a 1046     		mov	r0, r2
 400 016c 1946     		mov	r1, r3
 401 016e 124A     		ldr	r2, .L24+4
 402 0170 FFF7FEFF 		bl	_test_assert_time_window
 403 0174 0346     		mov	r3, r0
 404 0176 002B     		cmp	r3, #0
 405 0178 00D0     		beq	.L23
 406              		.loc 8 122 0 is_stmt 0 discriminator 4
 407 017a 18E0     		b	.L18
 408              	.L23:
 409              		.loc 8 129 0 is_stmt 1
 410 017c 0D4B     		ldr	r3, .L24
 411 017e 0522     		movs	r2, #5
 412 0180 1A60     		str	r2, [r3]
 413              		.loc 8 131 0
 414 0182 FFF76DFF 		bl	chVTGetSystemTimeX
 415 0186 0190     		str	r0, [sp, #4]
 416              		.loc 8 132 0
 417 0188 019B     		ldr	r3, [sp, #4]
 418 018a 6433     		adds	r3, r3, #100
 419 018c 1846     		mov	r0, r3
 420 018e FFF7FEFF 		bl	chThdSleepUntil
 421              		.loc 8 133 0
 422 0192 019B     		ldr	r3, [sp, #4]
 423 0194 03F16402 		add	r2, r3, #100
 424 0198 019B     		ldr	r3, [sp, #4]
 425 019a 6733     		adds	r3, r3, #103
 426 019c 1046     		mov	r0, r2
 427 019e 1946     		mov	r1, r3
 428 01a0 054A     		ldr	r2, .L24+4
 429 01a2 FFF7FEFF 		bl	_test_assert_time_window
 430 01a6 0346     		mov	r3, r0
 431 01a8 002B     		cmp	r3, #0
 432 01aa 00D0     		beq	.L18
 433              		.loc 8 133 0 is_stmt 0 discriminator 5
 434 01ac 00BF     		nop
 435              	.L18:
 436              		.loc 8 137 0 is_stmt 1
 437 01ae 03B0     		add	sp, sp, #12
 438              		.cfi_def_cfa_offset 4
 439              		@ sp needed
 440 01b0 5DF804FB 		ldr	pc, [sp], #4
 441              	.L25:
 442              		.align	2
 443              	.L24:
 444 01b4 00000000 		.word	test_step
 445 01b8 00000000 		.word	.LC0
 446              		.cfi_endproc
 447              	.LFE280:
 448              		.size	test_003_001_execute, .-test_003_001_execute
 449              		.section	.rodata
ARM GAS  /tmp/ccBg4X09.s 			page 9


 450 0013 00       		.align	2
 451              	.LC1:
 452 0014 54687265 		.ascii	"Thread Sleep functionality\000"
 452      61642053 
 452      6C656570 
 452      2066756E 
 452      6374696F 
 453 002f 00       		.align	2
 454              		.type	test_003_001, %object
 455              		.size	test_003_001, 16
 456              	test_003_001:
 457 0030 14000000 		.word	.LC1
 458 0034 00000000 		.word	0
 459 0038 00000000 		.word	0
 460 003c 00000000 		.word	test_003_001_execute
 461              		.align	2
 462              	.LC2:
 463 0040 4500     		.ascii	"E\000"
 464 0042 0000     		.align	2
 465              	.LC3:
 466 0044 4400     		.ascii	"D\000"
 467 0046 0000     		.align	2
 468              	.LC4:
 469 0048 4300     		.ascii	"C\000"
 470 004a 0000     		.align	2
 471              	.LC5:
 472 004c 4200     		.ascii	"B\000"
 473 004e 0000     		.align	2
 474              	.LC6:
 475 0050 4100     		.ascii	"A\000"
 476 0052 0000     		.align	2
 477              	.LC7:
 478 0054 41424344 		.ascii	"ABCDE\000"
 478      4500
 479 005a 0000     		.align	2
 480              	.LC8:
 481 005c 696E7661 		.ascii	"invalid sequence\000"
 481      6C696420 
 481      73657175 
 481      656E6365 
 481      00
 482              		.text
 483              		.align	2
 484 01bc AFF30080 		.p2align 4,,15
 485              		.thumb
 486              		.thumb_func
 487              		.type	test_003_002_execute, %function
 488              	test_003_002_execute:
 489              	.LFB281:
 490              		.loc 8 164 0
 491              		.cfi_startproc
 492              		@ args = 0, pretend = 0, frame = 0
 493              		@ frame_needed = 0, uses_anonymous_args = 0
 494 01c0 10B5     		push	{r4, lr}
 495              		.cfi_def_cfa_offset 8
 496              		.cfi_offset 4, -8
 497              		.cfi_offset 14, -4
ARM GAS  /tmp/ccBg4X09.s 			page 10


 498 01c2 82B0     		sub	sp, sp, #8
 499              		.cfi_def_cfa_offset 16
 500              		.loc 8 168 0
 501 01c4 934B     		ldr	r3, .L30
 502 01c6 0122     		movs	r2, #1
 503 01c8 1A60     		str	r2, [r3]
 504              		.loc 8 170 0
 505 01ca 934B     		ldr	r3, .L30+4
 506 01cc 1C68     		ldr	r4, [r3]
 507 01ce FFF757FF 		bl	chThdGetPriorityX
 508 01d2 0346     		mov	r3, r0
 509 01d4 5A1F     		subs	r2, r3, #5
 510 01d6 914B     		ldr	r3, .L30+8
 511 01d8 0093     		str	r3, [sp]
 512 01da 2046     		mov	r0, r4
 513 01dc 4FF4A471 		mov	r1, #328
 514 01e0 8F4B     		ldr	r3, .L30+12
 515 01e2 FFF7FEFF 		bl	chThdCreateStatic
 516 01e6 0246     		mov	r2, r0
 517 01e8 8E4B     		ldr	r3, .L30+16
 518 01ea 1A60     		str	r2, [r3]
 519              		.loc 8 171 0
 520 01ec 8A4B     		ldr	r3, .L30+4
 521 01ee 5C68     		ldr	r4, [r3, #4]
 522 01f0 FFF746FF 		bl	chThdGetPriorityX
 523 01f4 0346     		mov	r3, r0
 524 01f6 1A1F     		subs	r2, r3, #4
 525 01f8 8B4B     		ldr	r3, .L30+20
 526 01fa 0093     		str	r3, [sp]
 527 01fc 2046     		mov	r0, r4
 528 01fe 4FF4A471 		mov	r1, #328
 529 0202 874B     		ldr	r3, .L30+12
 530 0204 FFF7FEFF 		bl	chThdCreateStatic
 531 0208 0246     		mov	r2, r0
 532 020a 864B     		ldr	r3, .L30+16
 533 020c 5A60     		str	r2, [r3, #4]
 534              		.loc 8 172 0
 535 020e 824B     		ldr	r3, .L30+4
 536 0210 9C68     		ldr	r4, [r3, #8]
 537 0212 FFF735FF 		bl	chThdGetPriorityX
 538 0216 0346     		mov	r3, r0
 539 0218 DA1E     		subs	r2, r3, #3
 540 021a 844B     		ldr	r3, .L30+24
 541 021c 0093     		str	r3, [sp]
 542 021e 2046     		mov	r0, r4
 543 0220 4FF4A471 		mov	r1, #328
 544 0224 7E4B     		ldr	r3, .L30+12
 545 0226 FFF7FEFF 		bl	chThdCreateStatic
 546 022a 0246     		mov	r2, r0
 547 022c 7D4B     		ldr	r3, .L30+16
 548 022e 9A60     		str	r2, [r3, #8]
 549              		.loc 8 173 0
 550 0230 794B     		ldr	r3, .L30+4
 551 0232 DC68     		ldr	r4, [r3, #12]
 552 0234 FFF724FF 		bl	chThdGetPriorityX
 553 0238 0346     		mov	r3, r0
 554 023a 9A1E     		subs	r2, r3, #2
ARM GAS  /tmp/ccBg4X09.s 			page 11


 555 023c 7C4B     		ldr	r3, .L30+28
 556 023e 0093     		str	r3, [sp]
 557 0240 2046     		mov	r0, r4
 558 0242 4FF4A471 		mov	r1, #328
 559 0246 764B     		ldr	r3, .L30+12
 560 0248 FFF7FEFF 		bl	chThdCreateStatic
 561 024c 0246     		mov	r2, r0
 562 024e 754B     		ldr	r3, .L30+16
 563 0250 DA60     		str	r2, [r3, #12]
 564              		.loc 8 174 0
 565 0252 714B     		ldr	r3, .L30+4
 566 0254 1C69     		ldr	r4, [r3, #16]
 567 0256 FFF713FF 		bl	chThdGetPriorityX
 568 025a 0346     		mov	r3, r0
 569 025c 5A1E     		subs	r2, r3, #1
 570 025e 754B     		ldr	r3, .L30+32
 571 0260 0093     		str	r3, [sp]
 572 0262 2046     		mov	r0, r4
 573 0264 4FF4A471 		mov	r1, #328
 574 0268 6D4B     		ldr	r3, .L30+12
 575 026a FFF7FEFF 		bl	chThdCreateStatic
 576 026e 0246     		mov	r2, r0
 577 0270 6C4B     		ldr	r3, .L30+16
 578 0272 1A61     		str	r2, [r3, #16]
 579              		.loc 8 175 0
 580 0274 FFF7FEFF 		bl	test_wait_threads
 581              		.loc 8 176 0
 582 0278 6F48     		ldr	r0, .L30+36
 583 027a 7049     		ldr	r1, .L30+40
 584 027c FFF7FEFF 		bl	_test_assert_sequence
 585 0280 0346     		mov	r3, r0
 586 0282 002B     		cmp	r3, #0
 587 0284 00D0     		beq	.L27
 588 0286 C3E0     		b	.L26
 589              	.L27:
 590              		.loc 8 181 0
 591 0288 624B     		ldr	r3, .L30
 592 028a 0222     		movs	r2, #2
 593 028c 1A60     		str	r2, [r3]
 594              		.loc 8 183 0
 595 028e 624B     		ldr	r3, .L30+4
 596 0290 1C69     		ldr	r4, [r3, #16]
 597 0292 FFF7F5FE 		bl	chThdGetPriorityX
 598 0296 0346     		mov	r3, r0
 599 0298 5A1E     		subs	r2, r3, #1
 600 029a 664B     		ldr	r3, .L30+32
 601 029c 0093     		str	r3, [sp]
 602 029e 2046     		mov	r0, r4
 603 02a0 4FF4A471 		mov	r1, #328
 604 02a4 5E4B     		ldr	r3, .L30+12
 605 02a6 FFF7FEFF 		bl	chThdCreateStatic
 606 02aa 0246     		mov	r2, r0
 607 02ac 5D4B     		ldr	r3, .L30+16
 608 02ae 1A61     		str	r2, [r3, #16]
 609              		.loc 8 184 0
 610 02b0 594B     		ldr	r3, .L30+4
 611 02b2 DC68     		ldr	r4, [r3, #12]
ARM GAS  /tmp/ccBg4X09.s 			page 12


 612 02b4 FFF7E4FE 		bl	chThdGetPriorityX
 613 02b8 0346     		mov	r3, r0
 614 02ba 9A1E     		subs	r2, r3, #2
 615 02bc 5C4B     		ldr	r3, .L30+28
 616 02be 0093     		str	r3, [sp]
 617 02c0 2046     		mov	r0, r4
 618 02c2 4FF4A471 		mov	r1, #328
 619 02c6 564B     		ldr	r3, .L30+12
 620 02c8 FFF7FEFF 		bl	chThdCreateStatic
 621 02cc 0246     		mov	r2, r0
 622 02ce 554B     		ldr	r3, .L30+16
 623 02d0 DA60     		str	r2, [r3, #12]
 624              		.loc 8 185 0
 625 02d2 514B     		ldr	r3, .L30+4
 626 02d4 9C68     		ldr	r4, [r3, #8]
 627 02d6 FFF7D3FE 		bl	chThdGetPriorityX
 628 02da 0346     		mov	r3, r0
 629 02dc DA1E     		subs	r2, r3, #3
 630 02de 534B     		ldr	r3, .L30+24
 631 02e0 0093     		str	r3, [sp]
 632 02e2 2046     		mov	r0, r4
 633 02e4 4FF4A471 		mov	r1, #328
 634 02e8 4D4B     		ldr	r3, .L30+12
 635 02ea FFF7FEFF 		bl	chThdCreateStatic
 636 02ee 0246     		mov	r2, r0
 637 02f0 4C4B     		ldr	r3, .L30+16
 638 02f2 9A60     		str	r2, [r3, #8]
 639              		.loc 8 186 0
 640 02f4 484B     		ldr	r3, .L30+4
 641 02f6 5C68     		ldr	r4, [r3, #4]
 642 02f8 FFF7C2FE 		bl	chThdGetPriorityX
 643 02fc 0346     		mov	r3, r0
 644 02fe 1A1F     		subs	r2, r3, #4
 645 0300 494B     		ldr	r3, .L30+20
 646 0302 0093     		str	r3, [sp]
 647 0304 2046     		mov	r0, r4
 648 0306 4FF4A471 		mov	r1, #328
 649 030a 454B     		ldr	r3, .L30+12
 650 030c FFF7FEFF 		bl	chThdCreateStatic
 651 0310 0246     		mov	r2, r0
 652 0312 444B     		ldr	r3, .L30+16
 653 0314 5A60     		str	r2, [r3, #4]
 654              		.loc 8 187 0
 655 0316 404B     		ldr	r3, .L30+4
 656 0318 1C68     		ldr	r4, [r3]
 657 031a FFF7B1FE 		bl	chThdGetPriorityX
 658 031e 0346     		mov	r3, r0
 659 0320 5A1F     		subs	r2, r3, #5
 660 0322 3E4B     		ldr	r3, .L30+8
 661 0324 0093     		str	r3, [sp]
 662 0326 2046     		mov	r0, r4
 663 0328 4FF4A471 		mov	r1, #328
 664 032c 3C4B     		ldr	r3, .L30+12
 665 032e FFF7FEFF 		bl	chThdCreateStatic
 666 0332 0246     		mov	r2, r0
 667 0334 3B4B     		ldr	r3, .L30+16
 668 0336 1A60     		str	r2, [r3]
ARM GAS  /tmp/ccBg4X09.s 			page 13


 669              		.loc 8 188 0
 670 0338 FFF7FEFF 		bl	test_wait_threads
 671              		.loc 8 189 0
 672 033c 3E48     		ldr	r0, .L30+36
 673 033e 3F49     		ldr	r1, .L30+40
 674 0340 FFF7FEFF 		bl	_test_assert_sequence
 675 0344 0346     		mov	r3, r0
 676 0346 002B     		cmp	r3, #0
 677 0348 00D0     		beq	.L29
 678              		.loc 8 189 0 is_stmt 0 discriminator 2
 679 034a 61E0     		b	.L26
 680              	.L29:
 681              		.loc 8 194 0 is_stmt 1
 682 034c 314B     		ldr	r3, .L30
 683 034e 0322     		movs	r2, #3
 684 0350 1A60     		str	r2, [r3]
 685              		.loc 8 196 0
 686 0352 314B     		ldr	r3, .L30+4
 687 0354 5C68     		ldr	r4, [r3, #4]
 688 0356 FFF793FE 		bl	chThdGetPriorityX
 689 035a 0346     		mov	r3, r0
 690 035c 1A1F     		subs	r2, r3, #4
 691 035e 324B     		ldr	r3, .L30+20
 692 0360 0093     		str	r3, [sp]
 693 0362 2046     		mov	r0, r4
 694 0364 4FF4A471 		mov	r1, #328
 695 0368 2D4B     		ldr	r3, .L30+12
 696 036a FFF7FEFF 		bl	chThdCreateStatic
 697 036e 0246     		mov	r2, r0
 698 0370 2C4B     		ldr	r3, .L30+16
 699 0372 5A60     		str	r2, [r3, #4]
 700              		.loc 8 197 0
 701 0374 284B     		ldr	r3, .L30+4
 702 0376 1C68     		ldr	r4, [r3]
 703 0378 FFF782FE 		bl	chThdGetPriorityX
 704 037c 0346     		mov	r3, r0
 705 037e 5A1F     		subs	r2, r3, #5
 706 0380 264B     		ldr	r3, .L30+8
 707 0382 0093     		str	r3, [sp]
 708 0384 2046     		mov	r0, r4
 709 0386 4FF4A471 		mov	r1, #328
 710 038a 254B     		ldr	r3, .L30+12
 711 038c FFF7FEFF 		bl	chThdCreateStatic
 712 0390 0246     		mov	r2, r0
 713 0392 244B     		ldr	r3, .L30+16
 714 0394 1A60     		str	r2, [r3]
 715              		.loc 8 198 0
 716 0396 204B     		ldr	r3, .L30+4
 717 0398 1C69     		ldr	r4, [r3, #16]
 718 039a FFF771FE 		bl	chThdGetPriorityX
 719 039e 0346     		mov	r3, r0
 720 03a0 5A1E     		subs	r2, r3, #1
 721 03a2 244B     		ldr	r3, .L30+32
 722 03a4 0093     		str	r3, [sp]
 723 03a6 2046     		mov	r0, r4
 724 03a8 4FF4A471 		mov	r1, #328
 725 03ac 1C4B     		ldr	r3, .L30+12
ARM GAS  /tmp/ccBg4X09.s 			page 14


 726 03ae FFF7FEFF 		bl	chThdCreateStatic
 727 03b2 0246     		mov	r2, r0
 728 03b4 1B4B     		ldr	r3, .L30+16
 729 03b6 1A61     		str	r2, [r3, #16]
 730              		.loc 8 199 0
 731 03b8 174B     		ldr	r3, .L30+4
 732 03ba DC68     		ldr	r4, [r3, #12]
 733 03bc FFF760FE 		bl	chThdGetPriorityX
 734 03c0 0346     		mov	r3, r0
 735 03c2 9A1E     		subs	r2, r3, #2
 736 03c4 1A4B     		ldr	r3, .L30+28
 737 03c6 0093     		str	r3, [sp]
 738 03c8 2046     		mov	r0, r4
 739 03ca 4FF4A471 		mov	r1, #328
 740 03ce 144B     		ldr	r3, .L30+12
 741 03d0 FFF7FEFF 		bl	chThdCreateStatic
 742 03d4 0246     		mov	r2, r0
 743 03d6 134B     		ldr	r3, .L30+16
 744 03d8 DA60     		str	r2, [r3, #12]
 745              		.loc 8 200 0
 746 03da 0F4B     		ldr	r3, .L30+4
 747 03dc 9C68     		ldr	r4, [r3, #8]
 748 03de FFF74FFE 		bl	chThdGetPriorityX
 749 03e2 0346     		mov	r3, r0
 750 03e4 DA1E     		subs	r2, r3, #3
 751 03e6 114B     		ldr	r3, .L30+24
 752 03e8 0093     		str	r3, [sp]
 753 03ea 2046     		mov	r0, r4
 754 03ec 4FF4A471 		mov	r1, #328
 755 03f0 0B4B     		ldr	r3, .L30+12
 756 03f2 FFF7FEFF 		bl	chThdCreateStatic
 757 03f6 0246     		mov	r2, r0
 758 03f8 0A4B     		ldr	r3, .L30+16
 759 03fa 9A60     		str	r2, [r3, #8]
 760              		.loc 8 201 0
 761 03fc FFF7FEFF 		bl	test_wait_threads
 762              		.loc 8 202 0
 763 0400 0D48     		ldr	r0, .L30+36
 764 0402 0E49     		ldr	r1, .L30+40
 765 0404 FFF7FEFF 		bl	_test_assert_sequence
 766 0408 0346     		mov	r3, r0
 767 040a 002B     		cmp	r3, #0
 768 040c 00D0     		beq	.L26
 769              		.loc 8 202 0 is_stmt 0 discriminator 3
 770 040e 00BF     		nop
 771              	.L26:
 772              		.loc 8 204 0 is_stmt 1
 773 0410 02B0     		add	sp, sp, #8
 774              		.cfi_def_cfa_offset 8
 775              		@ sp needed
 776 0412 10BD     		pop	{r4, pc}
 777              	.L31:
 778              		.align	2
 779              	.L30:
 780 0414 00000000 		.word	test_step
 781 0418 00000000 		.word	wa
 782 041c 40000000 		.word	.LC2
ARM GAS  /tmp/ccBg4X09.s 			page 15


 783 0420 00000000 		.word	thread
 784 0424 00000000 		.word	threads
 785 0428 44000000 		.word	.LC3
 786 042c 48000000 		.word	.LC4
 787 0430 4C000000 		.word	.LC5
 788 0434 50000000 		.word	.LC6
 789 0438 54000000 		.word	.LC7
 790 043c 5C000000 		.word	.LC8
 791              		.cfi_endproc
 792              	.LFE281:
 793              		.size	test_003_002_execute, .-test_003_002_execute
 794              		.section	.rodata
 795 006d 000000   		.align	2
 796              	.LC9:
 797 0070 52656164 		.ascii	"Ready List functionality, threads priority order\000"
 797      79204C69 
 797      73742066 
 797      756E6374 
 797      696F6E61 
 798 00a1 000000   		.align	2
 799              		.type	test_003_002, %object
 800              		.size	test_003_002, 16
 801              	test_003_002:
 802 00a4 70000000 		.word	.LC9
 803 00a8 00000000 		.word	0
 804 00ac 00000000 		.word	0
 805 00b0 00000000 		.word	test_003_002_execute
 806              		.align	2
 807              	.LC10:
 808 00b4 756E6578 		.ascii	"unexpected returned priority level\000"
 808      70656374 
 808      65642072 
 808      65747572 
 808      6E656420 
 809 00d7 00       		.align	2
 810              	.LC11:
 811 00d8 756E6578 		.ascii	"unexpected priority level\000"
 811      70656374 
 811      65642070 
 811      72696F72 
 811      69747920 
 812              		.text
 813              		.align	2
 814              		.p2align 4,,15
 815              		.thumb
 816              		.thumb_func
 817              		.type	test_003_003_execute, %function
 818              	test_003_003_execute:
 819              	.LFB282:
 820              		.loc 8 228 0
 821              		.cfi_startproc
 822              		@ args = 0, pretend = 0, frame = 8
 823              		@ frame_needed = 0, uses_anonymous_args = 0
 824 0440 00B5     		push	{lr}
 825              		.cfi_def_cfa_offset 4
 826              		.cfi_offset 14, -4
 827 0442 83B0     		sub	sp, sp, #12
ARM GAS  /tmp/ccBg4X09.s 			page 16


 828              		.cfi_def_cfa_offset 16
 829              		.loc 8 233 0
 830 0444 2B4B     		ldr	r3, .L37
 831 0446 0122     		movs	r2, #1
 832 0448 1A60     		str	r2, [r3]
 833              		.loc 8 235 0
 834 044a FFF719FE 		bl	chThdGetPriorityX
 835 044e 0190     		str	r0, [sp, #4]
 836              		.loc 8 236 0
 837 0450 019B     		ldr	r3, [sp, #4]
 838 0452 0133     		adds	r3, r3, #1
 839 0454 1846     		mov	r0, r3
 840 0456 FFF7FEFF 		bl	chThdSetPriority
 841 045a 0090     		str	r0, [sp]
 842              		.loc 8 237 0
 843 045c 009A     		ldr	r2, [sp]
 844 045e 019B     		ldr	r3, [sp, #4]
 845 0460 9A42     		cmp	r2, r3
 846 0462 0CBF     		ite	eq
 847 0464 0123     		moveq	r3, #1
 848 0466 0023     		movne	r3, #0
 849 0468 DBB2     		uxtb	r3, r3
 850 046a 1846     		mov	r0, r3
 851 046c 2249     		ldr	r1, .L37+4
 852 046e FFF7FEFF 		bl	_test_assert
 853 0472 0346     		mov	r3, r0
 854 0474 002B     		cmp	r3, #0
 855 0476 00D0     		beq	.L33
 856 0478 39E0     		b	.L32
 857              	.L33:
 858              		.loc 8 238 0
 859 047a FFF701FE 		bl	chThdGetPriorityX
 860 047e 0246     		mov	r2, r0
 861 0480 019B     		ldr	r3, [sp, #4]
 862 0482 0133     		adds	r3, r3, #1
 863 0484 9A42     		cmp	r2, r3
 864 0486 0CBF     		ite	eq
 865 0488 0123     		moveq	r3, #1
 866 048a 0023     		movne	r3, #0
 867 048c DBB2     		uxtb	r3, r3
 868 048e 1846     		mov	r0, r3
 869 0490 1A49     		ldr	r1, .L37+8
 870 0492 FFF7FEFF 		bl	_test_assert
 871 0496 0346     		mov	r3, r0
 872 0498 002B     		cmp	r3, #0
 873 049a 00D0     		beq	.L35
 874              		.loc 8 238 0 is_stmt 0 discriminator 2
 875 049c 27E0     		b	.L32
 876              	.L35:
 877              		.loc 8 243 0 is_stmt 1
 878 049e 154B     		ldr	r3, .L37
 879 04a0 0222     		movs	r2, #2
 880 04a2 1A60     		str	r2, [r3]
 881              		.loc 8 245 0
 882 04a4 0098     		ldr	r0, [sp]
 883 04a6 FFF7FEFF 		bl	chThdSetPriority
 884 04aa 0090     		str	r0, [sp]
ARM GAS  /tmp/ccBg4X09.s 			page 17


 885              		.loc 8 246 0
 886 04ac 019B     		ldr	r3, [sp, #4]
 887 04ae 5A1C     		adds	r2, r3, #1
 888 04b0 009B     		ldr	r3, [sp]
 889 04b2 9A42     		cmp	r2, r3
 890 04b4 0CBF     		ite	eq
 891 04b6 0123     		moveq	r3, #1
 892 04b8 0023     		movne	r3, #0
 893 04ba DBB2     		uxtb	r3, r3
 894 04bc 1846     		mov	r0, r3
 895 04be 0E49     		ldr	r1, .L37+4
 896 04c0 FFF7FEFF 		bl	_test_assert
 897 04c4 0346     		mov	r3, r0
 898 04c6 002B     		cmp	r3, #0
 899 04c8 00D0     		beq	.L36
 900              		.loc 8 246 0 is_stmt 0 discriminator 3
 901 04ca 10E0     		b	.L32
 902              	.L36:
 903              		.loc 8 247 0 is_stmt 1
 904 04cc FFF7D8FD 		bl	chThdGetPriorityX
 905 04d0 0246     		mov	r2, r0
 906 04d2 019B     		ldr	r3, [sp, #4]
 907 04d4 9A42     		cmp	r2, r3
 908 04d6 0CBF     		ite	eq
 909 04d8 0123     		moveq	r3, #1
 910 04da 0023     		movne	r3, #0
 911 04dc DBB2     		uxtb	r3, r3
 912 04de 1846     		mov	r0, r3
 913 04e0 0649     		ldr	r1, .L37+8
 914 04e2 FFF7FEFF 		bl	_test_assert
 915 04e6 0346     		mov	r3, r0
 916 04e8 002B     		cmp	r3, #0
 917 04ea 00D0     		beq	.L32
 918              		.loc 8 247 0 is_stmt 0 discriminator 4
 919 04ec 00BF     		nop
 920              	.L32:
 921              		.loc 8 249 0 is_stmt 1
 922 04ee 03B0     		add	sp, sp, #12
 923              		.cfi_def_cfa_offset 4
 924              		@ sp needed
 925 04f0 5DF804FB 		ldr	pc, [sp], #4
 926              	.L38:
 927              		.align	2
 928              	.L37:
 929 04f4 00000000 		.word	test_step
 930 04f8 B4000000 		.word	.LC10
 931 04fc D8000000 		.word	.LC11
 932              		.cfi_endproc
 933              	.LFE282:
 934              		.size	test_003_003_execute, .-test_003_003_execute
 935              		.section	.rodata
 936 00f2 0000     		.align	2
 937              	.LC12:
 938 00f4 5072696F 		.ascii	"Priority change test\000"
 938      72697479 
 938      20636861 
 938      6E676520 
ARM GAS  /tmp/ccBg4X09.s 			page 18


 938      74657374 
 939 0109 000000   		.align	2
 940              		.type	test_003_003, %object
 941              		.size	test_003_003, 16
 942              	test_003_003:
 943 010c F4000000 		.word	.LC12
 944 0110 00000000 		.word	0
 945 0114 00000000 		.word	0
 946 0118 00000000 		.word	test_003_003_execute
 947              		.align	2
 948              	.LC13:
 949 011c 756E6578 		.ascii	"unexpected returned real priority level\000"
 949      70656374 
 949      65642072 
 949      65747572 
 949      6E656420 
 950              		.align	2
 951              	.LC14:
 952 0144 756E6578 		.ascii	"unexpected real priority level\000"
 952      70656374 
 952      65642072 
 952      65616C20 
 952      7072696F 
 953              		.text
 954              		.align	2
 955              		.p2align 4,,15
 956              		.thumb
 957              		.thumb_func
 958              		.type	test_003_004_execute, %function
 959              	test_003_004_execute:
 960              	.LFB283:
 961              		.loc 8 281 0
 962              		.cfi_startproc
 963              		@ args = 0, pretend = 0, frame = 8
 964              		@ frame_needed = 0, uses_anonymous_args = 0
 965 0500 00B5     		push	{lr}
 966              		.cfi_def_cfa_offset 4
 967              		.cfi_offset 14, -4
 968 0502 83B0     		sub	sp, sp, #12
 969              		.cfi_def_cfa_offset 16
 970              		.loc 8 285 0
 971 0504 574B     		ldr	r3, .L48
 972 0506 0122     		movs	r2, #1
 973 0508 1A60     		str	r2, [r3]
 974              		.loc 8 287 0
 975 050a FFF7B9FD 		bl	chThdGetPriorityX
 976 050e 0190     		str	r0, [sp, #4]
 977              		.loc 8 288 0
 978 0510 FFF7AEFD 		bl	chThdGetSelfX
 979 0514 0346     		mov	r3, r0
 980 0516 9A68     		ldr	r2, [r3, #8]
 981 0518 0232     		adds	r2, r2, #2
 982 051a 9A60     		str	r2, [r3, #8]
 983              		.loc 8 289 0
 984 051c FFF7B0FD 		bl	chThdGetPriorityX
 985 0520 0246     		mov	r2, r0
 986 0522 019B     		ldr	r3, [sp, #4]
ARM GAS  /tmp/ccBg4X09.s 			page 19


 987 0524 0233     		adds	r3, r3, #2
 988 0526 9A42     		cmp	r2, r3
 989 0528 0CBF     		ite	eq
 990 052a 0123     		moveq	r3, #1
 991 052c 0023     		movne	r3, #0
 992 052e DBB2     		uxtb	r3, r3
 993 0530 1846     		mov	r0, r3
 994 0532 4D49     		ldr	r1, .L48+4
 995 0534 FFF7FEFF 		bl	_test_assert
 996 0538 0346     		mov	r3, r0
 997 053a 002B     		cmp	r3, #0
 998 053c 00D0     		beq	.L40
 999 053e 8DE0     		b	.L39
 1000              	.L40:
 1001              		.loc 8 294 0
 1002 0540 484B     		ldr	r3, .L48
 1003 0542 0222     		movs	r2, #2
 1004 0544 1A60     		str	r2, [r3]
 1005              		.loc 8 296 0
 1006 0546 019B     		ldr	r3, [sp, #4]
 1007 0548 0133     		adds	r3, r3, #1
 1008 054a 1846     		mov	r0, r3
 1009 054c FFF7FEFF 		bl	chThdSetPriority
 1010 0550 0090     		str	r0, [sp]
 1011              		.loc 8 297 0
 1012 0552 009A     		ldr	r2, [sp]
 1013 0554 019B     		ldr	r3, [sp, #4]
 1014 0556 9A42     		cmp	r2, r3
 1015 0558 0CBF     		ite	eq
 1016 055a 0123     		moveq	r3, #1
 1017 055c 0023     		movne	r3, #0
 1018 055e DBB2     		uxtb	r3, r3
 1019 0560 1846     		mov	r0, r3
 1020 0562 4249     		ldr	r1, .L48+8
 1021 0564 FFF7FEFF 		bl	_test_assert
 1022 0568 0346     		mov	r3, r0
 1023 056a 002B     		cmp	r3, #0
 1024 056c 00D0     		beq	.L42
 1025              		.loc 8 297 0 is_stmt 0 discriminator 2
 1026 056e 75E0     		b	.L39
 1027              	.L42:
 1028              		.loc 8 298 0 is_stmt 1
 1029 0570 FFF77EFD 		bl	chThdGetSelfX
 1030 0574 0346     		mov	r3, r0
 1031 0576 9A68     		ldr	r2, [r3, #8]
 1032 0578 019B     		ldr	r3, [sp, #4]
 1033 057a 0233     		adds	r3, r3, #2
 1034 057c 9A42     		cmp	r2, r3
 1035 057e 0CBF     		ite	eq
 1036 0580 0123     		moveq	r3, #1
 1037 0582 0023     		movne	r3, #0
 1038 0584 DBB2     		uxtb	r3, r3
 1039 0586 1846     		mov	r0, r3
 1040 0588 3749     		ldr	r1, .L48+4
 1041 058a FFF7FEFF 		bl	_test_assert
 1042 058e 0346     		mov	r3, r0
 1043 0590 002B     		cmp	r3, #0
ARM GAS  /tmp/ccBg4X09.s 			page 20


 1044 0592 00D0     		beq	.L43
 1045              		.loc 8 298 0 is_stmt 0 discriminator 3
 1046 0594 62E0     		b	.L39
 1047              	.L43:
 1048              		.loc 8 299 0 is_stmt 1
 1049 0596 FFF76BFD 		bl	chThdGetSelfX
 1050 059a 0346     		mov	r3, r0
 1051 059c DA6B     		ldr	r2, [r3, #60]
 1052 059e 019B     		ldr	r3, [sp, #4]
 1053 05a0 0133     		adds	r3, r3, #1
 1054 05a2 9A42     		cmp	r2, r3
 1055 05a4 0CBF     		ite	eq
 1056 05a6 0123     		moveq	r3, #1
 1057 05a8 0023     		movne	r3, #0
 1058 05aa DBB2     		uxtb	r3, r3
 1059 05ac 1846     		mov	r0, r3
 1060 05ae 3049     		ldr	r1, .L48+12
 1061 05b0 FFF7FEFF 		bl	_test_assert
 1062 05b4 0346     		mov	r3, r0
 1063 05b6 002B     		cmp	r3, #0
 1064 05b8 00D0     		beq	.L44
 1065              		.loc 8 299 0 is_stmt 0 discriminator 4
 1066 05ba 4FE0     		b	.L39
 1067              	.L44:
 1068              		.loc 8 303 0 is_stmt 1
 1069 05bc 294B     		ldr	r3, .L48
 1070 05be 0322     		movs	r2, #3
 1071 05c0 1A60     		str	r2, [r3]
 1072              		.loc 8 305 0
 1073 05c2 019B     		ldr	r3, [sp, #4]
 1074 05c4 0333     		adds	r3, r3, #3
 1075 05c6 1846     		mov	r0, r3
 1076 05c8 FFF7FEFF 		bl	chThdSetPriority
 1077 05cc 0090     		str	r0, [sp]
 1078              		.loc 8 306 0
 1079 05ce 019B     		ldr	r3, [sp, #4]
 1080 05d0 5A1C     		adds	r2, r3, #1
 1081 05d2 009B     		ldr	r3, [sp]
 1082 05d4 9A42     		cmp	r2, r3
 1083 05d6 0CBF     		ite	eq
 1084 05d8 0123     		moveq	r3, #1
 1085 05da 0023     		movne	r3, #0
 1086 05dc DBB2     		uxtb	r3, r3
 1087 05de 1846     		mov	r0, r3
 1088 05e0 2249     		ldr	r1, .L48+8
 1089 05e2 FFF7FEFF 		bl	_test_assert
 1090 05e6 0346     		mov	r3, r0
 1091 05e8 002B     		cmp	r3, #0
 1092 05ea 00D0     		beq	.L45
 1093              		.loc 8 306 0 is_stmt 0 discriminator 5
 1094 05ec 36E0     		b	.L39
 1095              	.L45:
 1096              		.loc 8 307 0 is_stmt 1
 1097 05ee FFF73FFD 		bl	chThdGetSelfX
 1098 05f2 0346     		mov	r3, r0
 1099 05f4 9A68     		ldr	r2, [r3, #8]
 1100 05f6 019B     		ldr	r3, [sp, #4]
ARM GAS  /tmp/ccBg4X09.s 			page 21


 1101 05f8 0333     		adds	r3, r3, #3
 1102 05fa 9A42     		cmp	r2, r3
 1103 05fc 0CBF     		ite	eq
 1104 05fe 0123     		moveq	r3, #1
 1105 0600 0023     		movne	r3, #0
 1106 0602 DBB2     		uxtb	r3, r3
 1107 0604 1846     		mov	r0, r3
 1108 0606 1849     		ldr	r1, .L48+4
 1109 0608 FFF7FEFF 		bl	_test_assert
 1110 060c 0346     		mov	r3, r0
 1111 060e 002B     		cmp	r3, #0
 1112 0610 00D0     		beq	.L46
 1113              		.loc 8 307 0 is_stmt 0 discriminator 6
 1114 0612 23E0     		b	.L39
 1115              	.L46:
 1116              		.loc 8 308 0 is_stmt 1
 1117 0614 FFF72CFD 		bl	chThdGetSelfX
 1118 0618 0346     		mov	r3, r0
 1119 061a DA6B     		ldr	r2, [r3, #60]
 1120 061c 019B     		ldr	r3, [sp, #4]
 1121 061e 0333     		adds	r3, r3, #3
 1122 0620 9A42     		cmp	r2, r3
 1123 0622 0CBF     		ite	eq
 1124 0624 0123     		moveq	r3, #1
 1125 0626 0023     		movne	r3, #0
 1126 0628 DBB2     		uxtb	r3, r3
 1127 062a 1846     		mov	r0, r3
 1128 062c 1149     		ldr	r1, .L48+16
 1129 062e FFF7FEFF 		bl	_test_assert
 1130 0632 0346     		mov	r3, r0
 1131 0634 002B     		cmp	r3, #0
 1132 0636 00D0     		beq	.L47
 1133              		.loc 8 308 0 is_stmt 0 discriminator 7
 1134 0638 10E0     		b	.L39
 1135              	.L47:
 1136              		.loc 8 312 0 is_stmt 1
 1137 063a 0A4B     		ldr	r3, .L48
 1138 063c 0422     		movs	r2, #4
 1139 063e 1A60     		str	r2, [r3]
 1140              		.loc 8 314 0
 1141 0640 FFF7FEFC 		bl	chSysLock
 1142              		.loc 8 315 0
 1143 0644 FFF714FD 		bl	chThdGetSelfX
 1144 0648 0246     		mov	r2, r0
 1145 064a 019B     		ldr	r3, [sp, #4]
 1146 064c 9360     		str	r3, [r2, #8]
 1147              		.loc 8 316 0
 1148 064e FFF70FFD 		bl	chThdGetSelfX
 1149 0652 0246     		mov	r2, r0
 1150 0654 019B     		ldr	r3, [sp, #4]
 1151 0656 D363     		str	r3, [r2, #60]
 1152              		.loc 8 317 0
 1153 0658 FFF7FAFC 		bl	chSysUnlock
 1154              	.L39:
 1155              		.loc 8 319 0
 1156 065c 03B0     		add	sp, sp, #12
 1157              		.cfi_def_cfa_offset 4
ARM GAS  /tmp/ccBg4X09.s 			page 22


 1158              		@ sp needed
 1159 065e 5DF804FB 		ldr	pc, [sp], #4
 1160              	.L49:
 1161 0662 00BF     		.align	2
 1162              	.L48:
 1163 0664 00000000 		.word	test_step
 1164 0668 D8000000 		.word	.LC11
 1165 066c B4000000 		.word	.LC10
 1166 0670 1C010000 		.word	.LC13
 1167 0674 44010000 		.word	.LC14
 1168              		.cfi_endproc
 1169              	.LFE283:
 1170              		.size	test_003_004_execute, .-test_003_004_execute
 1171              		.section	.rodata
 1172 0163 00       		.align	2
 1173              	.LC15:
 1174 0164 5072696F 		.ascii	"Priority change test with Priority Inheritance\000"
 1174      72697479 
 1174      20636861 
 1174      6E676520 
 1174      74657374 
 1175 0193 00       		.align	2
 1176              		.type	test_003_004, %object
 1177              		.size	test_003_004, 16
 1178              	test_003_004:
 1179 0194 64010000 		.word	.LC15
 1180 0198 00000000 		.word	0
 1181 019c 00000000 		.word	0
 1182 01a0 00000000 		.word	test_003_004_execute
 1183              		.global	test_sequence_003
 1184              		.align	2
 1185              		.type	test_sequence_003, %object
 1186              		.size	test_sequence_003, 20
 1187              	test_sequence_003:
 1188 01a4 30000000 		.word	test_003_001
 1189 01a8 A4000000 		.word	test_003_002
 1190 01ac 0C010000 		.word	test_003_003
 1191 01b0 94010000 		.word	test_003_004
 1192 01b4 00000000 		.word	0
 1193              		.text
 1194              	.Letext0:
 1195              		.file 9 "/usr/lib/gcc/arm-none-eabi/4.9.3/include/stddef.h"
 1196              		.file 10 "/usr/include/newlib/machine/_default_types.h"
 1197              		.file 11 "/usr/include/newlib/sys/_stdint.h"
 1198              		.file 12 "../../../os/common/ports/ARMCMx/compilers/GCC/chtypes.h"
 1199              		.file 13 "../../../os/rt/include/chsystypes.h"
 1200              		.file 14 "../../../os/rt/include/chschd.h"
 1201              		.file 15 "../../../os/common/ports/ARMCMx/chcore.h"
 1202              		.file 16 "../../../os/hal/ports/STM32/LLD/TIMv1/stm32_tim.h"
 1203              		.file 17 "../../../os/rt/include/chtm.h"
 1204              		.file 18 "../../../os/rt/include/chsem.h"
 1205              		.file 19 "../../../os/rt/include/chmtx.h"
 1206              		.file 20 "../../../test/lib/ch_test.h"
 1207              		.file 21 "../../../os/common/ext/CMSIS/include/core_cm4.h"
 1208              		.file 22 "../../../test/rt/source/test/test_root.h"