ARM GAS  /tmp/ccojyTOk.s 			page 1


   1              		.syntax unified
   2              		.cpu cortex-m4
   3              		.fpu softvfp
   4              		.eabi_attribute 20, 1
   5              		.eabi_attribute 21, 1
   6              		.eabi_attribute 23, 3
   7              		.eabi_attribute 24, 1
   8              		.eabi_attribute 25, 1
   9              		.eabi_attribute 26, 1
  10              		.eabi_attribute 30, 6
  11              		.eabi_attribute 34, 1
  12              		.eabi_attribute 18, 4
  13              		.thumb
  14              		.file	"test_sequence_011.c"
  15              		.text
  16              	.Ltext0:
  17              		.cfi_sections	.debug_frame
  18              		.align	2
  19              		.p2align 4,,15
  20              		.thumb
  21              		.thumb_func
  22              		.type	chHeapAlloc, %function
  23              	chHeapAlloc:
  24              	.LFB242:
  25              		.file 1 "../../../os/common/oslib/include/chheap.h"
  26              		.loc 1 155 0
  27              		.cfi_startproc
  28              		@ args = 0, pretend = 0, frame = 8
  29              		@ frame_needed = 0, uses_anonymous_args = 0
  30 0000 00B5     		push	{lr}
  31              		.cfi_def_cfa_offset 4
  32              		.cfi_offset 14, -4
  33 0002 83B0     		sub	sp, sp, #12
  34              		.cfi_def_cfa_offset 16
  35 0004 0190     		str	r0, [sp, #4]
  36 0006 0091     		str	r1, [sp]
  37              		.loc 1 157 0
  38 0008 0198     		ldr	r0, [sp, #4]
  39 000a 0099     		ldr	r1, [sp]
  40 000c 0822     		movs	r2, #8
  41 000e FFF7FEFF 		bl	chHeapAllocAligned
  42 0012 0346     		mov	r3, r0
  43              		.loc 1 158 0
  44 0014 1846     		mov	r0, r3
  45 0016 03B0     		add	sp, sp, #12
  46              		.cfi_def_cfa_offset 4
  47              		@ sp needed
  48 0018 5DF804FB 		ldr	pc, [sp], #4
  49              		.cfi_endproc
  50              	.LFE242:
  51              		.size	chHeapAlloc, .-chHeapAlloc
  52              		.comm	test_heap,32,8
  53              		.align	2
  54 001c AFF30080 		.p2align 4,,15
  55              		.thumb
  56              		.thumb_func
  57              		.type	test_011_001_setup, %function
ARM GAS  /tmp/ccojyTOk.s 			page 2


  58              	test_011_001_setup:
  59              	.LFB279:
  60              		.file 2 "../../../test/rt/source/test/test_sequence_011.c"
  61              		.loc 2 90 0
  62              		.cfi_startproc
  63              		@ args = 0, pretend = 0, frame = 0
  64              		@ frame_needed = 0, uses_anonymous_args = 0
  65 0020 08B5     		push	{r3, lr}
  66              		.cfi_def_cfa_offset 8
  67              		.cfi_offset 3, -8
  68              		.cfi_offset 14, -4
  69              		.loc 2 91 0
  70 0022 0348     		ldr	r0, .L4
  71 0024 0349     		ldr	r1, .L4+4
  72 0026 4FF4CD62 		mov	r2, #1640
  73 002a FFF7FEFF 		bl	chHeapObjectInit
  74              		.loc 2 92 0
  75 002e 08BD     		pop	{r3, pc}
  76              	.L5:
  77              		.align	2
  78              	.L4:
  79 0030 00000000 		.word	test_heap
  80 0034 00000000 		.word	test_buffer
  81              		.cfi_endproc
  82              	.LFE279:
  83              		.size	test_011_001_setup, .-test_011_001_setup
  84              		.section	.rodata
  85              		.align	2
  86              	.LC0:
  87 0000 68656170 		.ascii	"heap fragmented\000"
  87      20667261 
  87      676D656E 
  87      74656400 
  88              		.align	2
  89              	.LC1:
  90 0010 616C6C6F 		.ascii	"allocation not failed\000"
  90      63617469 
  90      6F6E206E 
  90      6F742066 
  90      61696C65 
  91 0026 0000     		.align	2
  92              	.LC2:
  93 0028 616C6C6F 		.ascii	"allocation failed\000"
  93      63617469 
  93      6F6E2066 
  93      61696C65 
  93      6400
  94 003a 0000     		.align	2
  95              	.LC3:
  96 003c 6D697373 		.ascii	"missing free block\000"
  96      696E6720 
  96      66726565 
  96      20626C6F 
  96      636B00
  97 004f 00       		.align	2
  98              	.LC4:
  99 0050 756E6578 		.ascii	"unexpected heap state\000"
ARM GAS  /tmp/ccojyTOk.s 			page 3


  99      70656374 
  99      65642068 
  99      65617020 
  99      73746174 
 100 0066 0000     		.align	2
 101              	.LC5:
 102 0068 696E7661 		.ascii	"invalid state\000"
 102      6C696420 
 102      73746174 
 102      6500
 103 0076 0000     		.align	2
 104              	.LC6:
 105 0078 6E6F7420 		.ascii	"not empty\000"
 105      656D7074 
 105      7900
 106 0082 0000     		.align	2
 107              	.LC7:
 108 0084 73697A65 		.ascii	"size changed\000"
 108      20636861 
 108      6E676564 
 108      00
 109              		.text
 110              		.align	2
 111 0038 AFF30080 		.p2align 4,,15
 111      AFF30080 
 112              		.thumb
 113              		.thumb_func
 114              		.type	test_011_001_execute, %function
 115              	test_011_001_execute:
 116              	.LFB280:
 117              		.loc 2 94 0
 118              		.cfi_startproc
 119              		@ args = 0, pretend = 0, frame = 32
 120              		@ frame_needed = 0, uses_anonymous_args = 0
 121 0040 00B5     		push	{lr}
 122              		.cfi_def_cfa_offset 4
 123              		.cfi_offset 14, -4
 124 0042 89B0     		sub	sp, sp, #36
 125              		.cfi_def_cfa_offset 40
 126              		.loc 2 100 0
 127 0044 9F4B     		ldr	r3, .L32
 128 0046 0122     		movs	r2, #1
 129 0048 1A60     		str	r2, [r3]
 130              		.loc 2 102 0
 131 004a 03AB     		add	r3, sp, #12
 132 004c 9E48     		ldr	r0, .L32+4
 133 004e 1946     		mov	r1, r3
 134 0050 0022     		movs	r2, #0
 135 0052 FFF7FEFF 		bl	chHeapStatus
 136 0056 0346     		mov	r3, r0
 137 0058 012B     		cmp	r3, #1
 138 005a 0CBF     		ite	eq
 139 005c 0123     		moveq	r3, #1
 140 005e 0023     		movne	r3, #0
 141 0060 DBB2     		uxtb	r3, r3
 142 0062 1846     		mov	r0, r3
 143 0064 9949     		ldr	r1, .L32+8
ARM GAS  /tmp/ccojyTOk.s 			page 4


 144 0066 FFF7FEFF 		bl	_test_assert
 145 006a 0346     		mov	r3, r0
 146 006c 002B     		cmp	r3, #0
 147 006e 00D0     		beq	.L7
 148 0070 D4E1     		b	.L6
 149              	.L7:
 150              		.loc 2 107 0
 151 0072 944B     		ldr	r3, .L32
 152 0074 0222     		movs	r2, #2
 153 0076 1A60     		str	r2, [r3]
 154              		.loc 2 109 0
 155 0078 9348     		ldr	r0, .L32+4
 156 007a 4FF44D61 		mov	r1, #3280
 157 007e FFF7BFFF 		bl	chHeapAlloc
 158 0082 0790     		str	r0, [sp, #28]
 159              		.loc 2 110 0
 160 0084 079B     		ldr	r3, [sp, #28]
 161 0086 002B     		cmp	r3, #0
 162 0088 0CBF     		ite	eq
 163 008a 0123     		moveq	r3, #1
 164 008c 0023     		movne	r3, #0
 165 008e DBB2     		uxtb	r3, r3
 166 0090 1846     		mov	r0, r3
 167 0092 8F49     		ldr	r1, .L32+12
 168 0094 FFF7FEFF 		bl	_test_assert
 169 0098 0346     		mov	r3, r0
 170 009a 002B     		cmp	r3, #0
 171 009c 00D0     		beq	.L9
 172 009e BDE1     		b	.L6
 173              	.L9:
 174              		.loc 2 115 0
 175 00a0 884B     		ldr	r3, .L32
 176 00a2 0322     		movs	r2, #3
 177 00a4 1A60     		str	r2, [r3]
 178              		.loc 2 117 0
 179 00a6 8848     		ldr	r0, .L32+4
 180 00a8 1021     		movs	r1, #16
 181 00aa FFF7A9FF 		bl	chHeapAlloc
 182 00ae 0790     		str	r0, [sp, #28]
 183              		.loc 2 118 0
 184 00b0 079B     		ldr	r3, [sp, #28]
 185 00b2 002B     		cmp	r3, #0
 186 00b4 14BF     		ite	ne
 187 00b6 0123     		movne	r3, #1
 188 00b8 0023     		moveq	r3, #0
 189 00ba DBB2     		uxtb	r3, r3
 190 00bc 1846     		mov	r0, r3
 191 00be 8549     		ldr	r1, .L32+16
 192 00c0 FFF7FEFF 		bl	_test_assert
 193 00c4 0346     		mov	r3, r0
 194 00c6 002B     		cmp	r3, #0
 195 00c8 00D0     		beq	.L10
 196 00ca A7E1     		b	.L6
 197              	.L10:
 198              		.loc 2 119 0
 199 00cc 0798     		ldr	r0, [sp, #28]
 200 00ce FFF7FEFF 		bl	chHeapFree
ARM GAS  /tmp/ccojyTOk.s 			page 5


 201              		.loc 2 124 0
 202 00d2 7C4B     		ldr	r3, .L32
 203 00d4 0422     		movs	r2, #4
 204 00d6 1A60     		str	r2, [r3]
 205              	.LBB2:
 206              		.loc 2 128 0
 207 00d8 02AA     		add	r2, sp, #8
 208 00da 01AB     		add	r3, sp, #4
 209 00dc 7A48     		ldr	r0, .L32+4
 210 00de 1146     		mov	r1, r2
 211 00e0 1A46     		mov	r2, r3
 212 00e2 FFF7FEFF 		bl	chHeapStatus
 213 00e6 0346     		mov	r3, r0
 214 00e8 0493     		str	r3, [sp, #16]
 215              		.loc 2 129 0
 216 00ea 049B     		ldr	r3, [sp, #16]
 217 00ec 012B     		cmp	r3, #1
 218 00ee 0CBF     		ite	eq
 219 00f0 0123     		moveq	r3, #1
 220 00f2 0023     		movne	r3, #0
 221 00f4 DBB2     		uxtb	r3, r3
 222 00f6 1846     		mov	r0, r3
 223 00f8 7749     		ldr	r1, .L32+20
 224 00fa FFF7FEFF 		bl	_test_assert
 225 00fe 0346     		mov	r3, r0
 226 0100 002B     		cmp	r3, #0
 227 0102 00D0     		beq	.L11
 228 0104 8AE1     		b	.L6
 229              	.L11:
 230              		.loc 2 130 0
 231 0106 029B     		ldr	r3, [sp, #8]
 232 0108 0F2B     		cmp	r3, #15
 233 010a 8CBF     		ite	hi
 234 010c 0123     		movhi	r3, #1
 235 010e 0023     		movls	r3, #0
 236 0110 DBB2     		uxtb	r3, r3
 237 0112 1846     		mov	r0, r3
 238 0114 7149     		ldr	r1, .L32+24
 239 0116 FFF7FEFF 		bl	_test_assert
 240 011a 0346     		mov	r3, r0
 241 011c 002B     		cmp	r3, #0
 242 011e 00D0     		beq	.L13
 243 0120 7CE1     		b	.L6
 244              	.L13:
 245              		.loc 2 131 0
 246 0122 029A     		ldr	r2, [sp, #8]
 247 0124 019B     		ldr	r3, [sp, #4]
 248 0126 9A42     		cmp	r2, r3
 249 0128 0CBF     		ite	eq
 250 012a 0123     		moveq	r3, #1
 251 012c 0023     		movne	r3, #0
 252 012e DBB2     		uxtb	r3, r3
 253 0130 1846     		mov	r0, r3
 254 0132 6A49     		ldr	r1, .L32+24
 255 0134 FFF7FEFF 		bl	_test_assert
 256 0138 0346     		mov	r3, r0
 257 013a 002B     		cmp	r3, #0
ARM GAS  /tmp/ccojyTOk.s 			page 6


 258 013c 01D0     		beq	.L14
 259 013e 00BF     		nop
 260 0140 6CE1     		b	.L6
 261              	.L14:
 262              	.LBE2:
 263              		.loc 2 135 0
 264 0142 604B     		ldr	r3, .L32
 265 0144 0522     		movs	r2, #5
 266 0146 1A60     		str	r2, [r3]
 267              		.loc 2 137 0
 268 0148 5F48     		ldr	r0, .L32+4
 269 014a 1021     		movs	r1, #16
 270 014c FFF758FF 		bl	chHeapAlloc
 271 0150 0790     		str	r0, [sp, #28]
 272              		.loc 2 138 0
 273 0152 5D48     		ldr	r0, .L32+4
 274 0154 1021     		movs	r1, #16
 275 0156 FFF753FF 		bl	chHeapAlloc
 276 015a 0690     		str	r0, [sp, #24]
 277              		.loc 2 139 0
 278 015c 5A48     		ldr	r0, .L32+4
 279 015e 1021     		movs	r1, #16
 280 0160 FFF74EFF 		bl	chHeapAlloc
 281 0164 0590     		str	r0, [sp, #20]
 282              		.loc 2 140 0
 283 0166 0798     		ldr	r0, [sp, #28]
 284 0168 FFF7FEFF 		bl	chHeapFree
 285              		.loc 2 141 0
 286 016c 0698     		ldr	r0, [sp, #24]
 287 016e FFF7FEFF 		bl	chHeapFree
 288              		.loc 2 142 0
 289 0172 0598     		ldr	r0, [sp, #20]
 290 0174 FFF7FEFF 		bl	chHeapFree
 291              		.loc 2 143 0
 292 0178 04AB     		add	r3, sp, #16
 293 017a 5348     		ldr	r0, .L32+4
 294 017c 1946     		mov	r1, r3
 295 017e 0022     		movs	r2, #0
 296 0180 FFF7FEFF 		bl	chHeapStatus
 297 0184 0346     		mov	r3, r0
 298 0186 012B     		cmp	r3, #1
 299 0188 0CBF     		ite	eq
 300 018a 0123     		moveq	r3, #1
 301 018c 0023     		movne	r3, #0
 302 018e DBB2     		uxtb	r3, r3
 303 0190 1846     		mov	r0, r3
 304 0192 4E49     		ldr	r1, .L32+8
 305 0194 FFF7FEFF 		bl	_test_assert
 306 0198 0346     		mov	r3, r0
 307 019a 002B     		cmp	r3, #0
 308 019c 00D0     		beq	.L31
 309 019e 3DE1     		b	.L6
 310              	.L31:
 311              		.loc 2 147 0
 312 01a0 484B     		ldr	r3, .L32
 313 01a2 0622     		movs	r2, #6
 314 01a4 1A60     		str	r2, [r3]
ARM GAS  /tmp/ccojyTOk.s 			page 7


 315              		.loc 2 149 0
 316 01a6 4848     		ldr	r0, .L32+4
 317 01a8 1021     		movs	r1, #16
 318 01aa FFF729FF 		bl	chHeapAlloc
 319 01ae 0790     		str	r0, [sp, #28]
 320              		.loc 2 150 0
 321 01b0 4548     		ldr	r0, .L32+4
 322 01b2 1021     		movs	r1, #16
 323 01b4 FFF724FF 		bl	chHeapAlloc
 324 01b8 0690     		str	r0, [sp, #24]
 325              		.loc 2 151 0
 326 01ba 4348     		ldr	r0, .L32+4
 327 01bc 1021     		movs	r1, #16
 328 01be FFF71FFF 		bl	chHeapAlloc
 329 01c2 0590     		str	r0, [sp, #20]
 330              		.loc 2 152 0
 331 01c4 0598     		ldr	r0, [sp, #20]
 332 01c6 FFF7FEFF 		bl	chHeapFree
 333              		.loc 2 153 0
 334 01ca 0698     		ldr	r0, [sp, #24]
 335 01cc FFF7FEFF 		bl	chHeapFree
 336              		.loc 2 154 0
 337 01d0 0798     		ldr	r0, [sp, #28]
 338 01d2 FFF7FEFF 		bl	chHeapFree
 339              		.loc 2 155 0
 340 01d6 04AB     		add	r3, sp, #16
 341 01d8 3B48     		ldr	r0, .L32+4
 342 01da 1946     		mov	r1, r3
 343 01dc 0022     		movs	r2, #0
 344 01de FFF7FEFF 		bl	chHeapStatus
 345 01e2 0346     		mov	r3, r0
 346 01e4 012B     		cmp	r3, #1
 347 01e6 0CBF     		ite	eq
 348 01e8 0123     		moveq	r3, #1
 349 01ea 0023     		movne	r3, #0
 350 01ec DBB2     		uxtb	r3, r3
 351 01ee 1846     		mov	r0, r3
 352 01f0 3649     		ldr	r1, .L32+8
 353 01f2 FFF7FEFF 		bl	_test_assert
 354 01f6 0346     		mov	r3, r0
 355 01f8 002B     		cmp	r3, #0
 356 01fa 00D0     		beq	.L17
 357 01fc 0EE1     		b	.L6
 358              	.L17:
 359              		.loc 2 160 0
 360 01fe 314B     		ldr	r3, .L32
 361 0200 0722     		movs	r2, #7
 362 0202 1A60     		str	r2, [r3]
 363              		.loc 2 162 0
 364 0204 3048     		ldr	r0, .L32+4
 365 0206 1121     		movs	r1, #17
 366 0208 FFF7FAFE 		bl	chHeapAlloc
 367 020c 0790     		str	r0, [sp, #28]
 368              		.loc 2 163 0
 369 020e 2E48     		ldr	r0, .L32+4
 370 0210 1021     		movs	r1, #16
 371 0212 FFF7F5FE 		bl	chHeapAlloc
ARM GAS  /tmp/ccojyTOk.s 			page 8


 372 0216 0690     		str	r0, [sp, #24]
 373              		.loc 2 164 0
 374 0218 0798     		ldr	r0, [sp, #28]
 375 021a FFF7FEFF 		bl	chHeapFree
 376              		.loc 2 165 0
 377 021e 04AB     		add	r3, sp, #16
 378 0220 2948     		ldr	r0, .L32+4
 379 0222 1946     		mov	r1, r3
 380 0224 0022     		movs	r2, #0
 381 0226 FFF7FEFF 		bl	chHeapStatus
 382 022a 0346     		mov	r3, r0
 383 022c 022B     		cmp	r3, #2
 384 022e 0CBF     		ite	eq
 385 0230 0123     		moveq	r3, #1
 386 0232 0023     		movne	r3, #0
 387 0234 DBB2     		uxtb	r3, r3
 388 0236 1846     		mov	r0, r3
 389 0238 2949     		ldr	r1, .L32+28
 390 023a FFF7FEFF 		bl	_test_assert
 391 023e 0346     		mov	r3, r0
 392 0240 002B     		cmp	r3, #0
 393 0242 00D0     		beq	.L18
 394 0244 EAE0     		b	.L6
 395              	.L18:
 396              		.loc 2 166 0
 397 0246 2048     		ldr	r0, .L32+4
 398 0248 1021     		movs	r1, #16
 399 024a FFF7D9FE 		bl	chHeapAlloc
 400 024e 0790     		str	r0, [sp, #28]
 401              		.loc 2 169 0
 402 0250 04AB     		add	r3, sp, #16
 403 0252 1D48     		ldr	r0, .L32+4
 404 0254 1946     		mov	r1, r3
 405 0256 0022     		movs	r2, #0
 406 0258 FFF7FEFF 		bl	chHeapStatus
 407 025c 0346     		mov	r3, r0
 408 025e 012B     		cmp	r3, #1
 409 0260 08D0     		beq	.L19
 410              		.loc 2 169 0 is_stmt 0 discriminator 2
 411 0262 04AB     		add	r3, sp, #16
 412 0264 1848     		ldr	r0, .L32+4
 413 0266 1946     		mov	r1, r3
 414 0268 0022     		movs	r2, #0
 415 026a FFF7FEFF 		bl	chHeapStatus
 416 026e 0346     		mov	r3, r0
 417 0270 022B     		cmp	r3, #2
 418 0272 01D1     		bne	.L20
 419              	.L19:
 420              		.loc 2 169 0 discriminator 3
 421 0274 0123     		movs	r3, #1
 422 0276 00E0     		b	.L21
 423              	.L20:
 424              		.loc 2 169 0 discriminator 4
 425 0278 0023     		movs	r3, #0
 426              	.L21:
 427              		.loc 2 169 0 discriminator 6
 428 027a 03F00103 		and	r3, r3, #1
ARM GAS  /tmp/ccojyTOk.s 			page 9


 429 027e DBB2     		uxtb	r3, r3
 430 0280 1846     		mov	r0, r3
 431 0282 1249     		ldr	r1, .L32+8
 432 0284 FFF7FEFF 		bl	_test_assert
 433 0288 0346     		mov	r3, r0
 434 028a 002B     		cmp	r3, #0
 435 028c 00D0     		beq	.L22
 436              		.loc 2 169 0
 437 028e C5E0     		b	.L6
 438              	.L22:
 439              		.loc 2 171 0 is_stmt 1
 440 0290 0698     		ldr	r0, [sp, #24]
 441 0292 FFF7FEFF 		bl	chHeapFree
 442              		.loc 2 172 0
 443 0296 0798     		ldr	r0, [sp, #28]
 444 0298 FFF7FEFF 		bl	chHeapFree
 445              		.loc 2 173 0
 446 029c 04AB     		add	r3, sp, #16
 447 029e 0A48     		ldr	r0, .L32+4
 448 02a0 1946     		mov	r1, r3
 449 02a2 0022     		movs	r2, #0
 450 02a4 FFF7FEFF 		bl	chHeapStatus
 451 02a8 0346     		mov	r3, r0
 452 02aa 012B     		cmp	r3, #1
 453 02ac 0CBF     		ite	eq
 454 02ae 0123     		moveq	r3, #1
 455 02b0 0023     		movne	r3, #0
 456 02b2 DBB2     		uxtb	r3, r3
 457 02b4 1846     		mov	r0, r3
 458 02b6 0549     		ldr	r1, .L32+8
 459 02b8 FFF7FEFF 		bl	_test_assert
 460 02bc 0346     		mov	r3, r0
 461 02be 002B     		cmp	r3, #0
 462 02c0 10D0     		beq	.L23
 463 02c2 ABE0     		b	.L6
 464              	.L33:
 465              		.align	2
 466              	.L32:
 467 02c4 00000000 		.word	test_step
 468 02c8 00000000 		.word	test_heap
 469 02cc 00000000 		.word	.LC0
 470 02d0 10000000 		.word	.LC1
 471 02d4 28000000 		.word	.LC2
 472 02d8 3C000000 		.word	.LC3
 473 02dc 50000000 		.word	.LC4
 474 02e0 68000000 		.word	.LC5
 475              	.L23:
 476              		.loc 2 178 0
 477 02e4 4F4B     		ldr	r3, .L34
 478 02e6 0822     		movs	r2, #8
 479 02e8 1A60     		str	r2, [r3]
 480              		.loc 2 180 0
 481 02ea 4F48     		ldr	r0, .L34+4
 482 02ec 1021     		movs	r1, #16
 483 02ee FFF787FE 		bl	chHeapAlloc
 484 02f2 0790     		str	r0, [sp, #28]
 485              		.loc 2 181 0
ARM GAS  /tmp/ccojyTOk.s 			page 10


 486 02f4 4C48     		ldr	r0, .L34+4
 487 02f6 1021     		movs	r1, #16
 488 02f8 FFF782FE 		bl	chHeapAlloc
 489 02fc 0690     		str	r0, [sp, #24]
 490              		.loc 2 182 0
 491 02fe 0798     		ldr	r0, [sp, #28]
 492 0300 FFF7FEFF 		bl	chHeapFree
 493              		.loc 2 183 0
 494 0304 04AB     		add	r3, sp, #16
 495 0306 4848     		ldr	r0, .L34+4
 496 0308 1946     		mov	r1, r3
 497 030a 0022     		movs	r2, #0
 498 030c FFF7FEFF 		bl	chHeapStatus
 499 0310 0346     		mov	r3, r0
 500 0312 022B     		cmp	r3, #2
 501 0314 0CBF     		ite	eq
 502 0316 0123     		moveq	r3, #1
 503 0318 0023     		movne	r3, #0
 504 031a DBB2     		uxtb	r3, r3
 505 031c 1846     		mov	r0, r3
 506 031e 4349     		ldr	r1, .L34+8
 507 0320 FFF7FEFF 		bl	_test_assert
 508 0324 0346     		mov	r3, r0
 509 0326 002B     		cmp	r3, #0
 510 0328 00D0     		beq	.L24
 511 032a 77E0     		b	.L6
 512              	.L24:
 513              		.loc 2 184 0
 514 032c 3E48     		ldr	r0, .L34+4
 515 032e 2021     		movs	r1, #32
 516 0330 FFF766FE 		bl	chHeapAlloc
 517 0334 0790     		str	r0, [sp, #28]
 518              		.loc 2 185 0
 519 0336 0798     		ldr	r0, [sp, #28]
 520 0338 FFF7FEFF 		bl	chHeapFree
 521              		.loc 2 186 0
 522 033c 0698     		ldr	r0, [sp, #24]
 523 033e FFF7FEFF 		bl	chHeapFree
 524              		.loc 2 187 0
 525 0342 04AB     		add	r3, sp, #16
 526 0344 3848     		ldr	r0, .L34+4
 527 0346 1946     		mov	r1, r3
 528 0348 0022     		movs	r2, #0
 529 034a FFF7FEFF 		bl	chHeapStatus
 530 034e 0346     		mov	r3, r0
 531 0350 012B     		cmp	r3, #1
 532 0352 0CBF     		ite	eq
 533 0354 0123     		moveq	r3, #1
 534 0356 0023     		movne	r3, #0
 535 0358 DBB2     		uxtb	r3, r3
 536 035a 1846     		mov	r0, r3
 537 035c 3449     		ldr	r1, .L34+12
 538 035e FFF7FEFF 		bl	_test_assert
 539 0362 0346     		mov	r3, r0
 540 0364 002B     		cmp	r3, #0
 541 0366 00D0     		beq	.L25
 542 0368 58E0     		b	.L6
ARM GAS  /tmp/ccojyTOk.s 			page 11


 543              	.L25:
 544              		.loc 2 191 0
 545 036a 2E4B     		ldr	r3, .L34
 546 036c 0922     		movs	r2, #9
 547 036e 1A60     		str	r2, [r3]
 548              		.loc 2 193 0
 549 0370 04AB     		add	r3, sp, #16
 550 0372 2D48     		ldr	r0, .L34+4
 551 0374 1946     		mov	r1, r3
 552 0376 0022     		movs	r2, #0
 553 0378 FFF7FEFF 		bl	chHeapStatus
 554              		.loc 2 194 0
 555 037c 049B     		ldr	r3, [sp, #16]
 556 037e 2A48     		ldr	r0, .L34+4
 557 0380 1946     		mov	r1, r3
 558 0382 FFF73DFE 		bl	chHeapAlloc
 559 0386 0790     		str	r0, [sp, #28]
 560              		.loc 2 195 0
 561 0388 079B     		ldr	r3, [sp, #28]
 562 038a 002B     		cmp	r3, #0
 563 038c 14BF     		ite	ne
 564 038e 0123     		movne	r3, #1
 565 0390 0023     		moveq	r3, #0
 566 0392 DBB2     		uxtb	r3, r3
 567 0394 1846     		mov	r0, r3
 568 0396 2749     		ldr	r1, .L34+16
 569 0398 FFF7FEFF 		bl	_test_assert
 570 039c 0346     		mov	r3, r0
 571 039e 002B     		cmp	r3, #0
 572 03a0 00D0     		beq	.L26
 573 03a2 3BE0     		b	.L6
 574              	.L26:
 575              		.loc 2 196 0
 576 03a4 2048     		ldr	r0, .L34+4
 577 03a6 0021     		movs	r1, #0
 578 03a8 0022     		movs	r2, #0
 579 03aa FFF7FEFF 		bl	chHeapStatus
 580 03ae 0346     		mov	r3, r0
 581 03b0 002B     		cmp	r3, #0
 582 03b2 0CBF     		ite	eq
 583 03b4 0123     		moveq	r3, #1
 584 03b6 0023     		movne	r3, #0
 585 03b8 DBB2     		uxtb	r3, r3
 586 03ba 1846     		mov	r0, r3
 587 03bc 1E49     		ldr	r1, .L34+20
 588 03be FFF7FEFF 		bl	_test_assert
 589 03c2 0346     		mov	r3, r0
 590 03c4 002B     		cmp	r3, #0
 591 03c6 00D0     		beq	.L27
 592 03c8 28E0     		b	.L6
 593              	.L27:
 594              		.loc 2 197 0
 595 03ca 0798     		ldr	r0, [sp, #28]
 596 03cc FFF7FEFF 		bl	chHeapFree
 597              		.loc 2 202 0
 598 03d0 144B     		ldr	r3, .L34
 599 03d2 0A22     		movs	r2, #10
ARM GAS  /tmp/ccojyTOk.s 			page 12


 600 03d4 1A60     		str	r2, [r3]
 601              		.loc 2 204 0
 602 03d6 04AB     		add	r3, sp, #16
 603 03d8 1348     		ldr	r0, .L34+4
 604 03da 1946     		mov	r1, r3
 605 03dc 0022     		movs	r2, #0
 606 03de FFF7FEFF 		bl	chHeapStatus
 607 03e2 0346     		mov	r3, r0
 608 03e4 012B     		cmp	r3, #1
 609 03e6 0CBF     		ite	eq
 610 03e8 0123     		moveq	r3, #1
 611 03ea 0023     		movne	r3, #0
 612 03ec DBB2     		uxtb	r3, r3
 613 03ee 1846     		mov	r0, r3
 614 03f0 0F49     		ldr	r1, .L34+12
 615 03f2 FFF7FEFF 		bl	_test_assert
 616 03f6 0346     		mov	r3, r0
 617 03f8 002B     		cmp	r3, #0
 618 03fa 00D0     		beq	.L28
 619 03fc 0EE0     		b	.L6
 620              	.L28:
 621              		.loc 2 205 0
 622 03fe 049A     		ldr	r2, [sp, #16]
 623 0400 039B     		ldr	r3, [sp, #12]
 624 0402 9A42     		cmp	r2, r3
 625 0404 0CBF     		ite	eq
 626 0406 0123     		moveq	r3, #1
 627 0408 0023     		movne	r3, #0
 628 040a DBB2     		uxtb	r3, r3
 629 040c 1846     		mov	r0, r3
 630 040e 0B49     		ldr	r1, .L34+24
 631 0410 FFF7FEFF 		bl	_test_assert
 632 0414 0346     		mov	r3, r0
 633 0416 002B     		cmp	r3, #0
 634 0418 00D0     		beq	.L6
 635 041a 00BF     		nop
 636              	.L6:
 637              		.loc 2 207 0
 638 041c 09B0     		add	sp, sp, #36
 639              		.cfi_def_cfa_offset 4
 640              		@ sp needed
 641 041e 5DF804FB 		ldr	pc, [sp], #4
 642              	.L35:
 643 0422 00BF     		.align	2
 644              	.L34:
 645 0424 00000000 		.word	test_step
 646 0428 00000000 		.word	test_heap
 647 042c 68000000 		.word	.LC5
 648 0430 00000000 		.word	.LC0
 649 0434 28000000 		.word	.LC2
 650 0438 78000000 		.word	.LC6
 651 043c 84000000 		.word	.LC7
 652              		.cfi_endproc
 653              	.LFE280:
 654              		.size	test_011_001_execute, .-test_011_001_execute
 655              		.section	.rodata
 656 0091 000000   		.align	2
ARM GAS  /tmp/ccojyTOk.s 			page 13


 657              	.LC8:
 658 0094 416C6C6F 		.ascii	"Allocation and fragmentation\000"
 658      63617469 
 658      6F6E2061 
 658      6E642066 
 658      7261676D 
 659 00b1 000000   		.align	2
 660              		.type	test_011_001, %object
 661              		.size	test_011_001, 16
 662              	test_011_001:
 663 00b4 94000000 		.word	.LC8
 664 00b8 00000000 		.word	test_011_001_setup
 665 00bc 00000000 		.word	0
 666 00c0 00000000 		.word	test_011_001_execute
 667              		.text
 668              		.align	2
 669              		.p2align 4,,15
 670              		.thumb
 671              		.thumb_func
 672              		.type	test_011_002_execute, %function
 673              	test_011_002_execute:
 674              	.LFB281:
 675              		.loc 2 230 0
 676              		.cfi_startproc
 677              		@ args = 0, pretend = 0, frame = 16
 678              		@ frame_needed = 0, uses_anonymous_args = 0
 679 0440 00B5     		push	{lr}
 680              		.cfi_def_cfa_offset 4
 681              		.cfi_offset 14, -4
 682 0442 85B0     		sub	sp, sp, #20
 683              		.cfi_def_cfa_offset 24
 684              		.loc 2 236 0
 685 0444 1C4B     		ldr	r3, .L41
 686 0446 0122     		movs	r2, #1
 687 0448 1A60     		str	r2, [r3]
 688              		.loc 2 238 0
 689 044a 02AA     		add	r2, sp, #8
 690 044c 01AB     		add	r3, sp, #4
 691 044e 0020     		movs	r0, #0
 692 0450 1146     		mov	r1, r2
 693 0452 1A46     		mov	r2, r3
 694 0454 FFF7FEFF 		bl	chHeapStatus
 695              		.loc 2 239 0
 696 0458 1848     		ldr	r0, .L41+4
 697 045a 1021     		movs	r1, #16
 698 045c FFF7D0FD 		bl	chHeapAlloc
 699 0460 0390     		str	r0, [sp, #12]
 700              		.loc 2 240 0
 701 0462 039B     		ldr	r3, [sp, #12]
 702 0464 002B     		cmp	r3, #0
 703 0466 14BF     		ite	ne
 704 0468 0123     		movne	r3, #1
 705 046a 0023     		moveq	r3, #0
 706 046c DBB2     		uxtb	r3, r3
 707 046e 1846     		mov	r0, r3
 708 0470 1349     		ldr	r1, .L41+8
 709 0472 FFF7FEFF 		bl	_test_assert
ARM GAS  /tmp/ccojyTOk.s 			page 14


 710 0476 0346     		mov	r3, r0
 711 0478 002B     		cmp	r3, #0
 712 047a 00D0     		beq	.L37
 713 047c 19E0     		b	.L36
 714              	.L37:
 715              		.loc 2 241 0
 716 047e 0398     		ldr	r0, [sp, #12]
 717 0480 FFF7FEFF 		bl	chHeapFree
 718              		.loc 2 245 0
 719 0484 0C4B     		ldr	r3, .L41
 720 0486 0222     		movs	r2, #2
 721 0488 1A60     		str	r2, [r3]
 722              		.loc 2 247 0
 723 048a 0020     		movs	r0, #0
 724 048c 6FF0FF01 		mvn	r1, #255
 725 0490 FFF7B6FD 		bl	chHeapAlloc
 726 0494 0390     		str	r0, [sp, #12]
 727              		.loc 2 248 0
 728 0496 039B     		ldr	r3, [sp, #12]
 729 0498 002B     		cmp	r3, #0
 730 049a 0CBF     		ite	eq
 731 049c 0123     		moveq	r3, #1
 732 049e 0023     		movne	r3, #0
 733 04a0 DBB2     		uxtb	r3, r3
 734 04a2 1846     		mov	r0, r3
 735 04a4 0749     		ldr	r1, .L41+12
 736 04a6 FFF7FEFF 		bl	_test_assert
 737 04aa 0346     		mov	r3, r0
 738 04ac 002B     		cmp	r3, #0
 739 04ae 00D0     		beq	.L36
 740 04b0 00BF     		nop
 741              	.L36:
 742              		.loc 2 250 0
 743 04b2 05B0     		add	sp, sp, #20
 744              		.cfi_def_cfa_offset 4
 745              		@ sp needed
 746 04b4 5DF804FB 		ldr	pc, [sp], #4
 747              	.L42:
 748              		.align	2
 749              	.L41:
 750 04b8 00000000 		.word	test_step
 751 04bc 00000000 		.word	test_heap
 752 04c0 28000000 		.word	.LC2
 753 04c4 10000000 		.word	.LC1
 754              		.cfi_endproc
 755              	.LFE281:
 756              		.size	test_011_002_execute, .-test_011_002_execute
 757              		.section	.rodata
 758              		.align	2
 759              	.LC9:
 760 00c4 44656661 		.ascii	"Default Heap\000"
 760      756C7420 
 760      48656170 
 760      00
 761 00d1 000000   		.align	2
 762              		.type	test_011_002, %object
 763              		.size	test_011_002, 16
ARM GAS  /tmp/ccojyTOk.s 			page 15


 764              	test_011_002:
 765 00d4 C4000000 		.word	.LC9
 766 00d8 00000000 		.word	0
 767 00dc 00000000 		.word	0
 768 00e0 00000000 		.word	test_011_002_execute
 769              		.global	test_sequence_011
 770              		.align	2
 771              		.type	test_sequence_011, %object
 772              		.size	test_sequence_011, 12
 773              	test_sequence_011:
 774 00e4 B4000000 		.word	test_011_001
 775 00e8 D4000000 		.word	test_011_002
 776 00ec 00000000 		.word	0
 777              		.text
 778              	.Letext0:
 779              		.file 3 "/usr/lib/gcc/arm-none-eabi/4.9.3/include/stddef.h"
 780              		.file 4 "/usr/include/newlib/machine/_default_types.h"
 781              		.file 5 "/usr/include/newlib/sys/_stdint.h"
 782              		.file 6 "../../../os/common/ports/ARMCMx/compilers/GCC/chtypes.h"
 783              		.file 7 "../../../os/rt/include/chsystypes.h"
 784              		.file 8 "../../../os/rt/include/chschd.h"
 785              		.file 9 "../../../os/common/ports/ARMCMx/chcore.h"
 786              		.file 10 "../../../os/common/ports/ARMCMx/chcore_v7m.h"
 787              		.file 11 "../../../os/rt/include/chtm.h"
 788              		.file 12 "../../../os/rt/include/chsem.h"
 789              		.file 13 "../../../os/rt/include/chmtx.h"
 790              		.file 14 "../../../os/common/oslib/include/chmemcore.h"
 791              		.file 15 "../../../test/lib/ch_test.h"
 792              		.file 16 "../../../os/common/ext/CMSIS/include/core_cm4.h"
 793              		.file 17 "../../../test/rt/source/test/test_root.h"