ARM GAS  /tmp/ccUSUo1u.s 			page 1


   1              		.syntax unified
   2              		.cpu cortex-m4
   3              		.fpu softvfp
   4              		.eabi_attribute 20, 1
   5              		.eabi_attribute 21, 1
   6              		.eabi_attribute 23, 3
   7              		.eabi_attribute 24, 1
   8              		.eabi_attribute 25, 1
   9              		.eabi_attribute 26, 1
  10              		.eabi_attribute 30, 6
  11              		.eabi_attribute 34, 1
  12              		.eabi_attribute 18, 4
  13              		.thumb
  14              		.file	"test_sequence_006.c"
  15              		.text
  16              	.Ltext0:
  17              		.cfi_sections	.debug_frame
  18              		.align	2
  19              		.p2align 4,,15
  20              		.thumb
  21              		.thumb_func
  22              		.type	port_lock, %function
  23              	port_lock:
  24              	.LFB127:
  25              		.file 1 "../../../os/common/ports/ARMCMx/chcore_v7m.h"
  26              		.loc 1 594 0
  27              		.cfi_startproc
  28              		@ args = 0, pretend = 0, frame = 8
  29              		@ frame_needed = 0, uses_anonymous_args = 0
  30              		@ link register save eliminated.
  31 0000 82B0     		sub	sp, sp, #8
  32              		.cfi_def_cfa_offset 8
  33 0002 2023     		movs	r3, #32
  34 0004 0193     		str	r3, [sp, #4]
  35              	.LBB6:
  36              	.LBB7:
  37              		.file 2 "../../../os/common/ext/CMSIS/include/cmsis_gcc.h"
  38              		.loc 2 264 0
  39 0006 019B     		ldr	r3, [sp, #4]
  40              	@ 264 "../../../os/common/ext/CMSIS/include/cmsis_gcc.h" 1
  41 0008 83F31188 		MSR basepri, r3
  42              	@ 0 "" 2
  43              		.thumb
  44              	.LBE7:
  45              	.LBE6:
  46              		.loc 1 611 0
  47 000c 02B0     		add	sp, sp, #8
  48              		.cfi_def_cfa_offset 0
  49              		@ sp needed
  50 000e 7047     		bx	lr
  51              		.cfi_endproc
  52              	.LFE127:
  53              		.size	port_lock, .-port_lock
  54              		.align	2
  55              		.p2align 4,,15
  56              		.thumb
  57              		.thumb_func
ARM GAS  /tmp/ccUSUo1u.s 			page 2


  58              		.type	port_unlock, %function
  59              	port_unlock:
  60              	.LFB128:
  61              		.loc 1 618 0
  62              		.cfi_startproc
  63              		@ args = 0, pretend = 0, frame = 8
  64              		@ frame_needed = 0, uses_anonymous_args = 0
  65              		@ link register save eliminated.
  66 0010 82B0     		sub	sp, sp, #8
  67              		.cfi_def_cfa_offset 8
  68 0012 0023     		movs	r3, #0
  69 0014 0193     		str	r3, [sp, #4]
  70              	.LBB8:
  71              	.LBB9:
  72              		.loc 2 264 0
  73 0016 019B     		ldr	r3, [sp, #4]
  74              	@ 264 "../../../os/common/ext/CMSIS/include/cmsis_gcc.h" 1
  75 0018 83F31188 		MSR basepri, r3
  76              	@ 0 "" 2
  77              		.thumb
  78              	.LBE9:
  79              	.LBE8:
  80              		.loc 1 625 0
  81 001c 02B0     		add	sp, sp, #8
  82              		.cfi_def_cfa_offset 0
  83              		@ sp needed
  84 001e 7047     		bx	lr
  85              		.cfi_endproc
  86              	.LFE128:
  87              		.size	port_unlock, .-port_unlock
  88              		.align	2
  89              		.p2align 4,,15
  90              		.thumb
  91              		.thumb_func
  92              		.type	queue_isempty, %function
  93              	queue_isempty:
  94              	.LFB151:
  95              		.file 3 "../../../os/rt/include/chschd.h"
  96              		.loc 3 562 0
  97              		.cfi_startproc
  98              		@ args = 0, pretend = 0, frame = 8
  99              		@ frame_needed = 0, uses_anonymous_args = 0
 100              		@ link register save eliminated.
 101 0020 82B0     		sub	sp, sp, #8
 102              		.cfi_def_cfa_offset 8
 103 0022 0190     		str	r0, [sp, #4]
 104              		.loc 3 564 0
 105 0024 019B     		ldr	r3, [sp, #4]
 106 0026 1A68     		ldr	r2, [r3]
 107 0028 019B     		ldr	r3, [sp, #4]
 108 002a 9A42     		cmp	r2, r3
 109 002c 0CBF     		ite	eq
 110 002e 0123     		moveq	r3, #1
 111 0030 0023     		movne	r3, #0
 112 0032 DBB2     		uxtb	r3, r3
 113              		.loc 3 565 0
 114 0034 1846     		mov	r0, r3
ARM GAS  /tmp/ccUSUo1u.s 			page 3


 115 0036 02B0     		add	sp, sp, #8
 116              		.cfi_def_cfa_offset 0
 117              		@ sp needed
 118 0038 7047     		bx	lr
 119              		.cfi_endproc
 120              	.LFE151:
 121              		.size	queue_isempty, .-queue_isempty
 122 003a 00BF     		.align	2
 123 003c AFF30080 		.p2align 4,,15
 124              		.thumb
 125              		.thumb_func
 126              		.type	chSysLock, %function
 127              	chSysLock:
 128              	.LFB167:
 129              		.file 4 "../../../os/rt/include/chsys.h"
 130              		.loc 4 374 0
 131              		.cfi_startproc
 132              		@ args = 0, pretend = 0, frame = 0
 133              		@ frame_needed = 0, uses_anonymous_args = 0
 134 0040 08B5     		push	{r3, lr}
 135              		.cfi_def_cfa_offset 8
 136              		.cfi_offset 3, -8
 137              		.cfi_offset 14, -4
 138              		.loc 4 376 0
 139 0042 FFF7DDFF 		bl	port_lock
 140              		.loc 4 379 0
 141 0046 08BD     		pop	{r3, pc}
 142              		.cfi_endproc
 143              	.LFE167:
 144              		.size	chSysLock, .-chSysLock
 145              		.align	2
 146 0048 AFF30080 		.p2align 4,,15
 146      AFF30080 
 147              		.thumb
 148              		.thumb_func
 149              		.type	chSysUnlock, %function
 150              	chSysUnlock:
 151              	.LFB168:
 152              		.loc 4 386 0
 153              		.cfi_startproc
 154              		@ args = 0, pretend = 0, frame = 0
 155              		@ frame_needed = 0, uses_anonymous_args = 0
 156 0050 08B5     		push	{r3, lr}
 157              		.cfi_def_cfa_offset 8
 158              		.cfi_offset 3, -8
 159              		.cfi_offset 14, -4
 160              		.loc 4 399 0
 161 0052 FFF7DDFF 		bl	port_unlock
 162              		.loc 4 400 0
 163 0056 08BD     		pop	{r3, pc}
 164              		.cfi_endproc
 165              	.LFE168:
 166              		.size	chSysUnlock, .-chSysUnlock
 167              		.align	2
 168 0058 AFF30080 		.p2align 4,,15
 168      AFF30080 
 169              		.thumb
ARM GAS  /tmp/ccUSUo1u.s 			page 4


 170              		.thumb_func
 171              		.type	chThdGetSelfX, %function
 172              	chThdGetSelfX:
 173              	.LFB195:
 174              		.file 5 "../../../os/rt/include/chthreads.h"
 175              		.loc 5 284 0
 176              		.cfi_startproc
 177              		@ args = 0, pretend = 0, frame = 0
 178              		@ frame_needed = 0, uses_anonymous_args = 0
 179              		@ link register save eliminated.
 180              		.loc 5 286 0
 181 0060 014B     		ldr	r3, .L9
 182 0062 9B69     		ldr	r3, [r3, #24]
 183              		.loc 5 287 0
 184 0064 1846     		mov	r0, r3
 185 0066 7047     		bx	lr
 186              	.L10:
 187              		.align	2
 188              	.L9:
 189 0068 00000000 		.word	ch
 190              		.cfi_endproc
 191              	.LFE195:
 192              		.size	chThdGetSelfX, .-chThdGetSelfX
 193              		.align	2
 194 006c AFF30080 		.p2align 4,,15
 195              		.thumb
 196              		.thumb_func
 197              		.type	chThdGetPriorityX, %function
 198              	chThdGetPriorityX:
 199              	.LFB196:
 200              		.loc 5 297 0
 201              		.cfi_startproc
 202              		@ args = 0, pretend = 0, frame = 0
 203              		@ frame_needed = 0, uses_anonymous_args = 0
 204 0070 08B5     		push	{r3, lr}
 205              		.cfi_def_cfa_offset 8
 206              		.cfi_offset 3, -8
 207              		.cfi_offset 14, -4
 208              		.loc 5 299 0
 209 0072 FFF7F5FF 		bl	chThdGetSelfX
 210 0076 0346     		mov	r3, r0
 211 0078 9B68     		ldr	r3, [r3, #8]
 212              		.loc 5 300 0
 213 007a 1846     		mov	r0, r3
 214 007c 08BD     		pop	{r3, pc}
 215              		.cfi_endproc
 216              	.LFE196:
 217              		.size	chThdGetPriorityX, .-chThdGetPriorityX
 218              		.data
 219              		.align	2
 220              		.type	m1, %object
 221              		.size	m1, 16
 222              	m1:
 223 0000 00000000 		.word	m1
 224 0004 00000000 		.word	m1
 225 0008 00000000 		.word	0
 226 000c 00000000 		.word	0
ARM GAS  /tmp/ccUSUo1u.s 			page 5


 227              		.align	2
 228              		.type	m2, %object
 229              		.size	m2, 16
 230              	m2:
 231 0010 10000000 		.word	m2
 232 0014 10000000 		.word	m2
 233 0018 00000000 		.word	0
 234 001c 00000000 		.word	0
 235              		.align	2
 236              		.type	c1, %object
 237              		.size	c1, 8
 238              	c1:
 239 0020 20000000 		.word	c1
 240 0024 20000000 		.word	c1
 241              		.text
 242 007e 00BF     		.align	2
 243              		.p2align 4,,15
 244              		.thumb
 245              		.thumb_func
 246              		.type	thread1, %function
 247              	thread1:
 248              	.LFB279:
 249              		.file 6 "../../../test/rt/source/test/test_sequence_006.c"
 250              		.loc 6 86 0
 251              		.cfi_startproc
 252              		@ args = 0, pretend = 0, frame = 8
 253              		@ frame_needed = 0, uses_anonymous_args = 0
 254 0080 00B5     		push	{lr}
 255              		.cfi_def_cfa_offset 4
 256              		.cfi_offset 14, -4
 257 0082 83B0     		sub	sp, sp, #12
 258              		.cfi_def_cfa_offset 16
 259 0084 0190     		str	r0, [sp, #4]
 260              		.loc 6 88 0
 261 0086 0748     		ldr	r0, .L14
 262 0088 FFF7FEFF 		bl	chMtxLock
 263              		.loc 6 89 0
 264 008c 019B     		ldr	r3, [sp, #4]
 265 008e 1B78     		ldrb	r3, [r3]	@ zero_extendqisi2
 266 0090 1846     		mov	r0, r3
 267 0092 FFF7FEFF 		bl	test_emit_token
 268              		.loc 6 90 0
 269 0096 0348     		ldr	r0, .L14
 270 0098 FFF7FEFF 		bl	chMtxUnlock
 271              		.loc 6 91 0
 272 009c 03B0     		add	sp, sp, #12
 273              		.cfi_def_cfa_offset 4
 274              		@ sp needed
 275 009e 5DF804FB 		ldr	pc, [sp], #4
 276              	.L15:
 277 00a2 00BF     		.align	2
 278              	.L14:
 279 00a4 00000000 		.word	m1
 280              		.cfi_endproc
 281              	.LFE279:
 282              		.size	thread1, .-thread1
 283              		.align	2
ARM GAS  /tmp/ccUSUo1u.s 			page 6


 284 00a8 AFF30080 		.p2align 4,,15
 284      AFF30080 
 285              		.thumb
 286              		.thumb_func
 287              		.type	thread4A, %function
 288              	thread4A:
 289              	.LFB280:
 290              		.loc 6 182 0
 291              		.cfi_startproc
 292              		@ args = 0, pretend = 0, frame = 8
 293              		@ frame_needed = 0, uses_anonymous_args = 0
 294 00b0 00B5     		push	{lr}
 295              		.cfi_def_cfa_offset 4
 296              		.cfi_offset 14, -4
 297 00b2 83B0     		sub	sp, sp, #12
 298              		.cfi_def_cfa_offset 16
 299 00b4 0190     		str	r0, [sp, #4]
 300              		.loc 6 185 0
 301 00b6 4FF4FA70 		mov	r0, #500
 302 00ba FFF7FEFF 		bl	chThdSleep
 303              		.loc 6 186 0
 304 00be 0448     		ldr	r0, .L17
 305 00c0 FFF7FEFF 		bl	chMtxLock
 306              		.loc 6 187 0
 307 00c4 0248     		ldr	r0, .L17
 308 00c6 FFF7FEFF 		bl	chMtxUnlock
 309              		.loc 6 188 0
 310 00ca 03B0     		add	sp, sp, #12
 311              		.cfi_def_cfa_offset 4
 312              		@ sp needed
 313 00cc 5DF804FB 		ldr	pc, [sp], #4
 314              	.L18:
 315              		.align	2
 316              	.L17:
 317 00d0 00000000 		.word	m1
 318              		.cfi_endproc
 319              	.LFE280:
 320              		.size	thread4A, .-thread4A
 321              		.align	2
 322 00d4 AFF30080 		.p2align 4,,15
 322      AFF30080 
 322      AFF30080 
 323              		.thumb
 324              		.thumb_func
 325              		.type	thread4B, %function
 326              	thread4B:
 327              	.LFB281:
 328              		.loc 6 190 0
 329              		.cfi_startproc
 330              		@ args = 0, pretend = 0, frame = 8
 331              		@ frame_needed = 0, uses_anonymous_args = 0
 332 00e0 00B5     		push	{lr}
 333              		.cfi_def_cfa_offset 4
 334              		.cfi_offset 14, -4
 335 00e2 83B0     		sub	sp, sp, #12
 336              		.cfi_def_cfa_offset 16
 337 00e4 0190     		str	r0, [sp, #4]
ARM GAS  /tmp/ccUSUo1u.s 			page 7


 338              		.loc 6 193 0
 339 00e6 40F2DC50 		movw	r0, #1500
 340 00ea FFF7FEFF 		bl	chThdSleep
 341              		.loc 6 194 0
 342 00ee FFF7A7FF 		bl	chSysLock
 343              		.loc 6 195 0
 344 00f2 0648     		ldr	r0, .L20
 345 00f4 FFF7FEFF 		bl	chMtxLockS
 346              		.loc 6 196 0
 347 00f8 0448     		ldr	r0, .L20
 348 00fa FFF7FEFF 		bl	chMtxUnlockS
 349              		.loc 6 197 0
 350 00fe FFF7FEFF 		bl	chSchRescheduleS
 351              		.loc 6 198 0
 352 0102 FFF7A5FF 		bl	chSysUnlock
 353              		.loc 6 199 0
 354 0106 03B0     		add	sp, sp, #12
 355              		.cfi_def_cfa_offset 4
 356              		@ sp needed
 357 0108 5DF804FB 		ldr	pc, [sp], #4
 358              	.L21:
 359              		.align	2
 360              	.L20:
 361 010c 10000000 		.word	m2
 362              		.cfi_endproc
 363              	.LFE281:
 364              		.size	thread4B, .-thread4B
 365              		.align	2
 366              		.p2align 4,,15
 367              		.thumb
 368              		.thumb_func
 369              		.type	thread6, %function
 370              	thread6:
 371              	.LFB282:
 372              		.loc 6 202 0
 373              		.cfi_startproc
 374              		@ args = 0, pretend = 0, frame = 8
 375              		@ frame_needed = 0, uses_anonymous_args = 0
 376 0110 00B5     		push	{lr}
 377              		.cfi_def_cfa_offset 4
 378              		.cfi_offset 14, -4
 379 0112 83B0     		sub	sp, sp, #12
 380              		.cfi_def_cfa_offset 16
 381 0114 0190     		str	r0, [sp, #4]
 382              		.loc 6 204 0
 383 0116 0848     		ldr	r0, .L23
 384 0118 FFF7FEFF 		bl	chMtxLock
 385              		.loc 6 205 0
 386 011c 0748     		ldr	r0, .L23+4
 387 011e FFF7FEFF 		bl	chCondWait
 388              		.loc 6 206 0
 389 0122 019B     		ldr	r3, [sp, #4]
 390 0124 1B78     		ldrb	r3, [r3]	@ zero_extendqisi2
 391 0126 1846     		mov	r0, r3
 392 0128 FFF7FEFF 		bl	test_emit_token
 393              		.loc 6 207 0
 394 012c 0248     		ldr	r0, .L23
ARM GAS  /tmp/ccUSUo1u.s 			page 8


 395 012e FFF7FEFF 		bl	chMtxUnlock
 396              		.loc 6 208 0
 397 0132 03B0     		add	sp, sp, #12
 398              		.cfi_def_cfa_offset 4
 399              		@ sp needed
 400 0134 5DF804FB 		ldr	pc, [sp], #4
 401              	.L24:
 402              		.align	2
 403              	.L23:
 404 0138 00000000 		.word	m1
 405 013c 20000000 		.word	c1
 406              		.cfi_endproc
 407              	.LFE282:
 408              		.size	thread6, .-thread6
 409              		.align	2
 410              		.p2align 4,,15
 411              		.thumb
 412              		.thumb_func
 413              		.type	thread8, %function
 414              	thread8:
 415              	.LFB283:
 416              		.loc 6 210 0
 417              		.cfi_startproc
 418              		@ args = 0, pretend = 0, frame = 8
 419              		@ frame_needed = 0, uses_anonymous_args = 0
 420 0140 00B5     		push	{lr}
 421              		.cfi_def_cfa_offset 4
 422              		.cfi_offset 14, -4
 423 0142 83B0     		sub	sp, sp, #12
 424              		.cfi_def_cfa_offset 16
 425 0144 0190     		str	r0, [sp, #4]
 426              		.loc 6 212 0
 427 0146 0C48     		ldr	r0, .L26
 428 0148 FFF7FEFF 		bl	chMtxLock
 429              		.loc 6 213 0
 430 014c 0B48     		ldr	r0, .L26+4
 431 014e FFF7FEFF 		bl	chMtxLock
 432              		.loc 6 215 0
 433 0152 0B48     		ldr	r0, .L26+8
 434 0154 4FF0FF31 		mov	r1, #-1
 435 0158 FFF7FEFF 		bl	chCondWaitTimeout
 436              		.loc 6 219 0
 437 015c 019B     		ldr	r3, [sp, #4]
 438 015e 1B78     		ldrb	r3, [r3]	@ zero_extendqisi2
 439 0160 1846     		mov	r0, r3
 440 0162 FFF7FEFF 		bl	test_emit_token
 441              		.loc 6 220 0
 442 0166 0548     		ldr	r0, .L26+4
 443 0168 FFF7FEFF 		bl	chMtxUnlock
 444              		.loc 6 221 0
 445 016c 0248     		ldr	r0, .L26
 446 016e FFF7FEFF 		bl	chMtxUnlock
 447              		.loc 6 222 0
 448 0172 03B0     		add	sp, sp, #12
 449              		.cfi_def_cfa_offset 4
 450              		@ sp needed
 451 0174 5DF804FB 		ldr	pc, [sp], #4
ARM GAS  /tmp/ccUSUo1u.s 			page 9


 452              	.L27:
 453              		.align	2
 454              	.L26:
 455 0178 10000000 		.word	m2
 456 017c 00000000 		.word	m1
 457 0180 20000000 		.word	c1
 458              		.cfi_endproc
 459              	.LFE283:
 460              		.size	thread8, .-thread8
 461              		.align	2
 462 0184 AFF30080 		.p2align 4,,15
 462      AFF30080 
 462      AFF30080 
 463              		.thumb
 464              		.thumb_func
 465              		.type	thread9, %function
 466              	thread9:
 467              	.LFB284:
 468              		.loc 6 224 0
 469              		.cfi_startproc
 470              		@ args = 0, pretend = 0, frame = 8
 471              		@ frame_needed = 0, uses_anonymous_args = 0
 472 0190 00B5     		push	{lr}
 473              		.cfi_def_cfa_offset 4
 474              		.cfi_offset 14, -4
 475 0192 83B0     		sub	sp, sp, #12
 476              		.cfi_def_cfa_offset 16
 477 0194 0190     		str	r0, [sp, #4]
 478              		.loc 6 226 0
 479 0196 0748     		ldr	r0, .L29
 480 0198 FFF7FEFF 		bl	chMtxLock
 481              		.loc 6 227 0
 482 019c 019B     		ldr	r3, [sp, #4]
 483 019e 1B78     		ldrb	r3, [r3]	@ zero_extendqisi2
 484 01a0 1846     		mov	r0, r3
 485 01a2 FFF7FEFF 		bl	test_emit_token
 486              		.loc 6 228 0
 487 01a6 0348     		ldr	r0, .L29
 488 01a8 FFF7FEFF 		bl	chMtxUnlock
 489              		.loc 6 229 0
 490 01ac 03B0     		add	sp, sp, #12
 491              		.cfi_def_cfa_offset 4
 492              		@ sp needed
 493 01ae 5DF804FB 		ldr	pc, [sp], #4
 494              	.L30:
 495 01b2 00BF     		.align	2
 496              	.L29:
 497 01b4 10000000 		.word	m2
 498              		.cfi_endproc
 499              	.LFE284:
 500              		.size	thread9, .-thread9
 501              		.align	2
 502 01b8 AFF30080 		.p2align 4,,15
 502      AFF30080 
 503              		.thumb
 504              		.thumb_func
 505              		.type	test_006_001_setup, %function
ARM GAS  /tmp/ccUSUo1u.s 			page 10


 506              	test_006_001_setup:
 507              	.LFB285:
 508              		.loc 6 256 0
 509              		.cfi_startproc
 510              		@ args = 0, pretend = 0, frame = 0
 511              		@ frame_needed = 0, uses_anonymous_args = 0
 512 01c0 08B5     		push	{r3, lr}
 513              		.cfi_def_cfa_offset 8
 514              		.cfi_offset 3, -8
 515              		.cfi_offset 14, -4
 516              		.loc 6 257 0
 517 01c2 0248     		ldr	r0, .L32
 518 01c4 FFF7FEFF 		bl	chMtxObjectInit
 519              		.loc 6 258 0
 520 01c8 08BD     		pop	{r3, pc}
 521              	.L33:
 522 01ca 00BF     		.align	2
 523              	.L32:
 524 01cc 00000000 		.word	m1
 525              		.cfi_endproc
 526              	.LFE285:
 527              		.size	test_006_001_setup, .-test_006_001_setup
 528              		.section	.rodata
 529              		.align	2
 530              	.LC0:
 531 0000 4500     		.ascii	"E\000"
 532 0002 0000     		.align	2
 533              	.LC1:
 534 0004 4400     		.ascii	"D\000"
 535 0006 0000     		.align	2
 536              	.LC2:
 537 0008 4300     		.ascii	"C\000"
 538 000a 0000     		.align	2
 539              	.LC3:
 540 000c 4200     		.ascii	"B\000"
 541 000e 0000     		.align	2
 542              	.LC4:
 543 0010 4100     		.ascii	"A\000"
 544 0012 0000     		.align	2
 545              	.LC5:
 546 0014 77726F6E 		.ascii	"wrong priority level\000"
 546      67207072 
 546      696F7269 
 546      7479206C 
 546      6576656C 
 547 0029 000000   		.align	2
 548              	.LC6:
 549 002c 41424344 		.ascii	"ABCDE\000"
 549      4500
 550 0032 0000     		.align	2
 551              	.LC7:
 552 0034 696E7661 		.ascii	"invalid sequence\000"
 552      6C696420 
 552      73657175 
 552      656E6365 
 552      00
 553              		.text
ARM GAS  /tmp/ccUSUo1u.s 			page 11


 554              		.align	2
 555              		.p2align 4,,15
 556              		.thumb
 557              		.thumb_func
 558              		.type	test_006_001_execute, %function
 559              	test_006_001_execute:
 560              	.LFB286:
 561              		.loc 6 260 0
 562              		.cfi_startproc
 563              		@ args = 0, pretend = 0, frame = 8
 564              		@ frame_needed = 0, uses_anonymous_args = 0
 565 01d0 00B5     		push	{lr}
 566              		.cfi_def_cfa_offset 4
 567              		.cfi_offset 14, -4
 568 01d2 85B0     		sub	sp, sp, #20
 569              		.cfi_def_cfa_offset 24
 570              		.loc 6 264 0
 571 01d4 3E4B     		ldr	r3, .L37
 572 01d6 0122     		movs	r2, #1
 573 01d8 1A60     		str	r2, [r3]
 574              		.loc 6 266 0
 575 01da FFF749FF 		bl	chThdGetPriorityX
 576 01de 0390     		str	r0, [sp, #12]
 577              		.loc 6 270 0
 578 01e0 3B4B     		ldr	r3, .L37
 579 01e2 0222     		movs	r2, #2
 580 01e4 1A60     		str	r2, [r3]
 581              		.loc 6 272 0
 582 01e6 3B48     		ldr	r0, .L37+4
 583 01e8 FFF7FEFF 		bl	chMtxLock
 584              		.loc 6 278 0
 585 01ec 384B     		ldr	r3, .L37
 586 01ee 0322     		movs	r2, #3
 587 01f0 1A60     		str	r2, [r3]
 588              		.loc 6 280 0
 589 01f2 394B     		ldr	r3, .L37+8
 590 01f4 1968     		ldr	r1, [r3]
 591 01f6 039B     		ldr	r3, [sp, #12]
 592 01f8 5A1C     		adds	r2, r3, #1
 593 01fa 384B     		ldr	r3, .L37+12
 594 01fc 0093     		str	r3, [sp]
 595 01fe 0846     		mov	r0, r1
 596 0200 4FF4A471 		mov	r1, #328
 597 0204 364B     		ldr	r3, .L37+16
 598 0206 FFF7FEFF 		bl	chThdCreateStatic
 599 020a 0246     		mov	r2, r0
 600 020c 354B     		ldr	r3, .L37+20
 601 020e 1A60     		str	r2, [r3]
 602              		.loc 6 281 0
 603 0210 314B     		ldr	r3, .L37+8
 604 0212 5968     		ldr	r1, [r3, #4]
 605 0214 039B     		ldr	r3, [sp, #12]
 606 0216 9A1C     		adds	r2, r3, #2
 607 0218 334B     		ldr	r3, .L37+24
 608 021a 0093     		str	r3, [sp]
 609 021c 0846     		mov	r0, r1
 610 021e 4FF4A471 		mov	r1, #328
ARM GAS  /tmp/ccUSUo1u.s 			page 12


 611 0222 2F4B     		ldr	r3, .L37+16
 612 0224 FFF7FEFF 		bl	chThdCreateStatic
 613 0228 0246     		mov	r2, r0
 614 022a 2E4B     		ldr	r3, .L37+20
 615 022c 5A60     		str	r2, [r3, #4]
 616              		.loc 6 282 0
 617 022e 2A4B     		ldr	r3, .L37+8
 618 0230 9968     		ldr	r1, [r3, #8]
 619 0232 039B     		ldr	r3, [sp, #12]
 620 0234 DA1C     		adds	r2, r3, #3
 621 0236 2D4B     		ldr	r3, .L37+28
 622 0238 0093     		str	r3, [sp]
 623 023a 0846     		mov	r0, r1
 624 023c 4FF4A471 		mov	r1, #328
 625 0240 274B     		ldr	r3, .L37+16
 626 0242 FFF7FEFF 		bl	chThdCreateStatic
 627 0246 0246     		mov	r2, r0
 628 0248 264B     		ldr	r3, .L37+20
 629 024a 9A60     		str	r2, [r3, #8]
 630              		.loc 6 283 0
 631 024c 224B     		ldr	r3, .L37+8
 632 024e D968     		ldr	r1, [r3, #12]
 633 0250 039B     		ldr	r3, [sp, #12]
 634 0252 1A1D     		adds	r2, r3, #4
 635 0254 264B     		ldr	r3, .L37+32
 636 0256 0093     		str	r3, [sp]
 637 0258 0846     		mov	r0, r1
 638 025a 4FF4A471 		mov	r1, #328
 639 025e 204B     		ldr	r3, .L37+16
 640 0260 FFF7FEFF 		bl	chThdCreateStatic
 641 0264 0246     		mov	r2, r0
 642 0266 1F4B     		ldr	r3, .L37+20
 643 0268 DA60     		str	r2, [r3, #12]
 644              		.loc 6 284 0
 645 026a 1B4B     		ldr	r3, .L37+8
 646 026c 1969     		ldr	r1, [r3, #16]
 647 026e 039B     		ldr	r3, [sp, #12]
 648 0270 5A1D     		adds	r2, r3, #5
 649 0272 204B     		ldr	r3, .L37+36
 650 0274 0093     		str	r3, [sp]
 651 0276 0846     		mov	r0, r1
 652 0278 4FF4A471 		mov	r1, #328
 653 027c 184B     		ldr	r3, .L37+16
 654 027e FFF7FEFF 		bl	chThdCreateStatic
 655 0282 0246     		mov	r2, r0
 656 0284 174B     		ldr	r3, .L37+20
 657 0286 1A61     		str	r2, [r3, #16]
 658              		.loc 6 289 0
 659 0288 114B     		ldr	r3, .L37
 660 028a 0422     		movs	r2, #4
 661 028c 1A60     		str	r2, [r3]
 662              		.loc 6 291 0
 663 028e 1148     		ldr	r0, .L37+4
 664 0290 FFF7FEFF 		bl	chMtxUnlock
 665              		.loc 6 292 0
 666 0294 FFF7FEFF 		bl	test_wait_threads
 667              		.loc 6 293 0
ARM GAS  /tmp/ccUSUo1u.s 			page 13


 668 0298 FFF7EAFE 		bl	chThdGetPriorityX
 669 029c 0246     		mov	r2, r0
 670 029e 039B     		ldr	r3, [sp, #12]
 671 02a0 9A42     		cmp	r2, r3
 672 02a2 0CBF     		ite	eq
 673 02a4 0123     		moveq	r3, #1
 674 02a6 0023     		movne	r3, #0
 675 02a8 DBB2     		uxtb	r3, r3
 676 02aa 1846     		mov	r0, r3
 677 02ac 1249     		ldr	r1, .L37+40
 678 02ae FFF7FEFF 		bl	_test_assert
 679 02b2 0346     		mov	r3, r0
 680 02b4 002B     		cmp	r3, #0
 681 02b6 00D0     		beq	.L35
 682 02b8 07E0     		b	.L34
 683              	.L35:
 684              		.loc 6 294 0
 685 02ba 1048     		ldr	r0, .L37+44
 686 02bc 1049     		ldr	r1, .L37+48
 687 02be FFF7FEFF 		bl	_test_assert_sequence
 688 02c2 0346     		mov	r3, r0
 689 02c4 002B     		cmp	r3, #0
 690 02c6 00D0     		beq	.L34
 691              		.loc 6 294 0 is_stmt 0 discriminator 2
 692 02c8 00BF     		nop
 693              	.L34:
 694              		.loc 6 296 0 is_stmt 1
 695 02ca 05B0     		add	sp, sp, #20
 696              		.cfi_def_cfa_offset 4
 697              		@ sp needed
 698 02cc 5DF804FB 		ldr	pc, [sp], #4
 699              	.L38:
 700              		.align	2
 701              	.L37:
 702 02d0 00000000 		.word	test_step
 703 02d4 00000000 		.word	m1
 704 02d8 00000000 		.word	wa
 705 02dc 00000000 		.word	.LC0
 706 02e0 00000000 		.word	thread1
 707 02e4 00000000 		.word	threads
 708 02e8 04000000 		.word	.LC1
 709 02ec 08000000 		.word	.LC2
 710 02f0 0C000000 		.word	.LC3
 711 02f4 10000000 		.word	.LC4
 712 02f8 14000000 		.word	.LC5
 713 02fc 2C000000 		.word	.LC6
 714 0300 34000000 		.word	.LC7
 715              		.cfi_endproc
 716              	.LFE286:
 717              		.size	test_006_001_execute, .-test_006_001_execute
 718              		.section	.rodata
 719 0045 000000   		.align	2
 720              	.LC8:
 721 0048 5072696F 		.ascii	"Priority enqueuing test\000"
 721      72697479 
 721      20656E71 
 721      75657569 
ARM GAS  /tmp/ccUSUo1u.s 			page 14


 721      6E672074 
 722              		.align	2
 723              		.type	test_006_001, %object
 724              		.size	test_006_001, 16
 725              	test_006_001:
 726 0060 48000000 		.word	.LC8
 727 0064 00000000 		.word	test_006_001_setup
 728 0068 00000000 		.word	0
 729 006c 00000000 		.word	test_006_001_execute
 730              		.text
 731              		.align	2
 732 0304 AFF30080 		.p2align 4,,15
 732      AFF30080 
 732      AFF30080 
 733              		.thumb
 734              		.thumb_func
 735              		.type	test_006_004_setup, %function
 736              	test_006_004_setup:
 737              	.LFB287:
 738              		.loc 6 479 0
 739              		.cfi_startproc
 740              		@ args = 0, pretend = 0, frame = 0
 741              		@ frame_needed = 0, uses_anonymous_args = 0
 742 0310 08B5     		push	{r3, lr}
 743              		.cfi_def_cfa_offset 8
 744              		.cfi_offset 3, -8
 745              		.cfi_offset 14, -4
 746              		.loc 6 480 0
 747 0312 0348     		ldr	r0, .L40
 748 0314 FFF7FEFF 		bl	chMtxObjectInit
 749              		.loc 6 481 0
 750 0318 0248     		ldr	r0, .L40+4
 751 031a FFF7FEFF 		bl	chMtxObjectInit
 752              		.loc 6 482 0
 753 031e 08BD     		pop	{r3, pc}
 754              	.L41:
 755              		.align	2
 756              	.L40:
 757 0320 00000000 		.word	m1
 758 0324 10000000 		.word	m2
 759              		.cfi_endproc
 760              	.LFE287:
 761              		.size	test_006_004_setup, .-test_006_004_setup
 762              		.align	2
 763 0328 AFF30080 		.p2align 4,,15
 763      AFF30080 
 764              		.thumb
 765              		.thumb_func
 766              		.type	test_006_004_teardown, %function
 767              	test_006_004_teardown:
 768              	.LFB288:
 769              		.loc 6 484 0
 770              		.cfi_startproc
 771              		@ args = 0, pretend = 0, frame = 0
 772              		@ frame_needed = 0, uses_anonymous_args = 0
 773 0330 08B5     		push	{r3, lr}
 774              		.cfi_def_cfa_offset 8
ARM GAS  /tmp/ccUSUo1u.s 			page 15


 775              		.cfi_offset 3, -8
 776              		.cfi_offset 14, -4
 777              		.loc 6 485 0
 778 0332 FFF7FEFF 		bl	test_wait_threads
 779              		.loc 6 486 0
 780 0336 08BD     		pop	{r3, pc}
 781              		.cfi_endproc
 782              	.LFE288:
 783              		.size	test_006_004_teardown, .-test_006_004_teardown
 784              		.align	2
 785 0338 AFF30080 		.p2align 4,,15
 785      AFF30080 
 786              		.thumb
 787              		.thumb_func
 788              		.type	test_006_004_execute, %function
 789              	test_006_004_execute:
 790              	.LFB289:
 791              		.loc 6 488 0
 792              		.cfi_startproc
 793              		@ args = 0, pretend = 0, frame = 16
 794              		@ frame_needed = 0, uses_anonymous_args = 0
 795 0340 00B5     		push	{lr}
 796              		.cfi_def_cfa_offset 4
 797              		.cfi_offset 14, -4
 798 0342 87B0     		sub	sp, sp, #28
 799              		.cfi_def_cfa_offset 32
 800              		.loc 6 493 0
 801 0344 5C4B     		ldr	r3, .L50
 802 0346 0122     		movs	r2, #1
 803 0348 1A60     		str	r2, [r3]
 804              		.loc 6 495 0
 805 034a FFF791FE 		bl	chThdGetPriorityX
 806 034e 0590     		str	r0, [sp, #20]
 807              		.loc 6 496 0
 808 0350 059B     		ldr	r3, [sp, #20]
 809 0352 0133     		adds	r3, r3, #1
 810 0354 0493     		str	r3, [sp, #16]
 811              		.loc 6 497 0
 812 0356 059B     		ldr	r3, [sp, #20]
 813 0358 0233     		adds	r3, r3, #2
 814 035a 0393     		str	r3, [sp, #12]
 815              		.loc 6 501 0
 816 035c 564B     		ldr	r3, .L50
 817 035e 0222     		movs	r2, #2
 818 0360 1A60     		str	r2, [r3]
 819              		.loc 6 503 0
 820 0362 564B     		ldr	r3, .L50+4
 821 0364 1A68     		ldr	r2, [r3]
 822 0366 564B     		ldr	r3, .L50+8
 823 0368 0093     		str	r3, [sp]
 824 036a 1046     		mov	r0, r2
 825 036c 4FF4A471 		mov	r1, #328
 826 0370 049A     		ldr	r2, [sp, #16]
 827 0372 544B     		ldr	r3, .L50+12
 828 0374 FFF7FEFF 		bl	chThdCreateStatic
 829 0378 0246     		mov	r2, r0
 830 037a 534B     		ldr	r3, .L50+16
ARM GAS  /tmp/ccUSUo1u.s 			page 16


 831 037c 1A60     		str	r2, [r3]
 832              		.loc 6 504 0
 833 037e 4F4B     		ldr	r3, .L50+4
 834 0380 5A68     		ldr	r2, [r3, #4]
 835 0382 524B     		ldr	r3, .L50+20
 836 0384 0093     		str	r3, [sp]
 837 0386 1046     		mov	r0, r2
 838 0388 4FF4A471 		mov	r1, #328
 839 038c 039A     		ldr	r2, [sp, #12]
 840 038e 504B     		ldr	r3, .L50+24
 841 0390 FFF7FEFF 		bl	chThdCreateStatic
 842 0394 0246     		mov	r2, r0
 843 0396 4C4B     		ldr	r3, .L50+16
 844 0398 5A60     		str	r2, [r3, #4]
 845              		.loc 6 510 0
 846 039a 474B     		ldr	r3, .L50
 847 039c 0322     		movs	r2, #3
 848 039e 1A60     		str	r2, [r3]
 849              		.loc 6 512 0
 850 03a0 4C48     		ldr	r0, .L50+28
 851 03a2 FFF7FEFF 		bl	chMtxLock
 852              		.loc 6 513 0
 853 03a6 FFF763FE 		bl	chThdGetPriorityX
 854 03aa 0246     		mov	r2, r0
 855 03ac 059B     		ldr	r3, [sp, #20]
 856 03ae 9A42     		cmp	r2, r3
 857 03b0 0CBF     		ite	eq
 858 03b2 0123     		moveq	r3, #1
 859 03b4 0023     		movne	r3, #0
 860 03b6 DBB2     		uxtb	r3, r3
 861 03b8 1846     		mov	r0, r3
 862 03ba 4749     		ldr	r1, .L50+32
 863 03bc FFF7FEFF 		bl	_test_assert
 864 03c0 0346     		mov	r3, r0
 865 03c2 002B     		cmp	r3, #0
 866 03c4 00D0     		beq	.L44
 867 03c6 74E0     		b	.L43
 868              	.L44:
 869              		.loc 6 519 0
 870 03c8 3B4B     		ldr	r3, .L50
 871 03ca 0422     		movs	r2, #4
 872 03cc 1A60     		str	r2, [r3]
 873              		.loc 6 521 0
 874 03ce 4FF47A70 		mov	r0, #1000
 875 03d2 FFF7FEFF 		bl	chThdSleep
 876              		.loc 6 522 0
 877 03d6 FFF74BFE 		bl	chThdGetPriorityX
 878 03da 0246     		mov	r2, r0
 879 03dc 049B     		ldr	r3, [sp, #16]
 880 03de 9A42     		cmp	r2, r3
 881 03e0 0CBF     		ite	eq
 882 03e2 0123     		moveq	r3, #1
 883 03e4 0023     		movne	r3, #0
 884 03e6 DBB2     		uxtb	r3, r3
 885 03e8 1846     		mov	r0, r3
 886 03ea 3B49     		ldr	r1, .L50+32
 887 03ec FFF7FEFF 		bl	_test_assert
ARM GAS  /tmp/ccUSUo1u.s 			page 17


 888 03f0 0346     		mov	r3, r0
 889 03f2 002B     		cmp	r3, #0
 890 03f4 00D0     		beq	.L46
 891              		.loc 6 522 0 is_stmt 0 discriminator 2
 892 03f6 5CE0     		b	.L43
 893              	.L46:
 894              		.loc 6 528 0 is_stmt 1
 895 03f8 2F4B     		ldr	r3, .L50
 896 03fa 0522     		movs	r2, #5
 897 03fc 1A60     		str	r2, [r3]
 898              		.loc 6 530 0
 899 03fe 3748     		ldr	r0, .L50+36
 900 0400 FFF7FEFF 		bl	chMtxLock
 901              		.loc 6 531 0
 902 0404 FFF734FE 		bl	chThdGetPriorityX
 903 0408 0246     		mov	r2, r0
 904 040a 049B     		ldr	r3, [sp, #16]
 905 040c 9A42     		cmp	r2, r3
 906 040e 0CBF     		ite	eq
 907 0410 0123     		moveq	r3, #1
 908 0412 0023     		movne	r3, #0
 909 0414 DBB2     		uxtb	r3, r3
 910 0416 1846     		mov	r0, r3
 911 0418 2F49     		ldr	r1, .L50+32
 912 041a FFF7FEFF 		bl	_test_assert
 913 041e 0346     		mov	r3, r0
 914 0420 002B     		cmp	r3, #0
 915 0422 00D0     		beq	.L47
 916              		.loc 6 531 0 is_stmt 0 discriminator 3
 917 0424 45E0     		b	.L43
 918              	.L47:
 919              		.loc 6 537 0 is_stmt 1
 920 0426 244B     		ldr	r3, .L50
 921 0428 0622     		movs	r2, #6
 922 042a 1A60     		str	r2, [r3]
 923              		.loc 6 539 0
 924 042c 4FF47A70 		mov	r0, #1000
 925 0430 FFF7FEFF 		bl	chThdSleep
 926              		.loc 6 540 0
 927 0434 FFF71CFE 		bl	chThdGetPriorityX
 928 0438 0246     		mov	r2, r0
 929 043a 039B     		ldr	r3, [sp, #12]
 930 043c 9A42     		cmp	r2, r3
 931 043e 0CBF     		ite	eq
 932 0440 0123     		moveq	r3, #1
 933 0442 0023     		movne	r3, #0
 934 0444 DBB2     		uxtb	r3, r3
 935 0446 1846     		mov	r0, r3
 936 0448 2349     		ldr	r1, .L50+32
 937 044a FFF7FEFF 		bl	_test_assert
 938 044e 0346     		mov	r3, r0
 939 0450 002B     		cmp	r3, #0
 940 0452 00D0     		beq	.L48
 941              		.loc 6 540 0 is_stmt 0 discriminator 4
 942 0454 2DE0     		b	.L43
 943              	.L48:
 944              		.loc 6 544 0 is_stmt 1
ARM GAS  /tmp/ccUSUo1u.s 			page 18


 945 0456 184B     		ldr	r3, .L50
 946 0458 0722     		movs	r2, #7
 947 045a 1A60     		str	r2, [r3]
 948              		.loc 6 546 0
 949 045c 1F48     		ldr	r0, .L50+36
 950 045e FFF7FEFF 		bl	chMtxUnlock
 951              		.loc 6 547 0
 952 0462 FFF705FE 		bl	chThdGetPriorityX
 953 0466 0246     		mov	r2, r0
 954 0468 049B     		ldr	r3, [sp, #16]
 955 046a 9A42     		cmp	r2, r3
 956 046c 0CBF     		ite	eq
 957 046e 0123     		moveq	r3, #1
 958 0470 0023     		movne	r3, #0
 959 0472 DBB2     		uxtb	r3, r3
 960 0474 1846     		mov	r0, r3
 961 0476 1849     		ldr	r1, .L50+32
 962 0478 FFF7FEFF 		bl	_test_assert
 963 047c 0346     		mov	r3, r0
 964 047e 002B     		cmp	r3, #0
 965 0480 00D0     		beq	.L49
 966              		.loc 6 547 0 is_stmt 0 discriminator 5
 967 0482 16E0     		b	.L43
 968              	.L49:
 969              		.loc 6 551 0 is_stmt 1
 970 0484 0C4B     		ldr	r3, .L50
 971 0486 0822     		movs	r2, #8
 972 0488 1A60     		str	r2, [r3]
 973              		.loc 6 553 0
 974 048a 1248     		ldr	r0, .L50+28
 975 048c FFF7FEFF 		bl	chMtxUnlock
 976              		.loc 6 554 0
 977 0490 FFF7EEFD 		bl	chThdGetPriorityX
 978 0494 0246     		mov	r2, r0
 979 0496 059B     		ldr	r3, [sp, #20]
 980 0498 9A42     		cmp	r2, r3
 981 049a 0CBF     		ite	eq
 982 049c 0123     		moveq	r3, #1
 983 049e 0023     		movne	r3, #0
 984 04a0 DBB2     		uxtb	r3, r3
 985 04a2 1846     		mov	r0, r3
 986 04a4 0C49     		ldr	r1, .L50+32
 987 04a6 FFF7FEFF 		bl	_test_assert
 988 04aa 0346     		mov	r3, r0
 989 04ac 002B     		cmp	r3, #0
 990 04ae 00D0     		beq	.L43
 991              		.loc 6 554 0 is_stmt 0 discriminator 6
 992 04b0 00BF     		nop
 993              	.L43:
 994              		.loc 6 556 0 is_stmt 1
 995 04b2 07B0     		add	sp, sp, #28
 996              		.cfi_def_cfa_offset 4
 997              		@ sp needed
 998 04b4 5DF804FB 		ldr	pc, [sp], #4
 999              	.L51:
 1000              		.align	2
 1001              	.L50:
ARM GAS  /tmp/ccUSUo1u.s 			page 19


 1002 04b8 00000000 		.word	test_step
 1003 04bc 00000000 		.word	wa
 1004 04c0 10000000 		.word	.LC4
 1005 04c4 00000000 		.word	thread4A
 1006 04c8 00000000 		.word	threads
 1007 04cc 0C000000 		.word	.LC3
 1008 04d0 00000000 		.word	thread4B
 1009 04d4 00000000 		.word	m1
 1010 04d8 14000000 		.word	.LC5
 1011 04dc 10000000 		.word	m2
 1012              		.cfi_endproc
 1013              	.LFE289:
 1014              		.size	test_006_004_execute, .-test_006_004_execute
 1015              		.section	.rodata
 1016              		.align	2
 1017              	.LC9:
 1018 0070 5072696F 		.ascii	"Priority return verification\000"
 1018      72697479 
 1018      20726574 
 1018      75726E20 
 1018      76657269 
 1019 008d 000000   		.align	2
 1020              		.type	test_006_004, %object
 1021              		.size	test_006_004, 16
 1022              	test_006_004:
 1023 0090 70000000 		.word	.LC9
 1024 0094 00000000 		.word	test_006_004_setup
 1025 0098 00000000 		.word	test_006_004_teardown
 1026 009c 00000000 		.word	test_006_004_execute
 1027              		.text
 1028              		.align	2
 1029              		.p2align 4,,15
 1030              		.thumb
 1031              		.thumb_func
 1032              		.type	test_006_005_setup, %function
 1033              	test_006_005_setup:
 1034              	.LFB290:
 1035              		.loc 6 593 0
 1036              		.cfi_startproc
 1037              		@ args = 0, pretend = 0, frame = 0
 1038              		@ frame_needed = 0, uses_anonymous_args = 0
 1039 04e0 08B5     		push	{r3, lr}
 1040              		.cfi_def_cfa_offset 8
 1041              		.cfi_offset 3, -8
 1042              		.cfi_offset 14, -4
 1043              		.loc 6 594 0
 1044 04e2 0248     		ldr	r0, .L53
 1045 04e4 FFF7FEFF 		bl	chMtxObjectInit
 1046              		.loc 6 595 0
 1047 04e8 08BD     		pop	{r3, pc}
 1048              	.L54:
 1049 04ea 00BF     		.align	2
 1050              	.L53:
 1051 04ec 00000000 		.word	m1
 1052              		.cfi_endproc
 1053              	.LFE290:
 1054              		.size	test_006_005_setup, .-test_006_005_setup
ARM GAS  /tmp/ccUSUo1u.s 			page 20


 1055              		.section	.rodata
 1056              		.align	2
 1057              	.LC10:
 1058 00a0 616C7265 		.ascii	"already locked\000"
 1058      61647920 
 1058      6C6F636B 
 1058      656400
 1059 00af 00       		.align	2
 1060              	.LC11:
 1061 00b0 6E6F7420 		.ascii	"not locked\000"
 1061      6C6F636B 
 1061      656400
 1062 00bb 00       		.align	2
 1063              	.LC12:
 1064 00bc 7374696C 		.ascii	"still owned\000"
 1064      6C206F77 
 1064      6E656400 
 1065              		.align	2
 1066              	.LC13:
 1067 00c8 71756575 		.ascii	"queue not empty\000"
 1067      65206E6F 
 1067      7420656D 
 1067      70747900 
 1068              		.text
 1069              		.align	2
 1070              		.p2align 4,,15
 1071              		.thumb
 1072              		.thumb_func
 1073              		.type	test_006_005_execute, %function
 1074              	test_006_005_execute:
 1075              	.LFB291:
 1076              		.loc 6 597 0
 1077              		.cfi_startproc
 1078              		@ args = 0, pretend = 0, frame = 8
 1079              		@ frame_needed = 0, uses_anonymous_args = 0
 1080 04f0 00B5     		push	{lr}
 1081              		.cfi_def_cfa_offset 4
 1082              		.cfi_offset 14, -4
 1083 04f2 83B0     		sub	sp, sp, #12
 1084              		.cfi_def_cfa_offset 16
 1085              		.loc 6 602 0
 1086 04f4 664B     		ldr	r3, .L66
 1087 04f6 0122     		movs	r2, #1
 1088 04f8 1A60     		str	r2, [r3]
 1089              		.loc 6 604 0
 1090 04fa FFF7B9FD 		bl	chThdGetPriorityX
 1091 04fe 0190     		str	r0, [sp, #4]
 1092              		.loc 6 609 0
 1093 0500 634B     		ldr	r3, .L66
 1094 0502 0222     		movs	r2, #2
 1095 0504 1A60     		str	r2, [r3]
 1096              		.loc 6 611 0
 1097 0506 6348     		ldr	r0, .L66+4
 1098 0508 FFF7FEFF 		bl	chMtxTryLock
 1099 050c 0346     		mov	r3, r0
 1100 050e 8DF80330 		strb	r3, [sp, #3]
 1101              		.loc 6 612 0
ARM GAS  /tmp/ccUSUo1u.s 			page 21


 1102 0512 9DF80330 		ldrb	r3, [sp, #3]	@ zero_extendqisi2
 1103 0516 1846     		mov	r0, r3
 1104 0518 5F49     		ldr	r1, .L66+8
 1105 051a FFF7FEFF 		bl	_test_assert
 1106 051e 0346     		mov	r3, r0
 1107 0520 002B     		cmp	r3, #0
 1108 0522 00D0     		beq	.L56
 1109 0524 B1E0     		b	.L55
 1110              	.L56:
 1111              		.loc 6 617 0
 1112 0526 5A4B     		ldr	r3, .L66
 1113 0528 0322     		movs	r2, #3
 1114 052a 1A60     		str	r2, [r3]
 1115              		.loc 6 619 0
 1116 052c 5948     		ldr	r0, .L66+4
 1117 052e FFF7FEFF 		bl	chMtxTryLock
 1118 0532 0346     		mov	r3, r0
 1119 0534 8DF80330 		strb	r3, [sp, #3]
 1120              		.loc 6 620 0
 1121 0538 9DF80330 		ldrb	r3, [sp, #3]	@ zero_extendqisi2
 1122 053c 002B     		cmp	r3, #0
 1123 053e 14BF     		ite	ne
 1124 0540 0123     		movne	r3, #1
 1125 0542 0023     		moveq	r3, #0
 1126 0544 DBB2     		uxtb	r3, r3
 1127 0546 83F00103 		eor	r3, r3, #1
 1128 054a DBB2     		uxtb	r3, r3
 1129 054c 03F00103 		and	r3, r3, #1
 1130 0550 DBB2     		uxtb	r3, r3
 1131 0552 1846     		mov	r0, r3
 1132 0554 5149     		ldr	r1, .L66+12
 1133 0556 FFF7FEFF 		bl	_test_assert
 1134 055a 0346     		mov	r3, r0
 1135 055c 002B     		cmp	r3, #0
 1136 055e 00D0     		beq	.L58
 1137              		.loc 6 620 0 is_stmt 0 discriminator 2
 1138 0560 93E0     		b	.L55
 1139              	.L58:
 1140              		.loc 6 625 0 is_stmt 1
 1141 0562 4B4B     		ldr	r3, .L66
 1142 0564 0422     		movs	r2, #4
 1143 0566 1A60     		str	r2, [r3]
 1144              		.loc 6 627 0
 1145 0568 4A48     		ldr	r0, .L66+4
 1146 056a FFF7FEFF 		bl	chMtxUnlock
 1147              		.loc 6 628 0
 1148 056e 494B     		ldr	r3, .L66+4
 1149 0570 9B68     		ldr	r3, [r3, #8]
 1150 0572 002B     		cmp	r3, #0
 1151 0574 0CBF     		ite	eq
 1152 0576 0123     		moveq	r3, #1
 1153 0578 0023     		movne	r3, #0
 1154 057a DBB2     		uxtb	r3, r3
 1155 057c 1846     		mov	r0, r3
 1156 057e 4849     		ldr	r1, .L66+16
 1157 0580 FFF7FEFF 		bl	_test_assert
 1158 0584 0346     		mov	r3, r0
ARM GAS  /tmp/ccUSUo1u.s 			page 22


 1159 0586 002B     		cmp	r3, #0
 1160 0588 00D0     		beq	.L59
 1161              		.loc 6 628 0 is_stmt 0 discriminator 3
 1162 058a 7EE0     		b	.L55
 1163              	.L59:
 1164              		.loc 6 629 0 is_stmt 1
 1165 058c 4148     		ldr	r0, .L66+4
 1166 058e FFF747FD 		bl	queue_isempty
 1167 0592 0346     		mov	r3, r0
 1168 0594 1846     		mov	r0, r3
 1169 0596 4349     		ldr	r1, .L66+20
 1170 0598 FFF7FEFF 		bl	_test_assert
 1171 059c 0346     		mov	r3, r0
 1172 059e 002B     		cmp	r3, #0
 1173 05a0 00D0     		beq	.L60
 1174              		.loc 6 629 0 is_stmt 0 discriminator 4
 1175 05a2 72E0     		b	.L55
 1176              	.L60:
 1177              		.loc 6 633 0 is_stmt 1
 1178 05a4 3A4B     		ldr	r3, .L66
 1179 05a6 0522     		movs	r2, #5
 1180 05a8 1A60     		str	r2, [r3]
 1181              		.loc 6 635 0
 1182 05aa FFF761FD 		bl	chThdGetPriorityX
 1183 05ae 0246     		mov	r2, r0
 1184 05b0 019B     		ldr	r3, [sp, #4]
 1185 05b2 9A42     		cmp	r2, r3
 1186 05b4 0CBF     		ite	eq
 1187 05b6 0123     		moveq	r3, #1
 1188 05b8 0023     		movne	r3, #0
 1189 05ba DBB2     		uxtb	r3, r3
 1190 05bc 1846     		mov	r0, r3
 1191 05be 3A49     		ldr	r1, .L66+24
 1192 05c0 FFF7FEFF 		bl	_test_assert
 1193 05c4 0346     		mov	r3, r0
 1194 05c6 002B     		cmp	r3, #0
 1195 05c8 00D0     		beq	.L61
 1196              		.loc 6 635 0 is_stmt 0 discriminator 5
 1197 05ca 5EE0     		b	.L55
 1198              	.L61:
 1199              		.loc 6 639 0 is_stmt 1
 1200 05cc 304B     		ldr	r3, .L66
 1201 05ce 0622     		movs	r2, #6
 1202 05d0 1A60     		str	r2, [r3]
 1203              		.loc 6 641 0
 1204 05d2 3048     		ldr	r0, .L66+4
 1205 05d4 FFF7FEFF 		bl	chMtxTryLock
 1206 05d8 0346     		mov	r3, r0
 1207 05da 8DF80330 		strb	r3, [sp, #3]
 1208              		.loc 6 642 0
 1209 05de 9DF80330 		ldrb	r3, [sp, #3]	@ zero_extendqisi2
 1210 05e2 1846     		mov	r0, r3
 1211 05e4 2C49     		ldr	r1, .L66+8
 1212 05e6 FFF7FEFF 		bl	_test_assert
 1213 05ea 0346     		mov	r3, r0
 1214 05ec 002B     		cmp	r3, #0
 1215 05ee 00D0     		beq	.L62
ARM GAS  /tmp/ccUSUo1u.s 			page 23


 1216              		.loc 6 642 0 is_stmt 0 discriminator 6
 1217 05f0 4BE0     		b	.L55
 1218              	.L62:
 1219              		.loc 6 643 0 is_stmt 1
 1220 05f2 2848     		ldr	r0, .L66+4
 1221 05f4 FFF7FEFF 		bl	chMtxTryLock
 1222 05f8 0346     		mov	r3, r0
 1223 05fa 8DF80330 		strb	r3, [sp, #3]
 1224              		.loc 6 644 0
 1225 05fe 9DF80330 		ldrb	r3, [sp, #3]	@ zero_extendqisi2
 1226 0602 002B     		cmp	r3, #0
 1227 0604 14BF     		ite	ne
 1228 0606 0123     		movne	r3, #1
 1229 0608 0023     		moveq	r3, #0
 1230 060a DBB2     		uxtb	r3, r3
 1231 060c 83F00103 		eor	r3, r3, #1
 1232 0610 DBB2     		uxtb	r3, r3
 1233 0612 03F00103 		and	r3, r3, #1
 1234 0616 DBB2     		uxtb	r3, r3
 1235 0618 1846     		mov	r0, r3
 1236 061a 2049     		ldr	r1, .L66+12
 1237 061c FFF7FEFF 		bl	_test_assert
 1238 0620 0346     		mov	r3, r0
 1239 0622 002B     		cmp	r3, #0
 1240 0624 00D0     		beq	.L63
 1241              		.loc 6 644 0 is_stmt 0 discriminator 7
 1242 0626 30E0     		b	.L55
 1243              	.L63:
 1244              		.loc 6 646 0 is_stmt 1
 1245 0628 FFF7FEFF 		bl	chMtxUnlockAll
 1246              		.loc 6 647 0
 1247 062c 194B     		ldr	r3, .L66+4
 1248 062e 9B68     		ldr	r3, [r3, #8]
 1249 0630 002B     		cmp	r3, #0
 1250 0632 0CBF     		ite	eq
 1251 0634 0123     		moveq	r3, #1
 1252 0636 0023     		movne	r3, #0
 1253 0638 DBB2     		uxtb	r3, r3
 1254 063a 1846     		mov	r0, r3
 1255 063c 1849     		ldr	r1, .L66+16
 1256 063e FFF7FEFF 		bl	_test_assert
 1257 0642 0346     		mov	r3, r0
 1258 0644 002B     		cmp	r3, #0
 1259 0646 00D0     		beq	.L64
 1260              		.loc 6 647 0 is_stmt 0 discriminator 8
 1261 0648 1FE0     		b	.L55
 1262              	.L64:
 1263              		.loc 6 648 0 is_stmt 1
 1264 064a 1248     		ldr	r0, .L66+4
 1265 064c FFF7E8FC 		bl	queue_isempty
 1266 0650 0346     		mov	r3, r0
 1267 0652 1846     		mov	r0, r3
 1268 0654 1349     		ldr	r1, .L66+20
 1269 0656 FFF7FEFF 		bl	_test_assert
 1270 065a 0346     		mov	r3, r0
 1271 065c 002B     		cmp	r3, #0
 1272 065e 00D0     		beq	.L65
ARM GAS  /tmp/ccUSUo1u.s 			page 24


 1273              		.loc 6 648 0 is_stmt 0 discriminator 9
 1274 0660 13E0     		b	.L55
 1275              	.L65:
 1276              		.loc 6 652 0 is_stmt 1
 1277 0662 0B4B     		ldr	r3, .L66
 1278 0664 0722     		movs	r2, #7
 1279 0666 1A60     		str	r2, [r3]
 1280              		.loc 6 654 0
 1281 0668 FFF702FD 		bl	chThdGetPriorityX
 1282 066c 0246     		mov	r2, r0
 1283 066e 019B     		ldr	r3, [sp, #4]
 1284 0670 9A42     		cmp	r2, r3
 1285 0672 0CBF     		ite	eq
 1286 0674 0123     		moveq	r3, #1
 1287 0676 0023     		movne	r3, #0
 1288 0678 DBB2     		uxtb	r3, r3
 1289 067a 1846     		mov	r0, r3
 1290 067c 0A49     		ldr	r1, .L66+24
 1291 067e FFF7FEFF 		bl	_test_assert
 1292 0682 0346     		mov	r3, r0
 1293 0684 002B     		cmp	r3, #0
 1294 0686 00D0     		beq	.L55
 1295              		.loc 6 654 0 is_stmt 0 discriminator 10
 1296 0688 00BF     		nop
 1297              	.L55:
 1298              		.loc 6 656 0 is_stmt 1
 1299 068a 03B0     		add	sp, sp, #12
 1300              		.cfi_def_cfa_offset 4
 1301              		@ sp needed
 1302 068c 5DF804FB 		ldr	pc, [sp], #4
 1303              	.L67:
 1304              		.align	2
 1305              	.L66:
 1306 0690 00000000 		.word	test_step
 1307 0694 00000000 		.word	m1
 1308 0698 A0000000 		.word	.LC10
 1309 069c B0000000 		.word	.LC11
 1310 06a0 BC000000 		.word	.LC12
 1311 06a4 C8000000 		.word	.LC13
 1312 06a8 14000000 		.word	.LC5
 1313              		.cfi_endproc
 1314              	.LFE291:
 1315              		.size	test_006_005_execute, .-test_006_005_execute
 1316              		.section	.rodata
 1317              		.align	2
 1318              	.LC14:
 1319 00d8 52657065 		.ascii	"Repeated locks, non recursive scenario\000"
 1319      61746564 
 1319      206C6F63 
 1319      6B732C20 
 1319      6E6F6E20 
 1320 00ff 00       		.align	2
 1321              		.type	test_006_005, %object
 1322              		.size	test_006_005, 16
 1323              	test_006_005:
 1324 0100 D8000000 		.word	.LC14
 1325 0104 00000000 		.word	test_006_005_setup
ARM GAS  /tmp/ccUSUo1u.s 			page 25


 1326 0108 00000000 		.word	0
 1327 010c 00000000 		.word	test_006_005_execute
 1328              		.text
 1329              		.align	2
 1330 06ac AFF30080 		.p2align 4,,15
 1331              		.thumb
 1332              		.thumb_func
 1333              		.type	test_006_007_setup, %function
 1334              	test_006_007_setup:
 1335              	.LFB292:
 1336              		.loc 6 829 0
 1337              		.cfi_startproc
 1338              		@ args = 0, pretend = 0, frame = 0
 1339              		@ frame_needed = 0, uses_anonymous_args = 0
 1340 06b0 08B5     		push	{r3, lr}
 1341              		.cfi_def_cfa_offset 8
 1342              		.cfi_offset 3, -8
 1343              		.cfi_offset 14, -4
 1344              		.loc 6 830 0
 1345 06b2 0348     		ldr	r0, .L69
 1346 06b4 FFF7FEFF 		bl	chCondObjectInit
 1347              		.loc 6 831 0
 1348 06b8 0248     		ldr	r0, .L69+4
 1349 06ba FFF7FEFF 		bl	chMtxObjectInit
 1350              		.loc 6 832 0
 1351 06be 08BD     		pop	{r3, pc}
 1352              	.L70:
 1353              		.align	2
 1354              	.L69:
 1355 06c0 20000000 		.word	c1
 1356 06c4 00000000 		.word	m1
 1357              		.cfi_endproc
 1358              	.LFE292:
 1359              		.size	test_006_007_setup, .-test_006_007_setup
 1360              		.align	2
 1361 06c8 AFF30080 		.p2align 4,,15
 1361      AFF30080 
 1362              		.thumb
 1363              		.thumb_func
 1364              		.type	test_006_007_execute, %function
 1365              	test_006_007_execute:
 1366              	.LFB293:
 1367              		.loc 6 834 0
 1368              		.cfi_startproc
 1369              		@ args = 0, pretend = 0, frame = 8
 1370              		@ frame_needed = 0, uses_anonymous_args = 0
 1371 06d0 00B5     		push	{lr}
 1372              		.cfi_def_cfa_offset 4
 1373              		.cfi_offset 14, -4
 1374 06d2 85B0     		sub	sp, sp, #20
 1375              		.cfi_def_cfa_offset 24
 1376              		.loc 6 838 0
 1377 06d4 3A4B     		ldr	r3, .L73
 1378 06d6 0122     		movs	r2, #1
 1379 06d8 1A60     		str	r2, [r3]
 1380              	.LBB10:
 1381              		.loc 6 840 0
ARM GAS  /tmp/ccUSUo1u.s 			page 26


 1382 06da FFF7C9FC 		bl	chThdGetPriorityX
 1383 06de 0390     		str	r0, [sp, #12]
 1384              		.loc 6 841 0
 1385 06e0 384B     		ldr	r3, .L73+4
 1386 06e2 1968     		ldr	r1, [r3]
 1387 06e4 039B     		ldr	r3, [sp, #12]
 1388 06e6 5A1C     		adds	r2, r3, #1
 1389 06e8 374B     		ldr	r3, .L73+8
 1390 06ea 0093     		str	r3, [sp]
 1391 06ec 0846     		mov	r0, r1
 1392 06ee 4FF4A471 		mov	r1, #328
 1393 06f2 364B     		ldr	r3, .L73+12
 1394 06f4 FFF7FEFF 		bl	chThdCreateStatic
 1395 06f8 0246     		mov	r2, r0
 1396 06fa 354B     		ldr	r3, .L73+16
 1397 06fc 1A60     		str	r2, [r3]
 1398              		.loc 6 842 0
 1399 06fe 314B     		ldr	r3, .L73+4
 1400 0700 5968     		ldr	r1, [r3, #4]
 1401 0702 039B     		ldr	r3, [sp, #12]
 1402 0704 9A1C     		adds	r2, r3, #2
 1403 0706 334B     		ldr	r3, .L73+20
 1404 0708 0093     		str	r3, [sp]
 1405 070a 0846     		mov	r0, r1
 1406 070c 4FF4A471 		mov	r1, #328
 1407 0710 2E4B     		ldr	r3, .L73+12
 1408 0712 FFF7FEFF 		bl	chThdCreateStatic
 1409 0716 0246     		mov	r2, r0
 1410 0718 2D4B     		ldr	r3, .L73+16
 1411 071a 5A60     		str	r2, [r3, #4]
 1412              		.loc 6 843 0
 1413 071c 294B     		ldr	r3, .L73+4
 1414 071e 9968     		ldr	r1, [r3, #8]
 1415 0720 039B     		ldr	r3, [sp, #12]
 1416 0722 DA1C     		adds	r2, r3, #3
 1417 0724 2C4B     		ldr	r3, .L73+24
 1418 0726 0093     		str	r3, [sp]
 1419 0728 0846     		mov	r0, r1
 1420 072a 4FF4A471 		mov	r1, #328
 1421 072e 274B     		ldr	r3, .L73+12
 1422 0730 FFF7FEFF 		bl	chThdCreateStatic
 1423 0734 0246     		mov	r2, r0
 1424 0736 264B     		ldr	r3, .L73+16
 1425 0738 9A60     		str	r2, [r3, #8]
 1426              		.loc 6 844 0
 1427 073a 224B     		ldr	r3, .L73+4
 1428 073c D968     		ldr	r1, [r3, #12]
 1429 073e 039B     		ldr	r3, [sp, #12]
 1430 0740 1A1D     		adds	r2, r3, #4
 1431 0742 264B     		ldr	r3, .L73+28
 1432 0744 0093     		str	r3, [sp]
 1433 0746 0846     		mov	r0, r1
 1434 0748 4FF4A471 		mov	r1, #328
 1435 074c 1F4B     		ldr	r3, .L73+12
 1436 074e FFF7FEFF 		bl	chThdCreateStatic
 1437 0752 0246     		mov	r2, r0
 1438 0754 1E4B     		ldr	r3, .L73+16
ARM GAS  /tmp/ccUSUo1u.s 			page 27


 1439 0756 DA60     		str	r2, [r3, #12]
 1440              		.loc 6 845 0
 1441 0758 1A4B     		ldr	r3, .L73+4
 1442 075a 1969     		ldr	r1, [r3, #16]
 1443 075c 039B     		ldr	r3, [sp, #12]
 1444 075e 5A1D     		adds	r2, r3, #5
 1445 0760 1F4B     		ldr	r3, .L73+32
 1446 0762 0093     		str	r3, [sp]
 1447 0764 0846     		mov	r0, r1
 1448 0766 4FF4A471 		mov	r1, #328
 1449 076a 184B     		ldr	r3, .L73+12
 1450 076c FFF7FEFF 		bl	chThdCreateStatic
 1451 0770 0246     		mov	r2, r0
 1452 0772 174B     		ldr	r3, .L73+16
 1453 0774 1A61     		str	r2, [r3, #16]
 1454              	.LBE10:
 1455              		.loc 6 851 0
 1456 0776 124B     		ldr	r3, .L73
 1457 0778 0222     		movs	r2, #2
 1458 077a 1A60     		str	r2, [r3]
 1459              		.loc 6 853 0
 1460 077c FFF760FC 		bl	chSysLock
 1461              		.loc 6 854 0
 1462 0780 1848     		ldr	r0, .L73+36
 1463 0782 FFF7FEFF 		bl	chCondSignalI
 1464              		.loc 6 855 0
 1465 0786 1748     		ldr	r0, .L73+36
 1466 0788 FFF7FEFF 		bl	chCondSignalI
 1467              		.loc 6 856 0
 1468 078c 1548     		ldr	r0, .L73+36
 1469 078e FFF7FEFF 		bl	chCondSignalI
 1470              		.loc 6 857 0
 1471 0792 1448     		ldr	r0, .L73+36
 1472 0794 FFF7FEFF 		bl	chCondSignalI
 1473              		.loc 6 858 0
 1474 0798 1248     		ldr	r0, .L73+36
 1475 079a FFF7FEFF 		bl	chCondSignalI
 1476              		.loc 6 859 0
 1477 079e FFF7FEFF 		bl	chSchRescheduleS
 1478              		.loc 6 860 0
 1479 07a2 FFF755FC 		bl	chSysUnlock
 1480              		.loc 6 861 0
 1481 07a6 FFF7FEFF 		bl	test_wait_threads
 1482              		.loc 6 862 0
 1483 07aa 0F48     		ldr	r0, .L73+40
 1484 07ac 0F49     		ldr	r1, .L73+44
 1485 07ae FFF7FEFF 		bl	_test_assert_sequence
 1486 07b2 0346     		mov	r3, r0
 1487 07b4 002B     		cmp	r3, #0
 1488 07b6 00D0     		beq	.L71
 1489 07b8 00BF     		nop
 1490              	.L71:
 1491              		.loc 6 864 0
 1492 07ba 05B0     		add	sp, sp, #20
 1493              		.cfi_def_cfa_offset 4
 1494              		@ sp needed
 1495 07bc 5DF804FB 		ldr	pc, [sp], #4
ARM GAS  /tmp/ccUSUo1u.s 			page 28


 1496              	.L74:
 1497              		.align	2
 1498              	.L73:
 1499 07c0 00000000 		.word	test_step
 1500 07c4 00000000 		.word	wa
 1501 07c8 00000000 		.word	.LC0
 1502 07cc 00000000 		.word	thread6
 1503 07d0 00000000 		.word	threads
 1504 07d4 04000000 		.word	.LC1
 1505 07d8 08000000 		.word	.LC2
 1506 07dc 0C000000 		.word	.LC3
 1507 07e0 10000000 		.word	.LC4
 1508 07e4 20000000 		.word	c1
 1509 07e8 2C000000 		.word	.LC6
 1510 07ec 34000000 		.word	.LC7
 1511              		.cfi_endproc
 1512              	.LFE293:
 1513              		.size	test_006_007_execute, .-test_006_007_execute
 1514              		.section	.rodata
 1515              		.align	2
 1516              	.LC15:
 1517 0110 436F6E64 		.ascii	"Condition Variable signal test\000"
 1517      6974696F 
 1517      6E205661 
 1517      72696162 
 1517      6C652073 
 1518 012f 00       		.align	2
 1519              		.type	test_006_007, %object
 1520              		.size	test_006_007, 16
 1521              	test_006_007:
 1522 0130 10010000 		.word	.LC15
 1523 0134 00000000 		.word	test_006_007_setup
 1524 0138 00000000 		.word	0
 1525 013c 00000000 		.word	test_006_007_execute
 1526              		.text
 1527              		.align	2
 1528              		.p2align 4,,15
 1529              		.thumb
 1530              		.thumb_func
 1531              		.type	test_006_008_setup, %function
 1532              	test_006_008_setup:
 1533              	.LFB294:
 1534              		.loc 6 898 0
 1535              		.cfi_startproc
 1536              		@ args = 0, pretend = 0, frame = 0
 1537              		@ frame_needed = 0, uses_anonymous_args = 0
 1538 07f0 08B5     		push	{r3, lr}
 1539              		.cfi_def_cfa_offset 8
 1540              		.cfi_offset 3, -8
 1541              		.cfi_offset 14, -4
 1542              		.loc 6 899 0
 1543 07f2 0348     		ldr	r0, .L76
 1544 07f4 FFF7FEFF 		bl	chCondObjectInit
 1545              		.loc 6 900 0
 1546 07f8 0248     		ldr	r0, .L76+4
 1547 07fa FFF7FEFF 		bl	chMtxObjectInit
 1548              		.loc 6 901 0
ARM GAS  /tmp/ccUSUo1u.s 			page 29


 1549 07fe 08BD     		pop	{r3, pc}
 1550              	.L77:
 1551              		.align	2
 1552              	.L76:
 1553 0800 20000000 		.word	c1
 1554 0804 00000000 		.word	m1
 1555              		.cfi_endproc
 1556              	.LFE294:
 1557              		.size	test_006_008_setup, .-test_006_008_setup
 1558              		.align	2
 1559 0808 AFF30080 		.p2align 4,,15
 1559      AFF30080 
 1560              		.thumb
 1561              		.thumb_func
 1562              		.type	test_006_008_execute, %function
 1563              	test_006_008_execute:
 1564              	.LFB295:
 1565              		.loc 6 903 0
 1566              		.cfi_startproc
 1567              		@ args = 0, pretend = 0, frame = 8
 1568              		@ frame_needed = 0, uses_anonymous_args = 0
 1569 0810 00B5     		push	{lr}
 1570              		.cfi_def_cfa_offset 4
 1571              		.cfi_offset 14, -4
 1572 0812 85B0     		sub	sp, sp, #20
 1573              		.cfi_def_cfa_offset 24
 1574              		.loc 6 907 0
 1575 0814 314B     		ldr	r3, .L80
 1576 0816 0122     		movs	r2, #1
 1577 0818 1A60     		str	r2, [r3]
 1578              	.LBB11:
 1579              		.loc 6 909 0
 1580 081a FFF729FC 		bl	chThdGetPriorityX
 1581 081e 0390     		str	r0, [sp, #12]
 1582              		.loc 6 910 0
 1583 0820 2F4B     		ldr	r3, .L80+4
 1584 0822 1968     		ldr	r1, [r3]
 1585 0824 039B     		ldr	r3, [sp, #12]
 1586 0826 5A1C     		adds	r2, r3, #1
 1587 0828 2E4B     		ldr	r3, .L80+8
 1588 082a 0093     		str	r3, [sp]
 1589 082c 0846     		mov	r0, r1
 1590 082e 4FF4A471 		mov	r1, #328
 1591 0832 2D4B     		ldr	r3, .L80+12
 1592 0834 FFF7FEFF 		bl	chThdCreateStatic
 1593 0838 0246     		mov	r2, r0
 1594 083a 2C4B     		ldr	r3, .L80+16
 1595 083c 1A60     		str	r2, [r3]
 1596              		.loc 6 911 0
 1597 083e 284B     		ldr	r3, .L80+4
 1598 0840 5968     		ldr	r1, [r3, #4]
 1599 0842 039B     		ldr	r3, [sp, #12]
 1600 0844 9A1C     		adds	r2, r3, #2
 1601 0846 2A4B     		ldr	r3, .L80+20
 1602 0848 0093     		str	r3, [sp]
 1603 084a 0846     		mov	r0, r1
 1604 084c 4FF4A471 		mov	r1, #328
ARM GAS  /tmp/ccUSUo1u.s 			page 30


 1605 0850 254B     		ldr	r3, .L80+12
 1606 0852 FFF7FEFF 		bl	chThdCreateStatic
 1607 0856 0246     		mov	r2, r0
 1608 0858 244B     		ldr	r3, .L80+16
 1609 085a 5A60     		str	r2, [r3, #4]
 1610              		.loc 6 912 0
 1611 085c 204B     		ldr	r3, .L80+4
 1612 085e 9968     		ldr	r1, [r3, #8]
 1613 0860 039B     		ldr	r3, [sp, #12]
 1614 0862 DA1C     		adds	r2, r3, #3
 1615 0864 234B     		ldr	r3, .L80+24
 1616 0866 0093     		str	r3, [sp]
 1617 0868 0846     		mov	r0, r1
 1618 086a 4FF4A471 		mov	r1, #328
 1619 086e 1E4B     		ldr	r3, .L80+12
 1620 0870 FFF7FEFF 		bl	chThdCreateStatic
 1621 0874 0246     		mov	r2, r0
 1622 0876 1D4B     		ldr	r3, .L80+16
 1623 0878 9A60     		str	r2, [r3, #8]
 1624              		.loc 6 913 0
 1625 087a 194B     		ldr	r3, .L80+4
 1626 087c D968     		ldr	r1, [r3, #12]
 1627 087e 039B     		ldr	r3, [sp, #12]
 1628 0880 1A1D     		adds	r2, r3, #4
 1629 0882 1D4B     		ldr	r3, .L80+28
 1630 0884 0093     		str	r3, [sp]
 1631 0886 0846     		mov	r0, r1
 1632 0888 4FF4A471 		mov	r1, #328
 1633 088c 164B     		ldr	r3, .L80+12
 1634 088e FFF7FEFF 		bl	chThdCreateStatic
 1635 0892 0246     		mov	r2, r0
 1636 0894 154B     		ldr	r3, .L80+16
 1637 0896 DA60     		str	r2, [r3, #12]
 1638              		.loc 6 914 0
 1639 0898 114B     		ldr	r3, .L80+4
 1640 089a 1969     		ldr	r1, [r3, #16]
 1641 089c 039B     		ldr	r3, [sp, #12]
 1642 089e 5A1D     		adds	r2, r3, #5
 1643 08a0 164B     		ldr	r3, .L80+32
 1644 08a2 0093     		str	r3, [sp]
 1645 08a4 0846     		mov	r0, r1
 1646 08a6 4FF4A471 		mov	r1, #328
 1647 08aa 0F4B     		ldr	r3, .L80+12
 1648 08ac FFF7FEFF 		bl	chThdCreateStatic
 1649 08b0 0246     		mov	r2, r0
 1650 08b2 0E4B     		ldr	r3, .L80+16
 1651 08b4 1A61     		str	r2, [r3, #16]
 1652              	.LBE11:
 1653              		.loc 6 919 0
 1654 08b6 094B     		ldr	r3, .L80
 1655 08b8 0222     		movs	r2, #2
 1656 08ba 1A60     		str	r2, [r3]
 1657              		.loc 6 921 0
 1658 08bc 1048     		ldr	r0, .L80+36
 1659 08be FFF7FEFF 		bl	chCondBroadcast
 1660              		.loc 6 922 0
 1661 08c2 FFF7FEFF 		bl	test_wait_threads
ARM GAS  /tmp/ccUSUo1u.s 			page 31


 1662              		.loc 6 923 0
 1663 08c6 0F48     		ldr	r0, .L80+40
 1664 08c8 0F49     		ldr	r1, .L80+44
 1665 08ca FFF7FEFF 		bl	_test_assert_sequence
 1666 08ce 0346     		mov	r3, r0
 1667 08d0 002B     		cmp	r3, #0
 1668 08d2 00D0     		beq	.L78
 1669 08d4 00BF     		nop
 1670              	.L78:
 1671              		.loc 6 925 0
 1672 08d6 05B0     		add	sp, sp, #20
 1673              		.cfi_def_cfa_offset 4
 1674              		@ sp needed
 1675 08d8 5DF804FB 		ldr	pc, [sp], #4
 1676              	.L81:
 1677              		.align	2
 1678              	.L80:
 1679 08dc 00000000 		.word	test_step
 1680 08e0 00000000 		.word	wa
 1681 08e4 00000000 		.word	.LC0
 1682 08e8 00000000 		.word	thread6
 1683 08ec 00000000 		.word	threads
 1684 08f0 04000000 		.word	.LC1
 1685 08f4 08000000 		.word	.LC2
 1686 08f8 0C000000 		.word	.LC3
 1687 08fc 10000000 		.word	.LC4
 1688 0900 20000000 		.word	c1
 1689 0904 2C000000 		.word	.LC6
 1690 0908 34000000 		.word	.LC7
 1691              		.cfi_endproc
 1692              	.LFE295:
 1693              		.size	test_006_008_execute, .-test_006_008_execute
 1694              		.section	.rodata
 1695              		.align	2
 1696              	.LC16:
 1697 0140 436F6E64 		.ascii	"Condition Variable broadcast test\000"
 1697      6974696F 
 1697      6E205661 
 1697      72696162 
 1697      6C652062 
 1698 0162 0000     		.align	2
 1699              		.type	test_006_008, %object
 1700              		.size	test_006_008, 16
 1701              	test_006_008:
 1702 0164 40010000 		.word	.LC16
 1703 0168 00000000 		.word	test_006_008_setup
 1704 016c 00000000 		.word	0
 1705 0170 00000000 		.word	test_006_008_execute
 1706              		.text
 1707              		.align	2
 1708 090c AFF30080 		.p2align 4,,15
 1709              		.thumb
 1710              		.thumb_func
 1711              		.type	test_006_009_setup, %function
 1712              	test_006_009_setup:
 1713              	.LFB296:
 1714              		.loc 6 969 0
ARM GAS  /tmp/ccUSUo1u.s 			page 32


 1715              		.cfi_startproc
 1716              		@ args = 0, pretend = 0, frame = 0
 1717              		@ frame_needed = 0, uses_anonymous_args = 0
 1718 0910 08B5     		push	{r3, lr}
 1719              		.cfi_def_cfa_offset 8
 1720              		.cfi_offset 3, -8
 1721              		.cfi_offset 14, -4
 1722              		.loc 6 970 0
 1723 0912 0548     		ldr	r0, .L83
 1724 0914 FFF7FEFF 		bl	chCondObjectInit
 1725              		.loc 6 971 0
 1726 0918 0448     		ldr	r0, .L83+4
 1727 091a FFF7FEFF 		bl	chMtxObjectInit
 1728              		.loc 6 972 0
 1729 091e 0448     		ldr	r0, .L83+8
 1730 0920 FFF7FEFF 		bl	chMtxObjectInit
 1731              		.loc 6 973 0
 1732 0924 08BD     		pop	{r3, pc}
 1733              	.L84:
 1734 0926 00BF     		.align	2
 1735              	.L83:
 1736 0928 20000000 		.word	c1
 1737 092c 00000000 		.word	m1
 1738 0930 10000000 		.word	m2
 1739              		.cfi_endproc
 1740              	.LFE296:
 1741              		.size	test_006_009_setup, .-test_006_009_setup
 1742              		.section	.rodata
 1743              		.align	2
 1744              	.LC17:
 1745 0174 41424300 		.ascii	"ABC\000"
 1746              		.text
 1747              		.align	2
 1748 0934 AFF30080 		.p2align 4,,15
 1748      AFF30080 
 1748      AFF30080 
 1749              		.thumb
 1750              		.thumb_func
 1751              		.type	test_006_009_execute, %function
 1752              	test_006_009_execute:
 1753              	.LFB297:
 1754              		.loc 6 975 0
 1755              		.cfi_startproc
 1756              		@ args = 0, pretend = 0, frame = 8
 1757              		@ frame_needed = 0, uses_anonymous_args = 0
 1758 0940 00B5     		push	{lr}
 1759              		.cfi_def_cfa_offset 4
 1760              		.cfi_offset 14, -4
 1761 0942 85B0     		sub	sp, sp, #20
 1762              		.cfi_def_cfa_offset 24
 1763              		.loc 6 979 0
 1764 0944 2B4B     		ldr	r3, .L87
 1765 0946 0122     		movs	r2, #1
 1766 0948 1A60     		str	r2, [r3]
 1767              		.loc 6 981 0
 1768 094a FFF791FB 		bl	chThdGetPriorityX
 1769 094e 0390     		str	r0, [sp, #12]
ARM GAS  /tmp/ccUSUo1u.s 			page 33


 1770              		.loc 6 986 0
 1771 0950 284B     		ldr	r3, .L87
 1772 0952 0222     		movs	r2, #2
 1773 0954 1A60     		str	r2, [r3]
 1774              		.loc 6 988 0
 1775 0956 284B     		ldr	r3, .L87+4
 1776 0958 1968     		ldr	r1, [r3]
 1777 095a 039B     		ldr	r3, [sp, #12]
 1778 095c 5A1C     		adds	r2, r3, #1
 1779 095e 274B     		ldr	r3, .L87+8
 1780 0960 0093     		str	r3, [sp]
 1781 0962 0846     		mov	r0, r1
 1782 0964 4FF4A471 		mov	r1, #328
 1783 0968 254B     		ldr	r3, .L87+12
 1784 096a FFF7FEFF 		bl	chThdCreateStatic
 1785 096e 0246     		mov	r2, r0
 1786 0970 244B     		ldr	r3, .L87+16
 1787 0972 1A60     		str	r2, [r3]
 1788              		.loc 6 993 0
 1789 0974 1F4B     		ldr	r3, .L87
 1790 0976 0322     		movs	r2, #3
 1791 0978 1A60     		str	r2, [r3]
 1792              		.loc 6 995 0
 1793 097a 1F4B     		ldr	r3, .L87+4
 1794 097c 5968     		ldr	r1, [r3, #4]
 1795 097e 039B     		ldr	r3, [sp, #12]
 1796 0980 9A1C     		adds	r2, r3, #2
 1797 0982 214B     		ldr	r3, .L87+20
 1798 0984 0093     		str	r3, [sp]
 1799 0986 0846     		mov	r0, r1
 1800 0988 4FF4A471 		mov	r1, #328
 1801 098c 1F4B     		ldr	r3, .L87+24
 1802 098e FFF7FEFF 		bl	chThdCreateStatic
 1803 0992 0246     		mov	r2, r0
 1804 0994 1B4B     		ldr	r3, .L87+16
 1805 0996 5A60     		str	r2, [r3, #4]
 1806              		.loc 6 1000 0
 1807 0998 164B     		ldr	r3, .L87
 1808 099a 0422     		movs	r2, #4
 1809 099c 1A60     		str	r2, [r3]
 1810              		.loc 6 1002 0
 1811 099e 164B     		ldr	r3, .L87+4
 1812 09a0 9968     		ldr	r1, [r3, #8]
 1813 09a2 039B     		ldr	r3, [sp, #12]
 1814 09a4 DA1C     		adds	r2, r3, #3
 1815 09a6 1A4B     		ldr	r3, .L87+28
 1816 09a8 0093     		str	r3, [sp]
 1817 09aa 0846     		mov	r0, r1
 1818 09ac 4FF4A471 		mov	r1, #328
 1819 09b0 184B     		ldr	r3, .L87+32
 1820 09b2 FFF7FEFF 		bl	chThdCreateStatic
 1821 09b6 0246     		mov	r2, r0
 1822 09b8 124B     		ldr	r3, .L87+16
 1823 09ba 9A60     		str	r2, [r3, #8]
 1824              		.loc 6 1008 0
 1825 09bc 0D4B     		ldr	r3, .L87
 1826 09be 0522     		movs	r2, #5
ARM GAS  /tmp/ccUSUo1u.s 			page 34


 1827 09c0 1A60     		str	r2, [r3]
 1828              		.loc 6 1010 0
 1829 09c2 1548     		ldr	r0, .L87+36
 1830 09c4 FFF7FEFF 		bl	chCondSignal
 1831              		.loc 6 1014 0
 1832 09c8 0A4B     		ldr	r3, .L87
 1833 09ca 0622     		movs	r2, #6
 1834 09cc 1A60     		str	r2, [r3]
 1835              		.loc 6 1016 0
 1836 09ce 1248     		ldr	r0, .L87+36
 1837 09d0 FFF7FEFF 		bl	chCondSignal
 1838              		.loc 6 1020 0
 1839 09d4 074B     		ldr	r3, .L87
 1840 09d6 0722     		movs	r2, #7
 1841 09d8 1A60     		str	r2, [r3]
 1842              		.loc 6 1022 0
 1843 09da FFF7FEFF 		bl	test_wait_threads
 1844              		.loc 6 1023 0
 1845 09de 0F48     		ldr	r0, .L87+40
 1846 09e0 0F49     		ldr	r1, .L87+44
 1847 09e2 FFF7FEFF 		bl	_test_assert_sequence
 1848 09e6 0346     		mov	r3, r0
 1849 09e8 002B     		cmp	r3, #0
 1850 09ea 00D0     		beq	.L85
 1851 09ec 00BF     		nop
 1852              	.L85:
 1853              		.loc 6 1025 0
 1854 09ee 05B0     		add	sp, sp, #20
 1855              		.cfi_def_cfa_offset 4
 1856              		@ sp needed
 1857 09f0 5DF804FB 		ldr	pc, [sp], #4
 1858              	.L88:
 1859              		.align	2
 1860              	.L87:
 1861 09f4 00000000 		.word	test_step
 1862 09f8 00000000 		.word	wa
 1863 09fc 10000000 		.word	.LC4
 1864 0a00 00000000 		.word	thread8
 1865 0a04 00000000 		.word	threads
 1866 0a08 08000000 		.word	.LC2
 1867 0a0c 00000000 		.word	thread6
 1868 0a10 0C000000 		.word	.LC3
 1869 0a14 00000000 		.word	thread9
 1870 0a18 20000000 		.word	c1
 1871 0a1c 74010000 		.word	.LC17
 1872 0a20 34000000 		.word	.LC7
 1873              		.cfi_endproc
 1874              	.LFE297:
 1875              		.size	test_006_009_execute, .-test_006_009_execute
 1876              		.section	.rodata
 1877              		.align	2
 1878              	.LC18:
 1879 0178 436F6E64 		.ascii	"Condition Variable priority boost test\000"
 1879      6974696F 
 1879      6E205661 
 1879      72696162 
 1879      6C652070 
ARM GAS  /tmp/ccUSUo1u.s 			page 35


 1880 019f 00       		.align	2
 1881              		.type	test_006_009, %object
 1882              		.size	test_006_009, 16
 1883              	test_006_009:
 1884 01a0 78010000 		.word	.LC18
 1885 01a4 00000000 		.word	test_006_009_setup
 1886 01a8 00000000 		.word	0
 1887 01ac 00000000 		.word	test_006_009_execute
 1888              		.global	test_sequence_006
 1889              		.align	2
 1890              		.type	test_sequence_006, %object
 1891              		.size	test_sequence_006, 28
 1892              	test_sequence_006:
 1893 01b0 60000000 		.word	test_006_001
 1894 01b4 90000000 		.word	test_006_004
 1895 01b8 00010000 		.word	test_006_005
 1896 01bc 30010000 		.word	test_006_007
 1897 01c0 64010000 		.word	test_006_008
 1898 01c4 A0010000 		.word	test_006_009
 1899 01c8 00000000 		.word	0
 1900              		.text
 1901              	.Letext0:
 1902              		.file 7 "/usr/lib/gcc/arm-none-eabi/4.9.3/include/stddef.h"
 1903              		.file 8 "/usr/include/newlib/machine/_default_types.h"
 1904              		.file 9 "/usr/include/newlib/sys/_stdint.h"
 1905              		.file 10 "../../../os/common/ports/ARMCMx/compilers/GCC/chtypes.h"
 1906              		.file 11 "../../../os/rt/include/chsystypes.h"
 1907              		.file 12 "../../../os/common/ports/ARMCMx/chcore.h"
 1908              		.file 13 "../../../os/rt/include/chtm.h"
 1909              		.file 14 "../../../os/rt/include/chsem.h"
 1910              		.file 15 "../../../os/rt/include/chmtx.h"
 1911              		.file 16 "../../../os/rt/include/chcond.h"
 1912              		.file 17 "../../../test/lib/ch_test.h"
 1913              		.file 18 "../../../os/common/ext/CMSIS/include/core_cm4.h"
 1914              		.file 19 "../../../test/rt/source/test/test_root.h"