ARM GAS  /tmp/ccbFaIaq.s 			page 1


   1              		.syntax unified
   2              		.cpu cortex-m4
   3              		.fpu softvfp
   4              		.eabi_attribute 20, 1
   5              		.eabi_attribute 21, 1
   6              		.eabi_attribute 23, 3
   7              		.eabi_attribute 24, 1
   8              		.eabi_attribute 25, 1
   9              		.eabi_attribute 26, 1
  10              		.eabi_attribute 30, 6
  11              		.eabi_attribute 34, 1
  12              		.eabi_attribute 18, 4
  13              		.thumb
  14              		.file	"test_sequence_013.c"
  15              		.text
  16              	.Ltext0:
  17              		.cfi_sections	.debug_frame
  18              		.align	2
  19              		.p2align 4,,15
  20              		.thumb
  21              		.thumb_func
  22              		.type	port_lock, %function
  23              	port_lock:
  24              	.LFB127:
  25              		.file 1 "../../../os/common/ports/ARMCMx/chcore_v7m.h"
  26              		.loc 1 594 0
  27              		.cfi_startproc
  28              		@ args = 0, pretend = 0, frame = 8
  29              		@ frame_needed = 0, uses_anonymous_args = 0
  30              		@ link register save eliminated.
  31 0000 82B0     		sub	sp, sp, #8
  32              		.cfi_def_cfa_offset 8
  33 0002 2023     		movs	r3, #32
  34 0004 0193     		str	r3, [sp, #4]
  35              	.LBB6:
  36              	.LBB7:
  37              		.file 2 "../../../os/common/ext/CMSIS/include/cmsis_gcc.h"
  38              		.loc 2 264 0
  39 0006 019B     		ldr	r3, [sp, #4]
  40              	@ 264 "../../../os/common/ext/CMSIS/include/cmsis_gcc.h" 1
  41 0008 83F31188 		MSR basepri, r3
  42              	@ 0 "" 2
  43              		.thumb
  44              	.LBE7:
  45              	.LBE6:
  46              		.loc 1 611 0
  47 000c 02B0     		add	sp, sp, #8
  48              		.cfi_def_cfa_offset 0
  49              		@ sp needed
  50 000e 7047     		bx	lr
  51              		.cfi_endproc
  52              	.LFE127:
  53              		.size	port_lock, .-port_lock
  54              		.align	2
  55              		.p2align 4,,15
  56              		.thumb
  57              		.thumb_func
ARM GAS  /tmp/ccbFaIaq.s 			page 2


  58              		.type	port_unlock, %function
  59              	port_unlock:
  60              	.LFB128:
  61              		.loc 1 618 0
  62              		.cfi_startproc
  63              		@ args = 0, pretend = 0, frame = 8
  64              		@ frame_needed = 0, uses_anonymous_args = 0
  65              		@ link register save eliminated.
  66 0010 82B0     		sub	sp, sp, #8
  67              		.cfi_def_cfa_offset 8
  68 0012 0023     		movs	r3, #0
  69 0014 0193     		str	r3, [sp, #4]
  70              	.LBB8:
  71              	.LBB9:
  72              		.loc 2 264 0
  73 0016 019B     		ldr	r3, [sp, #4]
  74              	@ 264 "../../../os/common/ext/CMSIS/include/cmsis_gcc.h" 1
  75 0018 83F31188 		MSR basepri, r3
  76              	@ 0 "" 2
  77              		.thumb
  78              	.LBE9:
  79              	.LBE8:
  80              		.loc 1 625 0
  81 001c 02B0     		add	sp, sp, #8
  82              		.cfi_def_cfa_offset 0
  83              		@ sp needed
  84 001e 7047     		bx	lr
  85              		.cfi_endproc
  86              	.LFE128:
  87              		.size	port_unlock, .-port_unlock
  88              		.align	2
  89              		.p2align 4,,15
  90              		.thumb
  91              		.thumb_func
  92              		.type	st_lld_get_counter, %function
  93              	st_lld_get_counter:
  94              	.LFB136:
  95              		.file 3 "../../../os/hal/ports/STM32/LLD/TIMv1/hal_st_lld.h"
  96              		.loc 3 139 0
  97              		.cfi_startproc
  98              		@ args = 0, pretend = 0, frame = 0
  99              		@ frame_needed = 0, uses_anonymous_args = 0
 100              		@ link register save eliminated.
 101              		.loc 3 141 0
 102 0020 4FF08043 		mov	r3, #1073741824
 103 0024 5B6A     		ldr	r3, [r3, #36]
 104              		.loc 3 142 0
 105 0026 1846     		mov	r0, r3
 106 0028 7047     		bx	lr
 107              		.cfi_endproc
 108              	.LFE136:
 109              		.size	st_lld_get_counter, .-st_lld_get_counter
 110 002a 00BF     		.align	2
 111 002c AFF30080 		.p2align 4,,15
 112              		.thumb
 113              		.thumb_func
 114              		.type	port_timer_get_time, %function
ARM GAS  /tmp/ccbFaIaq.s 			page 3


 115              	port_timer_get_time:
 116              	.LFB145:
 117              		.file 4 "../../../os/common/ports/ARMCMx/chcore_timer.h"
 118              		.loc 4 105 0
 119              		.cfi_startproc
 120              		@ args = 0, pretend = 0, frame = 0
 121              		@ frame_needed = 0, uses_anonymous_args = 0
 122 0030 08B5     		push	{r3, lr}
 123              		.cfi_def_cfa_offset 8
 124              		.cfi_offset 3, -8
 125              		.cfi_offset 14, -4
 126              		.loc 4 107 0
 127 0032 FFF7F5FF 		bl	st_lld_get_counter
 128 0036 0346     		mov	r3, r0
 129              		.loc 4 108 0
 130 0038 1846     		mov	r0, r3
 131 003a 08BD     		pop	{r3, pc}
 132              		.cfi_endproc
 133              	.LFE145:
 134              		.size	port_timer_get_time, .-port_timer_get_time
 135              		.align	2
 136 003c AFF30080 		.p2align 4,,15
 137              		.thumb
 138              		.thumb_func
 139              		.type	chSysLock, %function
 140              	chSysLock:
 141              	.LFB167:
 142              		.file 5 "../../../os/rt/include/chsys.h"
 143              		.loc 5 374 0
 144              		.cfi_startproc
 145              		@ args = 0, pretend = 0, frame = 0
 146              		@ frame_needed = 0, uses_anonymous_args = 0
 147 0040 08B5     		push	{r3, lr}
 148              		.cfi_def_cfa_offset 8
 149              		.cfi_offset 3, -8
 150              		.cfi_offset 14, -4
 151              		.loc 5 376 0
 152 0042 FFF7DDFF 		bl	port_lock
 153              		.loc 5 379 0
 154 0046 08BD     		pop	{r3, pc}
 155              		.cfi_endproc
 156              	.LFE167:
 157              		.size	chSysLock, .-chSysLock
 158              		.align	2
 159 0048 AFF30080 		.p2align 4,,15
 159      AFF30080 
 160              		.thumb
 161              		.thumb_func
 162              		.type	chSysUnlock, %function
 163              	chSysUnlock:
 164              	.LFB168:
 165              		.loc 5 386 0
 166              		.cfi_startproc
 167              		@ args = 0, pretend = 0, frame = 0
 168              		@ frame_needed = 0, uses_anonymous_args = 0
 169 0050 08B5     		push	{r3, lr}
 170              		.cfi_def_cfa_offset 8
ARM GAS  /tmp/ccbFaIaq.s 			page 4


 171              		.cfi_offset 3, -8
 172              		.cfi_offset 14, -4
 173              		.loc 5 399 0
 174 0052 FFF7DDFF 		bl	port_unlock
 175              		.loc 5 400 0
 176 0056 08BD     		pop	{r3, pc}
 177              		.cfi_endproc
 178              	.LFE168:
 179              		.size	chSysUnlock, .-chSysUnlock
 180              		.align	2
 181 0058 AFF30080 		.p2align 4,,15
 181      AFF30080 
 182              		.thumb
 183              		.thumb_func
 184              		.type	chVTGetSystemTimeX, %function
 185              	chVTGetSystemTimeX:
 186              	.LFB181:
 187              		.file 6 "../../../os/rt/include/chvt.h"
 188              		.loc 6 392 0
 189              		.cfi_startproc
 190              		@ args = 0, pretend = 0, frame = 0
 191              		@ frame_needed = 0, uses_anonymous_args = 0
 192 0060 08B5     		push	{r3, lr}
 193              		.cfi_def_cfa_offset 8
 194              		.cfi_offset 3, -8
 195              		.cfi_offset 14, -4
 196              		.loc 6 397 0
 197 0062 FFF7E5FF 		bl	port_timer_get_time
 198 0066 0346     		mov	r3, r0
 199              		.loc 6 399 0
 200 0068 1846     		mov	r0, r3
 201 006a 08BD     		pop	{r3, pc}
 202              		.cfi_endproc
 203              	.LFE181:
 204              		.size	chVTGetSystemTimeX, .-chVTGetSystemTimeX
 205              		.align	2
 206 006c AFF30080 		.p2align 4,,15
 207              		.thumb
 208              		.thumb_func
 209              		.type	chVTIsTimeWithinX, %function
 210              	chVTIsTimeWithinX:
 211              	.LFB184:
 212              		.loc 6 450 0
 213              		.cfi_startproc
 214              		@ args = 0, pretend = 0, frame = 16
 215              		@ frame_needed = 0, uses_anonymous_args = 0
 216              		@ link register save eliminated.
 217 0070 84B0     		sub	sp, sp, #16
 218              		.cfi_def_cfa_offset 16
 219 0072 0390     		str	r0, [sp, #12]
 220 0074 0291     		str	r1, [sp, #8]
 221 0076 0192     		str	r2, [sp, #4]
 222              		.loc 6 452 0
 223 0078 039A     		ldr	r2, [sp, #12]
 224 007a 029B     		ldr	r3, [sp, #8]
 225 007c D21A     		subs	r2, r2, r3
 226 007e 0199     		ldr	r1, [sp, #4]
ARM GAS  /tmp/ccbFaIaq.s 			page 5


 227 0080 029B     		ldr	r3, [sp, #8]
 228 0082 CB1A     		subs	r3, r1, r3
 229 0084 9A42     		cmp	r2, r3
 230 0086 34BF     		ite	cc
 231 0088 0123     		movcc	r3, #1
 232 008a 0023     		movcs	r3, #0
 233 008c DBB2     		uxtb	r3, r3
 234              		.loc 6 453 0
 235 008e 1846     		mov	r0, r3
 236 0090 04B0     		add	sp, sp, #16
 237              		.cfi_def_cfa_offset 0
 238              		@ sp needed
 239 0092 7047     		bx	lr
 240              		.cfi_endproc
 241              	.LFE184:
 242              		.size	chVTIsTimeWithinX, .-chVTIsTimeWithinX
 243              		.align	2
 244 0094 AFF30080 		.p2align 4,,15
 244      AFF30080 
 244      AFF30080 
 245              		.thumb
 246              		.thumb_func
 247              		.type	chVTIsSystemTimeWithinX, %function
 248              	chVTIsSystemTimeWithinX:
 249              	.LFB185:
 250              		.loc 6 468 0
 251              		.cfi_startproc
 252              		@ args = 0, pretend = 0, frame = 8
 253              		@ frame_needed = 0, uses_anonymous_args = 0
 254 00a0 00B5     		push	{lr}
 255              		.cfi_def_cfa_offset 4
 256              		.cfi_offset 14, -4
 257 00a2 83B0     		sub	sp, sp, #12
 258              		.cfi_def_cfa_offset 16
 259 00a4 0190     		str	r0, [sp, #4]
 260 00a6 0091     		str	r1, [sp]
 261              		.loc 6 470 0
 262 00a8 FFF7DAFF 		bl	chVTGetSystemTimeX
 263 00ac 0346     		mov	r3, r0
 264 00ae 1846     		mov	r0, r3
 265 00b0 0199     		ldr	r1, [sp, #4]
 266 00b2 009A     		ldr	r2, [sp]
 267 00b4 FFF7DCFF 		bl	chVTIsTimeWithinX
 268 00b8 0346     		mov	r3, r0
 269              		.loc 6 471 0
 270 00ba 1846     		mov	r0, r3
 271 00bc 03B0     		add	sp, sp, #12
 272              		.cfi_def_cfa_offset 4
 273              		@ sp needed
 274 00be 5DF804FB 		ldr	pc, [sp], #4
 275              		.cfi_endproc
 276              	.LFE185:
 277              		.size	chVTIsSystemTimeWithinX, .-chVTIsSystemTimeWithinX
 278 00c2 00BF     		.align	2
 279 00c4 AFF30080 		.p2align 4,,15
 279      AFF30080 
 279      AFF30080 
ARM GAS  /tmp/ccbFaIaq.s 			page 6


 280              		.thumb
 281              		.thumb_func
 282              		.type	chThdGetSelfX, %function
 283              	chThdGetSelfX:
 284              	.LFB195:
 285              		.file 7 "../../../os/rt/include/chthreads.h"
 286              		.loc 7 284 0
 287              		.cfi_startproc
 288              		@ args = 0, pretend = 0, frame = 0
 289              		@ frame_needed = 0, uses_anonymous_args = 0
 290              		@ link register save eliminated.
 291              		.loc 7 286 0
 292 00d0 014B     		ldr	r3, .L17
 293 00d2 9B69     		ldr	r3, [r3, #24]
 294              		.loc 7 287 0
 295 00d4 1846     		mov	r0, r3
 296 00d6 7047     		bx	lr
 297              	.L18:
 298              		.align	2
 299              	.L17:
 300 00d8 00000000 		.word	ch
 301              		.cfi_endproc
 302              	.LFE195:
 303              		.size	chThdGetSelfX, .-chThdGetSelfX
 304              		.align	2
 305 00dc AFF30080 		.p2align 4,,15
 306              		.thumb
 307              		.thumb_func
 308              		.type	chThdGetPriorityX, %function
 309              	chThdGetPriorityX:
 310              	.LFB196:
 311              		.loc 7 297 0
 312              		.cfi_startproc
 313              		@ args = 0, pretend = 0, frame = 0
 314              		@ frame_needed = 0, uses_anonymous_args = 0
 315 00e0 08B5     		push	{r3, lr}
 316              		.cfi_def_cfa_offset 8
 317              		.cfi_offset 3, -8
 318              		.cfi_offset 14, -4
 319              		.loc 7 299 0
 320 00e2 FFF7F5FF 		bl	chThdGetSelfX
 321 00e6 0346     		mov	r3, r0
 322 00e8 9B68     		ldr	r3, [r3, #8]
 323              		.loc 7 300 0
 324 00ea 1846     		mov	r0, r3
 325 00ec 08BD     		pop	{r3, pc}
 326              		.cfi_endproc
 327              	.LFE196:
 328              		.size	chThdGetPriorityX, .-chThdGetPriorityX
 329 00ee 00BF     		.align	2
 330              		.p2align 4,,15
 331              		.thumb
 332              		.thumb_func
 333              		.type	chThdShouldTerminateX, %function
 334              	chThdShouldTerminateX:
 335              	.LFB199:
 336              		.loc 7 357 0
ARM GAS  /tmp/ccbFaIaq.s 			page 7


 337              		.cfi_startproc
 338              		@ args = 0, pretend = 0, frame = 0
 339              		@ frame_needed = 0, uses_anonymous_args = 0
 340 00f0 08B5     		push	{r3, lr}
 341              		.cfi_def_cfa_offset 8
 342              		.cfi_offset 3, -8
 343              		.cfi_offset 14, -4
 344              		.loc 7 359 0
 345 00f2 FFF7EDFF 		bl	chThdGetSelfX
 346 00f6 0346     		mov	r3, r0
 347 00f8 93F82130 		ldrb	r3, [r3, #33]	@ zero_extendqisi2
 348 00fc 03F00403 		and	r3, r3, #4
 349 0100 002B     		cmp	r3, #0
 350 0102 14BF     		ite	ne
 351 0104 0123     		movne	r3, #1
 352 0106 0023     		moveq	r3, #0
 353 0108 DBB2     		uxtb	r3, r3
 354              		.loc 7 360 0
 355 010a 1846     		mov	r0, r3
 356 010c 08BD     		pop	{r3, pc}
 357              		.cfi_endproc
 358              	.LFE199:
 359              		.size	chThdShouldTerminateX, .-chThdShouldTerminateX
 360 010e 00BF     		.align	2
 361              		.p2align 4,,15
 362              		.thumb
 363              		.thumb_func
 364              		.type	chMsgGet, %function
 365              	chMsgGet:
 366              	.LFB231:
 367              		.file 8 "../../../os/rt/include/chmsg.h"
 368              		.loc 8 96 0
 369              		.cfi_startproc
 370              		@ args = 0, pretend = 0, frame = 8
 371              		@ frame_needed = 0, uses_anonymous_args = 0
 372              		@ link register save eliminated.
 373 0110 82B0     		sub	sp, sp, #8
 374              		.cfi_def_cfa_offset 8
 375 0112 0190     		str	r0, [sp, #4]
 376              		.loc 8 100 0
 377 0114 019B     		ldr	r3, [sp, #4]
 378 0116 5B6A     		ldr	r3, [r3, #36]
 379              		.loc 8 101 0
 380 0118 1846     		mov	r0, r3
 381 011a 02B0     		add	sp, sp, #8
 382              		.cfi_def_cfa_offset 0
 383              		@ sp needed
 384 011c 7047     		bx	lr
 385              		.cfi_endproc
 386              	.LFE231:
 387              		.size	chMsgGet, .-chMsgGet
 388              		.bss
 389              		.align	2
 390              	sem1:
 391 0000 00000000 		.space	12
 391      00000000 
 391      00000000 
ARM GAS  /tmp/ccbFaIaq.s 			page 8


 392              		.align	2
 393              	mtx1:
 394 000c 00000000 		.space	16
 394      00000000 
 394      00000000 
 394      00000000 
 395              		.text
 396 011e 00BF     		.align	2
 397              		.p2align 4,,15
 398              		.thumb
 399              		.thumb_func
 400              		.type	tmo, %function
 401              	tmo:
 402              	.LFB279:
 403              		.file 9 "../../../test/rt/source/test/test_sequence_013.c"
 404              		.loc 9 64 0
 405              		.cfi_startproc
 406              		@ args = 0, pretend = 0, frame = 8
 407              		@ frame_needed = 0, uses_anonymous_args = 0
 408              		@ link register save eliminated.
 409 0120 82B0     		sub	sp, sp, #8
 410              		.cfi_def_cfa_offset 8
 411 0122 0190     		str	r0, [sp, #4]
 412              		.loc 9 64 0
 413 0124 02B0     		add	sp, sp, #8
 414              		.cfi_def_cfa_offset 0
 415              		@ sp needed
 416 0126 7047     		bx	lr
 417              		.cfi_endproc
 418              	.LFE279:
 419              		.size	tmo, .-tmo
 420              		.align	2
 421 0128 AFF30080 		.p2align 4,,15
 421      AFF30080 
 422              		.thumb
 423              		.thumb_func
 424              		.type	bmk_thread1, %function
 425              	bmk_thread1:
 426              	.LFB280:
 427              		.loc 9 67 0
 428              		.cfi_startproc
 429              		@ args = 0, pretend = 0, frame = 16
 430              		@ frame_needed = 0, uses_anonymous_args = 0
 431 0130 00B5     		push	{lr}
 432              		.cfi_def_cfa_offset 4
 433              		.cfi_offset 14, -4
 434 0132 85B0     		sub	sp, sp, #20
 435              		.cfi_def_cfa_offset 24
 436 0134 0190     		str	r0, [sp, #4]
 437              	.L27:
 438              		.loc 9 73 0 discriminator 1
 439 0136 FFF7FEFF 		bl	chMsgWait
 440 013a 0390     		str	r0, [sp, #12]
 441              		.loc 9 74 0 discriminator 1
 442 013c 0398     		ldr	r0, [sp, #12]
 443 013e FFF7E7FF 		bl	chMsgGet
 444 0142 0290     		str	r0, [sp, #8]
ARM GAS  /tmp/ccbFaIaq.s 			page 9


 445              		.loc 9 75 0 discriminator 1
 446 0144 0398     		ldr	r0, [sp, #12]
 447 0146 0299     		ldr	r1, [sp, #8]
 448 0148 FFF7FEFF 		bl	chMsgRelease
 449              		.loc 9 76 0 discriminator 1
 450 014c 029B     		ldr	r3, [sp, #8]
 451 014e 002B     		cmp	r3, #0
 452 0150 F1D1     		bne	.L27
 453              		.loc 9 77 0
 454 0152 05B0     		add	sp, sp, #20
 455              		.cfi_def_cfa_offset 4
 456              		@ sp needed
 457 0154 5DF804FB 		ldr	pc, [sp], #4
 458              		.cfi_endproc
 459              	.LFE280:
 460              		.size	bmk_thread1, .-bmk_thread1
 461              		.align	2
 462 0158 AFF30080 		.p2align 4,,15
 462      AFF30080 
 463              		.thumb
 464              		.thumb_func
 465              		.type	msg_loop_test, %function
 466              	msg_loop_test:
 467              	.LFB281:
 468              		.loc 9 79 0
 469              		.cfi_startproc
 470              		@ args = 0, pretend = 0, frame = 24
 471              		@ frame_needed = 0, uses_anonymous_args = 0
 472 0160 00B5     		push	{lr}
 473              		.cfi_def_cfa_offset 4
 474              		.cfi_offset 14, -4
 475 0162 87B0     		sub	sp, sp, #28
 476              		.cfi_def_cfa_offset 32
 477 0164 0190     		str	r0, [sp, #4]
 478              		.loc 9 82 0
 479 0166 0023     		movs	r3, #0
 480 0168 0593     		str	r3, [sp, #20]
 481              		.loc 9 83 0
 482 016a FFF7FEFF 		bl	test_wait_tick
 483 016e 0490     		str	r0, [sp, #16]
 484              		.loc 9 84 0
 485 0170 049B     		ldr	r3, [sp, #16]
 486 0172 03F51C53 		add	r3, r3, #9984
 487 0176 1033     		adds	r3, r3, #16
 488 0178 0393     		str	r3, [sp, #12]
 489              	.L29:
 490              		.loc 9 86 0 discriminator 1
 491 017a 0198     		ldr	r0, [sp, #4]
 492 017c 0121     		movs	r1, #1
 493 017e FFF7FEFF 		bl	chMsgSend
 494              		.loc 9 87 0 discriminator 1
 495 0182 059B     		ldr	r3, [sp, #20]
 496 0184 0133     		adds	r3, r3, #1
 497 0186 0593     		str	r3, [sp, #20]
 498              		.loc 9 91 0 discriminator 1
 499 0188 0498     		ldr	r0, [sp, #16]
 500 018a 0399     		ldr	r1, [sp, #12]
ARM GAS  /tmp/ccbFaIaq.s 			page 10


 501 018c FFF788FF 		bl	chVTIsSystemTimeWithinX
 502 0190 0346     		mov	r3, r0
 503 0192 002B     		cmp	r3, #0
 504 0194 F1D1     		bne	.L29
 505              		.loc 9 92 0
 506 0196 0198     		ldr	r0, [sp, #4]
 507 0198 0021     		movs	r1, #0
 508 019a FFF7FEFF 		bl	chMsgSend
 509              		.loc 9 93 0
 510 019e 059B     		ldr	r3, [sp, #20]
 511              		.loc 9 94 0
 512 01a0 1846     		mov	r0, r3
 513 01a2 07B0     		add	sp, sp, #28
 514              		.cfi_def_cfa_offset 4
 515              		@ sp needed
 516 01a4 5DF804FB 		ldr	pc, [sp], #4
 517              		.cfi_endproc
 518              	.LFE281:
 519              		.size	msg_loop_test, .-msg_loop_test
 520              		.align	2
 521 01a8 AFF30080 		.p2align 4,,15
 521      AFF30080 
 522              		.thumb
 523              		.thumb_func
 524              		.type	bmk_thread3, %function
 525              	bmk_thread3:
 526              	.LFB282:
 527              		.loc 9 97 0
 528              		.cfi_startproc
 529              		@ args = 0, pretend = 0, frame = 8
 530              		@ frame_needed = 0, uses_anonymous_args = 0
 531 01b0 00B5     		push	{lr}
 532              		.cfi_def_cfa_offset 4
 533              		.cfi_offset 14, -4
 534 01b2 83B0     		sub	sp, sp, #12
 535              		.cfi_def_cfa_offset 16
 536 01b4 0190     		str	r0, [sp, #4]
 537              		.loc 9 99 0
 538 01b6 019B     		ldr	r3, [sp, #4]
 539 01b8 1846     		mov	r0, r3
 540 01ba FFF7FEFF 		bl	chThdExit
 541              		.loc 9 100 0
 542 01be 03B0     		add	sp, sp, #12
 543              		.cfi_def_cfa_offset 4
 544              		@ sp needed
 545 01c0 5DF804FB 		ldr	pc, [sp], #4
 546              		.cfi_endproc
 547              	.LFE282:
 548              		.size	bmk_thread3, .-bmk_thread3
 549              		.align	2
 550 01c4 AFF30080 		.p2align 4,,15
 550      AFF30080 
 550      AFF30080 
 551              		.thumb
 552              		.thumb_func
 553              		.type	bmk_thread4, %function
 554              	bmk_thread4:
ARM GAS  /tmp/ccbFaIaq.s 			page 11


 555              	.LFB283:
 556              		.loc 9 102 0
 557              		.cfi_startproc
 558              		@ args = 0, pretend = 0, frame = 16
 559              		@ frame_needed = 0, uses_anonymous_args = 0
 560 01d0 00B5     		push	{lr}
 561              		.cfi_def_cfa_offset 4
 562              		.cfi_offset 14, -4
 563 01d2 85B0     		sub	sp, sp, #20
 564              		.cfi_def_cfa_offset 24
 565 01d4 0190     		str	r0, [sp, #4]
 566              		.loc 9 104 0
 567 01d6 FFF77BFF 		bl	chThdGetSelfX
 568 01da 0390     		str	r0, [sp, #12]
 569              		.loc 9 107 0
 570 01dc FFF730FF 		bl	chSysLock
 571              	.L33:
 572              		.loc 9 109 0 discriminator 1
 573 01e0 0320     		movs	r0, #3
 574 01e2 FFF7FEFF 		bl	chSchGoSleepS
 575              		.loc 9 110 0 discriminator 1
 576 01e6 039B     		ldr	r3, [sp, #12]
 577 01e8 5B6A     		ldr	r3, [r3, #36]
 578 01ea 0293     		str	r3, [sp, #8]
 579              		.loc 9 111 0 discriminator 1
 580 01ec 029B     		ldr	r3, [sp, #8]
 581 01ee 002B     		cmp	r3, #0
 582 01f0 F6D0     		beq	.L33
 583              		.loc 9 112 0
 584 01f2 FFF72DFF 		bl	chSysUnlock
 585              		.loc 9 113 0
 586 01f6 05B0     		add	sp, sp, #20
 587              		.cfi_def_cfa_offset 4
 588              		@ sp needed
 589 01f8 5DF804FB 		ldr	pc, [sp], #4
 590              		.cfi_endproc
 591              	.LFE283:
 592              		.size	bmk_thread4, .-bmk_thread4
 593              		.align	2
 594 01fc AFF30080 		.p2align 4,,15
 595              		.thumb
 596              		.thumb_func
 597              		.type	bmk_thread7, %function
 598              	bmk_thread7:
 599              	.LFB284:
 600              		.loc 9 116 0
 601              		.cfi_startproc
 602              		@ args = 0, pretend = 0, frame = 8
 603              		@ frame_needed = 0, uses_anonymous_args = 0
 604 0200 00B5     		push	{lr}
 605              		.cfi_def_cfa_offset 4
 606              		.cfi_offset 14, -4
 607 0202 83B0     		sub	sp, sp, #12
 608              		.cfi_def_cfa_offset 16
 609 0204 0190     		str	r0, [sp, #4]
 610              		.loc 9 119 0
 611 0206 02E0     		b	.L35
ARM GAS  /tmp/ccbFaIaq.s 			page 12


 612              	.L36:
 613              		.loc 9 120 0
 614 0208 0648     		ldr	r0, .L37
 615 020a FFF7FEFF 		bl	chSemWait
 616              	.L35:
 617              		.loc 9 119 0
 618 020e FFF76FFF 		bl	chThdShouldTerminateX
 619 0212 0346     		mov	r3, r0
 620 0214 83F00103 		eor	r3, r3, #1
 621 0218 DBB2     		uxtb	r3, r3
 622 021a 002B     		cmp	r3, #0
 623 021c F4D1     		bne	.L36
 624              		.loc 9 121 0
 625 021e 03B0     		add	sp, sp, #12
 626              		.cfi_def_cfa_offset 4
 627              		@ sp needed
 628 0220 5DF804FB 		ldr	pc, [sp], #4
 629              	.L38:
 630              		.align	2
 631              	.L37:
 632 0224 00000000 		.word	sem1
 633              		.cfi_endproc
 634              	.LFE284:
 635              		.size	bmk_thread7, .-bmk_thread7
 636              		.align	2
 637 0228 AFF30080 		.p2align 4,,15
 637      AFF30080 
 638              		.thumb
 639              		.thumb_func
 640              		.type	bmk_thread8, %function
 641              	bmk_thread8:
 642              	.LFB285:
 643              		.loc 9 124 0
 644              		.cfi_startproc
 645              		@ args = 0, pretend = 0, frame = 8
 646              		@ frame_needed = 0, uses_anonymous_args = 0
 647 0230 00B5     		push	{lr}
 648              		.cfi_def_cfa_offset 4
 649              		.cfi_offset 14, -4
 650 0232 83B0     		sub	sp, sp, #12
 651              		.cfi_def_cfa_offset 16
 652 0234 0190     		str	r0, [sp, #4]
 653              	.L40:
 654              		.loc 9 127 0 discriminator 1
 655 0236 FFF7FEFF 		bl	chThdYield
 656              		.loc 9 128 0 discriminator 1
 657 023a FFF7FEFF 		bl	chThdYield
 658              		.loc 9 129 0 discriminator 1
 659 023e FFF7FEFF 		bl	chThdYield
 660              		.loc 9 130 0 discriminator 1
 661 0242 FFF7FEFF 		bl	chThdYield
 662              		.loc 9 131 0 discriminator 1
 663 0246 019B     		ldr	r3, [sp, #4]
 664 0248 1B68     		ldr	r3, [r3]
 665 024a 1A1D     		adds	r2, r3, #4
 666 024c 019B     		ldr	r3, [sp, #4]
 667 024e 1A60     		str	r2, [r3]
ARM GAS  /tmp/ccbFaIaq.s 			page 13


 668              		.loc 9 135 0 discriminator 1
 669 0250 FFF74EFF 		bl	chThdShouldTerminateX
 670 0254 0346     		mov	r3, r0
 671 0256 83F00103 		eor	r3, r3, #1
 672 025a DBB2     		uxtb	r3, r3
 673 025c 002B     		cmp	r3, #0
 674 025e EAD1     		bne	.L40
 675              		.loc 9 136 0
 676 0260 03B0     		add	sp, sp, #12
 677              		.cfi_def_cfa_offset 4
 678              		@ sp needed
 679 0262 5DF804FB 		ldr	pc, [sp], #4
 680              		.cfi_endproc
 681              	.LFE285:
 682              		.size	bmk_thread8, .-bmk_thread8
 683              		.section	.rodata
 684              		.align	2
 685              	.LC0:
 686 0000 2D2D2D20 		.ascii	"--- Score : \000"
 686      53636F72 
 686      65203A20 
 686      00
 687 000d 000000   		.align	2
 688              	.LC1:
 689 0010 206D7367 		.ascii	" msgs/S, \000"
 689      732F532C 
 689      2000
 690 001a 0000     		.align	2
 691              	.LC2:
 692 001c 20637478 		.ascii	" ctxswc/S\000"
 692      7377632F 
 692      5300
 693              		.text
 694 0266 00BF     		.align	2
 695 0268 AFF30080 		.p2align 4,,15
 695      AFF30080 
 696              		.thumb
 697              		.thumb_func
 698              		.type	test_013_001_execute, %function
 699              	test_013_001_execute:
 700              	.LFB286:
 701              		.loc 9 166 0
 702              		.cfi_startproc
 703              		@ args = 0, pretend = 0, frame = 8
 704              		@ frame_needed = 0, uses_anonymous_args = 0
 705 0270 10B5     		push	{r4, lr}
 706              		.cfi_def_cfa_offset 8
 707              		.cfi_offset 4, -8
 708              		.cfi_offset 14, -4
 709 0272 84B0     		sub	sp, sp, #16
 710              		.cfi_def_cfa_offset 24
 711              		.loc 9 171 0
 712 0274 1A4B     		ldr	r3, .L42
 713 0276 0122     		movs	r2, #1
 714 0278 1A60     		str	r2, [r3]
 715              		.loc 9 173 0
 716 027a 1A4B     		ldr	r3, .L42+4
ARM GAS  /tmp/ccbFaIaq.s 			page 14


 717 027c 1C68     		ldr	r4, [r3]
 718 027e FFF72FFF 		bl	chThdGetPriorityX
 719 0282 0346     		mov	r3, r0
 720 0284 5A1E     		subs	r2, r3, #1
 721 0286 0023     		movs	r3, #0
 722 0288 0093     		str	r3, [sp]
 723 028a 2046     		mov	r0, r4
 724 028c 4FF4A471 		mov	r1, #328
 725 0290 154B     		ldr	r3, .L42+8
 726 0292 FFF7FEFF 		bl	chThdCreateStatic
 727 0296 0246     		mov	r2, r0
 728 0298 144B     		ldr	r3, .L42+12
 729 029a 1A60     		str	r2, [r3]
 730              		.loc 9 178 0
 731 029c 104B     		ldr	r3, .L42
 732 029e 0222     		movs	r2, #2
 733 02a0 1A60     		str	r2, [r3]
 734              		.loc 9 180 0
 735 02a2 124B     		ldr	r3, .L42+12
 736 02a4 1B68     		ldr	r3, [r3]
 737 02a6 1846     		mov	r0, r3
 738 02a8 FFF75AFF 		bl	msg_loop_test
 739 02ac 0390     		str	r0, [sp, #12]
 740              		.loc 9 181 0
 741 02ae FFF7FEFF 		bl	test_wait_threads
 742              		.loc 9 185 0
 743 02b2 0B4B     		ldr	r3, .L42
 744 02b4 0322     		movs	r2, #3
 745 02b6 1A60     		str	r2, [r3]
 746              		.loc 9 187 0
 747 02b8 0D48     		ldr	r0, .L42+16
 748 02ba FFF7FEFF 		bl	test_print
 749              		.loc 9 188 0
 750 02be 0398     		ldr	r0, [sp, #12]
 751 02c0 FFF7FEFF 		bl	test_printn
 752              		.loc 9 189 0
 753 02c4 0B48     		ldr	r0, .L42+20
 754 02c6 FFF7FEFF 		bl	test_print
 755              		.loc 9 190 0
 756 02ca 039B     		ldr	r3, [sp, #12]
 757 02cc 5B00     		lsls	r3, r3, #1
 758 02ce 1846     		mov	r0, r3
 759 02d0 FFF7FEFF 		bl	test_printn
 760              		.loc 9 191 0
 761 02d4 0848     		ldr	r0, .L42+24
 762 02d6 FFF7FEFF 		bl	test_println
 763              		.loc 9 193 0
 764 02da 04B0     		add	sp, sp, #16
 765              		.cfi_def_cfa_offset 8
 766              		@ sp needed
 767 02dc 10BD     		pop	{r4, pc}
 768              	.L43:
 769 02de 00BF     		.align	2
 770              	.L42:
 771 02e0 00000000 		.word	test_step
 772 02e4 00000000 		.word	wa
 773 02e8 00000000 		.word	bmk_thread1
ARM GAS  /tmp/ccbFaIaq.s 			page 15


 774 02ec 00000000 		.word	threads
 775 02f0 00000000 		.word	.LC0
 776 02f4 10000000 		.word	.LC1
 777 02f8 1C000000 		.word	.LC2
 778              		.cfi_endproc
 779              	.LFE286:
 780              		.size	test_013_001_execute, .-test_013_001_execute
 781              		.section	.rodata
 782 0026 0000     		.align	2
 783              	.LC3:
 784 0028 4D657373 		.ascii	"Messages performance #1\000"
 784      61676573 
 784      20706572 
 784      666F726D 
 784      616E6365 
 785              		.align	2
 786              		.type	test_013_001, %object
 787              		.size	test_013_001, 16
 788              	test_013_001:
 789 0040 28000000 		.word	.LC3
 790 0044 00000000 		.word	0
 791 0048 00000000 		.word	0
 792 004c 00000000 		.word	test_013_001_execute
 793              		.text
 794              		.align	2
 795 02fc AFF30080 		.p2align 4,,15
 796              		.thumb
 797              		.thumb_func
 798              		.type	test_013_002_execute, %function
 799              	test_013_002_execute:
 800              	.LFB287:
 801              		.loc 9 227 0
 802              		.cfi_startproc
 803              		@ args = 0, pretend = 0, frame = 8
 804              		@ frame_needed = 0, uses_anonymous_args = 0
 805 0300 10B5     		push	{r4, lr}
 806              		.cfi_def_cfa_offset 8
 807              		.cfi_offset 4, -8
 808              		.cfi_offset 14, -4
 809 0302 84B0     		sub	sp, sp, #16
 810              		.cfi_def_cfa_offset 24
 811              		.loc 9 232 0
 812 0304 1A4B     		ldr	r3, .L45
 813 0306 0122     		movs	r2, #1
 814 0308 1A60     		str	r2, [r3]
 815              		.loc 9 234 0
 816 030a 1A4B     		ldr	r3, .L45+4
 817 030c 1C68     		ldr	r4, [r3]
 818 030e FFF7E7FE 		bl	chThdGetPriorityX
 819 0312 0346     		mov	r3, r0
 820 0314 5A1C     		adds	r2, r3, #1
 821 0316 0023     		movs	r3, #0
 822 0318 0093     		str	r3, [sp]
 823 031a 2046     		mov	r0, r4
 824 031c 4FF4A471 		mov	r1, #328
 825 0320 154B     		ldr	r3, .L45+8
 826 0322 FFF7FEFF 		bl	chThdCreateStatic
ARM GAS  /tmp/ccbFaIaq.s 			page 16


 827 0326 0246     		mov	r2, r0
 828 0328 144B     		ldr	r3, .L45+12
 829 032a 1A60     		str	r2, [r3]
 830              		.loc 9 239 0
 831 032c 104B     		ldr	r3, .L45
 832 032e 0222     		movs	r2, #2
 833 0330 1A60     		str	r2, [r3]
 834              		.loc 9 241 0
 835 0332 124B     		ldr	r3, .L45+12
 836 0334 1B68     		ldr	r3, [r3]
 837 0336 1846     		mov	r0, r3
 838 0338 FFF712FF 		bl	msg_loop_test
 839 033c 0390     		str	r0, [sp, #12]
 840              		.loc 9 242 0
 841 033e FFF7FEFF 		bl	test_wait_threads
 842              		.loc 9 246 0
 843 0342 0B4B     		ldr	r3, .L45
 844 0344 0322     		movs	r2, #3
 845 0346 1A60     		str	r2, [r3]
 846              		.loc 9 248 0
 847 0348 0D48     		ldr	r0, .L45+16
 848 034a FFF7FEFF 		bl	test_print
 849              		.loc 9 249 0
 850 034e 0398     		ldr	r0, [sp, #12]
 851 0350 FFF7FEFF 		bl	test_printn
 852              		.loc 9 250 0
 853 0354 0B48     		ldr	r0, .L45+20
 854 0356 FFF7FEFF 		bl	test_print
 855              		.loc 9 251 0
 856 035a 039B     		ldr	r3, [sp, #12]
 857 035c 5B00     		lsls	r3, r3, #1
 858 035e 1846     		mov	r0, r3
 859 0360 FFF7FEFF 		bl	test_printn
 860              		.loc 9 252 0
 861 0364 0848     		ldr	r0, .L45+24
 862 0366 FFF7FEFF 		bl	test_println
 863              		.loc 9 254 0
 864 036a 04B0     		add	sp, sp, #16
 865              		.cfi_def_cfa_offset 8
 866              		@ sp needed
 867 036c 10BD     		pop	{r4, pc}
 868              	.L46:
 869 036e 00BF     		.align	2
 870              	.L45:
 871 0370 00000000 		.word	test_step
 872 0374 00000000 		.word	wa
 873 0378 00000000 		.word	bmk_thread1
 874 037c 00000000 		.word	threads
 875 0380 00000000 		.word	.LC0
 876 0384 10000000 		.word	.LC1
 877 0388 1C000000 		.word	.LC2
 878              		.cfi_endproc
 879              	.LFE287:
 880              		.size	test_013_002_execute, .-test_013_002_execute
 881              		.section	.rodata
 882              		.align	2
 883              	.LC4:
ARM GAS  /tmp/ccbFaIaq.s 			page 17


 884 0050 4D657373 		.ascii	"Messages performance #2\000"
 884      61676573 
 884      20706572 
 884      666F726D 
 884      616E6365 
 885              		.align	2
 886              		.type	test_013_002, %object
 887              		.size	test_013_002, 16
 888              	test_013_002:
 889 0068 50000000 		.word	.LC4
 890 006c 00000000 		.word	0
 891 0070 00000000 		.word	0
 892 0074 00000000 		.word	test_013_002_execute
 893              		.text
 894              		.align	2
 895 038c AFF30080 		.p2align 4,,15
 896              		.thumb
 897              		.thumb_func
 898              		.type	test_013_003_execute, %function
 899              	test_013_003_execute:
 900              	.LFB288:
 901              		.loc 9 291 0
 902              		.cfi_startproc
 903              		@ args = 0, pretend = 0, frame = 8
 904              		@ frame_needed = 0, uses_anonymous_args = 0
 905 0390 10B5     		push	{r4, lr}
 906              		.cfi_def_cfa_offset 8
 907              		.cfi_offset 4, -8
 908              		.cfi_offset 14, -4
 909 0392 84B0     		sub	sp, sp, #16
 910              		.cfi_def_cfa_offset 24
 911              		.loc 9 296 0
 912 0394 3D4B     		ldr	r3, .L48
 913 0396 0122     		movs	r2, #1
 914 0398 1A60     		str	r2, [r3]
 915              		.loc 9 298 0
 916 039a 3D4B     		ldr	r3, .L48+4
 917 039c 1C68     		ldr	r4, [r3]
 918 039e FFF79FFE 		bl	chThdGetPriorityX
 919 03a2 0346     		mov	r3, r0
 920 03a4 5A1C     		adds	r2, r3, #1
 921 03a6 0023     		movs	r3, #0
 922 03a8 0093     		str	r3, [sp]
 923 03aa 2046     		mov	r0, r4
 924 03ac 4FF4A471 		mov	r1, #328
 925 03b0 384B     		ldr	r3, .L48+8
 926 03b2 FFF7FEFF 		bl	chThdCreateStatic
 927 03b6 0246     		mov	r2, r0
 928 03b8 374B     		ldr	r3, .L48+12
 929 03ba 1A60     		str	r2, [r3]
 930              		.loc 9 303 0
 931 03bc 334B     		ldr	r3, .L48
 932 03be 0222     		movs	r2, #2
 933 03c0 1A60     		str	r2, [r3]
 934              		.loc 9 305 0
 935 03c2 334B     		ldr	r3, .L48+4
 936 03c4 5C68     		ldr	r4, [r3, #4]
ARM GAS  /tmp/ccbFaIaq.s 			page 18


 937 03c6 FFF78BFE 		bl	chThdGetPriorityX
 938 03ca 0346     		mov	r3, r0
 939 03cc 9A1E     		subs	r2, r3, #2
 940 03ce 0023     		movs	r3, #0
 941 03d0 0093     		str	r3, [sp]
 942 03d2 2046     		mov	r0, r4
 943 03d4 4FF4A471 		mov	r1, #328
 944 03d8 304B     		ldr	r3, .L48+16
 945 03da FFF7FEFF 		bl	chThdCreateStatic
 946 03de 0246     		mov	r2, r0
 947 03e0 2D4B     		ldr	r3, .L48+12
 948 03e2 5A60     		str	r2, [r3, #4]
 949              		.loc 9 306 0
 950 03e4 2A4B     		ldr	r3, .L48+4
 951 03e6 9C68     		ldr	r4, [r3, #8]
 952 03e8 FFF77AFE 		bl	chThdGetPriorityX
 953 03ec 0346     		mov	r3, r0
 954 03ee DA1E     		subs	r2, r3, #3
 955 03f0 0023     		movs	r3, #0
 956 03f2 0093     		str	r3, [sp]
 957 03f4 2046     		mov	r0, r4
 958 03f6 4FF4A471 		mov	r1, #328
 959 03fa 284B     		ldr	r3, .L48+16
 960 03fc FFF7FEFF 		bl	chThdCreateStatic
 961 0400 0246     		mov	r2, r0
 962 0402 254B     		ldr	r3, .L48+12
 963 0404 9A60     		str	r2, [r3, #8]
 964              		.loc 9 307 0
 965 0406 224B     		ldr	r3, .L48+4
 966 0408 DC68     		ldr	r4, [r3, #12]
 967 040a FFF769FE 		bl	chThdGetPriorityX
 968 040e 0346     		mov	r3, r0
 969 0410 1A1F     		subs	r2, r3, #4
 970 0412 0023     		movs	r3, #0
 971 0414 0093     		str	r3, [sp]
 972 0416 2046     		mov	r0, r4
 973 0418 4FF4A471 		mov	r1, #328
 974 041c 1F4B     		ldr	r3, .L48+16
 975 041e FFF7FEFF 		bl	chThdCreateStatic
 976 0422 0246     		mov	r2, r0
 977 0424 1C4B     		ldr	r3, .L48+12
 978 0426 DA60     		str	r2, [r3, #12]
 979              		.loc 9 308 0
 980 0428 194B     		ldr	r3, .L48+4
 981 042a 1C69     		ldr	r4, [r3, #16]
 982 042c FFF758FE 		bl	chThdGetPriorityX
 983 0430 0346     		mov	r3, r0
 984 0432 5A1F     		subs	r2, r3, #5
 985 0434 0023     		movs	r3, #0
 986 0436 0093     		str	r3, [sp]
 987 0438 2046     		mov	r0, r4
 988 043a 4FF4A471 		mov	r1, #328
 989 043e 174B     		ldr	r3, .L48+16
 990 0440 FFF7FEFF 		bl	chThdCreateStatic
 991 0444 0246     		mov	r2, r0
 992 0446 144B     		ldr	r3, .L48+12
 993 0448 1A61     		str	r2, [r3, #16]
ARM GAS  /tmp/ccbFaIaq.s 			page 19


 994              		.loc 9 313 0
 995 044a 104B     		ldr	r3, .L48
 996 044c 0322     		movs	r2, #3
 997 044e 1A60     		str	r2, [r3]
 998              		.loc 9 315 0
 999 0450 114B     		ldr	r3, .L48+12
 1000 0452 1B68     		ldr	r3, [r3]
 1001 0454 1846     		mov	r0, r3
 1002 0456 FFF783FE 		bl	msg_loop_test
 1003 045a 0390     		str	r0, [sp, #12]
 1004              		.loc 9 316 0
 1005 045c FFF7FEFF 		bl	test_wait_threads
 1006              		.loc 9 320 0
 1007 0460 0A4B     		ldr	r3, .L48
 1008 0462 0422     		movs	r2, #4
 1009 0464 1A60     		str	r2, [r3]
 1010              		.loc 9 322 0
 1011 0466 0E48     		ldr	r0, .L48+20
 1012 0468 FFF7FEFF 		bl	test_print
 1013              		.loc 9 323 0
 1014 046c 0398     		ldr	r0, [sp, #12]
 1015 046e FFF7FEFF 		bl	test_printn
 1016              		.loc 9 324 0
 1017 0472 0C48     		ldr	r0, .L48+24
 1018 0474 FFF7FEFF 		bl	test_print
 1019              		.loc 9 325 0
 1020 0478 039B     		ldr	r3, [sp, #12]
 1021 047a 5B00     		lsls	r3, r3, #1
 1022 047c 1846     		mov	r0, r3
 1023 047e FFF7FEFF 		bl	test_printn
 1024              		.loc 9 326 0
 1025 0482 0948     		ldr	r0, .L48+28
 1026 0484 FFF7FEFF 		bl	test_println
 1027              		.loc 9 328 0
 1028 0488 04B0     		add	sp, sp, #16
 1029              		.cfi_def_cfa_offset 8
 1030              		@ sp needed
 1031 048a 10BD     		pop	{r4, pc}
 1032              	.L49:
 1033              		.align	2
 1034              	.L48:
 1035 048c 00000000 		.word	test_step
 1036 0490 00000000 		.word	wa
 1037 0494 00000000 		.word	bmk_thread1
 1038 0498 00000000 		.word	threads
 1039 049c 00000000 		.word	bmk_thread3
 1040 04a0 00000000 		.word	.LC0
 1041 04a4 10000000 		.word	.LC1
 1042 04a8 1C000000 		.word	.LC2
 1043              		.cfi_endproc
 1044              	.LFE288:
 1045              		.size	test_013_003_execute, .-test_013_003_execute
 1046              		.section	.rodata
 1047              		.align	2
 1048              	.LC5:
 1049 0078 4D657373 		.ascii	"Messages performance #3\000"
 1049      61676573 
ARM GAS  /tmp/ccbFaIaq.s 			page 20


 1049      20706572 
 1049      666F726D 
 1049      616E6365 
 1050              		.align	2
 1051              		.type	test_013_003, %object
 1052              		.size	test_013_003, 16
 1053              	test_013_003:
 1054 0090 78000000 		.word	.LC5
 1055 0094 00000000 		.word	0
 1056 0098 00000000 		.word	0
 1057 009c 00000000 		.word	test_013_003_execute
 1058              		.text
 1059              		.align	2
 1060 04ac AFF30080 		.p2align 4,,15
 1061              		.thumb
 1062              		.thumb_func
 1063              		.type	test_013_004_execute, %function
 1064              	test_013_004_execute:
 1065              	.LFB289:
 1066              		.loc 9 357 0
 1067              		.cfi_startproc
 1068              		@ args = 0, pretend = 0, frame = 16
 1069              		@ frame_needed = 0, uses_anonymous_args = 0
 1070 04b0 10B5     		push	{r4, lr}
 1071              		.cfi_def_cfa_offset 8
 1072              		.cfi_offset 4, -8
 1073              		.cfi_offset 14, -4
 1074 04b2 86B0     		sub	sp, sp, #24
 1075              		.cfi_def_cfa_offset 32
 1076              		.loc 9 362 0
 1077 04b4 2F4B     		ldr	r3, .L52
 1078 04b6 0122     		movs	r2, #1
 1079 04b8 1A60     		str	r2, [r3]
 1080              		.loc 9 364 0
 1081 04ba 2F4B     		ldr	r3, .L52+4
 1082 04bc 1C68     		ldr	r4, [r3]
 1083 04be FFF70FFE 		bl	chThdGetPriorityX
 1084 04c2 0346     		mov	r3, r0
 1085 04c4 5A1C     		adds	r2, r3, #1
 1086 04c6 0023     		movs	r3, #0
 1087 04c8 0093     		str	r3, [sp]
 1088 04ca 2046     		mov	r0, r4
 1089 04cc 4FF4A471 		mov	r1, #328
 1090 04d0 2A4B     		ldr	r3, .L52+8
 1091 04d2 FFF7FEFF 		bl	chThdCreateStatic
 1092 04d6 0246     		mov	r2, r0
 1093 04d8 294B     		ldr	r3, .L52+12
 1094 04da 1A60     		str	r2, [r3]
 1095 04dc 284B     		ldr	r3, .L52+12
 1096 04de 1B68     		ldr	r3, [r3]
 1097 04e0 0493     		str	r3, [sp, #16]
 1098              		.loc 9 370 0
 1099 04e2 244B     		ldr	r3, .L52
 1100 04e4 0222     		movs	r2, #2
 1101 04e6 1A60     		str	r2, [r3]
 1102              	.LBB10:
 1103              		.loc 9 374 0
ARM GAS  /tmp/ccbFaIaq.s 			page 21


 1104 04e8 0023     		movs	r3, #0
 1105 04ea 0593     		str	r3, [sp, #20]
 1106              		.loc 9 375 0
 1107 04ec FFF7FEFF 		bl	test_wait_tick
 1108 04f0 0390     		str	r0, [sp, #12]
 1109              		.loc 9 376 0
 1110 04f2 039B     		ldr	r3, [sp, #12]
 1111 04f4 03F51C53 		add	r3, r3, #9984
 1112 04f8 1033     		adds	r3, r3, #16
 1113 04fa 0293     		str	r3, [sp, #8]
 1114              	.L51:
 1115              		.loc 9 378 0 discriminator 1
 1116 04fc FFF7A0FD 		bl	chSysLock
 1117              		.loc 9 379 0 discriminator 1
 1118 0500 0498     		ldr	r0, [sp, #16]
 1119 0502 0021     		movs	r1, #0
 1120 0504 FFF7FEFF 		bl	chSchWakeupS
 1121              		.loc 9 380 0 discriminator 1
 1122 0508 0498     		ldr	r0, [sp, #16]
 1123 050a 0021     		movs	r1, #0
 1124 050c FFF7FEFF 		bl	chSchWakeupS
 1125              		.loc 9 381 0 discriminator 1
 1126 0510 0498     		ldr	r0, [sp, #16]
 1127 0512 0021     		movs	r1, #0
 1128 0514 FFF7FEFF 		bl	chSchWakeupS
 1129              		.loc 9 382 0 discriminator 1
 1130 0518 0498     		ldr	r0, [sp, #16]
 1131 051a 0021     		movs	r1, #0
 1132 051c FFF7FEFF 		bl	chSchWakeupS
 1133              		.loc 9 383 0 discriminator 1
 1134 0520 FFF796FD 		bl	chSysUnlock
 1135              		.loc 9 384 0 discriminator 1
 1136 0524 059B     		ldr	r3, [sp, #20]
 1137 0526 0433     		adds	r3, r3, #4
 1138 0528 0593     		str	r3, [sp, #20]
 1139              		.loc 9 388 0 discriminator 1
 1140 052a 0398     		ldr	r0, [sp, #12]
 1141 052c 0299     		ldr	r1, [sp, #8]
 1142 052e FFF7B7FD 		bl	chVTIsSystemTimeWithinX
 1143 0532 0346     		mov	r3, r0
 1144 0534 002B     		cmp	r3, #0
 1145 0536 E1D1     		bne	.L51
 1146              	.LBE10:
 1147              		.loc 9 392 0
 1148 0538 0E4B     		ldr	r3, .L52
 1149 053a 0322     		movs	r2, #3
 1150 053c 1A60     		str	r2, [r3]
 1151              		.loc 9 394 0
 1152 053e FFF77FFD 		bl	chSysLock
 1153              		.loc 9 395 0
 1154 0542 0498     		ldr	r0, [sp, #16]
 1155 0544 4FF0FF31 		mov	r1, #-1
 1156 0548 FFF7FEFF 		bl	chSchWakeupS
 1157              		.loc 9 396 0
 1158 054c FFF780FD 		bl	chSysUnlock
 1159              		.loc 9 397 0
 1160 0550 FFF7FEFF 		bl	test_wait_threads
ARM GAS  /tmp/ccbFaIaq.s 			page 22


 1161              		.loc 9 401 0
 1162 0554 074B     		ldr	r3, .L52
 1163 0556 0422     		movs	r2, #4
 1164 0558 1A60     		str	r2, [r3]
 1165              		.loc 9 403 0
 1166 055a 0A48     		ldr	r0, .L52+16
 1167 055c FFF7FEFF 		bl	test_print
 1168              		.loc 9 404 0
 1169 0560 059B     		ldr	r3, [sp, #20]
 1170 0562 5B00     		lsls	r3, r3, #1
 1171 0564 1846     		mov	r0, r3
 1172 0566 FFF7FEFF 		bl	test_printn
 1173              		.loc 9 405 0
 1174 056a 0748     		ldr	r0, .L52+20
 1175 056c FFF7FEFF 		bl	test_println
 1176              		.loc 9 407 0
 1177 0570 06B0     		add	sp, sp, #24
 1178              		.cfi_def_cfa_offset 8
 1179              		@ sp needed
 1180 0572 10BD     		pop	{r4, pc}
 1181              	.L53:
 1182              		.align	2
 1183              	.L52:
 1184 0574 00000000 		.word	test_step
 1185 0578 00000000 		.word	wa
 1186 057c 00000000 		.word	bmk_thread4
 1187 0580 00000000 		.word	threads
 1188 0584 00000000 		.word	.LC0
 1189 0588 1C000000 		.word	.LC2
 1190              		.cfi_endproc
 1191              	.LFE289:
 1192              		.size	test_013_004_execute, .-test_013_004_execute
 1193              		.section	.rodata
 1194              		.align	2
 1195              	.LC6:
 1196 00a0 436F6E74 		.ascii	"Context Switch performance\000"
 1196      65787420 
 1196      53776974 
 1196      63682070 
 1196      6572666F 
 1197 00bb 00       		.align	2
 1198              		.type	test_013_004, %object
 1199              		.size	test_013_004, 16
 1200              	test_013_004:
 1201 00bc A0000000 		.word	.LC6
 1202 00c0 00000000 		.word	0
 1203 00c4 00000000 		.word	0
 1204 00c8 00000000 		.word	test_013_004_execute
 1205              		.align	2
 1206              	.LC7:
 1207 00cc 20746872 		.ascii	" threads/S\000"
 1207      65616473 
 1207      2F5300
 1208              		.text
 1209              		.align	2
 1210 058c AFF30080 		.p2align 4,,15
 1211              		.thumb
ARM GAS  /tmp/ccbFaIaq.s 			page 23


 1212              		.thumb_func
 1213              		.type	test_013_005_execute, %function
 1214              	test_013_005_execute:
 1215              	.LFB290:
 1216              		.loc 9 434 0
 1217              		.cfi_startproc
 1218              		@ args = 0, pretend = 0, frame = 16
 1219              		@ frame_needed = 0, uses_anonymous_args = 0
 1220 0590 00B5     		push	{lr}
 1221              		.cfi_def_cfa_offset 4
 1222              		.cfi_offset 14, -4
 1223 0592 87B0     		sub	sp, sp, #28
 1224              		.cfi_def_cfa_offset 32
 1225              		.loc 9 436 0
 1226 0594 FFF7A4FD 		bl	chThdGetPriorityX
 1227 0598 0346     		mov	r3, r0
 1228 059a 013B     		subs	r3, r3, #1
 1229 059c 0493     		str	r3, [sp, #16]
 1230              		.loc 9 442 0
 1231 059e 1A4B     		ldr	r3, .L56
 1232 05a0 0122     		movs	r2, #1
 1233 05a2 1A60     		str	r2, [r3]
 1234              		.loc 9 444 0
 1235 05a4 0023     		movs	r3, #0
 1236 05a6 0593     		str	r3, [sp, #20]
 1237              		.loc 9 445 0
 1238 05a8 FFF7FEFF 		bl	test_wait_tick
 1239 05ac 0390     		str	r0, [sp, #12]
 1240              		.loc 9 446 0
 1241 05ae 039B     		ldr	r3, [sp, #12]
 1242 05b0 03F51C53 		add	r3, r3, #9984
 1243 05b4 1033     		adds	r3, r3, #16
 1244 05b6 0293     		str	r3, [sp, #8]
 1245              	.L55:
 1246              		.loc 9 448 0 discriminator 1
 1247 05b8 144B     		ldr	r3, .L56+4
 1248 05ba 1A68     		ldr	r2, [r3]
 1249 05bc 0023     		movs	r3, #0
 1250 05be 0093     		str	r3, [sp]
 1251 05c0 1046     		mov	r0, r2
 1252 05c2 4FF4A471 		mov	r1, #328
 1253 05c6 049A     		ldr	r2, [sp, #16]
 1254 05c8 114B     		ldr	r3, .L56+8
 1255 05ca FFF7FEFF 		bl	chThdCreateStatic
 1256 05ce 0346     		mov	r3, r0
 1257 05d0 1846     		mov	r0, r3
 1258 05d2 FFF7FEFF 		bl	chThdWait
 1259              		.loc 9 449 0 discriminator 1
 1260 05d6 059B     		ldr	r3, [sp, #20]
 1261 05d8 0133     		adds	r3, r3, #1
 1262 05da 0593     		str	r3, [sp, #20]
 1263              		.loc 9 453 0 discriminator 1
 1264 05dc 0398     		ldr	r0, [sp, #12]
 1265 05de 0299     		ldr	r1, [sp, #8]
 1266 05e0 FFF75EFD 		bl	chVTIsSystemTimeWithinX
 1267 05e4 0346     		mov	r3, r0
 1268 05e6 002B     		cmp	r3, #0
ARM GAS  /tmp/ccbFaIaq.s 			page 24


 1269 05e8 E6D1     		bne	.L55
 1270              		.loc 9 457 0
 1271 05ea 074B     		ldr	r3, .L56
 1272 05ec 0222     		movs	r2, #2
 1273 05ee 1A60     		str	r2, [r3]
 1274              		.loc 9 459 0
 1275 05f0 0848     		ldr	r0, .L56+12
 1276 05f2 FFF7FEFF 		bl	test_print
 1277              		.loc 9 460 0
 1278 05f6 0598     		ldr	r0, [sp, #20]
 1279 05f8 FFF7FEFF 		bl	test_printn
 1280              		.loc 9 461 0
 1281 05fc 0648     		ldr	r0, .L56+16
 1282 05fe FFF7FEFF 		bl	test_println
 1283              		.loc 9 463 0
 1284 0602 07B0     		add	sp, sp, #28
 1285              		.cfi_def_cfa_offset 4
 1286              		@ sp needed
 1287 0604 5DF804FB 		ldr	pc, [sp], #4
 1288              	.L57:
 1289              		.align	2
 1290              	.L56:
 1291 0608 00000000 		.word	test_step
 1292 060c 00000000 		.word	wa
 1293 0610 00000000 		.word	bmk_thread3
 1294 0614 00000000 		.word	.LC0
 1295 0618 CC000000 		.word	.LC7
 1296              		.cfi_endproc
 1297              	.LFE290:
 1298              		.size	test_013_005_execute, .-test_013_005_execute
 1299              		.section	.rodata
 1300 00d7 00       		.align	2
 1301              	.LC8:
 1302 00d8 54687265 		.ascii	"Threads performance, full cycle\000"
 1302      61647320 
 1302      70657266 
 1302      6F726D61 
 1302      6E63652C 
 1303              		.align	2
 1304              		.type	test_013_005, %object
 1305              		.size	test_013_005, 16
 1306              	test_013_005:
 1307 00f8 D8000000 		.word	.LC8
 1308 00fc 00000000 		.word	0
 1309 0100 00000000 		.word	0
 1310 0104 00000000 		.word	test_013_005_execute
 1311              		.text
 1312              		.align	2
 1313 061c AFF30080 		.p2align 4,,15
 1314              		.thumb
 1315              		.thumb_func
 1316              		.type	test_013_006_execute, %function
 1317              	test_013_006_execute:
 1318              	.LFB291:
 1319              		.loc 9 491 0
 1320              		.cfi_startproc
 1321              		@ args = 0, pretend = 0, frame = 16
ARM GAS  /tmp/ccbFaIaq.s 			page 25


 1322              		@ frame_needed = 0, uses_anonymous_args = 0
 1323 0620 00B5     		push	{lr}
 1324              		.cfi_def_cfa_offset 4
 1325              		.cfi_offset 14, -4
 1326 0622 87B0     		sub	sp, sp, #28
 1327              		.cfi_def_cfa_offset 32
 1328              		.loc 9 493 0
 1329 0624 FFF75CFD 		bl	chThdGetPriorityX
 1330 0628 0346     		mov	r3, r0
 1331 062a 0133     		adds	r3, r3, #1
 1332 062c 0493     		str	r3, [sp, #16]
 1333              		.loc 9 499 0
 1334 062e 1A4B     		ldr	r3, .L60
 1335 0630 0122     		movs	r2, #1
 1336 0632 1A60     		str	r2, [r3]
 1337              		.loc 9 501 0
 1338 0634 0023     		movs	r3, #0
 1339 0636 0593     		str	r3, [sp, #20]
 1340              		.loc 9 502 0
 1341 0638 FFF7FEFF 		bl	test_wait_tick
 1342 063c 0390     		str	r0, [sp, #12]
 1343              		.loc 9 503 0
 1344 063e 039B     		ldr	r3, [sp, #12]
 1345 0640 03F51C53 		add	r3, r3, #9984
 1346 0644 1033     		adds	r3, r3, #16
 1347 0646 0293     		str	r3, [sp, #8]
 1348              	.L59:
 1349              		.loc 9 506 0 discriminator 1
 1350 0648 144B     		ldr	r3, .L60+4
 1351 064a 1A68     		ldr	r2, [r3]
 1352 064c 0023     		movs	r3, #0
 1353 064e 0093     		str	r3, [sp]
 1354 0650 1046     		mov	r0, r2
 1355 0652 4FF4A471 		mov	r1, #328
 1356 0656 049A     		ldr	r2, [sp, #16]
 1357 0658 114B     		ldr	r3, .L60+8
 1358 065a FFF7FEFF 		bl	chThdCreateStatic
 1359 065e 0346     		mov	r3, r0
 1360 0660 1846     		mov	r0, r3
 1361 0662 FFF7FEFF 		bl	chThdRelease
 1362              		.loc 9 510 0 discriminator 1
 1363 0666 059B     		ldr	r3, [sp, #20]
 1364 0668 0133     		adds	r3, r3, #1
 1365 066a 0593     		str	r3, [sp, #20]
 1366              		.loc 9 514 0 discriminator 1
 1367 066c 0398     		ldr	r0, [sp, #12]
 1368 066e 0299     		ldr	r1, [sp, #8]
 1369 0670 FFF716FD 		bl	chVTIsSystemTimeWithinX
 1370 0674 0346     		mov	r3, r0
 1371 0676 002B     		cmp	r3, #0
 1372 0678 E6D1     		bne	.L59
 1373              		.loc 9 518 0
 1374 067a 074B     		ldr	r3, .L60
 1375 067c 0222     		movs	r2, #2
 1376 067e 1A60     		str	r2, [r3]
 1377              		.loc 9 520 0
 1378 0680 0848     		ldr	r0, .L60+12
ARM GAS  /tmp/ccbFaIaq.s 			page 26


 1379 0682 FFF7FEFF 		bl	test_print
 1380              		.loc 9 521 0
 1381 0686 0598     		ldr	r0, [sp, #20]
 1382 0688 FFF7FEFF 		bl	test_printn
 1383              		.loc 9 522 0
 1384 068c 0648     		ldr	r0, .L60+16
 1385 068e FFF7FEFF 		bl	test_println
 1386              		.loc 9 524 0
 1387 0692 07B0     		add	sp, sp, #28
 1388              		.cfi_def_cfa_offset 4
 1389              		@ sp needed
 1390 0694 5DF804FB 		ldr	pc, [sp], #4
 1391              	.L61:
 1392              		.align	2
 1393              	.L60:
 1394 0698 00000000 		.word	test_step
 1395 069c 00000000 		.word	wa
 1396 06a0 00000000 		.word	bmk_thread3
 1397 06a4 00000000 		.word	.LC0
 1398 06a8 CC000000 		.word	.LC7
 1399              		.cfi_endproc
 1400              	.LFE291:
 1401              		.size	test_013_006_execute, .-test_013_006_execute
 1402              		.section	.rodata
 1403              		.align	2
 1404              	.LC9:
 1405 0108 54687265 		.ascii	"Threads performance, create/exit only\000"
 1405      61647320 
 1405      70657266 
 1405      6F726D61 
 1405      6E63652C 
 1406 012e 0000     		.align	2
 1407              		.type	test_013_006, %object
 1408              		.size	test_013_006, 16
 1409              	test_013_006:
 1410 0130 08010000 		.word	.LC9
 1411 0134 00000000 		.word	0
 1412 0138 00000000 		.word	0
 1413 013c 00000000 		.word	test_013_006_execute
 1414              		.text
 1415              		.align	2
 1416 06ac AFF30080 		.p2align 4,,15
 1417              		.thumb
 1418              		.thumb_func
 1419              		.type	test_013_007_setup, %function
 1420              	test_013_007_setup:
 1421              	.LFB292:
 1422              		.loc 9 559 0
 1423              		.cfi_startproc
 1424              		@ args = 0, pretend = 0, frame = 0
 1425              		@ frame_needed = 0, uses_anonymous_args = 0
 1426 06b0 08B5     		push	{r3, lr}
 1427              		.cfi_def_cfa_offset 8
 1428              		.cfi_offset 3, -8
 1429              		.cfi_offset 14, -4
 1430              		.loc 9 560 0
 1431 06b2 0248     		ldr	r0, .L63
ARM GAS  /tmp/ccbFaIaq.s 			page 27


 1432 06b4 0021     		movs	r1, #0
 1433 06b6 FFF7FEFF 		bl	chSemObjectInit
 1434              		.loc 9 561 0
 1435 06ba 08BD     		pop	{r3, pc}
 1436              	.L64:
 1437              		.align	2
 1438              	.L63:
 1439 06bc 00000000 		.word	sem1
 1440              		.cfi_endproc
 1441              	.LFE292:
 1442              		.size	test_013_007_setup, .-test_013_007_setup
 1443              		.section	.rodata
 1444              		.align	2
 1445              	.LC10:
 1446 0140 20726573 		.ascii	" reschedules/S, \000"
 1446      63686564 
 1446      756C6573 
 1446      2F532C20 
 1446      00
 1447              		.text
 1448              		.align	2
 1449              		.p2align 4,,15
 1450              		.thumb
 1451              		.thumb_func
 1452              		.type	test_013_007_execute, %function
 1453              	test_013_007_execute:
 1454              	.LFB293:
 1455              		.loc 9 563 0
 1456              		.cfi_startproc
 1457              		@ args = 0, pretend = 0, frame = 16
 1458              		@ frame_needed = 0, uses_anonymous_args = 0
 1459 06c0 10B5     		push	{r4, lr}
 1460              		.cfi_def_cfa_offset 8
 1461              		.cfi_offset 4, -8
 1462              		.cfi_offset 14, -4
 1463 06c2 86B0     		sub	sp, sp, #24
 1464              		.cfi_def_cfa_offset 32
 1465              		.loc 9 568 0
 1466 06c4 4B4B     		ldr	r3, .L67
 1467 06c6 0122     		movs	r2, #1
 1468 06c8 1A60     		str	r2, [r3]
 1469              		.loc 9 570 0
 1470 06ca 4B4B     		ldr	r3, .L67+4
 1471 06cc 1C68     		ldr	r4, [r3]
 1472 06ce FFF707FD 		bl	chThdGetPriorityX
 1473 06d2 0346     		mov	r3, r0
 1474 06d4 5A1D     		adds	r2, r3, #5
 1475 06d6 0023     		movs	r3, #0
 1476 06d8 0093     		str	r3, [sp]
 1477 06da 2046     		mov	r0, r4
 1478 06dc 4FF4A471 		mov	r1, #328
 1479 06e0 464B     		ldr	r3, .L67+8
 1480 06e2 FFF7FEFF 		bl	chThdCreateStatic
 1481 06e6 0246     		mov	r2, r0
 1482 06e8 454B     		ldr	r3, .L67+12
 1483 06ea 1A60     		str	r2, [r3]
 1484              		.loc 9 571 0
ARM GAS  /tmp/ccbFaIaq.s 			page 28


 1485 06ec 424B     		ldr	r3, .L67+4
 1486 06ee 5C68     		ldr	r4, [r3, #4]
 1487 06f0 FFF7F6FC 		bl	chThdGetPriorityX
 1488 06f4 0346     		mov	r3, r0
 1489 06f6 1A1D     		adds	r2, r3, #4
 1490 06f8 0023     		movs	r3, #0
 1491 06fa 0093     		str	r3, [sp]
 1492 06fc 2046     		mov	r0, r4
 1493 06fe 4FF4A471 		mov	r1, #328
 1494 0702 3E4B     		ldr	r3, .L67+8
 1495 0704 FFF7FEFF 		bl	chThdCreateStatic
 1496 0708 0246     		mov	r2, r0
 1497 070a 3D4B     		ldr	r3, .L67+12
 1498 070c 5A60     		str	r2, [r3, #4]
 1499              		.loc 9 572 0
 1500 070e 3A4B     		ldr	r3, .L67+4
 1501 0710 9C68     		ldr	r4, [r3, #8]
 1502 0712 FFF7E5FC 		bl	chThdGetPriorityX
 1503 0716 0346     		mov	r3, r0
 1504 0718 DA1C     		adds	r2, r3, #3
 1505 071a 0023     		movs	r3, #0
 1506 071c 0093     		str	r3, [sp]
 1507 071e 2046     		mov	r0, r4
 1508 0720 4FF4A471 		mov	r1, #328
 1509 0724 354B     		ldr	r3, .L67+8
 1510 0726 FFF7FEFF 		bl	chThdCreateStatic
 1511 072a 0246     		mov	r2, r0
 1512 072c 344B     		ldr	r3, .L67+12
 1513 072e 9A60     		str	r2, [r3, #8]
 1514              		.loc 9 573 0
 1515 0730 314B     		ldr	r3, .L67+4
 1516 0732 DC68     		ldr	r4, [r3, #12]
 1517 0734 FFF7D4FC 		bl	chThdGetPriorityX
 1518 0738 0346     		mov	r3, r0
 1519 073a 9A1C     		adds	r2, r3, #2
 1520 073c 0023     		movs	r3, #0
 1521 073e 0093     		str	r3, [sp]
 1522 0740 2046     		mov	r0, r4
 1523 0742 4FF4A471 		mov	r1, #328
 1524 0746 2D4B     		ldr	r3, .L67+8
 1525 0748 FFF7FEFF 		bl	chThdCreateStatic
 1526 074c 0246     		mov	r2, r0
 1527 074e 2C4B     		ldr	r3, .L67+12
 1528 0750 DA60     		str	r2, [r3, #12]
 1529              		.loc 9 574 0
 1530 0752 294B     		ldr	r3, .L67+4
 1531 0754 1C69     		ldr	r4, [r3, #16]
 1532 0756 FFF7C3FC 		bl	chThdGetPriorityX
 1533 075a 0346     		mov	r3, r0
 1534 075c 5A1C     		adds	r2, r3, #1
 1535 075e 0023     		movs	r3, #0
 1536 0760 0093     		str	r3, [sp]
 1537 0762 2046     		mov	r0, r4
 1538 0764 4FF4A471 		mov	r1, #328
 1539 0768 244B     		ldr	r3, .L67+8
 1540 076a FFF7FEFF 		bl	chThdCreateStatic
 1541 076e 0246     		mov	r2, r0
ARM GAS  /tmp/ccbFaIaq.s 			page 29


 1542 0770 234B     		ldr	r3, .L67+12
 1543 0772 1A61     		str	r2, [r3, #16]
 1544              		.loc 9 579 0
 1545 0774 1F4B     		ldr	r3, .L67
 1546 0776 0222     		movs	r2, #2
 1547 0778 1A60     		str	r2, [r3]
 1548              	.LBB11:
 1549              		.loc 9 583 0
 1550 077a 0023     		movs	r3, #0
 1551 077c 0593     		str	r3, [sp, #20]
 1552              		.loc 9 584 0
 1553 077e FFF7FEFF 		bl	test_wait_tick
 1554 0782 0490     		str	r0, [sp, #16]
 1555              		.loc 9 585 0
 1556 0784 049B     		ldr	r3, [sp, #16]
 1557 0786 03F51C53 		add	r3, r3, #9984
 1558 078a 1033     		adds	r3, r3, #16
 1559 078c 0393     		str	r3, [sp, #12]
 1560              	.L66:
 1561              		.loc 9 587 0 discriminator 1
 1562 078e 1D48     		ldr	r0, .L67+16
 1563 0790 0021     		movs	r1, #0
 1564 0792 FFF7FEFF 		bl	chSemReset
 1565              		.loc 9 588 0 discriminator 1
 1566 0796 059B     		ldr	r3, [sp, #20]
 1567 0798 0133     		adds	r3, r3, #1
 1568 079a 0593     		str	r3, [sp, #20]
 1569              		.loc 9 592 0 discriminator 1
 1570 079c 0498     		ldr	r0, [sp, #16]
 1571 079e 0399     		ldr	r1, [sp, #12]
 1572 07a0 FFF77EFC 		bl	chVTIsSystemTimeWithinX
 1573 07a4 0346     		mov	r3, r0
 1574 07a6 002B     		cmp	r3, #0
 1575 07a8 F1D1     		bne	.L66
 1576              	.LBE11:
 1577              		.loc 9 596 0
 1578 07aa 124B     		ldr	r3, .L67
 1579 07ac 0322     		movs	r2, #3
 1580 07ae 1A60     		str	r2, [r3]
 1581              		.loc 9 598 0
 1582 07b0 FFF7FEFF 		bl	test_terminate_threads
 1583              		.loc 9 599 0
 1584 07b4 1348     		ldr	r0, .L67+16
 1585 07b6 0021     		movs	r1, #0
 1586 07b8 FFF7FEFF 		bl	chSemReset
 1587              		.loc 9 600 0
 1588 07bc FFF7FEFF 		bl	test_wait_threads
 1589              		.loc 9 604 0
 1590 07c0 0C4B     		ldr	r3, .L67
 1591 07c2 0422     		movs	r2, #4
 1592 07c4 1A60     		str	r2, [r3]
 1593              		.loc 9 606 0
 1594 07c6 1048     		ldr	r0, .L67+20
 1595 07c8 FFF7FEFF 		bl	test_print
 1596              		.loc 9 607 0
 1597 07cc 0598     		ldr	r0, [sp, #20]
 1598 07ce FFF7FEFF 		bl	test_printn
ARM GAS  /tmp/ccbFaIaq.s 			page 30


 1599              		.loc 9 608 0
 1600 07d2 0E48     		ldr	r0, .L67+24
 1601 07d4 FFF7FEFF 		bl	test_print
 1602              		.loc 9 609 0
 1603 07d8 059A     		ldr	r2, [sp, #20]
 1604 07da 1346     		mov	r3, r2
 1605 07dc 5B00     		lsls	r3, r3, #1
 1606 07de 1344     		add	r3, r3, r2
 1607 07e0 5B00     		lsls	r3, r3, #1
 1608 07e2 1846     		mov	r0, r3
 1609 07e4 FFF7FEFF 		bl	test_printn
 1610              		.loc 9 610 0
 1611 07e8 0948     		ldr	r0, .L67+28
 1612 07ea FFF7FEFF 		bl	test_println
 1613              		.loc 9 612 0
 1614 07ee 06B0     		add	sp, sp, #24
 1615              		.cfi_def_cfa_offset 8
 1616              		@ sp needed
 1617 07f0 10BD     		pop	{r4, pc}
 1618              	.L68:
 1619 07f2 00BF     		.align	2
 1620              	.L67:
 1621 07f4 00000000 		.word	test_step
 1622 07f8 00000000 		.word	wa
 1623 07fc 00000000 		.word	bmk_thread7
 1624 0800 00000000 		.word	threads
 1625 0804 00000000 		.word	sem1
 1626 0808 00000000 		.word	.LC0
 1627 080c 40010000 		.word	.LC10
 1628 0810 1C000000 		.word	.LC2
 1629              		.cfi_endproc
 1630              	.LFE293:
 1631              		.size	test_013_007_execute, .-test_013_007_execute
 1632              		.section	.rodata
 1633 0151 000000   		.align	2
 1634              	.LC11:
 1635 0154 4D617373 		.ascii	"Mass reschedule performance\000"
 1635      20726573 
 1635      63686564 
 1635      756C6520 
 1635      70657266 
 1636              		.align	2
 1637              		.type	test_013_007, %object
 1638              		.size	test_013_007, 16
 1639              	test_013_007:
 1640 0170 54010000 		.word	.LC11
 1641 0174 00000000 		.word	test_013_007_setup
 1642 0178 00000000 		.word	0
 1643 017c 00000000 		.word	test_013_007_execute
 1644              		.text
 1645              		.align	2
 1646 0814 AFF30080 		.p2align 4,,15
 1646      AFF30080 
 1646      AFF30080 
 1647              		.thumb
 1648              		.thumb_func
 1649              		.type	test_013_008_execute, %function
ARM GAS  /tmp/ccbFaIaq.s 			page 31


 1650              	test_013_008_execute:
 1651              	.LFB294:
 1652              		.loc 9 640 0
 1653              		.cfi_startproc
 1654              		@ args = 0, pretend = 0, frame = 8
 1655              		@ frame_needed = 0, uses_anonymous_args = 0
 1656 0820 10B5     		push	{r4, lr}
 1657              		.cfi_def_cfa_offset 8
 1658              		.cfi_offset 4, -8
 1659              		.cfi_offset 14, -4
 1660 0822 84B0     		sub	sp, sp, #16
 1661              		.cfi_def_cfa_offset 24
 1662              		.loc 9 646 0
 1663 0824 3A4B     		ldr	r3, .L70
 1664 0826 0122     		movs	r2, #1
 1665 0828 1A60     		str	r2, [r3]
 1666              		.loc 9 648 0
 1667 082a 0023     		movs	r3, #0
 1668 082c 0393     		str	r3, [sp, #12]
 1669              		.loc 9 649 0
 1670 082e FFF7FEFF 		bl	test_wait_tick
 1671 0832 384B     		ldr	r3, .L70+4
 1672 0834 1C68     		ldr	r4, [r3]
 1673 0836 FFF753FC 		bl	chThdGetPriorityX
 1674 083a 0346     		mov	r3, r0
 1675 083c 5A1E     		subs	r2, r3, #1
 1676 083e 03AB     		add	r3, sp, #12
 1677 0840 0093     		str	r3, [sp]
 1678 0842 2046     		mov	r0, r4
 1679 0844 4FF4A471 		mov	r1, #328
 1680 0848 334B     		ldr	r3, .L70+8
 1681 084a FFF7FEFF 		bl	chThdCreateStatic
 1682 084e 0246     		mov	r2, r0
 1683 0850 324B     		ldr	r3, .L70+12
 1684 0852 1A60     		str	r2, [r3]
 1685              		.loc 9 651 0
 1686 0854 2F4B     		ldr	r3, .L70+4
 1687 0856 5C68     		ldr	r4, [r3, #4]
 1688 0858 FFF742FC 		bl	chThdGetPriorityX
 1689 085c 0346     		mov	r3, r0
 1690 085e 5A1E     		subs	r2, r3, #1
 1691 0860 03AB     		add	r3, sp, #12
 1692 0862 0093     		str	r3, [sp]
 1693 0864 2046     		mov	r0, r4
 1694 0866 4FF4A471 		mov	r1, #328
 1695 086a 2B4B     		ldr	r3, .L70+8
 1696 086c FFF7FEFF 		bl	chThdCreateStatic
 1697 0870 0246     		mov	r2, r0
 1698 0872 2A4B     		ldr	r3, .L70+12
 1699 0874 5A60     		str	r2, [r3, #4]
 1700              		.loc 9 652 0
 1701 0876 274B     		ldr	r3, .L70+4
 1702 0878 9C68     		ldr	r4, [r3, #8]
 1703 087a FFF731FC 		bl	chThdGetPriorityX
 1704 087e 0346     		mov	r3, r0
 1705 0880 5A1E     		subs	r2, r3, #1
 1706 0882 03AB     		add	r3, sp, #12
ARM GAS  /tmp/ccbFaIaq.s 			page 32


 1707 0884 0093     		str	r3, [sp]
 1708 0886 2046     		mov	r0, r4
 1709 0888 4FF4A471 		mov	r1, #328
 1710 088c 224B     		ldr	r3, .L70+8
 1711 088e FFF7FEFF 		bl	chThdCreateStatic
 1712 0892 0246     		mov	r2, r0
 1713 0894 214B     		ldr	r3, .L70+12
 1714 0896 9A60     		str	r2, [r3, #8]
 1715              		.loc 9 653 0
 1716 0898 1E4B     		ldr	r3, .L70+4
 1717 089a DC68     		ldr	r4, [r3, #12]
 1718 089c FFF720FC 		bl	chThdGetPriorityX
 1719 08a0 0346     		mov	r3, r0
 1720 08a2 5A1E     		subs	r2, r3, #1
 1721 08a4 03AB     		add	r3, sp, #12
 1722 08a6 0093     		str	r3, [sp]
 1723 08a8 2046     		mov	r0, r4
 1724 08aa 4FF4A471 		mov	r1, #328
 1725 08ae 1A4B     		ldr	r3, .L70+8
 1726 08b0 FFF7FEFF 		bl	chThdCreateStatic
 1727 08b4 0246     		mov	r2, r0
 1728 08b6 194B     		ldr	r3, .L70+12
 1729 08b8 DA60     		str	r2, [r3, #12]
 1730              		.loc 9 654 0
 1731 08ba 164B     		ldr	r3, .L70+4
 1732 08bc 1C69     		ldr	r4, [r3, #16]
 1733 08be FFF70FFC 		bl	chThdGetPriorityX
 1734 08c2 0346     		mov	r3, r0
 1735 08c4 5A1E     		subs	r2, r3, #1
 1736 08c6 03AB     		add	r3, sp, #12
 1737 08c8 0093     		str	r3, [sp]
 1738 08ca 2046     		mov	r0, r4
 1739 08cc 4FF4A471 		mov	r1, #328
 1740 08d0 114B     		ldr	r3, .L70+8
 1741 08d2 FFF7FEFF 		bl	chThdCreateStatic
 1742 08d6 0246     		mov	r2, r0
 1743 08d8 104B     		ldr	r3, .L70+12
 1744 08da 1A61     		str	r2, [r3, #16]
 1745              		.loc 9 658 0
 1746 08dc 0C4B     		ldr	r3, .L70
 1747 08de 0222     		movs	r2, #2
 1748 08e0 1A60     		str	r2, [r3]
 1749              		.loc 9 660 0
 1750 08e2 42F21070 		movw	r0, #10000
 1751 08e6 FFF7FEFF 		bl	chThdSleep
 1752              		.loc 9 661 0
 1753 08ea FFF7FEFF 		bl	test_terminate_threads
 1754              		.loc 9 662 0
 1755 08ee FFF7FEFF 		bl	test_wait_threads
 1756              		.loc 9 666 0
 1757 08f2 074B     		ldr	r3, .L70
 1758 08f4 0322     		movs	r2, #3
 1759 08f6 1A60     		str	r2, [r3]
 1760              		.loc 9 668 0
 1761 08f8 0948     		ldr	r0, .L70+16
 1762 08fa FFF7FEFF 		bl	test_print
 1763              		.loc 9 669 0
ARM GAS  /tmp/ccbFaIaq.s 			page 33


 1764 08fe 039B     		ldr	r3, [sp, #12]
 1765 0900 1846     		mov	r0, r3
 1766 0902 FFF7FEFF 		bl	test_printn
 1767              		.loc 9 670 0
 1768 0906 0748     		ldr	r0, .L70+20
 1769 0908 FFF7FEFF 		bl	test_println
 1770              		.loc 9 672 0
 1771 090c 04B0     		add	sp, sp, #16
 1772              		.cfi_def_cfa_offset 8
 1773              		@ sp needed
 1774 090e 10BD     		pop	{r4, pc}
 1775              	.L71:
 1776              		.align	2
 1777              	.L70:
 1778 0910 00000000 		.word	test_step
 1779 0914 00000000 		.word	wa
 1780 0918 00000000 		.word	bmk_thread8
 1781 091c 00000000 		.word	threads
 1782 0920 00000000 		.word	.LC0
 1783 0924 1C000000 		.word	.LC2
 1784              		.cfi_endproc
 1785              	.LFE294:
 1786              		.size	test_013_008_execute, .-test_013_008_execute
 1787              		.section	.rodata
 1788              		.align	2
 1789              	.LC12:
 1790 0180 526F756E 		.ascii	"Round-Robin voluntary reschedule\000"
 1790      642D526F 
 1790      62696E20 
 1790      766F6C75 
 1790      6E746172 
 1791 01a1 000000   		.align	2
 1792              		.type	test_013_008, %object
 1793              		.size	test_013_008, 16
 1794              	test_013_008:
 1795 01a4 80010000 		.word	.LC12
 1796 01a8 00000000 		.word	0
 1797 01ac 00000000 		.word	0
 1798 01b0 00000000 		.word	test_013_008_execute
 1799              		.align	2
 1800              	.LC13:
 1801 01b4 2074696D 		.ascii	" timers/S\000"
 1801      6572732F 
 1801      5300
 1802              		.text
 1803              		.align	2
 1804 0928 AFF30080 		.p2align 4,,15
 1804      AFF30080 
 1805              		.thumb
 1806              		.thumb_func
 1807              		.type	test_013_009_execute, %function
 1808              	test_013_009_execute:
 1809              	.LFB295:
 1810              		.loc 9 697 0
 1811              		.cfi_startproc
 1812              		@ args = 0, pretend = 0, frame = 16
 1813              		@ frame_needed = 0, uses_anonymous_args = 0
ARM GAS  /tmp/ccbFaIaq.s 			page 34


 1814 0930 00B5     		push	{lr}
 1815              		.cfi_def_cfa_offset 4
 1816              		.cfi_offset 14, -4
 1817 0932 85B0     		sub	sp, sp, #20
 1818              		.cfi_def_cfa_offset 24
 1819              		.loc 9 704 0
 1820 0934 1F4B     		ldr	r3, .L74
 1821 0936 0122     		movs	r2, #1
 1822 0938 1A60     		str	r2, [r3]
 1823              	.LBB12:
 1824              		.loc 9 708 0
 1825 093a 0023     		movs	r3, #0
 1826 093c 0393     		str	r3, [sp, #12]
 1827              		.loc 9 709 0
 1828 093e FFF7FEFF 		bl	test_wait_tick
 1829 0942 0290     		str	r0, [sp, #8]
 1830              		.loc 9 710 0
 1831 0944 029B     		ldr	r3, [sp, #8]
 1832 0946 03F51C53 		add	r3, r3, #9984
 1833 094a 1033     		adds	r3, r3, #16
 1834 094c 0193     		str	r3, [sp, #4]
 1835              	.L73:
 1836              		.loc 9 712 0 discriminator 1
 1837 094e FFF777FB 		bl	chSysLock
 1838              		.loc 9 713 0 discriminator 1
 1839 0952 1948     		ldr	r0, .L74+4
 1840 0954 0121     		movs	r1, #1
 1841 0956 194A     		ldr	r2, .L74+8
 1842 0958 0023     		movs	r3, #0
 1843 095a FFF7FEFF 		bl	chVTDoSetI
 1844              		.loc 9 714 0 discriminator 1
 1845 095e 1848     		ldr	r0, .L74+12
 1846 0960 42F21071 		movw	r1, #10000
 1847 0964 154A     		ldr	r2, .L74+8
 1848 0966 0023     		movs	r3, #0
 1849 0968 FFF7FEFF 		bl	chVTDoSetI
 1850              		.loc 9 715 0 discriminator 1
 1851 096c 1248     		ldr	r0, .L74+4
 1852 096e FFF7FEFF 		bl	chVTDoResetI
 1853              		.loc 9 716 0 discriminator 1
 1854 0972 1348     		ldr	r0, .L74+12
 1855 0974 FFF7FEFF 		bl	chVTDoResetI
 1856              		.loc 9 717 0 discriminator 1
 1857 0978 FFF76AFB 		bl	chSysUnlock
 1858              		.loc 9 718 0 discriminator 1
 1859 097c 039B     		ldr	r3, [sp, #12]
 1860 097e 0133     		adds	r3, r3, #1
 1861 0980 0393     		str	r3, [sp, #12]
 1862              		.loc 9 722 0 discriminator 1
 1863 0982 0298     		ldr	r0, [sp, #8]
 1864 0984 0199     		ldr	r1, [sp, #4]
 1865 0986 FFF78BFB 		bl	chVTIsSystemTimeWithinX
 1866 098a 0346     		mov	r3, r0
 1867 098c 002B     		cmp	r3, #0
 1868 098e DED1     		bne	.L73
 1869              	.LBE12:
 1870              		.loc 9 726 0
ARM GAS  /tmp/ccbFaIaq.s 			page 35


 1871 0990 084B     		ldr	r3, .L74
 1872 0992 0222     		movs	r2, #2
 1873 0994 1A60     		str	r2, [r3]
 1874              		.loc 9 728 0
 1875 0996 0B48     		ldr	r0, .L74+16
 1876 0998 FFF7FEFF 		bl	test_print
 1877              		.loc 9 729 0
 1878 099c 039B     		ldr	r3, [sp, #12]
 1879 099e 5B00     		lsls	r3, r3, #1
 1880 09a0 1846     		mov	r0, r3
 1881 09a2 FFF7FEFF 		bl	test_printn
 1882              		.loc 9 730 0
 1883 09a6 0848     		ldr	r0, .L74+20
 1884 09a8 FFF7FEFF 		bl	test_println
 1885              		.loc 9 732 0
 1886 09ac 05B0     		add	sp, sp, #20
 1887              		.cfi_def_cfa_offset 4
 1888              		@ sp needed
 1889 09ae 5DF804FB 		ldr	pc, [sp], #4
 1890              	.L75:
 1891 09b2 00BF     		.align	2
 1892              	.L74:
 1893 09b4 00000000 		.word	test_step
 1894 09b8 1C000000 		.word	vt1.7438
 1895 09bc 00000000 		.word	tmo
 1896 09c0 30000000 		.word	vt2.7439
 1897 09c4 00000000 		.word	.LC0
 1898 09c8 B4010000 		.word	.LC13
 1899              		.cfi_endproc
 1900              	.LFE295:
 1901              		.size	test_013_009_execute, .-test_013_009_execute
 1902              		.section	.rodata
 1903 01be 0000     		.align	2
 1904              	.LC14:
 1905 01c0 56697274 		.ascii	"Virtual Timers set/reset performance\000"
 1905      75616C20 
 1905      54696D65 
 1905      72732073 
 1905      65742F72 
 1906 01e5 000000   		.align	2
 1907              		.type	test_013_009, %object
 1908              		.size	test_013_009, 16
 1909              	test_013_009:
 1910 01e8 C0010000 		.word	.LC14
 1911 01ec 00000000 		.word	0
 1912 01f0 00000000 		.word	0
 1913 01f4 00000000 		.word	test_013_009_execute
 1914              		.text
 1915              		.align	2
 1916 09cc AFF30080 		.p2align 4,,15
 1917              		.thumb
 1918              		.thumb_func
 1919              		.type	test_013_010_setup, %function
 1920              	test_013_010_setup:
 1921              	.LFB296:
 1922              		.loc 9 764 0
 1923              		.cfi_startproc
ARM GAS  /tmp/ccbFaIaq.s 			page 36


 1924              		@ args = 0, pretend = 0, frame = 0
 1925              		@ frame_needed = 0, uses_anonymous_args = 0
 1926 09d0 08B5     		push	{r3, lr}
 1927              		.cfi_def_cfa_offset 8
 1928              		.cfi_offset 3, -8
 1929              		.cfi_offset 14, -4
 1930              		.loc 9 765 0
 1931 09d2 0248     		ldr	r0, .L77
 1932 09d4 0121     		movs	r1, #1
 1933 09d6 FFF7FEFF 		bl	chSemObjectInit
 1934              		.loc 9 766 0
 1935 09da 08BD     		pop	{r3, pc}
 1936              	.L78:
 1937              		.align	2
 1938              	.L77:
 1939 09dc 00000000 		.word	sem1
 1940              		.cfi_endproc
 1941              	.LFE296:
 1942              		.size	test_013_010_setup, .-test_013_010_setup
 1943              		.section	.rodata
 1944              		.align	2
 1945              	.LC15:
 1946 01f8 20776169 		.ascii	" wait+signal/S\000"
 1946      742B7369 
 1946      676E616C 
 1946      2F5300
 1947              		.text
 1948              		.align	2
 1949              		.p2align 4,,15
 1950              		.thumb
 1951              		.thumb_func
 1952              		.type	test_013_010_execute, %function
 1953              	test_013_010_execute:
 1954              	.LFB297:
 1955              		.loc 9 768 0
 1956              		.cfi_startproc
 1957              		@ args = 0, pretend = 0, frame = 16
 1958              		@ frame_needed = 0, uses_anonymous_args = 0
 1959 09e0 00B5     		push	{lr}
 1960              		.cfi_def_cfa_offset 4
 1961              		.cfi_offset 14, -4
 1962 09e2 85B0     		sub	sp, sp, #20
 1963              		.cfi_def_cfa_offset 24
 1964              		.loc 9 773 0
 1965 09e4 1F4B     		ldr	r3, .L81
 1966 09e6 0122     		movs	r2, #1
 1967 09e8 1A60     		str	r2, [r3]
 1968              	.LBB13:
 1969              		.loc 9 777 0
 1970 09ea 0023     		movs	r3, #0
 1971 09ec 0393     		str	r3, [sp, #12]
 1972              		.loc 9 778 0
 1973 09ee FFF7FEFF 		bl	test_wait_tick
 1974 09f2 0290     		str	r0, [sp, #8]
 1975              		.loc 9 779 0
 1976 09f4 029B     		ldr	r3, [sp, #8]
 1977 09f6 03F51C53 		add	r3, r3, #9984
ARM GAS  /tmp/ccbFaIaq.s 			page 37


 1978 09fa 1033     		adds	r3, r3, #16
 1979 09fc 0193     		str	r3, [sp, #4]
 1980              	.L80:
 1981              		.loc 9 781 0 discriminator 1
 1982 09fe 1A48     		ldr	r0, .L81+4
 1983 0a00 FFF7FEFF 		bl	chSemWait
 1984              		.loc 9 782 0 discriminator 1
 1985 0a04 1848     		ldr	r0, .L81+4
 1986 0a06 FFF7FEFF 		bl	chSemSignal
 1987              		.loc 9 783 0 discriminator 1
 1988 0a0a 1748     		ldr	r0, .L81+4
 1989 0a0c FFF7FEFF 		bl	chSemWait
 1990              		.loc 9 784 0 discriminator 1
 1991 0a10 1548     		ldr	r0, .L81+4
 1992 0a12 FFF7FEFF 		bl	chSemSignal
 1993              		.loc 9 785 0 discriminator 1
 1994 0a16 1448     		ldr	r0, .L81+4
 1995 0a18 FFF7FEFF 		bl	chSemWait
 1996              		.loc 9 786 0 discriminator 1
 1997 0a1c 1248     		ldr	r0, .L81+4
 1998 0a1e FFF7FEFF 		bl	chSemSignal
 1999              		.loc 9 787 0 discriminator 1
 2000 0a22 1148     		ldr	r0, .L81+4
 2001 0a24 FFF7FEFF 		bl	chSemWait
 2002              		.loc 9 788 0 discriminator 1
 2003 0a28 0F48     		ldr	r0, .L81+4
 2004 0a2a FFF7FEFF 		bl	chSemSignal
 2005              		.loc 9 789 0 discriminator 1
 2006 0a2e 039B     		ldr	r3, [sp, #12]
 2007 0a30 0133     		adds	r3, r3, #1
 2008 0a32 0393     		str	r3, [sp, #12]
 2009              		.loc 9 793 0 discriminator 1
 2010 0a34 0298     		ldr	r0, [sp, #8]
 2011 0a36 0199     		ldr	r1, [sp, #4]
 2012 0a38 FFF732FB 		bl	chVTIsSystemTimeWithinX
 2013 0a3c 0346     		mov	r3, r0
 2014 0a3e 002B     		cmp	r3, #0
 2015 0a40 DDD1     		bne	.L80
 2016              	.LBE13:
 2017              		.loc 9 797 0
 2018 0a42 084B     		ldr	r3, .L81
 2019 0a44 0222     		movs	r2, #2
 2020 0a46 1A60     		str	r2, [r3]
 2021              		.loc 9 799 0
 2022 0a48 0848     		ldr	r0, .L81+8
 2023 0a4a FFF7FEFF 		bl	test_print
 2024              		.loc 9 800 0
 2025 0a4e 039B     		ldr	r3, [sp, #12]
 2026 0a50 9B00     		lsls	r3, r3, #2
 2027 0a52 1846     		mov	r0, r3
 2028 0a54 FFF7FEFF 		bl	test_printn
 2029              		.loc 9 801 0
 2030 0a58 0548     		ldr	r0, .L81+12
 2031 0a5a FFF7FEFF 		bl	test_println
 2032              		.loc 9 803 0
 2033 0a5e 05B0     		add	sp, sp, #20
 2034              		.cfi_def_cfa_offset 4
ARM GAS  /tmp/ccbFaIaq.s 			page 38


 2035              		@ sp needed
 2036 0a60 5DF804FB 		ldr	pc, [sp], #4
 2037              	.L82:
 2038              		.align	2
 2039              	.L81:
 2040 0a64 00000000 		.word	test_step
 2041 0a68 00000000 		.word	sem1
 2042 0a6c 00000000 		.word	.LC0
 2043 0a70 F8010000 		.word	.LC15
 2044              		.cfi_endproc
 2045              	.LFE297:
 2046              		.size	test_013_010_execute, .-test_013_010_execute
 2047              		.section	.rodata
 2048 0207 00       		.align	2
 2049              	.LC16:
 2050 0208 53656D61 		.ascii	"Semaphores wait/signal performance\000"
 2050      70686F72 
 2050      65732077 
 2050      6169742F 
 2050      7369676E 
 2051 022b 00       		.align	2
 2052              		.type	test_013_010, %object
 2053              		.size	test_013_010, 16
 2054              	test_013_010:
 2055 022c 08020000 		.word	.LC16
 2056 0230 00000000 		.word	test_013_010_setup
 2057 0234 00000000 		.word	0
 2058 0238 00000000 		.word	test_013_010_execute
 2059              		.text
 2060              		.align	2
 2061 0a74 AFF30080 		.p2align 4,,15
 2061      AFF30080 
 2061      AFF30080 
 2062              		.thumb
 2063              		.thumb_func
 2064              		.type	test_013_011_setup, %function
 2065              	test_013_011_setup:
 2066              	.LFB298:
 2067              		.loc 9 836 0
 2068              		.cfi_startproc
 2069              		@ args = 0, pretend = 0, frame = 0
 2070              		@ frame_needed = 0, uses_anonymous_args = 0
 2071 0a80 08B5     		push	{r3, lr}
 2072              		.cfi_def_cfa_offset 8
 2073              		.cfi_offset 3, -8
 2074              		.cfi_offset 14, -4
 2075              		.loc 9 837 0
 2076 0a82 0248     		ldr	r0, .L84
 2077 0a84 FFF7FEFF 		bl	chMtxObjectInit
 2078              		.loc 9 838 0
 2079 0a88 08BD     		pop	{r3, pc}
 2080              	.L85:
 2081 0a8a 00BF     		.align	2
 2082              	.L84:
 2083 0a8c 0C000000 		.word	mtx1
 2084              		.cfi_endproc
 2085              	.LFE298:
ARM GAS  /tmp/ccbFaIaq.s 			page 39


 2086              		.size	test_013_011_setup, .-test_013_011_setup
 2087              		.section	.rodata
 2088              		.align	2
 2089              	.LC17:
 2090 023c 206C6F63 		.ascii	" lock+unlock/S\000"
 2090      6B2B756E 
 2090      6C6F636B 
 2090      2F5300
 2091              		.text
 2092              		.align	2
 2093              		.p2align 4,,15
 2094              		.thumb
 2095              		.thumb_func
 2096              		.type	test_013_011_execute, %function
 2097              	test_013_011_execute:
 2098              	.LFB299:
 2099              		.loc 9 840 0
 2100              		.cfi_startproc
 2101              		@ args = 0, pretend = 0, frame = 16
 2102              		@ frame_needed = 0, uses_anonymous_args = 0
 2103 0a90 00B5     		push	{lr}
 2104              		.cfi_def_cfa_offset 4
 2105              		.cfi_offset 14, -4
 2106 0a92 85B0     		sub	sp, sp, #20
 2107              		.cfi_def_cfa_offset 24
 2108              		.loc 9 845 0
 2109 0a94 1F4B     		ldr	r3, .L88
 2110 0a96 0122     		movs	r2, #1
 2111 0a98 1A60     		str	r2, [r3]
 2112              	.LBB14:
 2113              		.loc 9 849 0
 2114 0a9a 0023     		movs	r3, #0
 2115 0a9c 0393     		str	r3, [sp, #12]
 2116              		.loc 9 850 0
 2117 0a9e FFF7FEFF 		bl	test_wait_tick
 2118 0aa2 0290     		str	r0, [sp, #8]
 2119              		.loc 9 851 0
 2120 0aa4 029B     		ldr	r3, [sp, #8]
 2121 0aa6 03F51C53 		add	r3, r3, #9984
 2122 0aaa 1033     		adds	r3, r3, #16
 2123 0aac 0193     		str	r3, [sp, #4]
 2124              	.L87:
 2125              		.loc 9 853 0 discriminator 1
 2126 0aae 1A48     		ldr	r0, .L88+4
 2127 0ab0 FFF7FEFF 		bl	chMtxLock
 2128              		.loc 9 854 0 discriminator 1
 2129 0ab4 1848     		ldr	r0, .L88+4
 2130 0ab6 FFF7FEFF 		bl	chMtxUnlock
 2131              		.loc 9 855 0 discriminator 1
 2132 0aba 1748     		ldr	r0, .L88+4
 2133 0abc FFF7FEFF 		bl	chMtxLock
 2134              		.loc 9 856 0 discriminator 1
 2135 0ac0 1548     		ldr	r0, .L88+4
 2136 0ac2 FFF7FEFF 		bl	chMtxUnlock
 2137              		.loc 9 857 0 discriminator 1
 2138 0ac6 1448     		ldr	r0, .L88+4
 2139 0ac8 FFF7FEFF 		bl	chMtxLock
ARM GAS  /tmp/ccbFaIaq.s 			page 40


 2140              		.loc 9 858 0 discriminator 1
 2141 0acc 1248     		ldr	r0, .L88+4
 2142 0ace FFF7FEFF 		bl	chMtxUnlock
 2143              		.loc 9 859 0 discriminator 1
 2144 0ad2 1148     		ldr	r0, .L88+4
 2145 0ad4 FFF7FEFF 		bl	chMtxLock
 2146              		.loc 9 860 0 discriminator 1
 2147 0ad8 0F48     		ldr	r0, .L88+4
 2148 0ada FFF7FEFF 		bl	chMtxUnlock
 2149              		.loc 9 861 0 discriminator 1
 2150 0ade 039B     		ldr	r3, [sp, #12]
 2151 0ae0 0133     		adds	r3, r3, #1
 2152 0ae2 0393     		str	r3, [sp, #12]
 2153              		.loc 9 865 0 discriminator 1
 2154 0ae4 0298     		ldr	r0, [sp, #8]
 2155 0ae6 0199     		ldr	r1, [sp, #4]
 2156 0ae8 FFF7DAFA 		bl	chVTIsSystemTimeWithinX
 2157 0aec 0346     		mov	r3, r0
 2158 0aee 002B     		cmp	r3, #0
 2159 0af0 DDD1     		bne	.L87
 2160              	.LBE14:
 2161              		.loc 9 869 0
 2162 0af2 084B     		ldr	r3, .L88
 2163 0af4 0222     		movs	r2, #2
 2164 0af6 1A60     		str	r2, [r3]
 2165              		.loc 9 871 0
 2166 0af8 0848     		ldr	r0, .L88+8
 2167 0afa FFF7FEFF 		bl	test_print
 2168              		.loc 9 872 0
 2169 0afe 039B     		ldr	r3, [sp, #12]
 2170 0b00 9B00     		lsls	r3, r3, #2
 2171 0b02 1846     		mov	r0, r3
 2172 0b04 FFF7FEFF 		bl	test_printn
 2173              		.loc 9 873 0
 2174 0b08 0548     		ldr	r0, .L88+12
 2175 0b0a FFF7FEFF 		bl	test_println
 2176              		.loc 9 875 0
 2177 0b0e 05B0     		add	sp, sp, #20
 2178              		.cfi_def_cfa_offset 4
 2179              		@ sp needed
 2180 0b10 5DF804FB 		ldr	pc, [sp], #4
 2181              	.L89:
 2182              		.align	2
 2183              	.L88:
 2184 0b14 00000000 		.word	test_step
 2185 0b18 0C000000 		.word	mtx1
 2186 0b1c 00000000 		.word	.LC0
 2187 0b20 3C020000 		.word	.LC17
 2188              		.cfi_endproc
 2189              	.LFE299:
 2190              		.size	test_013_011_execute, .-test_013_011_execute
 2191              		.section	.rodata
 2192 024b 00       		.align	2
 2193              	.LC18:
 2194 024c 4D757465 		.ascii	"Mutexes lock/unlock performance\000"
 2194      78657320 
 2194      6C6F636B 
ARM GAS  /tmp/ccbFaIaq.s 			page 41


 2194      2F756E6C 
 2194      6F636B20 
 2195              		.align	2
 2196              		.type	test_013_011, %object
 2197              		.size	test_013_011, 16
 2198              	test_013_011:
 2199 026c 4C020000 		.word	.LC18
 2200 0270 00000000 		.word	test_013_011_setup
 2201 0274 00000000 		.word	0
 2202 0278 00000000 		.word	test_013_011_execute
 2203              		.align	2
 2204              	.LC19:
 2205 027c 2D2D2D20 		.ascii	"--- System: \000"
 2205      53797374 
 2205      656D3A20 
 2205      00
 2206 0289 000000   		.align	2
 2207              	.LC20:
 2208 028c 20627974 		.ascii	" bytes\000"
 2208      657300
 2209 0293 00       		.align	2
 2210              	.LC21:
 2211 0294 2D2D2D20 		.ascii	"--- Thread: \000"
 2211      54687265 
 2211      61643A20 
 2211      00
 2212 02a1 000000   		.align	2
 2213              	.LC22:
 2214 02a4 2D2D2D20 		.ascii	"--- Timer : \000"
 2214      54696D65 
 2214      72203A20 
 2214      00
 2215 02b1 000000   		.align	2
 2216              	.LC23:
 2217 02b4 2D2D2D20 		.ascii	"--- Semaph: \000"
 2217      53656D61 
 2217      70683A20 
 2217      00
 2218 02c1 000000   		.align	2
 2219              	.LC24:
 2220 02c4 2D2D2D20 		.ascii	"--- Mutex : \000"
 2220      4D757465 
 2220      78203A20 
 2220      00
 2221 02d1 000000   		.align	2
 2222              	.LC25:
 2223 02d4 2D2D2D20 		.ascii	"--- CondV.: \000"
 2223      436F6E64 
 2223      562E3A20 
 2223      00
 2224 02e1 000000   		.align	2
 2225              	.LC26:
 2226 02e4 2D2D2D20 		.ascii	"--- EventS: \000"
 2226      4576656E 
 2226      74533A20 
 2226      00
 2227 02f1 000000   		.align	2
ARM GAS  /tmp/ccbFaIaq.s 			page 42


 2228              	.LC27:
 2229 02f4 2D2D2D20 		.ascii	"--- EventL: \000"
 2229      4576656E 
 2229      744C3A20 
 2229      00
 2230 0301 000000   		.align	2
 2231              	.LC28:
 2232 0304 2D2D2D20 		.ascii	"--- MailB.: \000"
 2232      4D61696C 
 2232      422E3A20 
 2232      00
 2233              		.text
 2234              		.align	2
 2235 0b24 AFF30080 		.p2align 4,,15
 2235      AFF30080 
 2235      AFF30080 
 2236              		.thumb
 2237              		.thumb_func
 2238              		.type	test_013_012_execute, %function
 2239              	test_013_012_execute:
 2240              	.LFB300:
 2241              		.loc 9 904 0
 2242              		.cfi_startproc
 2243              		@ args = 0, pretend = 0, frame = 0
 2244              		@ frame_needed = 0, uses_anonymous_args = 0
 2245 0b30 08B5     		push	{r3, lr}
 2246              		.cfi_def_cfa_offset 8
 2247              		.cfi_offset 3, -8
 2248              		.cfi_offset 14, -4
 2249              		.loc 9 907 0
 2250 0b32 364B     		ldr	r3, .L91
 2251 0b34 0122     		movs	r2, #1
 2252 0b36 1A60     		str	r2, [r3]
 2253              		.loc 9 909 0
 2254 0b38 3548     		ldr	r0, .L91+4
 2255 0b3a FFF7FEFF 		bl	test_print
 2256              		.loc 9 910 0
 2257 0b3e 7820     		movs	r0, #120
 2258 0b40 FFF7FEFF 		bl	test_printn
 2259              		.loc 9 911 0
 2260 0b44 3348     		ldr	r0, .L91+8
 2261 0b46 FFF7FEFF 		bl	test_println
 2262              		.loc 9 915 0
 2263 0b4a 304B     		ldr	r3, .L91
 2264 0b4c 0222     		movs	r2, #2
 2265 0b4e 1A60     		str	r2, [r3]
 2266              		.loc 9 917 0
 2267 0b50 3148     		ldr	r0, .L91+12
 2268 0b52 FFF7FEFF 		bl	test_print
 2269              		.loc 9 918 0
 2270 0b56 4420     		movs	r0, #68
 2271 0b58 FFF7FEFF 		bl	test_printn
 2272              		.loc 9 919 0
 2273 0b5c 2D48     		ldr	r0, .L91+8
 2274 0b5e FFF7FEFF 		bl	test_println
 2275              		.loc 9 923 0
 2276 0b62 2A4B     		ldr	r3, .L91
ARM GAS  /tmp/ccbFaIaq.s 			page 43


 2277 0b64 0322     		movs	r2, #3
 2278 0b66 1A60     		str	r2, [r3]
 2279              		.loc 9 925 0
 2280 0b68 2C48     		ldr	r0, .L91+16
 2281 0b6a FFF7FEFF 		bl	test_print
 2282              		.loc 9 926 0
 2283 0b6e 1420     		movs	r0, #20
 2284 0b70 FFF7FEFF 		bl	test_printn
 2285              		.loc 9 927 0
 2286 0b74 2748     		ldr	r0, .L91+8
 2287 0b76 FFF7FEFF 		bl	test_println
 2288              		.loc 9 931 0
 2289 0b7a 244B     		ldr	r3, .L91
 2290 0b7c 0422     		movs	r2, #4
 2291 0b7e 1A60     		str	r2, [r3]
 2292              		.loc 9 934 0
 2293 0b80 2748     		ldr	r0, .L91+20
 2294 0b82 FFF7FEFF 		bl	test_print
 2295              		.loc 9 935 0
 2296 0b86 0C20     		movs	r0, #12
 2297 0b88 FFF7FEFF 		bl	test_printn
 2298              		.loc 9 936 0
 2299 0b8c 2148     		ldr	r0, .L91+8
 2300 0b8e FFF7FEFF 		bl	test_println
 2301              		.loc 9 941 0
 2302 0b92 1E4B     		ldr	r3, .L91
 2303 0b94 0522     		movs	r2, #5
 2304 0b96 1A60     		str	r2, [r3]
 2305              		.loc 9 944 0
 2306 0b98 2248     		ldr	r0, .L91+24
 2307 0b9a FFF7FEFF 		bl	test_print
 2308              		.loc 9 945 0
 2309 0b9e 1020     		movs	r0, #16
 2310 0ba0 FFF7FEFF 		bl	test_printn
 2311              		.loc 9 946 0
 2312 0ba4 1B48     		ldr	r0, .L91+8
 2313 0ba6 FFF7FEFF 		bl	test_println
 2314              		.loc 9 951 0
 2315 0baa 184B     		ldr	r3, .L91
 2316 0bac 0622     		movs	r2, #6
 2317 0bae 1A60     		str	r2, [r3]
 2318              		.loc 9 954 0
 2319 0bb0 1D48     		ldr	r0, .L91+28
 2320 0bb2 FFF7FEFF 		bl	test_print
 2321              		.loc 9 955 0
 2322 0bb6 0820     		movs	r0, #8
 2323 0bb8 FFF7FEFF 		bl	test_printn
 2324              		.loc 9 956 0
 2325 0bbc 1548     		ldr	r0, .L91+8
 2326 0bbe FFF7FEFF 		bl	test_println
 2327              		.loc 9 961 0
 2328 0bc2 124B     		ldr	r3, .L91
 2329 0bc4 0722     		movs	r2, #7
 2330 0bc6 1A60     		str	r2, [r3]
 2331              		.loc 9 964 0
 2332 0bc8 1848     		ldr	r0, .L91+32
 2333 0bca FFF7FEFF 		bl	test_print
ARM GAS  /tmp/ccbFaIaq.s 			page 44


 2334              		.loc 9 965 0
 2335 0bce 0420     		movs	r0, #4
 2336 0bd0 FFF7FEFF 		bl	test_printn
 2337              		.loc 9 966 0
 2338 0bd4 0F48     		ldr	r0, .L91+8
 2339 0bd6 FFF7FEFF 		bl	test_println
 2340              		.loc 9 971 0
 2341 0bda 0C4B     		ldr	r3, .L91
 2342 0bdc 0822     		movs	r2, #8
 2343 0bde 1A60     		str	r2, [r3]
 2344              		.loc 9 974 0
 2345 0be0 1348     		ldr	r0, .L91+36
 2346 0be2 FFF7FEFF 		bl	test_print
 2347              		.loc 9 975 0
 2348 0be6 1420     		movs	r0, #20
 2349 0be8 FFF7FEFF 		bl	test_printn
 2350              		.loc 9 976 0
 2351 0bec 0948     		ldr	r0, .L91+8
 2352 0bee FFF7FEFF 		bl	test_println
 2353              		.loc 9 981 0
 2354 0bf2 064B     		ldr	r3, .L91
 2355 0bf4 0922     		movs	r2, #9
 2356 0bf6 1A60     		str	r2, [r3]
 2357              		.loc 9 984 0
 2358 0bf8 0E48     		ldr	r0, .L91+40
 2359 0bfa FFF7FEFF 		bl	test_print
 2360              		.loc 9 985 0
 2361 0bfe 2820     		movs	r0, #40
 2362 0c00 FFF7FEFF 		bl	test_printn
 2363              		.loc 9 986 0
 2364 0c04 0348     		ldr	r0, .L91+8
 2365 0c06 FFF7FEFF 		bl	test_println
 2366              		.loc 9 989 0
 2367 0c0a 08BD     		pop	{r3, pc}
 2368              	.L92:
 2369              		.align	2
 2370              	.L91:
 2371 0c0c 00000000 		.word	test_step
 2372 0c10 7C020000 		.word	.LC19
 2373 0c14 8C020000 		.word	.LC20
 2374 0c18 94020000 		.word	.LC21
 2375 0c1c A4020000 		.word	.LC22
 2376 0c20 B4020000 		.word	.LC23
 2377 0c24 C4020000 		.word	.LC24
 2378 0c28 D4020000 		.word	.LC25
 2379 0c2c E4020000 		.word	.LC26
 2380 0c30 F4020000 		.word	.LC27
 2381 0c34 04030000 		.word	.LC28
 2382              		.cfi_endproc
 2383              	.LFE300:
 2384              		.size	test_013_012_execute, .-test_013_012_execute
 2385              		.section	.rodata
 2386 0311 000000   		.align	2
 2387              	.LC29:
 2388 0314 52414D20 		.ascii	"RAM Footprint\000"
 2388      466F6F74 
 2388      7072696E 
ARM GAS  /tmp/ccbFaIaq.s 			page 45


 2388      7400
 2389 0322 0000     		.align	2
 2390              		.type	test_013_012, %object
 2391              		.size	test_013_012, 16
 2392              	test_013_012:
 2393 0324 14030000 		.word	.LC29
 2394 0328 00000000 		.word	0
 2395 032c 00000000 		.word	0
 2396 0330 00000000 		.word	test_013_012_execute
 2397              		.global	test_sequence_013
 2398              		.align	2
 2399              		.type	test_sequence_013, %object
 2400              		.size	test_sequence_013, 52
 2401              	test_sequence_013:
 2402 0334 40000000 		.word	test_013_001
 2403 0338 68000000 		.word	test_013_002
 2404 033c 90000000 		.word	test_013_003
 2405 0340 BC000000 		.word	test_013_004
 2406 0344 F8000000 		.word	test_013_005
 2407 0348 30010000 		.word	test_013_006
 2408 034c 70010000 		.word	test_013_007
 2409 0350 A4010000 		.word	test_013_008
 2410 0354 E8010000 		.word	test_013_009
 2411 0358 2C020000 		.word	test_013_010
 2412 035c 6C020000 		.word	test_013_011
 2413 0360 24030000 		.word	test_013_012
 2414 0364 00000000 		.word	0
 2415              		.bss
 2416              		.align	2
 2417              	vt1.7438:
 2418 001c 00000000 		.space	20
 2418      00000000 
 2418      00000000 
 2418      00000000 
 2418      00000000 
 2419              		.align	2
 2420              	vt2.7439:
 2421 0030 00000000 		.space	20
 2421      00000000 
 2421      00000000 
 2421      00000000 
 2421      00000000 
 2422              		.text
 2423              	.Letext0:
 2424              		.file 10 "/usr/lib/gcc/arm-none-eabi/4.9.3/include/stddef.h"
 2425              		.file 11 "/usr/include/newlib/machine/_default_types.h"
 2426              		.file 12 "/usr/include/newlib/sys/_stdint.h"
 2427              		.file 13 "../../../os/common/ports/ARMCMx/compilers/GCC/chtypes.h"
 2428              		.file 14 "../../../os/rt/include/chsystypes.h"
 2429              		.file 15 "../../../os/rt/include/chschd.h"
 2430              		.file 16 "../../../os/common/ports/ARMCMx/chcore.h"
 2431              		.file 17 "../../../os/hal/ports/STM32/LLD/TIMv1/stm32_tim.h"
 2432              		.file 18 "../../../os/rt/include/chtm.h"
 2433              		.file 19 "../../../os/rt/include/chsem.h"
 2434              		.file 20 "../../../os/rt/include/chmtx.h"
 2435              		.file 21 "../../../test/lib/ch_test.h"
 2436              		.file 22 "../../../os/common/ext/CMSIS/include/core_cm4.h"
ARM GAS  /tmp/ccbFaIaq.s 			page 46


 2437              		.file 23 "../../../test/rt/source/test/test_root.h"