ARM GAS  /tmp/cc8ZryaH.s 			page 1


   1              		.syntax unified
   2              		.cpu cortex-m4
   3              		.fpu softvfp
   4              		.eabi_attribute 20, 1
   5              		.eabi_attribute 21, 1
   6              		.eabi_attribute 23, 3
   7              		.eabi_attribute 24, 1
   8              		.eabi_attribute 25, 1
   9              		.eabi_attribute 26, 1
  10              		.eabi_attribute 30, 6
  11              		.eabi_attribute 34, 1
  12              		.eabi_attribute 18, 4
  13              		.thumb
  14              		.file	"test_sequence_007.c"
  15              		.text
  16              	.Ltext0:
  17              		.cfi_sections	.debug_frame
  18              		.align	2
  19              		.p2align 4,,15
  20              		.thumb
  21              		.thumb_func
  22              		.type	chThdGetSelfX, %function
  23              	chThdGetSelfX:
  24              	.LFB195:
  25              		.file 1 "../../../os/rt/include/chthreads.h"
  26              		.loc 1 284 0
  27              		.cfi_startproc
  28              		@ args = 0, pretend = 0, frame = 0
  29              		@ frame_needed = 0, uses_anonymous_args = 0
  30              		@ link register save eliminated.
  31              		.loc 1 286 0
  32 0000 014B     		ldr	r3, .L3
  33 0002 9B69     		ldr	r3, [r3, #24]
  34              		.loc 1 287 0
  35 0004 1846     		mov	r0, r3
  36 0006 7047     		bx	lr
  37              	.L4:
  38              		.align	2
  39              	.L3:
  40 0008 00000000 		.word	ch
  41              		.cfi_endproc
  42              	.LFE195:
  43              		.size	chThdGetSelfX, .-chThdGetSelfX
  44              		.align	2
  45 000c AFF30080 		.p2align 4,,15
  46              		.thumb
  47              		.thumb_func
  48              		.type	chThdGetPriorityX, %function
  49              	chThdGetPriorityX:
  50              	.LFB196:
  51              		.loc 1 297 0
  52              		.cfi_startproc
  53              		@ args = 0, pretend = 0, frame = 0
  54              		@ frame_needed = 0, uses_anonymous_args = 0
  55 0010 08B5     		push	{r3, lr}
  56              		.cfi_def_cfa_offset 8
  57              		.cfi_offset 3, -8
ARM GAS  /tmp/cc8ZryaH.s 			page 2


  58              		.cfi_offset 14, -4
  59              		.loc 1 299 0
  60 0012 FFF7F5FF 		bl	chThdGetSelfX
  61 0016 0346     		mov	r3, r0
  62 0018 9B68     		ldr	r3, [r3, #8]
  63              		.loc 1 300 0
  64 001a 1846     		mov	r0, r3
  65 001c 08BD     		pop	{r3, pc}
  66              		.cfi_endproc
  67              	.LFE196:
  68              		.size	chThdGetPriorityX, .-chThdGetPriorityX
  69 001e 00BF     		.align	2
  70              		.p2align 4,,15
  71              		.thumb
  72              		.thumb_func
  73              		.type	chMsgGet, %function
  74              	chMsgGet:
  75              	.LFB231:
  76              		.file 2 "../../../os/rt/include/chmsg.h"
  77              		.loc 2 96 0
  78              		.cfi_startproc
  79              		@ args = 0, pretend = 0, frame = 8
  80              		@ frame_needed = 0, uses_anonymous_args = 0
  81              		@ link register save eliminated.
  82 0020 82B0     		sub	sp, sp, #8
  83              		.cfi_def_cfa_offset 8
  84 0022 0190     		str	r0, [sp, #4]
  85              		.loc 2 100 0
  86 0024 019B     		ldr	r3, [sp, #4]
  87 0026 5B6A     		ldr	r3, [r3, #36]
  88              		.loc 2 101 0
  89 0028 1846     		mov	r0, r3
  90 002a 02B0     		add	sp, sp, #8
  91              		.cfi_def_cfa_offset 0
  92              		@ sp needed
  93 002c 7047     		bx	lr
  94              		.cfi_endproc
  95              	.LFE231:
  96              		.size	chMsgGet, .-chMsgGet
  97 002e 00BF     		.align	2
  98              		.p2align 4,,15
  99              		.thumb
 100              		.thumb_func
 101              		.type	msg_thread1, %function
 102              	msg_thread1:
 103              	.LFB279:
 104              		.file 3 "../../../test/rt/source/test/test_sequence_007.c"
 105              		.loc 3 50 0
 106              		.cfi_startproc
 107              		@ args = 0, pretend = 0, frame = 8
 108              		@ frame_needed = 0, uses_anonymous_args = 0
 109 0030 00B5     		push	{lr}
 110              		.cfi_def_cfa_offset 4
 111              		.cfi_offset 14, -4
 112 0032 83B0     		sub	sp, sp, #12
 113              		.cfi_def_cfa_offset 16
 114 0034 0190     		str	r0, [sp, #4]
ARM GAS  /tmp/cc8ZryaH.s 			page 3


 115              		.loc 3 52 0
 116 0036 0198     		ldr	r0, [sp, #4]
 117 0038 4121     		movs	r1, #65
 118 003a FFF7FEFF 		bl	chMsgSend
 119              		.loc 3 53 0
 120 003e 0198     		ldr	r0, [sp, #4]
 121 0040 4221     		movs	r1, #66
 122 0042 FFF7FEFF 		bl	chMsgSend
 123              		.loc 3 54 0
 124 0046 0198     		ldr	r0, [sp, #4]
 125 0048 4321     		movs	r1, #67
 126 004a FFF7FEFF 		bl	chMsgSend
 127              		.loc 3 55 0
 128 004e 0198     		ldr	r0, [sp, #4]
 129 0050 4421     		movs	r1, #68
 130 0052 FFF7FEFF 		bl	chMsgSend
 131              		.loc 3 56 0
 132 0056 03B0     		add	sp, sp, #12
 133              		.cfi_def_cfa_offset 4
 134              		@ sp needed
 135 0058 5DF804FB 		ldr	pc, [sp], #4
 136              		.cfi_endproc
 137              	.LFE279:
 138              		.size	msg_thread1, .-msg_thread1
 139              		.section	.rodata
 140              		.align	2
 141              	.LC0:
 142 0000 41424344 		.ascii	"ABCD\000"
 142      00
 143 0005 000000   		.align	2
 144              	.LC1:
 145 0008 696E7661 		.ascii	"invalid sequence\000"
 145      6C696420 
 145      73657175 
 145      656E6365 
 145      00
 146              		.text
 147              		.align	2
 148 005c AFF30080 		.p2align 4,,15
 149              		.thumb
 150              		.thumb_func
 151              		.type	test_007_001_execute, %function
 152              	test_007_001_execute:
 153              	.LFB280:
 154              		.loc 3 76 0
 155              		.cfi_startproc
 156              		@ args = 0, pretend = 0, frame = 16
 157              		@ frame_needed = 0, uses_anonymous_args = 0
 158 0060 30B5     		push	{r4, r5, lr}
 159              		.cfi_def_cfa_offset 12
 160              		.cfi_offset 4, -12
 161              		.cfi_offset 5, -8
 162              		.cfi_offset 14, -4
 163 0062 87B0     		sub	sp, sp, #28
 164              		.cfi_def_cfa_offset 40
 165              		.loc 3 81 0
 166 0064 1F4B     		ldr	r3, .L14
ARM GAS  /tmp/cc8ZryaH.s 			page 4


 167 0066 0122     		movs	r2, #1
 168 0068 1A60     		str	r2, [r3]
 169              		.loc 3 83 0
 170 006a 1F4B     		ldr	r3, .L14+4
 171 006c 1D68     		ldr	r5, [r3]
 172 006e FFF7CFFF 		bl	chThdGetPriorityX
 173 0072 0346     		mov	r3, r0
 174 0074 5C1C     		adds	r4, r3, #1
 175              		.loc 3 84 0
 176 0076 FFF7C3FF 		bl	chThdGetSelfX
 177 007a 0346     		mov	r3, r0
 178              		.loc 3 83 0
 179 007c 0093     		str	r3, [sp]
 180 007e 2846     		mov	r0, r5
 181 0080 4FF4A471 		mov	r1, #328
 182 0084 2246     		mov	r2, r4
 183 0086 194B     		ldr	r3, .L14+8
 184 0088 FFF7FEFF 		bl	chThdCreateStatic
 185 008c 0246     		mov	r2, r0
 186 008e 184B     		ldr	r3, .L14+12
 187 0090 1A60     		str	r2, [r3]
 188              		.loc 3 89 0
 189 0092 144B     		ldr	r3, .L14
 190 0094 0222     		movs	r2, #2
 191 0096 1A60     		str	r2, [r3]
 192              	.LBB2:
 193              		.loc 3 93 0
 194 0098 0023     		movs	r3, #0
 195 009a 0593     		str	r3, [sp, #20]
 196 009c 12E0     		b	.L11
 197              	.L12:
 198              		.loc 3 94 0 discriminator 3
 199 009e FFF7FEFF 		bl	chMsgWait
 200 00a2 0490     		str	r0, [sp, #16]
 201              		.loc 3 95 0 discriminator 3
 202 00a4 0498     		ldr	r0, [sp, #16]
 203 00a6 FFF7BBFF 		bl	chMsgGet
 204 00aa 0390     		str	r0, [sp, #12]
 205              		.loc 3 96 0 discriminator 3
 206 00ac 0498     		ldr	r0, [sp, #16]
 207 00ae 0399     		ldr	r1, [sp, #12]
 208 00b0 FFF7FEFF 		bl	chMsgRelease
 209              		.loc 3 97 0 discriminator 3
 210 00b4 039B     		ldr	r3, [sp, #12]
 211 00b6 DBB2     		uxtb	r3, r3
 212 00b8 1846     		mov	r0, r3
 213 00ba FFF7FEFF 		bl	test_emit_token
 214              		.loc 3 93 0 discriminator 3
 215 00be 059B     		ldr	r3, [sp, #20]
 216 00c0 0133     		adds	r3, r3, #1
 217 00c2 0593     		str	r3, [sp, #20]
 218              	.L11:
 219              		.loc 3 93 0 is_stmt 0 discriminator 1
 220 00c4 059B     		ldr	r3, [sp, #20]
 221 00c6 032B     		cmp	r3, #3
 222 00c8 E9D9     		bls	.L12
 223              		.loc 3 99 0 is_stmt 1
ARM GAS  /tmp/cc8ZryaH.s 			page 5


 224 00ca FFF7FEFF 		bl	test_wait_threads
 225              		.loc 3 100 0
 226 00ce 0948     		ldr	r0, .L14+16
 227 00d0 0949     		ldr	r1, .L14+20
 228 00d2 FFF7FEFF 		bl	_test_assert_sequence
 229 00d6 0346     		mov	r3, r0
 230 00d8 002B     		cmp	r3, #0
 231 00da 00D0     		beq	.L10
 232 00dc 00BF     		nop
 233              	.L10:
 234              	.LBE2:
 235              		.loc 3 102 0
 236 00de 07B0     		add	sp, sp, #28
 237              		.cfi_def_cfa_offset 12
 238              		@ sp needed
 239 00e0 30BD     		pop	{r4, r5, pc}
 240              	.L15:
 241 00e2 00BF     		.align	2
 242              	.L14:
 243 00e4 00000000 		.word	test_step
 244 00e8 00000000 		.word	wa
 245 00ec 00000000 		.word	msg_thread1
 246 00f0 00000000 		.word	threads
 247 00f4 00000000 		.word	.LC0
 248 00f8 08000000 		.word	.LC1
 249              		.cfi_endproc
 250              	.LFE280:
 251              		.size	test_007_001_execute, .-test_007_001_execute
 252              		.section	.rodata
 253 0019 000000   		.align	2
 254              	.LC2:
 255 001c 4D657373 		.ascii	"Messages Server loop\000"
 255      61676573 
 255      20536572 
 255      76657220 
 255      6C6F6F70 
 256 0031 000000   		.align	2
 257              		.type	test_007_001, %object
 258              		.size	test_007_001, 16
 259              	test_007_001:
 260 0034 1C000000 		.word	.LC2
 261 0038 00000000 		.word	0
 262 003c 00000000 		.word	0
 263 0040 00000000 		.word	test_007_001_execute
 264              		.global	test_sequence_007
 265              		.align	2
 266              		.type	test_sequence_007, %object
 267              		.size	test_sequence_007, 8
 268              	test_sequence_007:
 269 0044 34000000 		.word	test_007_001
 270 0048 00000000 		.word	0
 271              		.text
 272              	.Letext0:
 273              		.file 4 "/usr/lib/gcc/arm-none-eabi/4.9.3/include/stddef.h"
 274              		.file 5 "/usr/include/newlib/machine/_default_types.h"
 275              		.file 6 "/usr/include/newlib/sys/_stdint.h"
 276              		.file 7 "../../../os/common/ports/ARMCMx/compilers/GCC/chtypes.h"
ARM GAS  /tmp/cc8ZryaH.s 			page 6


 277              		.file 8 "../../../os/rt/include/chsystypes.h"
 278              		.file 9 "../../../os/rt/include/chschd.h"
 279              		.file 10 "../../../os/common/ports/ARMCMx/chcore.h"
 280              		.file 11 "../../../os/common/ports/ARMCMx/chcore_v7m.h"
 281              		.file 12 "../../../os/rt/include/chtm.h"
 282              		.file 13 "../../../os/rt/include/chsem.h"
 283              		.file 14 "../../../os/rt/include/chmtx.h"
 284              		.file 15 "../../../test/lib/ch_test.h"
 285              		.file 16 "../../../os/common/ext/CMSIS/include/core_cm4.h"
 286              		.file 17 "../../../test/rt/source/test/test_root.h"