ARM GAS  /tmp/ccKxe0pN.s 			page 1


   1              		.syntax unified
   2              		.cpu cortex-m4
   3              		.fpu softvfp
   4              		.eabi_attribute 20, 1
   5              		.eabi_attribute 21, 1
   6              		.eabi_attribute 23, 3
   7              		.eabi_attribute 24, 1
   8              		.eabi_attribute 25, 1
   9              		.eabi_attribute 26, 1
  10              		.eabi_attribute 30, 6
  11              		.eabi_attribute 34, 1
  12              		.eabi_attribute 18, 4
  13              		.thumb
  14              		.file	"test_sequence_010.c"
  15              		.text
  16              	.Ltext0:
  17              		.cfi_sections	.debug_frame
  18              		.bss
  19              		.align	2
  20              	objects:
  21 0000 00000000 		.space	16
  21      00000000 
  21      00000000 
  21      00000000 
  22              		.data
  23              		.align	2
  24              		.type	mp1, %object
  25              		.size	mp1, 12
  26              	mp1:
  27 0000 00000000 		.word	0
  28 0004 04000000 		.word	4
  29 0008 00000000 		.word	0
  30              		.align	2
  31              		.type	gmp1, %object
  32              		.size	gmp1, 24
  33              	gmp1:
  34 000c 0C000000 		.word	gmp1
  35 0010 0C000000 		.word	gmp1
  36 0014 00000000 		.word	0
  37 0018 00000000 		.word	0
  38 001c 04000000 		.word	4
  39 0020 00000000 		.word	0
  40              		.text
  41              		.align	2
  42              		.p2align 4,,15
  43              		.thumb
  44              		.thumb_func
  45              		.type	null_provider, %function
  46              	null_provider:
  47              	.LFB279:
  48              		.file 1 "../../../test/rt/source/test/test_sequence_010.c"
  49              		.loc 1 61 0
  50              		.cfi_startproc
  51              		@ args = 0, pretend = 0, frame = 8
  52              		@ frame_needed = 0, uses_anonymous_args = 0
  53              		@ link register save eliminated.
  54 0000 82B0     		sub	sp, sp, #8
ARM GAS  /tmp/ccKxe0pN.s 			page 2


  55              		.cfi_def_cfa_offset 8
  56 0002 0190     		str	r0, [sp, #4]
  57 0004 0091     		str	r1, [sp]
  58              		.loc 1 66 0
  59 0006 0023     		movs	r3, #0
  60              		.loc 1 67 0
  61 0008 1846     		mov	r0, r3
  62 000a 02B0     		add	sp, sp, #8
  63              		.cfi_def_cfa_offset 0
  64              		@ sp needed
  65 000c 7047     		bx	lr
  66              		.cfi_endproc
  67              	.LFE279:
  68              		.size	null_provider, .-null_provider
  69 000e 00BF     		.align	2
  70              		.p2align 4,,15
  71              		.thumb
  72              		.thumb_func
  73              		.type	test_010_001_setup, %function
  74              	test_010_001_setup:
  75              	.LFB280:
  76              		.loc 1 92 0
  77              		.cfi_startproc
  78              		@ args = 0, pretend = 0, frame = 0
  79              		@ frame_needed = 0, uses_anonymous_args = 0
  80 0010 08B5     		push	{r3, lr}
  81              		.cfi_def_cfa_offset 8
  82              		.cfi_offset 3, -8
  83              		.cfi_offset 14, -4
  84              		.loc 1 93 0
  85 0012 0348     		ldr	r0, .L4
  86 0014 0421     		movs	r1, #4
  87 0016 0022     		movs	r2, #0
  88 0018 FFF7FEFF 		bl	chPoolObjectInit
  89              		.loc 1 94 0
  90 001c 08BD     		pop	{r3, pc}
  91              	.L5:
  92 001e 00BF     		.align	2
  93              	.L4:
  94 0020 00000000 		.word	mp1
  95              		.cfi_endproc
  96              	.LFE280:
  97              		.size	test_010_001_setup, .-test_010_001_setup
  98              		.section	.rodata
  99              		.align	2
 100              	.LC0:
 101 0000 6C697374 		.ascii	"list empty\000"
 101      20656D70 
 101      747900
 102 000b 00       		.align	2
 103              	.LC1:
 104 000c 6C697374 		.ascii	"list not empty\000"
 104      206E6F74 
 104      20656D70 
 104      747900
 105 001b 00       		.align	2
 106              	.LC2:
ARM GAS  /tmp/ccKxe0pN.s 			page 3


 107 001c 70726F76 		.ascii	"provider returned memory\000"
 107      69646572 
 107      20726574 
 107      75726E65 
 107      64206D65 
 108              		.text
 109              		.align	2
 110 0024 AFF30080 		.p2align 4,,15
 110      AFF30080 
 110      AFF30080 
 111              		.thumb
 112              		.thumb_func
 113              		.type	test_010_001_execute, %function
 114              	test_010_001_execute:
 115              	.LFB281:
 116              		.loc 1 96 0
 117              		.cfi_startproc
 118              		@ args = 0, pretend = 0, frame = 8
 119              		@ frame_needed = 0, uses_anonymous_args = 0
 120 0030 00B5     		push	{lr}
 121              		.cfi_def_cfa_offset 4
 122              		.cfi_offset 14, -4
 123 0032 83B0     		sub	sp, sp, #12
 124              		.cfi_def_cfa_offset 16
 125              		.loc 1 100 0
 126 0034 4C4B     		ldr	r3, .L18
 127 0036 0122     		movs	r2, #1
 128 0038 1A60     		str	r2, [r3]
 129              		.loc 1 102 0
 130 003a 4C48     		ldr	r0, .L18+4
 131 003c 4C49     		ldr	r1, .L18+8
 132 003e 0422     		movs	r2, #4
 133 0040 FFF7FEFF 		bl	chPoolLoadArray
 134              		.loc 1 106 0
 135 0044 484B     		ldr	r3, .L18
 136 0046 0222     		movs	r2, #2
 137 0048 1A60     		str	r2, [r3]
 138              		.loc 1 108 0
 139 004a 0023     		movs	r3, #0
 140 004c 0193     		str	r3, [sp, #4]
 141 004e 13E0     		b	.L7
 142              	.L10:
 143              		.loc 1 109 0
 144 0050 4648     		ldr	r0, .L18+4
 145 0052 FFF7FEFF 		bl	chPoolAlloc
 146 0056 0346     		mov	r3, r0
 147 0058 002B     		cmp	r3, #0
 148 005a 14BF     		ite	ne
 149 005c 0123     		movne	r3, #1
 150 005e 0023     		moveq	r3, #0
 151 0060 DBB2     		uxtb	r3, r3
 152 0062 1846     		mov	r0, r3
 153 0064 4349     		ldr	r1, .L18+12
 154 0066 FFF7FEFF 		bl	_test_assert
 155 006a 0346     		mov	r3, r0
 156 006c 002B     		cmp	r3, #0
 157 006e 00D0     		beq	.L8
ARM GAS  /tmp/ccKxe0pN.s 			page 4


 158 0070 77E0     		b	.L6
 159              	.L8:
 160              		.loc 1 108 0 discriminator 2
 161 0072 019B     		ldr	r3, [sp, #4]
 162 0074 0133     		adds	r3, r3, #1
 163 0076 0193     		str	r3, [sp, #4]
 164              	.L7:
 165              		.loc 1 108 0 is_stmt 0 discriminator 1
 166 0078 019B     		ldr	r3, [sp, #4]
 167 007a 032B     		cmp	r3, #3
 168 007c E8D9     		bls	.L10
 169              		.loc 1 113 0 is_stmt 1
 170 007e 3A4B     		ldr	r3, .L18
 171 0080 0322     		movs	r2, #3
 172 0082 1A60     		str	r2, [r3]
 173              		.loc 1 115 0
 174 0084 3948     		ldr	r0, .L18+4
 175 0086 FFF7FEFF 		bl	chPoolAlloc
 176 008a 0346     		mov	r3, r0
 177 008c 002B     		cmp	r3, #0
 178 008e 0CBF     		ite	eq
 179 0090 0123     		moveq	r3, #1
 180 0092 0023     		movne	r3, #0
 181 0094 DBB2     		uxtb	r3, r3
 182 0096 1846     		mov	r0, r3
 183 0098 3749     		ldr	r1, .L18+16
 184 009a FFF7FEFF 		bl	_test_assert
 185 009e 0346     		mov	r3, r0
 186 00a0 002B     		cmp	r3, #0
 187 00a2 00D0     		beq	.L11
 188              		.loc 1 115 0 is_stmt 0 discriminator 2
 189 00a4 5DE0     		b	.L6
 190              	.L11:
 191              		.loc 1 119 0 is_stmt 1
 192 00a6 304B     		ldr	r3, .L18
 193 00a8 0422     		movs	r2, #4
 194 00aa 1A60     		str	r2, [r3]
 195              		.loc 1 121 0
 196 00ac 0023     		movs	r3, #0
 197 00ae 0193     		str	r3, [sp, #4]
 198 00b0 0AE0     		b	.L12
 199              	.L13:
 200              		.loc 1 122 0 discriminator 3
 201 00b2 019B     		ldr	r3, [sp, #4]
 202 00b4 9B00     		lsls	r3, r3, #2
 203 00b6 2E4A     		ldr	r2, .L18+8
 204 00b8 1344     		add	r3, r3, r2
 205 00ba 2C48     		ldr	r0, .L18+4
 206 00bc 1946     		mov	r1, r3
 207 00be FFF7FEFF 		bl	chPoolFree
 208              		.loc 1 121 0 discriminator 3
 209 00c2 019B     		ldr	r3, [sp, #4]
 210 00c4 0133     		adds	r3, r3, #1
 211 00c6 0193     		str	r3, [sp, #4]
 212              	.L12:
 213              		.loc 1 121 0 is_stmt 0 discriminator 1
 214 00c8 019B     		ldr	r3, [sp, #4]
ARM GAS  /tmp/ccKxe0pN.s 			page 5


 215 00ca 032B     		cmp	r3, #3
 216 00cc F1D9     		bls	.L13
 217              		.loc 1 126 0 is_stmt 1
 218 00ce 264B     		ldr	r3, .L18
 219 00d0 0522     		movs	r2, #5
 220 00d2 1A60     		str	r2, [r3]
 221              		.loc 1 128 0
 222 00d4 0023     		movs	r3, #0
 223 00d6 0193     		str	r3, [sp, #4]
 224 00d8 13E0     		b	.L14
 225              	.L16:
 226              		.loc 1 129 0
 227 00da 2448     		ldr	r0, .L18+4
 228 00dc FFF7FEFF 		bl	chPoolAlloc
 229 00e0 0346     		mov	r3, r0
 230 00e2 002B     		cmp	r3, #0
 231 00e4 14BF     		ite	ne
 232 00e6 0123     		movne	r3, #1
 233 00e8 0023     		moveq	r3, #0
 234 00ea DBB2     		uxtb	r3, r3
 235 00ec 1846     		mov	r0, r3
 236 00ee 2149     		ldr	r1, .L18+12
 237 00f0 FFF7FEFF 		bl	_test_assert
 238 00f4 0346     		mov	r3, r0
 239 00f6 002B     		cmp	r3, #0
 240 00f8 00D0     		beq	.L15
 241              		.loc 1 129 0 is_stmt 0 discriminator 3
 242 00fa 32E0     		b	.L6
 243              	.L15:
 244              		.loc 1 128 0 is_stmt 1 discriminator 2
 245 00fc 019B     		ldr	r3, [sp, #4]
 246 00fe 0133     		adds	r3, r3, #1
 247 0100 0193     		str	r3, [sp, #4]
 248              	.L14:
 249              		.loc 1 128 0 is_stmt 0 discriminator 1
 250 0102 019B     		ldr	r3, [sp, #4]
 251 0104 032B     		cmp	r3, #3
 252 0106 E8D9     		bls	.L16
 253              		.loc 1 133 0 is_stmt 1
 254 0108 174B     		ldr	r3, .L18
 255 010a 0622     		movs	r2, #6
 256 010c 1A60     		str	r2, [r3]
 257              		.loc 1 135 0
 258 010e 1748     		ldr	r0, .L18+4
 259 0110 FFF7FEFF 		bl	chPoolAlloc
 260 0114 0346     		mov	r3, r0
 261 0116 002B     		cmp	r3, #0
 262 0118 0CBF     		ite	eq
 263 011a 0123     		moveq	r3, #1
 264 011c 0023     		movne	r3, #0
 265 011e DBB2     		uxtb	r3, r3
 266 0120 1846     		mov	r0, r3
 267 0122 1549     		ldr	r1, .L18+16
 268 0124 FFF7FEFF 		bl	_test_assert
 269 0128 0346     		mov	r3, r0
 270 012a 002B     		cmp	r3, #0
 271 012c 00D0     		beq	.L17
ARM GAS  /tmp/ccKxe0pN.s 			page 6


 272              		.loc 1 135 0 is_stmt 0 discriminator 4
 273 012e 18E0     		b	.L6
 274              	.L17:
 275              		.loc 1 140 0 is_stmt 1
 276 0130 0D4B     		ldr	r3, .L18
 277 0132 0722     		movs	r2, #7
 278 0134 1A60     		str	r2, [r3]
 279              		.loc 1 142 0
 280 0136 0D48     		ldr	r0, .L18+4
 281 0138 0421     		movs	r1, #4
 282 013a 104A     		ldr	r2, .L18+20
 283 013c FFF7FEFF 		bl	chPoolObjectInit
 284              		.loc 1 143 0
 285 0140 0A48     		ldr	r0, .L18+4
 286 0142 FFF7FEFF 		bl	chPoolAlloc
 287 0146 0346     		mov	r3, r0
 288 0148 002B     		cmp	r3, #0
 289 014a 0CBF     		ite	eq
 290 014c 0123     		moveq	r3, #1
 291 014e 0023     		movne	r3, #0
 292 0150 DBB2     		uxtb	r3, r3
 293 0152 1846     		mov	r0, r3
 294 0154 0A49     		ldr	r1, .L18+24
 295 0156 FFF7FEFF 		bl	_test_assert
 296 015a 0346     		mov	r3, r0
 297 015c 002B     		cmp	r3, #0
 298 015e 00D0     		beq	.L6
 299              		.loc 1 143 0 is_stmt 0 discriminator 5
 300 0160 00BF     		nop
 301              	.L6:
 302              		.loc 1 145 0 is_stmt 1
 303 0162 03B0     		add	sp, sp, #12
 304              		.cfi_def_cfa_offset 4
 305              		@ sp needed
 306 0164 5DF804FB 		ldr	pc, [sp], #4
 307              	.L19:
 308              		.align	2
 309              	.L18:
 310 0168 00000000 		.word	test_step
 311 016c 00000000 		.word	mp1
 312 0170 00000000 		.word	objects
 313 0174 00000000 		.word	.LC0
 314 0178 0C000000 		.word	.LC1
 315 017c 00000000 		.word	null_provider
 316 0180 1C000000 		.word	.LC2
 317              		.cfi_endproc
 318              	.LFE281:
 319              		.size	test_010_001_execute, .-test_010_001_execute
 320              		.section	.rodata
 321 0035 000000   		.align	2
 322              	.LC3:
 323 0038 4C6F6164 		.ascii	"Loading and emptying a memory pool\000"
 323      696E6720 
 323      616E6420 
 323      656D7074 
 323      79696E67 
 324 005b 00       		.align	2
ARM GAS  /tmp/ccKxe0pN.s 			page 7


 325              		.type	test_010_001, %object
 326              		.size	test_010_001, 16
 327              	test_010_001:
 328 005c 38000000 		.word	.LC3
 329 0060 00000000 		.word	test_010_001_setup
 330 0064 00000000 		.word	0
 331 0068 00000000 		.word	test_010_001_execute
 332              		.text
 333              		.align	2
 334 0184 AFF30080 		.p2align 4,,15
 334      AFF30080 
 334      AFF30080 
 335              		.thumb
 336              		.thumb_func
 337              		.type	test_010_002_setup, %function
 338              	test_010_002_setup:
 339              	.LFB282:
 340              		.loc 1 180 0
 341              		.cfi_startproc
 342              		@ args = 0, pretend = 0, frame = 0
 343              		@ frame_needed = 0, uses_anonymous_args = 0
 344 0190 08B5     		push	{r3, lr}
 345              		.cfi_def_cfa_offset 8
 346              		.cfi_offset 3, -8
 347              		.cfi_offset 14, -4
 348              		.loc 1 181 0
 349 0192 0248     		ldr	r0, .L21
 350 0194 0421     		movs	r1, #4
 351 0196 FFF7FEFF 		bl	chGuardedPoolObjectInit
 352              		.loc 1 182 0
 353 019a 08BD     		pop	{r3, pc}
 354              	.L22:
 355              		.align	2
 356              	.L21:
 357 019c 0C000000 		.word	gmp1
 358              		.cfi_endproc
 359              	.LFE282:
 360              		.size	test_010_002_setup, .-test_010_002_setup
 361              		.align	2
 362              		.p2align 4,,15
 363              		.thumb
 364              		.thumb_func
 365              		.type	test_010_002_execute, %function
 366              	test_010_002_execute:
 367              	.LFB283:
 368              		.loc 1 184 0
 369              		.cfi_startproc
 370              		@ args = 0, pretend = 0, frame = 8
 371              		@ frame_needed = 0, uses_anonymous_args = 0
 372 01a0 00B5     		push	{lr}
 373              		.cfi_def_cfa_offset 4
 374              		.cfi_offset 14, -4
 375 01a2 83B0     		sub	sp, sp, #12
 376              		.cfi_def_cfa_offset 16
 377              		.loc 1 189 0
 378 01a4 424B     		ldr	r3, .L34
 379 01a6 0122     		movs	r2, #1
ARM GAS  /tmp/ccKxe0pN.s 			page 8


 380 01a8 1A60     		str	r2, [r3]
 381              		.loc 1 191 0
 382 01aa 4248     		ldr	r0, .L34+4
 383 01ac 4249     		ldr	r1, .L34+8
 384 01ae 0422     		movs	r2, #4
 385 01b0 FFF7FEFF 		bl	chGuardedPoolLoadArray
 386              		.loc 1 195 0
 387 01b4 3E4B     		ldr	r3, .L34
 388 01b6 0222     		movs	r2, #2
 389 01b8 1A60     		str	r2, [r3]
 390              		.loc 1 197 0
 391 01ba 0023     		movs	r3, #0
 392 01bc 0193     		str	r3, [sp, #4]
 393 01be 14E0     		b	.L24
 394              	.L27:
 395              		.loc 1 198 0
 396 01c0 3C48     		ldr	r0, .L34+4
 397 01c2 0021     		movs	r1, #0
 398 01c4 FFF7FEFF 		bl	chGuardedPoolAllocTimeout
 399 01c8 0346     		mov	r3, r0
 400 01ca 002B     		cmp	r3, #0
 401 01cc 14BF     		ite	ne
 402 01ce 0123     		movne	r3, #1
 403 01d0 0023     		moveq	r3, #0
 404 01d2 DBB2     		uxtb	r3, r3
 405 01d4 1846     		mov	r0, r3
 406 01d6 3949     		ldr	r1, .L34+12
 407 01d8 FFF7FEFF 		bl	_test_assert
 408 01dc 0346     		mov	r3, r0
 409 01de 002B     		cmp	r3, #0
 410 01e0 00D0     		beq	.L25
 411 01e2 61E0     		b	.L23
 412              	.L25:
 413              		.loc 1 197 0 discriminator 2
 414 01e4 019B     		ldr	r3, [sp, #4]
 415 01e6 0133     		adds	r3, r3, #1
 416 01e8 0193     		str	r3, [sp, #4]
 417              	.L24:
 418              		.loc 1 197 0 is_stmt 0 discriminator 1
 419 01ea 019B     		ldr	r3, [sp, #4]
 420 01ec 032B     		cmp	r3, #3
 421 01ee E7D9     		bls	.L27
 422              		.loc 1 202 0 is_stmt 1
 423 01f0 2F4B     		ldr	r3, .L34
 424 01f2 0322     		movs	r2, #3
 425 01f4 1A60     		str	r2, [r3]
 426              		.loc 1 204 0
 427 01f6 2F48     		ldr	r0, .L34+4
 428 01f8 0021     		movs	r1, #0
 429 01fa FFF7FEFF 		bl	chGuardedPoolAllocTimeout
 430 01fe 0346     		mov	r3, r0
 431 0200 002B     		cmp	r3, #0
 432 0202 0CBF     		ite	eq
 433 0204 0123     		moveq	r3, #1
 434 0206 0023     		movne	r3, #0
 435 0208 DBB2     		uxtb	r3, r3
 436 020a 1846     		mov	r0, r3
ARM GAS  /tmp/ccKxe0pN.s 			page 9


 437 020c 2C49     		ldr	r1, .L34+16
 438 020e FFF7FEFF 		bl	_test_assert
 439 0212 0346     		mov	r3, r0
 440 0214 002B     		cmp	r3, #0
 441 0216 00D0     		beq	.L28
 442              		.loc 1 204 0 is_stmt 0 discriminator 2
 443 0218 46E0     		b	.L23
 444              	.L28:
 445              		.loc 1 209 0 is_stmt 1
 446 021a 254B     		ldr	r3, .L34
 447 021c 0422     		movs	r2, #4
 448 021e 1A60     		str	r2, [r3]
 449              		.loc 1 211 0
 450 0220 0023     		movs	r3, #0
 451 0222 0193     		str	r3, [sp, #4]
 452 0224 0AE0     		b	.L29
 453              	.L30:
 454              		.loc 1 212 0 discriminator 3
 455 0226 019B     		ldr	r3, [sp, #4]
 456 0228 9B00     		lsls	r3, r3, #2
 457 022a 234A     		ldr	r2, .L34+8
 458 022c 1344     		add	r3, r3, r2
 459 022e 2148     		ldr	r0, .L34+4
 460 0230 1946     		mov	r1, r3
 461 0232 FFF7FEFF 		bl	chGuardedPoolFree
 462              		.loc 1 211 0 discriminator 3
 463 0236 019B     		ldr	r3, [sp, #4]
 464 0238 0133     		adds	r3, r3, #1
 465 023a 0193     		str	r3, [sp, #4]
 466              	.L29:
 467              		.loc 1 211 0 is_stmt 0 discriminator 1
 468 023c 019B     		ldr	r3, [sp, #4]
 469 023e 032B     		cmp	r3, #3
 470 0240 F1D9     		bls	.L30
 471              		.loc 1 217 0 is_stmt 1
 472 0242 1B4B     		ldr	r3, .L34
 473 0244 0522     		movs	r2, #5
 474 0246 1A60     		str	r2, [r3]
 475              		.loc 1 219 0
 476 0248 0023     		movs	r3, #0
 477 024a 0193     		str	r3, [sp, #4]
 478 024c 14E0     		b	.L31
 479              	.L33:
 480              		.loc 1 220 0
 481 024e 1948     		ldr	r0, .L34+4
 482 0250 0021     		movs	r1, #0
 483 0252 FFF7FEFF 		bl	chGuardedPoolAllocTimeout
 484 0256 0346     		mov	r3, r0
 485 0258 002B     		cmp	r3, #0
 486 025a 14BF     		ite	ne
 487 025c 0123     		movne	r3, #1
 488 025e 0023     		moveq	r3, #0
 489 0260 DBB2     		uxtb	r3, r3
 490 0262 1846     		mov	r0, r3
 491 0264 1549     		ldr	r1, .L34+12
 492 0266 FFF7FEFF 		bl	_test_assert
 493 026a 0346     		mov	r3, r0
ARM GAS  /tmp/ccKxe0pN.s 			page 10


 494 026c 002B     		cmp	r3, #0
 495 026e 00D0     		beq	.L32
 496              		.loc 1 220 0 is_stmt 0 discriminator 3
 497 0270 1AE0     		b	.L23
 498              	.L32:
 499              		.loc 1 219 0 is_stmt 1 discriminator 2
 500 0272 019B     		ldr	r3, [sp, #4]
 501 0274 0133     		adds	r3, r3, #1
 502 0276 0193     		str	r3, [sp, #4]
 503              	.L31:
 504              		.loc 1 219 0 is_stmt 0 discriminator 1
 505 0278 019B     		ldr	r3, [sp, #4]
 506 027a 032B     		cmp	r3, #3
 507 027c E7D9     		bls	.L33
 508              		.loc 1 224 0 is_stmt 1
 509 027e 0C4B     		ldr	r3, .L34
 510 0280 0622     		movs	r2, #6
 511 0282 1A60     		str	r2, [r3]
 512              		.loc 1 226 0
 513 0284 0B48     		ldr	r0, .L34+4
 514 0286 0021     		movs	r1, #0
 515 0288 FFF7FEFF 		bl	chGuardedPoolAllocTimeout
 516 028c 0346     		mov	r3, r0
 517 028e 002B     		cmp	r3, #0
 518 0290 0CBF     		ite	eq
 519 0292 0123     		moveq	r3, #1
 520 0294 0023     		movne	r3, #0
 521 0296 DBB2     		uxtb	r3, r3
 522 0298 1846     		mov	r0, r3
 523 029a 0949     		ldr	r1, .L34+16
 524 029c FFF7FEFF 		bl	_test_assert
 525 02a0 0346     		mov	r3, r0
 526 02a2 002B     		cmp	r3, #0
 527 02a4 00D0     		beq	.L23
 528              		.loc 1 226 0 is_stmt 0 discriminator 4
 529 02a6 00BF     		nop
 530              	.L23:
 531              		.loc 1 228 0 is_stmt 1
 532 02a8 03B0     		add	sp, sp, #12
 533              		.cfi_def_cfa_offset 4
 534              		@ sp needed
 535 02aa 5DF804FB 		ldr	pc, [sp], #4
 536              	.L35:
 537 02ae 00BF     		.align	2
 538              	.L34:
 539 02b0 00000000 		.word	test_step
 540 02b4 0C000000 		.word	gmp1
 541 02b8 00000000 		.word	objects
 542 02bc 00000000 		.word	.LC0
 543 02c0 0C000000 		.word	.LC1
 544              		.cfi_endproc
 545              	.LFE283:
 546              		.size	test_010_002_execute, .-test_010_002_execute
 547              		.section	.rodata
 548              		.align	2
 549              	.LC4:
 550 006c 4C6F6164 		.ascii	"Loading and emptying a guarded memory pool without "
ARM GAS  /tmp/ccKxe0pN.s 			page 11


 550      696E6720 
 550      616E6420 
 550      656D7074 
 550      79696E67 
 551 009f 77616974 		.ascii	"waiting\000"
 551      696E6700 
 552 00a7 00       		.align	2
 553              		.type	test_010_002, %object
 554              		.size	test_010_002, 16
 555              	test_010_002:
 556 00a8 6C000000 		.word	.LC4
 557 00ac 00000000 		.word	test_010_002_setup
 558 00b0 00000000 		.word	0
 559 00b4 00000000 		.word	test_010_002_execute
 560              		.text
 561              		.align	2
 562 02c4 AFF30080 		.p2align 4,,15
 562      AFF30080 
 562      AFF30080 
 563              		.thumb
 564              		.thumb_func
 565              		.type	test_010_003_setup, %function
 566              	test_010_003_setup:
 567              	.LFB284:
 568              		.loc 1 257 0
 569              		.cfi_startproc
 570              		@ args = 0, pretend = 0, frame = 0
 571              		@ frame_needed = 0, uses_anonymous_args = 0
 572 02d0 08B5     		push	{r3, lr}
 573              		.cfi_def_cfa_offset 8
 574              		.cfi_offset 3, -8
 575              		.cfi_offset 14, -4
 576              		.loc 1 258 0
 577 02d2 0248     		ldr	r0, .L37
 578 02d4 0421     		movs	r1, #4
 579 02d6 FFF7FEFF 		bl	chGuardedPoolObjectInit
 580              		.loc 1 259 0
 581 02da 08BD     		pop	{r3, pc}
 582              	.L38:
 583              		.align	2
 584              	.L37:
 585 02dc 0C000000 		.word	gmp1
 586              		.cfi_endproc
 587              	.LFE284:
 588              		.size	test_010_003_setup, .-test_010_003_setup
 589              		.align	2
 590              		.p2align 4,,15
 591              		.thumb
 592              		.thumb_func
 593              		.type	test_010_003_execute, %function
 594              	test_010_003_execute:
 595              	.LFB285:
 596              		.loc 1 261 0
 597              		.cfi_startproc
 598              		@ args = 0, pretend = 0, frame = 0
 599              		@ frame_needed = 0, uses_anonymous_args = 0
 600 02e0 08B5     		push	{r3, lr}
ARM GAS  /tmp/ccKxe0pN.s 			page 12


 601              		.cfi_def_cfa_offset 8
 602              		.cfi_offset 3, -8
 603              		.cfi_offset 14, -4
 604              		.loc 1 265 0
 605 02e2 0B4B     		ldr	r3, .L41
 606 02e4 0122     		movs	r2, #1
 607 02e6 1A60     		str	r2, [r3]
 608              		.loc 1 267 0
 609 02e8 0A48     		ldr	r0, .L41+4
 610 02ea 4FF47A71 		mov	r1, #1000
 611 02ee FFF7FEFF 		bl	chGuardedPoolAllocTimeout
 612 02f2 0346     		mov	r3, r0
 613 02f4 002B     		cmp	r3, #0
 614 02f6 0CBF     		ite	eq
 615 02f8 0123     		moveq	r3, #1
 616 02fa 0023     		movne	r3, #0
 617 02fc DBB2     		uxtb	r3, r3
 618 02fe 1846     		mov	r0, r3
 619 0300 0549     		ldr	r1, .L41+8
 620 0302 FFF7FEFF 		bl	_test_assert
 621 0306 0346     		mov	r3, r0
 622 0308 002B     		cmp	r3, #0
 623 030a 00D0     		beq	.L39
 624 030c 00BF     		nop
 625              	.L39:
 626              		.loc 1 269 0
 627 030e 08BD     		pop	{r3, pc}
 628              	.L42:
 629              		.align	2
 630              	.L41:
 631 0310 00000000 		.word	test_step
 632 0314 0C000000 		.word	gmp1
 633 0318 0C000000 		.word	.LC1
 634              		.cfi_endproc
 635              	.LFE285:
 636              		.size	test_010_003_execute, .-test_010_003_execute
 637              		.section	.rodata
 638              		.align	2
 639              	.LC5:
 640 00b8 47756172 		.ascii	"Guarded Memory Pools timeout\000"
 640      64656420 
 640      4D656D6F 
 640      72792050 
 640      6F6F6C73 
 641 00d5 000000   		.align	2
 642              		.type	test_010_003, %object
 643              		.size	test_010_003, 16
 644              	test_010_003:
 645 00d8 B8000000 		.word	.LC5
 646 00dc 00000000 		.word	test_010_003_setup
 647 00e0 00000000 		.word	0
 648 00e4 00000000 		.word	test_010_003_execute
 649              		.global	test_sequence_010
 650              		.align	2
 651              		.type	test_sequence_010, %object
 652              		.size	test_sequence_010, 16
 653              	test_sequence_010:
ARM GAS  /tmp/ccKxe0pN.s 			page 13


 654 00e8 5C000000 		.word	test_010_001
 655 00ec A8000000 		.word	test_010_002
 656 00f0 D8000000 		.word	test_010_003
 657 00f4 00000000 		.word	0
 658              		.text
 659              	.Letext0:
 660              		.file 2 "/usr/lib/gcc/arm-none-eabi/4.9.3/include/stddef.h"
 661              		.file 3 "/usr/include/newlib/machine/_default_types.h"
 662              		.file 4 "/usr/include/newlib/sys/_stdint.h"
 663              		.file 5 "../../../os/common/ports/ARMCMx/compilers/GCC/chtypes.h"
 664              		.file 6 "../../../os/rt/include/chsystypes.h"
 665              		.file 7 "../../../os/rt/include/chschd.h"
 666              		.file 8 "../../../os/common/ports/ARMCMx/chcore.h"
 667              		.file 9 "../../../os/common/ports/ARMCMx/chcore_v7m.h"
 668              		.file 10 "../../../os/rt/include/chtm.h"
 669              		.file 11 "../../../os/rt/include/chsem.h"
 670              		.file 12 "../../../os/rt/include/chmtx.h"
 671              		.file 13 "../../../os/common/oslib/include/chmemcore.h"
 672              		.file 14 "../../../os/common/oslib/include/chmempools.h"
 673              		.file 15 "../../../test/lib/ch_test.h"
 674              		.file 16 "../../../os/common/ext/CMSIS/include/core_cm4.h"