ARM GAS  /tmp/ccY6YWdL.s 			page 1


   1              		.syntax unified
   2              		.cpu cortex-m4
   3              		.fpu softvfp
   4              		.eabi_attribute 20, 1
   5              		.eabi_attribute 21, 1
   6              		.eabi_attribute 23, 3
   7              		.eabi_attribute 24, 1
   8              		.eabi_attribute 25, 1
   9              		.eabi_attribute 26, 1
  10              		.eabi_attribute 30, 6
  11              		.eabi_attribute 34, 1
  12              		.eabi_attribute 18, 4
  13              		.thumb
  14              		.file	"test_sequence_001.c"
  15              		.text
  16              	.Ltext0:
  17              		.cfi_sections	.debug_frame
  18              		.section	.rodata
  19              		.align	2
  20              	.LC0:
  21 0000 2D2D2D20 		.ascii	"--- Product:                   ChibiOS/RT\000"
  21      50726F64 
  21      7563743A 
  21      20202020 
  21      20202020 
  22 002a 0000     		.align	2
  23              	.LC1:
  24 002c 2D2D2D20 		.ascii	"--- Stable Flag:               \000"
  24      53746162 
  24      6C652046 
  24      6C61673A 
  24      20202020 
  25              		.align	2
  26              	.LC2:
  27 004c 00       		.ascii	"\000"
  28 004d 000000   		.align	2
  29              	.LC3:
  30 0050 2D2D2D20 		.ascii	"--- Version String:            \000"
  30      56657273 
  30      696F6E20 
  30      53747269 
  30      6E673A20 
  31              		.align	2
  32              	.LC4:
  33 0070 342E302E 		.ascii	"4.0.3\000"
  33      3300
  34 0076 0000     		.align	2
  35              	.LC5:
  36 0078 2D2D2D20 		.ascii	"--- Major Number:              \000"
  36      4D616A6F 
  36      72204E75 
  36      6D626572 
  36      3A202020 
  37              		.align	2
  38              	.LC6:
  39 0098 2D2D2D20 		.ascii	"--- Minor Number:              \000"
  39      4D696E6F 
ARM GAS  /tmp/ccY6YWdL.s 			page 2


  39      72204E75 
  39      6D626572 
  39      3A202020 
  40              		.align	2
  41              	.LC7:
  42 00b8 2D2D2D20 		.ascii	"--- Patch Number:              \000"
  42      50617463 
  42      68204E75 
  42      6D626572 
  42      3A202020 
  43              		.text
  44              		.align	2
  45              		.p2align 4,,15
  46              		.thumb
  47              		.thumb_func
  48              		.type	test_001_001_execute, %function
  49              	test_001_001_execute:
  50              	.LFB279:
  51              		.file 1 "../../../test/rt/source/test/test_sequence_001.c"
  52              		.loc 1 60 0
  53              		.cfi_startproc
  54              		@ args = 0, pretend = 0, frame = 0
  55              		@ frame_needed = 0, uses_anonymous_args = 0
  56 0000 08B5     		push	{r3, lr}
  57              		.cfi_def_cfa_offset 8
  58              		.cfi_offset 3, -8
  59              		.cfi_offset 14, -4
  60              		.loc 1 63 0
  61 0002 184B     		ldr	r3, .L2
  62 0004 0122     		movs	r2, #1
  63 0006 1A60     		str	r2, [r3]
  64              		.loc 1 65 0
  65 0008 1748     		ldr	r0, .L2+4
  66 000a FFF7FEFF 		bl	test_println
  67              		.loc 1 66 0
  68 000e 1748     		ldr	r0, .L2+8
  69 0010 FFF7FEFF 		bl	test_print
  70              		.loc 1 67 0
  71 0014 0120     		movs	r0, #1
  72 0016 FFF7FEFF 		bl	test_printn
  73              		.loc 1 68 0
  74 001a 1548     		ldr	r0, .L2+12
  75 001c FFF7FEFF 		bl	test_println
  76              		.loc 1 69 0
  77 0020 1448     		ldr	r0, .L2+16
  78 0022 FFF7FEFF 		bl	test_print
  79              		.loc 1 70 0
  80 0026 1448     		ldr	r0, .L2+20
  81 0028 FFF7FEFF 		bl	test_println
  82              		.loc 1 71 0
  83 002c 1348     		ldr	r0, .L2+24
  84 002e FFF7FEFF 		bl	test_print
  85              		.loc 1 72 0
  86 0032 0420     		movs	r0, #4
  87 0034 FFF7FEFF 		bl	test_printn
  88              		.loc 1 73 0
  89 0038 0D48     		ldr	r0, .L2+12
ARM GAS  /tmp/ccY6YWdL.s 			page 3


  90 003a FFF7FEFF 		bl	test_println
  91              		.loc 1 74 0
  92 003e 1048     		ldr	r0, .L2+28
  93 0040 FFF7FEFF 		bl	test_print
  94              		.loc 1 75 0
  95 0044 0020     		movs	r0, #0
  96 0046 FFF7FEFF 		bl	test_printn
  97              		.loc 1 76 0
  98 004a 0948     		ldr	r0, .L2+12
  99 004c FFF7FEFF 		bl	test_println
 100              		.loc 1 77 0
 101 0050 0C48     		ldr	r0, .L2+32
 102 0052 FFF7FEFF 		bl	test_print
 103              		.loc 1 78 0
 104 0056 0320     		movs	r0, #3
 105 0058 FFF7FEFF 		bl	test_printn
 106              		.loc 1 79 0
 107 005c 0448     		ldr	r0, .L2+12
 108 005e FFF7FEFF 		bl	test_println
 109              		.loc 1 81 0
 110 0062 08BD     		pop	{r3, pc}
 111              	.L3:
 112              		.align	2
 113              	.L2:
 114 0064 00000000 		.word	test_step
 115 0068 00000000 		.word	.LC0
 116 006c 2C000000 		.word	.LC1
 117 0070 4C000000 		.word	.LC2
 118 0074 50000000 		.word	.LC3
 119 0078 70000000 		.word	.LC4
 120 007c 78000000 		.word	.LC5
 121 0080 98000000 		.word	.LC6
 122 0084 B8000000 		.word	.LC7
 123              		.cfi_endproc
 124              	.LFE279:
 125              		.size	test_001_001_execute, .-test_001_001_execute
 126              		.section	.rodata
 127              		.align	2
 128              	.LC8:
 129 00d8 4B65726E 		.ascii	"Kernel Info\000"
 129      656C2049 
 129      6E666F00 
 130              		.align	2
 131              		.type	test_001_001, %object
 132              		.size	test_001_001, 16
 133              	test_001_001:
 134 00e4 D8000000 		.word	.LC8
 135 00e8 00000000 		.word	0
 136 00ec 00000000 		.word	0
 137 00f0 00000000 		.word	test_001_001_execute
 138              		.align	2
 139              	.LC9:
 140 00f4 2D2D2D20 		.ascii	"--- CH_CFG_ST_RESOLUTION:      \000"
 140      43485F43 
 140      46475F53 
 140      545F5245 
 140      534F4C55 
ARM GAS  /tmp/ccY6YWdL.s 			page 4


 141              		.align	2
 142              	.LC10:
 143 0114 2D2D2D20 		.ascii	"--- CH_CFG_ST_FREQUENCY:       \000"
 143      43485F43 
 143      46475F53 
 143      545F4652 
 143      45515545 
 144              		.align	2
 145              	.LC11:
 146 0134 2D2D2D20 		.ascii	"--- CH_CFG_ST_TIMEDELTA:       \000"
 146      43485F43 
 146      46475F53 
 146      545F5449 
 146      4D454445 
 147              		.align	2
 148              	.LC12:
 149 0154 2D2D2D20 		.ascii	"--- CH_CFG_TIME_QUANTUM:       \000"
 149      43485F43 
 149      46475F54 
 149      494D455F 
 149      5155414E 
 150              		.align	2
 151              	.LC13:
 152 0174 2D2D2D20 		.ascii	"--- CH_CFG_MEMCORE_SIZE:       \000"
 152      43485F43 
 152      46475F4D 
 152      454D434F 
 152      52455F53 
 153              		.align	2
 154              	.LC14:
 155 0194 2D2D2D20 		.ascii	"--- CH_CFG_NO_IDLE_THREAD:     \000"
 155      43485F43 
 155      46475F4E 
 155      4F5F4944 
 155      4C455F54 
 156              		.align	2
 157              	.LC15:
 158 01b4 2D2D2D20 		.ascii	"--- CH_CFG_OPTIMIZE_SPEED:     \000"
 158      43485F43 
 158      46475F4F 
 158      5054494D 
 158      495A455F 
 159              		.align	2
 160              	.LC16:
 161 01d4 2D2D2D20 		.ascii	"--- CH_CFG_USE_TM:             \000"
 161      43485F43 
 161      46475F55 
 161      53455F54 
 161      4D3A2020 
 162              		.align	2
 163              	.LC17:
 164 01f4 2D2D2D20 		.ascii	"--- CH_CFG_USE_REGISTRY:       \000"
 164      43485F43 
 164      46475F55 
 164      53455F52 
 164      45474953 
 165              		.align	2
ARM GAS  /tmp/ccY6YWdL.s 			page 5


 166              	.LC18:
 167 0214 2D2D2D20 		.ascii	"--- CH_CFG_USE_WAITEXIT:       \000"
 167      43485F43 
 167      46475F55 
 167      53455F57 
 167      41495445 
 168              		.align	2
 169              	.LC19:
 170 0234 2D2D2D20 		.ascii	"--- CH_CFG_USE_SEMAPHORES:     \000"
 170      43485F43 
 170      46475F55 
 170      53455F53 
 170      454D4150 
 171              		.align	2
 172              	.LC20:
 173 0254 2D2D2D20 		.ascii	"--- CH_CFG_USE_SEMAPHORES_PRI: \000"
 173      43485F43 
 173      46475F55 
 173      53455F53 
 173      454D4150 
 174              		.align	2
 175              	.LC21:
 176 0274 2D2D2D20 		.ascii	"--- CH_CFG_USE_MUTEXES:        \000"
 176      43485F43 
 176      46475F55 
 176      53455F4D 
 176      55544558 
 177              		.align	2
 178              	.LC22:
 179 0294 2D2D2D20 		.ascii	"--- CH_CFG_USE_MUTEXES_RECURS: \000"
 179      43485F43 
 179      46475F55 
 179      53455F4D 
 179      55544558 
 180              		.align	2
 181              	.LC23:
 182 02b4 2D2D2D20 		.ascii	"--- CH_CFG_USE_CONDVARS:       \000"
 182      43485F43 
 182      46475F55 
 182      53455F43 
 182      4F4E4456 
 183              		.align	2
 184              	.LC24:
 185 02d4 2D2D2D20 		.ascii	"--- CH_CFG_USE_CONDVARS_TIMEO: \000"
 185      43485F43 
 185      46475F55 
 185      53455F43 
 185      4F4E4456 
 186              		.align	2
 187              	.LC25:
 188 02f4 2D2D2D20 		.ascii	"--- CH_CFG_USE_EVENTS:         \000"
 188      43485F43 
 188      46475F55 
 188      53455F45 
 188      56454E54 
 189              		.align	2
 190              	.LC26:
ARM GAS  /tmp/ccY6YWdL.s 			page 6


 191 0314 2D2D2D20 		.ascii	"--- CH_CFG_USE_EVENTS_TIMEOUT: \000"
 191      43485F43 
 191      46475F55 
 191      53455F45 
 191      56454E54 
 192              		.align	2
 193              	.LC27:
 194 0334 2D2D2D20 		.ascii	"--- CH_CFG_USE_MESSAGES:       \000"
 194      43485F43 
 194      46475F55 
 194      53455F4D 
 194      45535341 
 195              		.align	2
 196              	.LC28:
 197 0354 2D2D2D20 		.ascii	"--- CH_CFG_USE_MESSAGES_PRI:   \000"
 197      43485F43 
 197      46475F55 
 197      53455F4D 
 197      45535341 
 198              		.align	2
 199              	.LC29:
 200 0374 2D2D2D20 		.ascii	"--- CH_CFG_USE_MAILBOXES:      \000"
 200      43485F43 
 200      46475F55 
 200      53455F4D 
 200      41494C42 
 201              		.align	2
 202              	.LC30:
 203 0394 2D2D2D20 		.ascii	"--- CH_CFG_USE_MEMCORE:        \000"
 203      43485F43 
 203      46475F55 
 203      53455F4D 
 203      454D434F 
 204              		.align	2
 205              	.LC31:
 206 03b4 2D2D2D20 		.ascii	"--- CH_CFG_USE_HEAP:           \000"
 206      43485F43 
 206      46475F55 
 206      53455F48 
 206      4541503A 
 207              		.align	2
 208              	.LC32:
 209 03d4 2D2D2D20 		.ascii	"--- CH_CFG_USE_MEMPOOLS:       \000"
 209      43485F43 
 209      46475F55 
 209      53455F4D 
 209      454D504F 
 210              		.align	2
 211              	.LC33:
 212 03f4 2D2D2D20 		.ascii	"--- CH_CFG_USE_DYNAMIC:        \000"
 212      43485F43 
 212      46475F55 
 212      53455F44 
 212      594E414D 
 213              		.align	2
 214              	.LC34:
 215 0414 2D2D2D20 		.ascii	"--- CH_DBG_STATISTICS:         \000"
ARM GAS  /tmp/ccY6YWdL.s 			page 7


 215      43485F44 
 215      42475F53 
 215      54415449 
 215      53544943 
 216              		.align	2
 217              	.LC35:
 218 0434 2D2D2D20 		.ascii	"--- CH_DBG_SYSTEM_STATE_CHECK: \000"
 218      43485F44 
 218      42475F53 
 218      59535445 
 218      4D5F5354 
 219              		.align	2
 220              	.LC36:
 221 0454 2D2D2D20 		.ascii	"--- CH_DBG_ENABLE_CHECKS:      \000"
 221      43485F44 
 221      42475F45 
 221      4E41424C 
 221      455F4348 
 222              		.align	2
 223              	.LC37:
 224 0474 2D2D2D20 		.ascii	"--- CH_DBG_ENABLE_ASSERTS:     \000"
 224      43485F44 
 224      42475F45 
 224      4E41424C 
 224      455F4153 
 225              		.align	2
 226              	.LC38:
 227 0494 2D2D2D20 		.ascii	"--- CH_DBG_TRACE_MASK:         \000"
 227      43485F44 
 227      42475F54 
 227      52414345 
 227      5F4D4153 
 228              		.align	2
 229              	.LC39:
 230 04b4 2D2D2D20 		.ascii	"--- CH_DBG_TRACE_BUFFER_SIZE:  \000"
 230      43485F44 
 230      42475F54 
 230      52414345 
 230      5F425546 
 231              		.align	2
 232              	.LC40:
 233 04d4 2D2D2D20 		.ascii	"--- CH_DBG_ENABLE_STACK_CHECK: \000"
 233      43485F44 
 233      42475F45 
 233      4E41424C 
 233      455F5354 
 234              		.align	2
 235              	.LC41:
 236 04f4 2D2D2D20 		.ascii	"--- CH_DBG_FILL_THREADS:       \000"
 236      43485F44 
 236      42475F46 
 236      494C4C5F 
 236      54485245 
 237              		.align	2
 238              	.LC42:
 239 0514 2D2D2D20 		.ascii	"--- CH_DBG_THREADS_PROFILING:  \000"
 239      43485F44 
ARM GAS  /tmp/ccY6YWdL.s 			page 8


 239      42475F54 
 239      48524541 
 239      44535F50 
 240              		.text
 241              		.align	2
 242 0088 AFF30080 		.p2align 4,,15
 242      AFF30080 
 243              		.thumb
 244              		.thumb_func
 245              		.type	test_001_002_execute, %function
 246              	test_001_002_execute:
 247              	.LFB280:
 248              		.loc 1 101 0
 249              		.cfi_startproc
 250              		@ args = 0, pretend = 0, frame = 0
 251              		@ frame_needed = 0, uses_anonymous_args = 0
 252 0090 08B5     		push	{r3, lr}
 253              		.cfi_def_cfa_offset 8
 254              		.cfi_offset 3, -8
 255              		.cfi_offset 14, -4
 256              		.loc 1 104 0
 257 0092 9B4B     		ldr	r3, .L5
 258 0094 0122     		movs	r2, #1
 259 0096 1A60     		str	r2, [r3]
 260              		.loc 1 106 0
 261 0098 9A48     		ldr	r0, .L5+4
 262 009a FFF7FEFF 		bl	test_print
 263              		.loc 1 107 0
 264 009e 2020     		movs	r0, #32
 265 00a0 FFF7FEFF 		bl	test_printn
 266              		.loc 1 108 0
 267 00a4 9848     		ldr	r0, .L5+8
 268 00a6 FFF7FEFF 		bl	test_println
 269              		.loc 1 109 0
 270 00aa 9848     		ldr	r0, .L5+12
 271 00ac FFF7FEFF 		bl	test_print
 272              		.loc 1 110 0
 273 00b0 42F21070 		movw	r0, #10000
 274 00b4 FFF7FEFF 		bl	test_printn
 275              		.loc 1 111 0
 276 00b8 9348     		ldr	r0, .L5+8
 277 00ba FFF7FEFF 		bl	test_println
 278              		.loc 1 112 0
 279 00be 9448     		ldr	r0, .L5+16
 280 00c0 FFF7FEFF 		bl	test_print
 281              		.loc 1 113 0
 282 00c4 0220     		movs	r0, #2
 283 00c6 FFF7FEFF 		bl	test_printn
 284              		.loc 1 114 0
 285 00ca 8F48     		ldr	r0, .L5+8
 286 00cc FFF7FEFF 		bl	test_println
 287              		.loc 1 115 0
 288 00d0 9048     		ldr	r0, .L5+20
 289 00d2 FFF7FEFF 		bl	test_print
 290              		.loc 1 116 0
 291 00d6 0020     		movs	r0, #0
 292 00d8 FFF7FEFF 		bl	test_printn
ARM GAS  /tmp/ccY6YWdL.s 			page 9


 293              		.loc 1 117 0
 294 00dc 8A48     		ldr	r0, .L5+8
 295 00de FFF7FEFF 		bl	test_println
 296              		.loc 1 118 0
 297 00e2 8D48     		ldr	r0, .L5+24
 298 00e4 FFF7FEFF 		bl	test_print
 299              		.loc 1 119 0
 300 00e8 0020     		movs	r0, #0
 301 00ea FFF7FEFF 		bl	test_printn
 302              		.loc 1 120 0
 303 00ee 8648     		ldr	r0, .L5+8
 304 00f0 FFF7FEFF 		bl	test_println
 305              		.loc 1 121 0
 306 00f4 8948     		ldr	r0, .L5+28
 307 00f6 FFF7FEFF 		bl	test_print
 308              		.loc 1 122 0
 309 00fa 0020     		movs	r0, #0
 310 00fc FFF7FEFF 		bl	test_printn
 311              		.loc 1 123 0
 312 0100 8148     		ldr	r0, .L5+8
 313 0102 FFF7FEFF 		bl	test_println
 314              		.loc 1 124 0
 315 0106 8648     		ldr	r0, .L5+32
 316 0108 FFF7FEFF 		bl	test_print
 317              		.loc 1 125 0
 318 010c 0120     		movs	r0, #1
 319 010e FFF7FEFF 		bl	test_printn
 320              		.loc 1 126 0
 321 0112 7D48     		ldr	r0, .L5+8
 322 0114 FFF7FEFF 		bl	test_println
 323              		.loc 1 127 0
 324 0118 8248     		ldr	r0, .L5+36
 325 011a FFF7FEFF 		bl	test_print
 326              		.loc 1 128 0
 327 011e 0120     		movs	r0, #1
 328 0120 FFF7FEFF 		bl	test_printn
 329              		.loc 1 129 0
 330 0124 7848     		ldr	r0, .L5+8
 331 0126 FFF7FEFF 		bl	test_println
 332              		.loc 1 130 0
 333 012a 7F48     		ldr	r0, .L5+40
 334 012c FFF7FEFF 		bl	test_print
 335              		.loc 1 131 0
 336 0130 0120     		movs	r0, #1
 337 0132 FFF7FEFF 		bl	test_printn
 338              		.loc 1 132 0
 339 0136 7448     		ldr	r0, .L5+8
 340 0138 FFF7FEFF 		bl	test_println
 341              		.loc 1 133 0
 342 013c 7B48     		ldr	r0, .L5+44
 343 013e FFF7FEFF 		bl	test_print
 344              		.loc 1 134 0
 345 0142 0120     		movs	r0, #1
 346 0144 FFF7FEFF 		bl	test_printn
 347              		.loc 1 135 0
 348 0148 6F48     		ldr	r0, .L5+8
 349 014a FFF7FEFF 		bl	test_println
ARM GAS  /tmp/ccY6YWdL.s 			page 10


 350              		.loc 1 136 0
 351 014e 7848     		ldr	r0, .L5+48
 352 0150 FFF7FEFF 		bl	test_print
 353              		.loc 1 137 0
 354 0154 0120     		movs	r0, #1
 355 0156 FFF7FEFF 		bl	test_printn
 356              		.loc 1 138 0
 357 015a 6B48     		ldr	r0, .L5+8
 358 015c FFF7FEFF 		bl	test_println
 359              		.loc 1 139 0
 360 0160 7448     		ldr	r0, .L5+52
 361 0162 FFF7FEFF 		bl	test_print
 362              		.loc 1 140 0
 363 0166 0020     		movs	r0, #0
 364 0168 FFF7FEFF 		bl	test_printn
 365              		.loc 1 141 0
 366 016c 6648     		ldr	r0, .L5+8
 367 016e FFF7FEFF 		bl	test_println
 368              		.loc 1 142 0
 369 0172 7148     		ldr	r0, .L5+56
 370 0174 FFF7FEFF 		bl	test_print
 371              		.loc 1 143 0
 372 0178 0120     		movs	r0, #1
 373 017a FFF7FEFF 		bl	test_printn
 374              		.loc 1 144 0
 375 017e 6248     		ldr	r0, .L5+8
 376 0180 FFF7FEFF 		bl	test_println
 377              		.loc 1 145 0
 378 0184 6D48     		ldr	r0, .L5+60
 379 0186 FFF7FEFF 		bl	test_print
 380              		.loc 1 146 0
 381 018a 0020     		movs	r0, #0
 382 018c FFF7FEFF 		bl	test_printn
 383              		.loc 1 147 0
 384 0190 5D48     		ldr	r0, .L5+8
 385 0192 FFF7FEFF 		bl	test_println
 386              		.loc 1 148 0
 387 0196 6A48     		ldr	r0, .L5+64
 388 0198 FFF7FEFF 		bl	test_print
 389              		.loc 1 149 0
 390 019c 0120     		movs	r0, #1
 391 019e FFF7FEFF 		bl	test_printn
 392              		.loc 1 150 0
 393 01a2 5948     		ldr	r0, .L5+8
 394 01a4 FFF7FEFF 		bl	test_println
 395              		.loc 1 151 0
 396 01a8 6648     		ldr	r0, .L5+68
 397 01aa FFF7FEFF 		bl	test_print
 398              		.loc 1 152 0
 399 01ae 0120     		movs	r0, #1
 400 01b0 FFF7FEFF 		bl	test_printn
 401              		.loc 1 153 0
 402 01b4 5448     		ldr	r0, .L5+8
 403 01b6 FFF7FEFF 		bl	test_println
 404              		.loc 1 154 0
 405 01ba 6348     		ldr	r0, .L5+72
 406 01bc FFF7FEFF 		bl	test_print
ARM GAS  /tmp/ccY6YWdL.s 			page 11


 407              		.loc 1 155 0
 408 01c0 0120     		movs	r0, #1
 409 01c2 FFF7FEFF 		bl	test_printn
 410              		.loc 1 156 0
 411 01c6 5048     		ldr	r0, .L5+8
 412 01c8 FFF7FEFF 		bl	test_println
 413              		.loc 1 157 0
 414 01cc 5F48     		ldr	r0, .L5+76
 415 01ce FFF7FEFF 		bl	test_print
 416              		.loc 1 158 0
 417 01d2 0120     		movs	r0, #1
 418 01d4 FFF7FEFF 		bl	test_printn
 419              		.loc 1 159 0
 420 01d8 4B48     		ldr	r0, .L5+8
 421 01da FFF7FEFF 		bl	test_println
 422              		.loc 1 160 0
 423 01de 5C48     		ldr	r0, .L5+80
 424 01e0 FFF7FEFF 		bl	test_print
 425              		.loc 1 161 0
 426 01e4 0120     		movs	r0, #1
 427 01e6 FFF7FEFF 		bl	test_printn
 428              		.loc 1 162 0
 429 01ea 4748     		ldr	r0, .L5+8
 430 01ec FFF7FEFF 		bl	test_println
 431              		.loc 1 163 0
 432 01f0 5848     		ldr	r0, .L5+84
 433 01f2 FFF7FEFF 		bl	test_print
 434              		.loc 1 164 0
 435 01f6 0020     		movs	r0, #0
 436 01f8 FFF7FEFF 		bl	test_printn
 437              		.loc 1 165 0
 438 01fc 4248     		ldr	r0, .L5+8
 439 01fe FFF7FEFF 		bl	test_println
 440              		.loc 1 166 0
 441 0202 5548     		ldr	r0, .L5+88
 442 0204 FFF7FEFF 		bl	test_print
 443              		.loc 1 167 0
 444 0208 0120     		movs	r0, #1
 445 020a FFF7FEFF 		bl	test_printn
 446              		.loc 1 168 0
 447 020e 3E48     		ldr	r0, .L5+8
 448 0210 FFF7FEFF 		bl	test_println
 449              		.loc 1 169 0
 450 0214 5148     		ldr	r0, .L5+92
 451 0216 FFF7FEFF 		bl	test_print
 452              		.loc 1 170 0
 453 021a 0120     		movs	r0, #1
 454 021c FFF7FEFF 		bl	test_printn
 455              		.loc 1 171 0
 456 0220 3948     		ldr	r0, .L5+8
 457 0222 FFF7FEFF 		bl	test_println
 458              		.loc 1 172 0
 459 0226 4E48     		ldr	r0, .L5+96
 460 0228 FFF7FEFF 		bl	test_print
 461              		.loc 1 173 0
 462 022c 0120     		movs	r0, #1
 463 022e FFF7FEFF 		bl	test_printn
ARM GAS  /tmp/ccY6YWdL.s 			page 12


 464              		.loc 1 174 0
 465 0232 3548     		ldr	r0, .L5+8
 466 0234 FFF7FEFF 		bl	test_println
 467              		.loc 1 175 0
 468 0238 4A48     		ldr	r0, .L5+100
 469 023a FFF7FEFF 		bl	test_print
 470              		.loc 1 176 0
 471 023e 0120     		movs	r0, #1
 472 0240 FFF7FEFF 		bl	test_printn
 473              		.loc 1 177 0
 474 0244 3048     		ldr	r0, .L5+8
 475 0246 FFF7FEFF 		bl	test_println
 476              		.loc 1 178 0
 477 024a 4748     		ldr	r0, .L5+104
 478 024c FFF7FEFF 		bl	test_print
 479              		.loc 1 179 0
 480 0250 0120     		movs	r0, #1
 481 0252 FFF7FEFF 		bl	test_printn
 482              		.loc 1 180 0
 483 0256 2C48     		ldr	r0, .L5+8
 484 0258 FFF7FEFF 		bl	test_println
 485              		.loc 1 181 0
 486 025c 4348     		ldr	r0, .L5+108
 487 025e FFF7FEFF 		bl	test_print
 488              		.loc 1 182 0
 489 0262 0020     		movs	r0, #0
 490 0264 FFF7FEFF 		bl	test_printn
 491              		.loc 1 183 0
 492 0268 2748     		ldr	r0, .L5+8
 493 026a FFF7FEFF 		bl	test_println
 494              		.loc 1 184 0
 495 026e 4048     		ldr	r0, .L5+112
 496 0270 FFF7FEFF 		bl	test_print
 497              		.loc 1 185 0
 498 0274 0020     		movs	r0, #0
 499 0276 FFF7FEFF 		bl	test_printn
 500              		.loc 1 186 0
 501 027a 2348     		ldr	r0, .L5+8
 502 027c FFF7FEFF 		bl	test_println
 503              		.loc 1 187 0
 504 0280 3C48     		ldr	r0, .L5+116
 505 0282 FFF7FEFF 		bl	test_print
 506              		.loc 1 188 0
 507 0286 0020     		movs	r0, #0
 508 0288 FFF7FEFF 		bl	test_printn
 509              		.loc 1 189 0
 510 028c 1E48     		ldr	r0, .L5+8
 511 028e FFF7FEFF 		bl	test_println
 512              		.loc 1 190 0
 513 0292 3948     		ldr	r0, .L5+120
 514 0294 FFF7FEFF 		bl	test_print
 515              		.loc 1 191 0
 516 0298 0020     		movs	r0, #0
 517 029a FFF7FEFF 		bl	test_printn
 518              		.loc 1 192 0
 519 029e 1A48     		ldr	r0, .L5+8
 520 02a0 FFF7FEFF 		bl	test_println
ARM GAS  /tmp/ccY6YWdL.s 			page 13


 521              		.loc 1 193 0
 522 02a4 3548     		ldr	r0, .L5+124
 523 02a6 FFF7FEFF 		bl	test_print
 524              		.loc 1 194 0
 525 02aa FF20     		movs	r0, #255
 526 02ac FFF7FEFF 		bl	test_printn
 527              		.loc 1 195 0
 528 02b0 1548     		ldr	r0, .L5+8
 529 02b2 FFF7FEFF 		bl	test_println
 530              		.loc 1 196 0
 531 02b6 3248     		ldr	r0, .L5+128
 532 02b8 FFF7FEFF 		bl	test_print
 533              		.loc 1 197 0
 534 02bc 8020     		movs	r0, #128
 535 02be FFF7FEFF 		bl	test_printn
 536              		.loc 1 198 0
 537 02c2 1148     		ldr	r0, .L5+8
 538 02c4 FFF7FEFF 		bl	test_println
 539              		.loc 1 199 0
 540 02c8 2E48     		ldr	r0, .L5+132
 541 02ca FFF7FEFF 		bl	test_print
 542              		.loc 1 200 0
 543 02ce 0020     		movs	r0, #0
 544 02d0 FFF7FEFF 		bl	test_printn
 545              		.loc 1 201 0
 546 02d4 0C48     		ldr	r0, .L5+8
 547 02d6 FFF7FEFF 		bl	test_println
 548              		.loc 1 202 0
 549 02da 2B48     		ldr	r0, .L5+136
 550 02dc FFF7FEFF 		bl	test_print
 551              		.loc 1 203 0
 552 02e0 0020     		movs	r0, #0
 553 02e2 FFF7FEFF 		bl	test_printn
 554              		.loc 1 204 0
 555 02e6 0848     		ldr	r0, .L5+8
 556 02e8 FFF7FEFF 		bl	test_println
 557              		.loc 1 205 0
 558 02ec 2748     		ldr	r0, .L5+140
 559 02ee FFF7FEFF 		bl	test_print
 560              		.loc 1 206 0
 561 02f2 0020     		movs	r0, #0
 562 02f4 FFF7FEFF 		bl	test_printn
 563              		.loc 1 207 0
 564 02f8 0348     		ldr	r0, .L5+8
 565 02fa FFF7FEFF 		bl	test_println
 566              		.loc 1 209 0
 567 02fe 08BD     		pop	{r3, pc}
 568              	.L6:
 569              		.align	2
 570              	.L5:
 571 0300 00000000 		.word	test_step
 572 0304 F4000000 		.word	.LC9
 573 0308 4C000000 		.word	.LC2
 574 030c 14010000 		.word	.LC10
 575 0310 34010000 		.word	.LC11
 576 0314 54010000 		.word	.LC12
 577 0318 74010000 		.word	.LC13
ARM GAS  /tmp/ccY6YWdL.s 			page 14


 578 031c 94010000 		.word	.LC14
 579 0320 B4010000 		.word	.LC15
 580 0324 D4010000 		.word	.LC16
 581 0328 F4010000 		.word	.LC17
 582 032c 14020000 		.word	.LC18
 583 0330 34020000 		.word	.LC19
 584 0334 54020000 		.word	.LC20
 585 0338 74020000 		.word	.LC21
 586 033c 94020000 		.word	.LC22
 587 0340 B4020000 		.word	.LC23
 588 0344 D4020000 		.word	.LC24
 589 0348 F4020000 		.word	.LC25
 590 034c 14030000 		.word	.LC26
 591 0350 34030000 		.word	.LC27
 592 0354 54030000 		.word	.LC28
 593 0358 74030000 		.word	.LC29
 594 035c 94030000 		.word	.LC30
 595 0360 B4030000 		.word	.LC31
 596 0364 D4030000 		.word	.LC32
 597 0368 F4030000 		.word	.LC33
 598 036c 14040000 		.word	.LC34
 599 0370 34040000 		.word	.LC35
 600 0374 54040000 		.word	.LC36
 601 0378 74040000 		.word	.LC37
 602 037c 94040000 		.word	.LC38
 603 0380 B4040000 		.word	.LC39
 604 0384 D4040000 		.word	.LC40
 605 0388 F4040000 		.word	.LC41
 606 038c 14050000 		.word	.LC42
 607              		.cfi_endproc
 608              	.LFE280:
 609              		.size	test_001_002_execute, .-test_001_002_execute
 610              		.section	.rodata
 611              		.align	2
 612              	.LC43:
 613 0534 4B65726E 		.ascii	"Kernel Settings\000"
 613      656C2053 
 613      65747469 
 613      6E677300 
 614              		.align	2
 615              		.type	test_001_002, %object
 616              		.size	test_001_002, 16
 617              	test_001_002:
 618 0544 34050000 		.word	.LC43
 619 0548 00000000 		.word	0
 620 054c 00000000 		.word	0
 621 0550 00000000 		.word	test_001_002_execute
 622              		.global	test_sequence_001
 623              		.align	2
 624              		.type	test_sequence_001, %object
 625              		.size	test_sequence_001, 12
 626              	test_sequence_001:
 627 0554 E4000000 		.word	test_001_001
 628 0558 44050000 		.word	test_001_002
 629 055c 00000000 		.word	0
 630              		.text
 631              	.Letext0:
ARM GAS  /tmp/ccY6YWdL.s 			page 15


 632              		.file 2 "/usr/lib/gcc/arm-none-eabi/4.9.3/include/stddef.h"
 633              		.file 3 "/usr/include/newlib/machine/_default_types.h"
 634              		.file 4 "/usr/include/newlib/sys/_stdint.h"
 635              		.file 5 "../../../os/common/ports/ARMCMx/compilers/GCC/chtypes.h"
 636              		.file 6 "../../../os/rt/include/chsystypes.h"
 637              		.file 7 "../../../os/rt/include/chschd.h"
 638              		.file 8 "../../../os/common/ports/ARMCMx/chcore.h"
 639              		.file 9 "../../../os/common/ports/ARMCMx/chcore_v7m.h"
 640              		.file 10 "../../../os/rt/include/chtm.h"
 641              		.file 11 "../../../os/rt/include/chsem.h"
 642              		.file 12 "../../../os/rt/include/chmtx.h"
 643              		.file 13 "../../../test/lib/ch_test.h"
 644              		.file 14 "../../../os/common/ext/CMSIS/include/core_cm4.h"