ARM GAS  /tmp/ccoREzjN.s 			page 1


   1              		.syntax unified
   2              		.cpu cortex-m4
   3              		.fpu softvfp
   4              		.eabi_attribute 20, 1
   5              		.eabi_attribute 21, 1
   6              		.eabi_attribute 23, 3
   7              		.eabi_attribute 24, 1
   8              		.eabi_attribute 25, 1
   9              		.eabi_attribute 26, 1
  10              		.eabi_attribute 30, 6
  11              		.eabi_attribute 34, 1
  12              		.eabi_attribute 18, 4
  13              		.thumb
  14              		.file	"test_sequence_008.c"
  15              		.text
  16              	.Ltext0:
  17              		.cfi_sections	.debug_frame
  18              		.align	2
  19              		.p2align 4,,15
  20              		.thumb
  21              		.thumb_func
  22              		.type	port_lock, %function
  23              	port_lock:
  24              	.LFB127:
  25              		.file 1 "../../../os/common/ports/ARMCMx/chcore_v7m.h"
  26              		.loc 1 594 0
  27              		.cfi_startproc
  28              		@ args = 0, pretend = 0, frame = 8
  29              		@ frame_needed = 0, uses_anonymous_args = 0
  30              		@ link register save eliminated.
  31 0000 82B0     		sub	sp, sp, #8
  32              		.cfi_def_cfa_offset 8
  33 0002 2023     		movs	r3, #32
  34 0004 0193     		str	r3, [sp, #4]
  35              	.LBB6:
  36              	.LBB7:
  37              		.file 2 "../../../os/common/ext/CMSIS/include/cmsis_gcc.h"
  38              		.loc 2 264 0
  39 0006 019B     		ldr	r3, [sp, #4]
  40              	@ 264 "../../../os/common/ext/CMSIS/include/cmsis_gcc.h" 1
  41 0008 83F31188 		MSR basepri, r3
  42              	@ 0 "" 2
  43              		.thumb
  44              	.LBE7:
  45              	.LBE6:
  46              		.loc 1 611 0
  47 000c 02B0     		add	sp, sp, #8
  48              		.cfi_def_cfa_offset 0
  49              		@ sp needed
  50 000e 7047     		bx	lr
  51              		.cfi_endproc
  52              	.LFE127:
  53              		.size	port_lock, .-port_lock
  54              		.align	2
  55              		.p2align 4,,15
  56              		.thumb
  57              		.thumb_func
ARM GAS  /tmp/ccoREzjN.s 			page 2


  58              		.type	port_unlock, %function
  59              	port_unlock:
  60              	.LFB128:
  61              		.loc 1 618 0
  62              		.cfi_startproc
  63              		@ args = 0, pretend = 0, frame = 8
  64              		@ frame_needed = 0, uses_anonymous_args = 0
  65              		@ link register save eliminated.
  66 0010 82B0     		sub	sp, sp, #8
  67              		.cfi_def_cfa_offset 8
  68 0012 0023     		movs	r3, #0
  69 0014 0193     		str	r3, [sp, #4]
  70              	.LBB8:
  71              	.LBB9:
  72              		.loc 2 264 0
  73 0016 019B     		ldr	r3, [sp, #4]
  74              	@ 264 "../../../os/common/ext/CMSIS/include/cmsis_gcc.h" 1
  75 0018 83F31188 		MSR basepri, r3
  76              	@ 0 "" 2
  77              		.thumb
  78              	.LBE9:
  79              	.LBE8:
  80              		.loc 1 625 0
  81 001c 02B0     		add	sp, sp, #8
  82              		.cfi_def_cfa_offset 0
  83              		@ sp needed
  84 001e 7047     		bx	lr
  85              		.cfi_endproc
  86              	.LFE128:
  87              		.size	port_unlock, .-port_unlock
  88              		.align	2
  89              		.p2align 4,,15
  90              		.thumb
  91              		.thumb_func
  92              		.type	chSysLock, %function
  93              	chSysLock:
  94              	.LFB167:
  95              		.file 3 "../../../os/rt/include/chsys.h"
  96              		.loc 3 374 0
  97              		.cfi_startproc
  98              		@ args = 0, pretend = 0, frame = 0
  99              		@ frame_needed = 0, uses_anonymous_args = 0
 100 0020 08B5     		push	{r3, lr}
 101              		.cfi_def_cfa_offset 8
 102              		.cfi_offset 3, -8
 103              		.cfi_offset 14, -4
 104              		.loc 3 376 0
 105 0022 FFF7EDFF 		bl	port_lock
 106              		.loc 3 379 0
 107 0026 08BD     		pop	{r3, pc}
 108              		.cfi_endproc
 109              	.LFE167:
 110              		.size	chSysLock, .-chSysLock
 111              		.align	2
 112 0028 AFF30080 		.p2align 4,,15
 112      AFF30080 
 113              		.thumb
ARM GAS  /tmp/ccoREzjN.s 			page 3


 114              		.thumb_func
 115              		.type	chSysUnlock, %function
 116              	chSysUnlock:
 117              	.LFB168:
 118              		.loc 3 386 0
 119              		.cfi_startproc
 120              		@ args = 0, pretend = 0, frame = 0
 121              		@ frame_needed = 0, uses_anonymous_args = 0
 122 0030 08B5     		push	{r3, lr}
 123              		.cfi_def_cfa_offset 8
 124              		.cfi_offset 3, -8
 125              		.cfi_offset 14, -4
 126              		.loc 3 399 0
 127 0032 FFF7EDFF 		bl	port_unlock
 128              		.loc 3 400 0
 129 0036 08BD     		pop	{r3, pc}
 130              		.cfi_endproc
 131              	.LFE168:
 132              		.size	chSysUnlock, .-chSysUnlock
 133              		.align	2
 134 0038 AFF30080 		.p2align 4,,15
 134      AFF30080 
 135              		.thumb
 136              		.thumb_func
 137              		.type	chThdGetSelfX, %function
 138              	chThdGetSelfX:
 139              	.LFB195:
 140              		.file 4 "../../../os/rt/include/chthreads.h"
 141              		.loc 4 284 0
 142              		.cfi_startproc
 143              		@ args = 0, pretend = 0, frame = 0
 144              		@ frame_needed = 0, uses_anonymous_args = 0
 145              		@ link register save eliminated.
 146              		.loc 4 286 0
 147 0040 014B     		ldr	r3, .L7
 148 0042 9B69     		ldr	r3, [r3, #24]
 149              		.loc 4 287 0
 150 0044 1846     		mov	r0, r3
 151 0046 7047     		bx	lr
 152              	.L8:
 153              		.align	2
 154              	.L7:
 155 0048 00000000 		.word	ch
 156              		.cfi_endproc
 157              	.LFE195:
 158              		.size	chThdGetSelfX, .-chThdGetSelfX
 159              		.align	2
 160 004c AFF30080 		.p2align 4,,15
 161              		.thumb
 162              		.thumb_func
 163              		.type	chThdGetPriorityX, %function
 164              	chThdGetPriorityX:
 165              	.LFB196:
 166              		.loc 4 297 0
 167              		.cfi_startproc
 168              		@ args = 0, pretend = 0, frame = 0
 169              		@ frame_needed = 0, uses_anonymous_args = 0
ARM GAS  /tmp/ccoREzjN.s 			page 4


 170 0050 08B5     		push	{r3, lr}
 171              		.cfi_def_cfa_offset 8
 172              		.cfi_offset 3, -8
 173              		.cfi_offset 14, -4
 174              		.loc 4 299 0
 175 0052 FFF7F5FF 		bl	chThdGetSelfX
 176 0056 0346     		mov	r3, r0
 177 0058 9B68     		ldr	r3, [r3, #8]
 178              		.loc 4 300 0
 179 005a 1846     		mov	r0, r3
 180 005c 08BD     		pop	{r3, pc}
 181              		.cfi_endproc
 182              	.LFE196:
 183              		.size	chThdGetPriorityX, .-chThdGetPriorityX
 184 005e 00BF     		.align	2
 185              		.p2align 4,,15
 186              		.thumb
 187              		.thumb_func
 188              		.type	chEvtObjectInit, %function
 189              	chEvtObjectInit:
 190              	.LFB223:
 191              		.file 5 "../../../os/rt/include/chevents.h"
 192              		.loc 5 170 0
 193              		.cfi_startproc
 194              		@ args = 0, pretend = 0, frame = 8
 195              		@ frame_needed = 0, uses_anonymous_args = 0
 196              		@ link register save eliminated.
 197 0060 82B0     		sub	sp, sp, #8
 198              		.cfi_def_cfa_offset 8
 199 0062 0190     		str	r0, [sp, #4]
 200              		.loc 5 172 0
 201 0064 019B     		ldr	r3, [sp, #4]
 202 0066 019A     		ldr	r2, [sp, #4]
 203 0068 1A60     		str	r2, [r3]
 204              		.loc 5 173 0
 205 006a 02B0     		add	sp, sp, #8
 206              		.cfi_def_cfa_offset 0
 207              		@ sp needed
 208 006c 7047     		bx	lr
 209              		.cfi_endproc
 210              	.LFE223:
 211              		.size	chEvtObjectInit, .-chEvtObjectInit
 212 006e 00BF     		.align	2
 213              		.p2align 4,,15
 214              		.thumb
 215              		.thumb_func
 216              		.type	chEvtRegisterMask, %function
 217              	chEvtRegisterMask:
 218              	.LFB224:
 219              		.loc 5 191 0
 220              		.cfi_startproc
 221              		@ args = 0, pretend = 0, frame = 16
 222              		@ frame_needed = 0, uses_anonymous_args = 0
 223 0070 00B5     		push	{lr}
 224              		.cfi_def_cfa_offset 4
 225              		.cfi_offset 14, -4
 226 0072 85B0     		sub	sp, sp, #20
ARM GAS  /tmp/ccoREzjN.s 			page 5


 227              		.cfi_def_cfa_offset 24
 228 0074 0390     		str	r0, [sp, #12]
 229 0076 0291     		str	r1, [sp, #8]
 230 0078 0192     		str	r2, [sp, #4]
 231              		.loc 5 193 0
 232 007a 0398     		ldr	r0, [sp, #12]
 233 007c 0299     		ldr	r1, [sp, #8]
 234 007e 019A     		ldr	r2, [sp, #4]
 235 0080 4FF0FF33 		mov	r3, #-1
 236 0084 FFF7FEFF 		bl	chEvtRegisterMaskWithFlags
 237              		.loc 5 194 0
 238 0088 05B0     		add	sp, sp, #20
 239              		.cfi_def_cfa_offset 4
 240              		@ sp needed
 241 008a 5DF804FB 		ldr	pc, [sp], #4
 242              		.cfi_endproc
 243              	.LFE224:
 244              		.size	chEvtRegisterMask, .-chEvtRegisterMask
 245 008e 00BF     		.align	2
 246              		.p2align 4,,15
 247              		.thumb
 248              		.thumb_func
 249              		.type	chEvtIsListeningI, %function
 250              	chEvtIsListeningI:
 251              	.LFB226:
 252              		.loc 5 224 0
 253              		.cfi_startproc
 254              		@ args = 0, pretend = 0, frame = 8
 255              		@ frame_needed = 0, uses_anonymous_args = 0
 256              		@ link register save eliminated.
 257 0090 82B0     		sub	sp, sp, #8
 258              		.cfi_def_cfa_offset 8
 259 0092 0190     		str	r0, [sp, #4]
 260              		.loc 5 226 0
 261 0094 019B     		ldr	r3, [sp, #4]
 262 0096 1A68     		ldr	r2, [r3]
 263 0098 019B     		ldr	r3, [sp, #4]
 264 009a 9A42     		cmp	r2, r3
 265 009c 14BF     		ite	ne
 266 009e 0123     		movne	r3, #1
 267 00a0 0023     		moveq	r3, #0
 268 00a2 DBB2     		uxtb	r3, r3
 269              		.loc 5 227 0
 270 00a4 1846     		mov	r0, r3
 271 00a6 02B0     		add	sp, sp, #8
 272              		.cfi_def_cfa_offset 0
 273              		@ sp needed
 274 00a8 7047     		bx	lr
 275              		.cfi_endproc
 276              	.LFE226:
 277              		.size	chEvtIsListeningI, .-chEvtIsListeningI
 278 00aa 00BF     		.align	2
 279 00ac AFF30080 		.p2align 4,,15
 280              		.thumb
 281              		.thumb_func
 282              		.type	chEvtBroadcast, %function
 283              	chEvtBroadcast:
ARM GAS  /tmp/ccoREzjN.s 			page 6


 284              	.LFB227:
 285              		.loc 5 237 0
 286              		.cfi_startproc
 287              		@ args = 0, pretend = 0, frame = 8
 288              		@ frame_needed = 0, uses_anonymous_args = 0
 289 00b0 00B5     		push	{lr}
 290              		.cfi_def_cfa_offset 4
 291              		.cfi_offset 14, -4
 292 00b2 83B0     		sub	sp, sp, #12
 293              		.cfi_def_cfa_offset 16
 294 00b4 0190     		str	r0, [sp, #4]
 295              		.loc 5 239 0
 296 00b6 0198     		ldr	r0, [sp, #4]
 297 00b8 0021     		movs	r1, #0
 298 00ba FFF7FEFF 		bl	chEvtBroadcastFlags
 299              		.loc 5 240 0
 300 00be 03B0     		add	sp, sp, #12
 301              		.cfi_def_cfa_offset 4
 302              		@ sp needed
 303 00c0 5DF804FB 		ldr	pc, [sp], #4
 304              		.cfi_endproc
 305              	.LFE227:
 306              		.size	chEvtBroadcast, .-chEvtBroadcast
 307              		.align	2
 308 00c4 AFF30080 		.p2align 4,,15
 308      AFF30080 
 308      AFF30080 
 309              		.thumb
 310              		.thumb_func
 311              		.type	osalSysLock, %function
 312              	osalSysLock:
 313              	.LFB252:
 314              		.file 6 "../../../os/hal/osal/rt/osal.h"
 315              		.loc 6 491 0
 316              		.cfi_startproc
 317              		@ args = 0, pretend = 0, frame = 0
 318              		@ frame_needed = 0, uses_anonymous_args = 0
 319 00d0 08B5     		push	{r3, lr}
 320              		.cfi_def_cfa_offset 8
 321              		.cfi_offset 3, -8
 322              		.cfi_offset 14, -4
 323              		.loc 6 493 0
 324 00d2 FFF7A5FF 		bl	chSysLock
 325              		.loc 6 494 0
 326 00d6 08BD     		pop	{r3, pc}
 327              		.cfi_endproc
 328              	.LFE252:
 329              		.size	osalSysLock, .-osalSysLock
 330              		.align	2
 331 00d8 AFF30080 		.p2align 4,,15
 331      AFF30080 
 332              		.thumb
 333              		.thumb_func
 334              		.type	osalSysUnlock, %function
 335              	osalSysUnlock:
 336              	.LFB253:
 337              		.loc 6 502 0
ARM GAS  /tmp/ccoREzjN.s 			page 7


 338              		.cfi_startproc
 339              		@ args = 0, pretend = 0, frame = 0
 340              		@ frame_needed = 0, uses_anonymous_args = 0
 341 00e0 08B5     		push	{r3, lr}
 342              		.cfi_def_cfa_offset 8
 343              		.cfi_offset 3, -8
 344              		.cfi_offset 14, -4
 345              		.loc 6 504 0
 346 00e2 FFF7A5FF 		bl	chSysUnlock
 347              		.loc 6 505 0
 348 00e6 08BD     		pop	{r3, pc}
 349              		.cfi_endproc
 350              	.LFE253:
 351              		.size	osalSysUnlock, .-osalSysUnlock
 352              		.data
 353              		.align	2
 354              		.type	es1, %object
 355              		.size	es1, 4
 356              	es1:
 357 0000 00000000 		.word	es1
 358              		.align	2
 359              		.type	es2, %object
 360              		.size	es2, 4
 361              	es2:
 362 0004 04000000 		.word	es2
 363              		.text
 364              		.align	2
 365 00e8 AFF30080 		.p2align 4,,15
 365      AFF30080 
 366              		.thumb
 367              		.thumb_func
 368              		.type	h1, %function
 369              	h1:
 370              	.LFB279:
 371              		.file 7 "../../../test/rt/source/test/test_sequence_008.c"
 372              		.loc 7 58 0
 373              		.cfi_startproc
 374              		@ args = 0, pretend = 0, frame = 8
 375              		@ frame_needed = 0, uses_anonymous_args = 0
 376 00f0 00B5     		push	{lr}
 377              		.cfi_def_cfa_offset 4
 378              		.cfi_offset 14, -4
 379 00f2 83B0     		sub	sp, sp, #12
 380              		.cfi_def_cfa_offset 16
 381 00f4 0190     		str	r0, [sp, #4]
 382              		.loc 7 58 0
 383 00f6 4120     		movs	r0, #65
 384 00f8 FFF7FEFF 		bl	test_emit_token
 385 00fc 03B0     		add	sp, sp, #12
 386              		.cfi_def_cfa_offset 4
 387              		@ sp needed
 388 00fe 5DF804FB 		ldr	pc, [sp], #4
 389              		.cfi_endproc
 390              	.LFE279:
 391              		.size	h1, .-h1
 392 0102 00BF     		.align	2
 393 0104 AFF30080 		.p2align 4,,15
ARM GAS  /tmp/ccoREzjN.s 			page 8


 393      AFF30080 
 393      AFF30080 
 394              		.thumb
 395              		.thumb_func
 396              		.type	h2, %function
 397              	h2:
 398              	.LFB280:
 399              		.loc 7 59 0
 400              		.cfi_startproc
 401              		@ args = 0, pretend = 0, frame = 8
 402              		@ frame_needed = 0, uses_anonymous_args = 0
 403 0110 00B5     		push	{lr}
 404              		.cfi_def_cfa_offset 4
 405              		.cfi_offset 14, -4
 406 0112 83B0     		sub	sp, sp, #12
 407              		.cfi_def_cfa_offset 16
 408 0114 0190     		str	r0, [sp, #4]
 409              		.loc 7 59 0
 410 0116 4220     		movs	r0, #66
 411 0118 FFF7FEFF 		bl	test_emit_token
 412 011c 03B0     		add	sp, sp, #12
 413              		.cfi_def_cfa_offset 4
 414              		@ sp needed
 415 011e 5DF804FB 		ldr	pc, [sp], #4
 416              		.cfi_endproc
 417              	.LFE280:
 418              		.size	h2, .-h2
 419 0122 00BF     		.align	2
 420 0124 AFF30080 		.p2align 4,,15
 420      AFF30080 
 420      AFF30080 
 421              		.thumb
 422              		.thumb_func
 423              		.type	h3, %function
 424              	h3:
 425              	.LFB281:
 426              		.loc 7 60 0
 427              		.cfi_startproc
 428              		@ args = 0, pretend = 0, frame = 8
 429              		@ frame_needed = 0, uses_anonymous_args = 0
 430 0130 00B5     		push	{lr}
 431              		.cfi_def_cfa_offset 4
 432              		.cfi_offset 14, -4
 433 0132 83B0     		sub	sp, sp, #12
 434              		.cfi_def_cfa_offset 16
 435 0134 0190     		str	r0, [sp, #4]
 436              		.loc 7 60 0
 437 0136 4320     		movs	r0, #67
 438 0138 FFF7FEFF 		bl	test_emit_token
 439 013c 03B0     		add	sp, sp, #12
 440              		.cfi_def_cfa_offset 4
 441              		@ sp needed
 442 013e 5DF804FB 		ldr	pc, [sp], #4
 443              		.cfi_endproc
 444              	.LFE281:
 445              		.size	h3, .-h3
 446              		.section	.rodata
ARM GAS  /tmp/ccoREzjN.s 			page 9


 447              		.align	2
 448              		.type	evhndl, %object
 449              		.size	evhndl, 12
 450              	evhndl:
 451 0000 00000000 		.word	h1
 452 0004 00000000 		.word	h2
 453 0008 00000000 		.word	h3
 454              		.text
 455 0142 00BF     		.align	2
 456 0144 AFF30080 		.p2align 4,,15
 456      AFF30080 
 456      AFF30080 
 457              		.thumb
 458              		.thumb_func
 459              		.type	evt_thread3, %function
 460              	evt_thread3:
 461              	.LFB282:
 462              		.loc 7 63 0
 463              		.cfi_startproc
 464              		@ args = 0, pretend = 0, frame = 8
 465              		@ frame_needed = 0, uses_anonymous_args = 0
 466 0150 00B5     		push	{lr}
 467              		.cfi_def_cfa_offset 4
 468              		.cfi_offset 14, -4
 469 0152 83B0     		sub	sp, sp, #12
 470              		.cfi_def_cfa_offset 16
 471 0154 0190     		str	r0, [sp, #4]
 472              		.loc 7 65 0
 473 0156 4FF4FA70 		mov	r0, #500
 474 015a FFF7FEFF 		bl	chThdSleep
 475              		.loc 7 66 0
 476 015e 0198     		ldr	r0, [sp, #4]
 477 0160 0121     		movs	r1, #1
 478 0162 FFF7FEFF 		bl	chEvtSignal
 479              		.loc 7 67 0
 480 0166 03B0     		add	sp, sp, #12
 481              		.cfi_def_cfa_offset 4
 482              		@ sp needed
 483 0168 5DF804FB 		ldr	pc, [sp], #4
 484              		.cfi_endproc
 485              	.LFE282:
 486              		.size	evt_thread3, .-evt_thread3
 487              		.align	2
 488 016c AFF30080 		.p2align 4,,15
 489              		.thumb
 490              		.thumb_func
 491              		.type	evt_thread7, %function
 492              	evt_thread7:
 493              	.LFB283:
 494              		.loc 7 69 0
 495              		.cfi_startproc
 496              		@ args = 0, pretend = 0, frame = 8
 497              		@ frame_needed = 0, uses_anonymous_args = 0
 498 0170 00B5     		push	{lr}
 499              		.cfi_def_cfa_offset 4
 500              		.cfi_offset 14, -4
 501 0172 83B0     		sub	sp, sp, #12
ARM GAS  /tmp/ccoREzjN.s 			page 10


 502              		.cfi_def_cfa_offset 16
 503 0174 0190     		str	r0, [sp, #4]
 504              		.loc 7 72 0
 505 0176 0648     		ldr	r0, .L23
 506 0178 FFF79AFF 		bl	chEvtBroadcast
 507              		.loc 7 73 0
 508 017c 4FF4FA70 		mov	r0, #500
 509 0180 FFF7FEFF 		bl	chThdSleep
 510              		.loc 7 74 0
 511 0184 0348     		ldr	r0, .L23+4
 512 0186 FFF793FF 		bl	chEvtBroadcast
 513              		.loc 7 75 0
 514 018a 03B0     		add	sp, sp, #12
 515              		.cfi_def_cfa_offset 4
 516              		@ sp needed
 517 018c 5DF804FB 		ldr	pc, [sp], #4
 518              	.L24:
 519              		.align	2
 520              	.L23:
 521 0190 00000000 		.word	es1
 522 0194 04000000 		.word	es2
 523              		.cfi_endproc
 524              	.LFE283:
 525              		.size	evt_thread7, .-evt_thread7
 526              		.section	.rodata
 527              		.align	2
 528              	.LC0:
 529 000c 6E6F206C 		.ascii	"no listener\000"
 529      69737465 
 529      6E657200 
 530              		.align	2
 531              	.LC1:
 532 0018 73747563 		.ascii	"stuck listener\000"
 532      6B206C69 
 532      7374656E 
 532      657200
 533              		.text
 534              		.align	2
 535 0198 AFF30080 		.p2align 4,,15
 535      AFF30080 
 536              		.thumb
 537              		.thumb_func
 538              		.type	test_008_001_execute, %function
 539              	test_008_001_execute:
 540              	.LFB284:
 541              		.loc 7 102 0
 542              		.cfi_startproc
 543              		@ args = 0, pretend = 0, frame = 40
 544              		@ frame_needed = 0, uses_anonymous_args = 0
 545 01a0 00B5     		push	{lr}
 546              		.cfi_def_cfa_offset 4
 547              		.cfi_offset 14, -4
 548 01a2 8BB0     		sub	sp, sp, #44
 549              		.cfi_def_cfa_offset 48
 550              		.loc 7 106 0
 551 01a4 344B     		ldr	r3, .L31
 552 01a6 0122     		movs	r2, #1
ARM GAS  /tmp/ccoREzjN.s 			page 11


 553 01a8 1A60     		str	r2, [r3]
 554              		.loc 7 108 0
 555 01aa 3448     		ldr	r0, .L31+4
 556 01ac FFF758FF 		bl	chEvtObjectInit
 557              		.loc 7 113 0
 558 01b0 314B     		ldr	r3, .L31
 559 01b2 0222     		movs	r2, #2
 560 01b4 1A60     		str	r2, [r3]
 561              		.loc 7 115 0
 562 01b6 05AB     		add	r3, sp, #20
 563 01b8 3048     		ldr	r0, .L31+4
 564 01ba 1946     		mov	r1, r3
 565 01bc 0122     		movs	r2, #1
 566 01be FFF757FF 		bl	chEvtRegisterMask
 567              		.loc 7 116 0
 568 01c2 6B46     		mov	r3, sp
 569 01c4 2D48     		ldr	r0, .L31+4
 570 01c6 1946     		mov	r1, r3
 571 01c8 0222     		movs	r2, #2
 572 01ca FFF751FF 		bl	chEvtRegisterMask
 573              		.loc 7 117 0
 574 01ce FFF77FFF 		bl	osalSysLock
 575 01d2 2A48     		ldr	r0, .L31+4
 576 01d4 FFF75CFF 		bl	chEvtIsListeningI
 577 01d8 0346     		mov	r3, r0
 578 01da 1846     		mov	r0, r3
 579 01dc 2849     		ldr	r1, .L31+8
 580 01de FFF7FEFF 		bl	_test_assert
 581 01e2 0346     		mov	r3, r0
 582 01e4 002B     		cmp	r3, #0
 583 01e6 02D0     		beq	.L26
 584              		.loc 7 117 0 is_stmt 0 discriminator 1
 585 01e8 FFF77AFF 		bl	osalSysUnlock
 586 01ec 40E0     		b	.L25
 587              	.L26:
 588              		.loc 7 117 0 discriminator 2
 589 01ee FFF777FF 		bl	osalSysUnlock
 590              		.loc 7 122 0 is_stmt 1 discriminator 2
 591 01f2 214B     		ldr	r3, .L31
 592 01f4 0322     		movs	r2, #3
 593 01f6 1A60     		str	r2, [r3]
 594              		.loc 7 124 0 discriminator 2
 595 01f8 05AB     		add	r3, sp, #20
 596 01fa 2048     		ldr	r0, .L31+4
 597 01fc 1946     		mov	r1, r3
 598 01fe FFF7FEFF 		bl	chEvtUnregister
 599              		.loc 7 125 0 discriminator 2
 600 0202 FFF765FF 		bl	osalSysLock
 601 0206 1D48     		ldr	r0, .L31+4
 602 0208 FFF742FF 		bl	chEvtIsListeningI
 603 020c 0346     		mov	r3, r0
 604 020e 1846     		mov	r0, r3
 605 0210 1B49     		ldr	r1, .L31+8
 606 0212 FFF7FEFF 		bl	_test_assert
 607 0216 0346     		mov	r3, r0
 608 0218 002B     		cmp	r3, #0
 609 021a 02D0     		beq	.L28
ARM GAS  /tmp/ccoREzjN.s 			page 12


 610              		.loc 7 125 0 is_stmt 0 discriminator 1
 611 021c FFF760FF 		bl	osalSysUnlock
 612 0220 26E0     		b	.L25
 613              	.L28:
 614              		.loc 7 125 0 discriminator 2
 615 0222 FFF75DFF 		bl	osalSysUnlock
 616              		.loc 7 130 0 is_stmt 1 discriminator 2
 617 0226 144B     		ldr	r3, .L31
 618 0228 0422     		movs	r2, #4
 619 022a 1A60     		str	r2, [r3]
 620              		.loc 7 132 0 discriminator 2
 621 022c 6B46     		mov	r3, sp
 622 022e 1348     		ldr	r0, .L31+4
 623 0230 1946     		mov	r1, r3
 624 0232 FFF7FEFF 		bl	chEvtUnregister
 625              		.loc 7 133 0 discriminator 2
 626 0236 FFF74BFF 		bl	osalSysLock
 627 023a 1048     		ldr	r0, .L31+4
 628 023c FFF728FF 		bl	chEvtIsListeningI
 629 0240 0346     		mov	r3, r0
 630 0242 002B     		cmp	r3, #0
 631 0244 14BF     		ite	ne
 632 0246 0123     		movne	r3, #1
 633 0248 0023     		moveq	r3, #0
 634 024a DBB2     		uxtb	r3, r3
 635 024c 83F00103 		eor	r3, r3, #1
 636 0250 DBB2     		uxtb	r3, r3
 637 0252 03F00103 		and	r3, r3, #1
 638 0256 DBB2     		uxtb	r3, r3
 639 0258 1846     		mov	r0, r3
 640 025a 0A49     		ldr	r1, .L31+12
 641 025c FFF7FEFF 		bl	_test_assert
 642 0260 0346     		mov	r3, r0
 643 0262 002B     		cmp	r3, #0
 644 0264 02D0     		beq	.L29
 645              		.loc 7 133 0 is_stmt 0 discriminator 1
 646 0266 FFF73BFF 		bl	osalSysUnlock
 647 026a 01E0     		b	.L25
 648              	.L29:
 649              		.loc 7 133 0 discriminator 2
 650 026c FFF738FF 		bl	osalSysUnlock
 651              	.L25:
 652              		.loc 7 135 0 is_stmt 1
 653 0270 0BB0     		add	sp, sp, #44
 654              		.cfi_def_cfa_offset 4
 655              		@ sp needed
 656 0272 5DF804FB 		ldr	pc, [sp], #4
 657              	.L32:
 658 0276 00BF     		.align	2
 659              	.L31:
 660 0278 00000000 		.word	test_step
 661 027c 00000000 		.word	es1
 662 0280 0C000000 		.word	.LC0
 663 0284 18000000 		.word	.LC1
 664              		.cfi_endproc
 665              	.LFE284:
 666              		.size	test_008_001_execute, .-test_008_001_execute
ARM GAS  /tmp/ccoREzjN.s 			page 13


 667              		.section	.rodata
 668 0027 00       		.align	2
 669              	.LC2:
 670 0028 4576656E 		.ascii	"Events registration\000"
 670      74732072 
 670      65676973 
 670      74726174 
 670      696F6E00 
 671              		.align	2
 672              		.type	test_008_001, %object
 673              		.size	test_008_001, 16
 674              	test_008_001:
 675 003c 28000000 		.word	.LC2
 676 0040 00000000 		.word	0
 677 0044 00000000 		.word	0
 678 0048 00000000 		.word	test_008_001_execute
 679              		.text
 680              		.align	2
 681 0288 AFF30080 		.p2align 4,,15
 681      AFF30080 
 682              		.thumb
 683              		.thumb_func
 684              		.type	test_008_002_setup, %function
 685              	test_008_002_setup:
 686              	.LFB285:
 687              		.loc 7 157 0
 688              		.cfi_startproc
 689              		@ args = 0, pretend = 0, frame = 0
 690              		@ frame_needed = 0, uses_anonymous_args = 0
 691 0290 08B5     		push	{r3, lr}
 692              		.cfi_def_cfa_offset 8
 693              		.cfi_offset 3, -8
 694              		.cfi_offset 14, -4
 695              		.loc 7 158 0
 696 0292 4FF0FF30 		mov	r0, #-1
 697 0296 FFF7FEFF 		bl	chEvtGetAndClearEvents
 698              		.loc 7 159 0
 699 029a 08BD     		pop	{r3, pc}
 700              		.cfi_endproc
 701              	.LFE285:
 702              		.size	test_008_002_setup, .-test_008_002_setup
 703              		.section	.rodata
 704              		.align	2
 705              	.LC3:
 706 004c 41424300 		.ascii	"ABC\000"
 707              		.align	2
 708              	.LC4:
 709 0050 696E7661 		.ascii	"invalid sequence\000"
 709      6C696420 
 709      73657175 
 709      656E6365 
 709      00
 710              		.text
 711              		.align	2
 712 029c AFF30080 		.p2align 4,,15
 713              		.thumb
 714              		.thumb_func
ARM GAS  /tmp/ccoREzjN.s 			page 14


 715              		.type	test_008_002_execute, %function
 716              	test_008_002_execute:
 717              	.LFB286:
 718              		.loc 7 161 0
 719              		.cfi_startproc
 720              		@ args = 0, pretend = 0, frame = 0
 721              		@ frame_needed = 0, uses_anonymous_args = 0
 722 02a0 08B5     		push	{r3, lr}
 723              		.cfi_def_cfa_offset 8
 724              		.cfi_offset 3, -8
 725              		.cfi_offset 14, -4
 726              		.loc 7 165 0
 727 02a2 084B     		ldr	r3, .L36
 728 02a4 0122     		movs	r2, #1
 729 02a6 1A60     		str	r2, [r3]
 730              		.loc 7 167 0
 731 02a8 0748     		ldr	r0, .L36+4
 732 02aa 0721     		movs	r1, #7
 733 02ac FFF7FEFF 		bl	chEvtDispatch
 734              		.loc 7 168 0
 735 02b0 0648     		ldr	r0, .L36+8
 736 02b2 0749     		ldr	r1, .L36+12
 737 02b4 FFF7FEFF 		bl	_test_assert_sequence
 738 02b8 0346     		mov	r3, r0
 739 02ba 002B     		cmp	r3, #0
 740 02bc 00D0     		beq	.L34
 741 02be 00BF     		nop
 742              	.L34:
 743              		.loc 7 170 0
 744 02c0 08BD     		pop	{r3, pc}
 745              	.L37:
 746 02c2 00BF     		.align	2
 747              	.L36:
 748 02c4 00000000 		.word	test_step
 749 02c8 00000000 		.word	evhndl
 750 02cc 4C000000 		.word	.LC3
 751 02d0 50000000 		.word	.LC4
 752              		.cfi_endproc
 753              	.LFE286:
 754              		.size	test_008_002_execute, .-test_008_002_execute
 755              		.section	.rodata
 756 0061 000000   		.align	2
 757              	.LC5:
 758 0064 4576656E 		.ascii	"Event Flags dispatching\000"
 758      7420466C 
 758      61677320 
 758      64697370 
 758      61746368 
 759              		.align	2
 760              		.type	test_008_002, %object
 761              		.size	test_008_002, 16
 762              	test_008_002:
 763 007c 64000000 		.word	.LC5
 764 0080 00000000 		.word	test_008_002_setup
 765 0084 00000000 		.word	0
 766 0088 00000000 		.word	test_008_002_execute
 767              		.text
ARM GAS  /tmp/ccoREzjN.s 			page 15


 768              		.align	2
 769 02d4 AFF30080 		.p2align 4,,15
 769      AFF30080 
 769      AFF30080 
 770              		.thumb
 771              		.thumb_func
 772              		.type	test_008_003_setup, %function
 773              	test_008_003_setup:
 774              	.LFB287:
 775              		.loc 7 197 0
 776              		.cfi_startproc
 777              		@ args = 0, pretend = 0, frame = 0
 778              		@ frame_needed = 0, uses_anonymous_args = 0
 779 02e0 08B5     		push	{r3, lr}
 780              		.cfi_def_cfa_offset 8
 781              		.cfi_offset 3, -8
 782              		.cfi_offset 14, -4
 783              		.loc 7 198 0
 784 02e2 4FF0FF30 		mov	r0, #-1
 785 02e6 FFF7FEFF 		bl	chEvtGetAndClearEvents
 786              		.loc 7 199 0
 787 02ea 08BD     		pop	{r3, pc}
 788              		.cfi_endproc
 789              	.LFE287:
 790              		.size	test_008_003_setup, .-test_008_003_setup
 791              		.section	.rodata
 792              		.align	2
 793              	.LC6:
 794 008c 73696E67 		.ascii	"single event error\000"
 794      6C652065 
 794      76656E74 
 794      20657272 
 794      6F7200
 795 009f 00       		.align	2
 796              	.LC7:
 797 00a0 73747563 		.ascii	"stuck event\000"
 797      6B206576 
 797      656E7400 
 798              		.align	2
 799              	.LC8:
 800 00ac 6F757420 		.ascii	"out of time window\000"
 800      6F662074 
 800      696D6520 
 800      77696E64 
 800      6F7700
 801 00bf 00       		.align	2
 802              	.LC9:
 803 00c0 6576656E 		.ascii	"event flag error\000"
 803      7420666C 
 803      61672065 
 803      72726F72 
 803      00
 804              		.text
 805              		.align	2
 806 02ec AFF30080 		.p2align 4,,15
 807              		.thumb
 808              		.thumb_func
ARM GAS  /tmp/ccoREzjN.s 			page 16


 809              		.type	test_008_003_execute, %function
 810              	test_008_003_execute:
 811              	.LFB288:
 812              		.loc 7 201 0
 813              		.cfi_startproc
 814              		@ args = 0, pretend = 0, frame = 8
 815              		@ frame_needed = 0, uses_anonymous_args = 0
 816 02f0 30B5     		push	{r4, r5, lr}
 817              		.cfi_def_cfa_offset 12
 818              		.cfi_offset 4, -12
 819              		.cfi_offset 5, -8
 820              		.cfi_offset 14, -4
 821 02f2 85B0     		sub	sp, sp, #20
 822              		.cfi_def_cfa_offset 32
 823              		.loc 7 206 0
 824 02f4 544B     		ldr	r3, .L48
 825 02f6 0122     		movs	r2, #1
 826 02f8 1A60     		str	r2, [r3]
 827              		.loc 7 208 0
 828 02fa 0720     		movs	r0, #7
 829 02fc FFF7FEFF 		bl	chEvtAddEvents
 830              		.loc 7 213 0
 831 0300 514B     		ldr	r3, .L48
 832 0302 0222     		movs	r2, #2
 833 0304 1A60     		str	r2, [r3]
 834              		.loc 7 215 0
 835 0306 4FF0FF30 		mov	r0, #-1
 836 030a FFF7FEFF 		bl	chEvtWaitOne
 837 030e 0390     		str	r0, [sp, #12]
 838              		.loc 7 216 0
 839 0310 039B     		ldr	r3, [sp, #12]
 840 0312 012B     		cmp	r3, #1
 841 0314 0CBF     		ite	eq
 842 0316 0123     		moveq	r3, #1
 843 0318 0023     		movne	r3, #0
 844 031a DBB2     		uxtb	r3, r3
 845 031c 1846     		mov	r0, r3
 846 031e 4B49     		ldr	r1, .L48+4
 847 0320 FFF7FEFF 		bl	_test_assert
 848 0324 0346     		mov	r3, r0
 849 0326 002B     		cmp	r3, #0
 850 0328 00D0     		beq	.L40
 851 032a 8BE0     		b	.L39
 852              	.L40:
 853              		.loc 7 217 0
 854 032c 4FF0FF30 		mov	r0, #-1
 855 0330 FFF7FEFF 		bl	chEvtWaitOne
 856 0334 0390     		str	r0, [sp, #12]
 857              		.loc 7 218 0
 858 0336 039B     		ldr	r3, [sp, #12]
 859 0338 022B     		cmp	r3, #2
 860 033a 0CBF     		ite	eq
 861 033c 0123     		moveq	r3, #1
 862 033e 0023     		movne	r3, #0
 863 0340 DBB2     		uxtb	r3, r3
 864 0342 1846     		mov	r0, r3
 865 0344 4149     		ldr	r1, .L48+4
ARM GAS  /tmp/ccoREzjN.s 			page 17


 866 0346 FFF7FEFF 		bl	_test_assert
 867 034a 0346     		mov	r3, r0
 868 034c 002B     		cmp	r3, #0
 869 034e 00D0     		beq	.L42
 870              		.loc 7 218 0 is_stmt 0 discriminator 2
 871 0350 78E0     		b	.L39
 872              	.L42:
 873              		.loc 7 219 0 is_stmt 1
 874 0352 4FF0FF30 		mov	r0, #-1
 875 0356 FFF7FEFF 		bl	chEvtWaitOne
 876 035a 0390     		str	r0, [sp, #12]
 877              		.loc 7 220 0
 878 035c 039B     		ldr	r3, [sp, #12]
 879 035e 042B     		cmp	r3, #4
 880 0360 0CBF     		ite	eq
 881 0362 0123     		moveq	r3, #1
 882 0364 0023     		movne	r3, #0
 883 0366 DBB2     		uxtb	r3, r3
 884 0368 1846     		mov	r0, r3
 885 036a 3849     		ldr	r1, .L48+4
 886 036c FFF7FEFF 		bl	_test_assert
 887 0370 0346     		mov	r3, r0
 888 0372 002B     		cmp	r3, #0
 889 0374 00D0     		beq	.L43
 890              		.loc 7 220 0 is_stmt 0 discriminator 3
 891 0376 65E0     		b	.L39
 892              	.L43:
 893              		.loc 7 221 0 is_stmt 1
 894 0378 4FF0FF30 		mov	r0, #-1
 895 037c FFF7FEFF 		bl	chEvtGetAndClearEvents
 896 0380 0390     		str	r0, [sp, #12]
 897              		.loc 7 222 0
 898 0382 039B     		ldr	r3, [sp, #12]
 899 0384 002B     		cmp	r3, #0
 900 0386 0CBF     		ite	eq
 901 0388 0123     		moveq	r3, #1
 902 038a 0023     		movne	r3, #0
 903 038c DBB2     		uxtb	r3, r3
 904 038e 1846     		mov	r0, r3
 905 0390 2F49     		ldr	r1, .L48+8
 906 0392 FFF7FEFF 		bl	_test_assert
 907 0396 0346     		mov	r3, r0
 908 0398 002B     		cmp	r3, #0
 909 039a 00D0     		beq	.L44
 910              		.loc 7 222 0 is_stmt 0 discriminator 4
 911 039c 52E0     		b	.L39
 912              	.L44:
 913              		.loc 7 227 0 is_stmt 1
 914 039e 2A4B     		ldr	r3, .L48
 915 03a0 0322     		movs	r2, #3
 916 03a2 1A60     		str	r2, [r3]
 917              		.loc 7 229 0
 918 03a4 FFF7FEFF 		bl	test_wait_tick
 919 03a8 0346     		mov	r3, r0
 920 03aa 03F5FA73 		add	r3, r3, #500
 921 03ae 0293     		str	r3, [sp, #8]
 922              		.loc 7 230 0
ARM GAS  /tmp/ccoREzjN.s 			page 18


 923 03b0 284B     		ldr	r3, .L48+12
 924 03b2 1D68     		ldr	r5, [r3]
 925 03b4 FFF74CFE 		bl	chThdGetPriorityX
 926 03b8 0346     		mov	r3, r0
 927 03ba 5C1E     		subs	r4, r3, #1
 928              		.loc 7 231 0
 929 03bc FFF740FE 		bl	chThdGetSelfX
 930 03c0 0346     		mov	r3, r0
 931              		.loc 7 230 0
 932 03c2 0093     		str	r3, [sp]
 933 03c4 2846     		mov	r0, r5
 934 03c6 4FF4A471 		mov	r1, #328
 935 03ca 2246     		mov	r2, r4
 936 03cc 224B     		ldr	r3, .L48+16
 937 03ce FFF7FEFF 		bl	chThdCreateStatic
 938 03d2 0246     		mov	r2, r0
 939 03d4 214B     		ldr	r3, .L48+20
 940 03d6 1A60     		str	r2, [r3]
 941              		.loc 7 237 0
 942 03d8 1B4B     		ldr	r3, .L48
 943 03da 0422     		movs	r2, #4
 944 03dc 1A60     		str	r2, [r3]
 945              		.loc 7 239 0
 946 03de 4FF0FF30 		mov	r0, #-1
 947 03e2 FFF7FEFF 		bl	chEvtWaitOne
 948 03e6 0390     		str	r0, [sp, #12]
 949              		.loc 7 240 0
 950 03e8 029B     		ldr	r3, [sp, #8]
 951 03ea 1433     		adds	r3, r3, #20
 952 03ec 0298     		ldr	r0, [sp, #8]
 953 03ee 1946     		mov	r1, r3
 954 03f0 1B4A     		ldr	r2, .L48+24
 955 03f2 FFF7FEFF 		bl	_test_assert_time_window
 956 03f6 0346     		mov	r3, r0
 957 03f8 002B     		cmp	r3, #0
 958 03fa 00D0     		beq	.L45
 959              		.loc 7 240 0 is_stmt 0 discriminator 5
 960 03fc 22E0     		b	.L39
 961              	.L45:
 962              		.loc 7 242 0 is_stmt 1
 963 03fe 039B     		ldr	r3, [sp, #12]
 964 0400 012B     		cmp	r3, #1
 965 0402 0CBF     		ite	eq
 966 0404 0123     		moveq	r3, #1
 967 0406 0023     		movne	r3, #0
 968 0408 DBB2     		uxtb	r3, r3
 969 040a 1846     		mov	r0, r3
 970 040c 1549     		ldr	r1, .L48+28
 971 040e FFF7FEFF 		bl	_test_assert
 972 0412 0346     		mov	r3, r0
 973 0414 002B     		cmp	r3, #0
 974 0416 00D0     		beq	.L46
 975              		.loc 7 242 0 is_stmt 0 discriminator 6
 976 0418 14E0     		b	.L39
 977              	.L46:
 978              		.loc 7 243 0 is_stmt 1
 979 041a 4FF0FF30 		mov	r0, #-1
ARM GAS  /tmp/ccoREzjN.s 			page 19


 980 041e FFF7FEFF 		bl	chEvtGetAndClearEvents
 981 0422 0390     		str	r0, [sp, #12]
 982              		.loc 7 244 0
 983 0424 039B     		ldr	r3, [sp, #12]
 984 0426 002B     		cmp	r3, #0
 985 0428 0CBF     		ite	eq
 986 042a 0123     		moveq	r3, #1
 987 042c 0023     		movne	r3, #0
 988 042e DBB2     		uxtb	r3, r3
 989 0430 1846     		mov	r0, r3
 990 0432 0749     		ldr	r1, .L48+8
 991 0434 FFF7FEFF 		bl	_test_assert
 992 0438 0346     		mov	r3, r0
 993 043a 002B     		cmp	r3, #0
 994 043c 00D0     		beq	.L47
 995              		.loc 7 244 0 is_stmt 0 discriminator 7
 996 043e 01E0     		b	.L39
 997              	.L47:
 998              		.loc 7 245 0 is_stmt 1
 999 0440 FFF7FEFF 		bl	test_wait_threads
 1000              	.L39:
 1001              		.loc 7 247 0
 1002 0444 05B0     		add	sp, sp, #20
 1003              		.cfi_def_cfa_offset 12
 1004              		@ sp needed
 1005 0446 30BD     		pop	{r4, r5, pc}
 1006              	.L49:
 1007              		.align	2
 1008              	.L48:
 1009 0448 00000000 		.word	test_step
 1010 044c 8C000000 		.word	.LC6
 1011 0450 A0000000 		.word	.LC7
 1012 0454 00000000 		.word	wa
 1013 0458 00000000 		.word	evt_thread3
 1014 045c 00000000 		.word	threads
 1015 0460 AC000000 		.word	.LC8
 1016 0464 C0000000 		.word	.LC9
 1017              		.cfi_endproc
 1018              	.LFE288:
 1019              		.size	test_008_003_execute, .-test_008_003_execute
 1020              		.section	.rodata
 1021 00d1 000000   		.align	2
 1022              	.LC10:
 1023 00d4 4576656E 		.ascii	"Events Flags wait using chEvtWaitOne()\000"
 1023      74732046 
 1023      6C616773 
 1023      20776169 
 1023      74207573 
 1024 00fb 00       		.align	2
 1025              		.type	test_008_003, %object
 1026              		.size	test_008_003, 16
 1027              	test_008_003:
 1028 00fc D4000000 		.word	.LC10
 1029 0100 00000000 		.word	test_008_003_setup
 1030 0104 00000000 		.word	0
 1031 0108 00000000 		.word	test_008_003_execute
 1032              		.text
ARM GAS  /tmp/ccoREzjN.s 			page 20


 1033              		.align	2
 1034 0468 AFF30080 		.p2align 4,,15
 1034      AFF30080 
 1035              		.thumb
 1036              		.thumb_func
 1037              		.type	test_008_004_setup, %function
 1038              	test_008_004_setup:
 1039              	.LFB289:
 1040              		.loc 7 274 0
 1041              		.cfi_startproc
 1042              		@ args = 0, pretend = 0, frame = 0
 1043              		@ frame_needed = 0, uses_anonymous_args = 0
 1044 0470 08B5     		push	{r3, lr}
 1045              		.cfi_def_cfa_offset 8
 1046              		.cfi_offset 3, -8
 1047              		.cfi_offset 14, -4
 1048              		.loc 7 275 0
 1049 0472 4FF0FF30 		mov	r0, #-1
 1050 0476 FFF7FEFF 		bl	chEvtGetAndClearEvents
 1051              		.loc 7 276 0
 1052 047a 08BD     		pop	{r3, pc}
 1053              		.cfi_endproc
 1054              	.LFE289:
 1055              		.size	test_008_004_setup, .-test_008_004_setup
 1056              		.section	.rodata
 1057              		.align	2
 1058              	.LC11:
 1059 010c 756E6578 		.ascii	"unexpected pending bit\000"
 1059      70656374 
 1059      65642070 
 1059      656E6469 
 1059      6E672062 
 1060              		.text
 1061              		.align	2
 1062 047c AFF30080 		.p2align 4,,15
 1063              		.thumb
 1064              		.thumb_func
 1065              		.type	test_008_004_execute, %function
 1066              	test_008_004_execute:
 1067              	.LFB290:
 1068              		.loc 7 278 0
 1069              		.cfi_startproc
 1070              		@ args = 0, pretend = 0, frame = 8
 1071              		@ frame_needed = 0, uses_anonymous_args = 0
 1072 0480 30B5     		push	{r4, r5, lr}
 1073              		.cfi_def_cfa_offset 12
 1074              		.cfi_offset 4, -12
 1075              		.cfi_offset 5, -8
 1076              		.cfi_offset 14, -4
 1077 0482 85B0     		sub	sp, sp, #20
 1078              		.cfi_def_cfa_offset 32
 1079              		.loc 7 283 0
 1080 0484 414B     		ldr	r3, .L58
 1081 0486 0122     		movs	r2, #1
 1082 0488 1A60     		str	r2, [r3]
 1083              		.loc 7 285 0
 1084 048a 0520     		movs	r0, #5
ARM GAS  /tmp/ccoREzjN.s 			page 21


 1085 048c FFF7FEFF 		bl	chEvtAddEvents
 1086              		.loc 7 290 0
 1087 0490 3E4B     		ldr	r3, .L58
 1088 0492 0222     		movs	r2, #2
 1089 0494 1A60     		str	r2, [r3]
 1090              		.loc 7 292 0
 1091 0496 4FF0FF30 		mov	r0, #-1
 1092 049a FFF7FEFF 		bl	chEvtWaitAny
 1093 049e 0390     		str	r0, [sp, #12]
 1094              		.loc 7 293 0
 1095 04a0 039B     		ldr	r3, [sp, #12]
 1096 04a2 052B     		cmp	r3, #5
 1097 04a4 0CBF     		ite	eq
 1098 04a6 0123     		moveq	r3, #1
 1099 04a8 0023     		movne	r3, #0
 1100 04aa DBB2     		uxtb	r3, r3
 1101 04ac 1846     		mov	r0, r3
 1102 04ae 3849     		ldr	r1, .L58+4
 1103 04b0 FFF7FEFF 		bl	_test_assert
 1104 04b4 0346     		mov	r3, r0
 1105 04b6 002B     		cmp	r3, #0
 1106 04b8 00D0     		beq	.L52
 1107 04ba 65E0     		b	.L51
 1108              	.L52:
 1109              		.loc 7 294 0
 1110 04bc 4FF0FF30 		mov	r0, #-1
 1111 04c0 FFF7FEFF 		bl	chEvtGetAndClearEvents
 1112 04c4 0390     		str	r0, [sp, #12]
 1113              		.loc 7 295 0
 1114 04c6 039B     		ldr	r3, [sp, #12]
 1115 04c8 002B     		cmp	r3, #0
 1116 04ca 0CBF     		ite	eq
 1117 04cc 0123     		moveq	r3, #1
 1118 04ce 0023     		movne	r3, #0
 1119 04d0 DBB2     		uxtb	r3, r3
 1120 04d2 1846     		mov	r0, r3
 1121 04d4 2F49     		ldr	r1, .L58+8
 1122 04d6 FFF7FEFF 		bl	_test_assert
 1123 04da 0346     		mov	r3, r0
 1124 04dc 002B     		cmp	r3, #0
 1125 04de 00D0     		beq	.L54
 1126              		.loc 7 295 0 is_stmt 0 discriminator 2
 1127 04e0 52E0     		b	.L51
 1128              	.L54:
 1129              		.loc 7 300 0 is_stmt 1
 1130 04e2 2A4B     		ldr	r3, .L58
 1131 04e4 0322     		movs	r2, #3
 1132 04e6 1A60     		str	r2, [r3]
 1133              		.loc 7 302 0
 1134 04e8 FFF7FEFF 		bl	test_wait_tick
 1135 04ec 0346     		mov	r3, r0
 1136 04ee 03F5FA73 		add	r3, r3, #500
 1137 04f2 0293     		str	r3, [sp, #8]
 1138              		.loc 7 303 0
 1139 04f4 284B     		ldr	r3, .L58+12
 1140 04f6 1D68     		ldr	r5, [r3]
 1141 04f8 FFF7AAFD 		bl	chThdGetPriorityX
ARM GAS  /tmp/ccoREzjN.s 			page 22


 1142 04fc 0346     		mov	r3, r0
 1143 04fe 5C1E     		subs	r4, r3, #1
 1144              		.loc 7 304 0
 1145 0500 FFF79EFD 		bl	chThdGetSelfX
 1146 0504 0346     		mov	r3, r0
 1147              		.loc 7 303 0
 1148 0506 0093     		str	r3, [sp]
 1149 0508 2846     		mov	r0, r5
 1150 050a 4FF4A471 		mov	r1, #328
 1151 050e 2246     		mov	r2, r4
 1152 0510 224B     		ldr	r3, .L58+16
 1153 0512 FFF7FEFF 		bl	chThdCreateStatic
 1154 0516 0246     		mov	r2, r0
 1155 0518 214B     		ldr	r3, .L58+20
 1156 051a 1A60     		str	r2, [r3]
 1157              		.loc 7 310 0
 1158 051c 1B4B     		ldr	r3, .L58
 1159 051e 0422     		movs	r2, #4
 1160 0520 1A60     		str	r2, [r3]
 1161              		.loc 7 312 0
 1162 0522 4FF0FF30 		mov	r0, #-1
 1163 0526 FFF7FEFF 		bl	chEvtWaitAny
 1164 052a 0390     		str	r0, [sp, #12]
 1165              		.loc 7 313 0
 1166 052c 029B     		ldr	r3, [sp, #8]
 1167 052e 1433     		adds	r3, r3, #20
 1168 0530 0298     		ldr	r0, [sp, #8]
 1169 0532 1946     		mov	r1, r3
 1170 0534 1B4A     		ldr	r2, .L58+24
 1171 0536 FFF7FEFF 		bl	_test_assert_time_window
 1172 053a 0346     		mov	r3, r0
 1173 053c 002B     		cmp	r3, #0
 1174 053e 00D0     		beq	.L55
 1175              		.loc 7 313 0 is_stmt 0 discriminator 3
 1176 0540 22E0     		b	.L51
 1177              	.L55:
 1178              		.loc 7 315 0 is_stmt 1
 1179 0542 039B     		ldr	r3, [sp, #12]
 1180 0544 012B     		cmp	r3, #1
 1181 0546 0CBF     		ite	eq
 1182 0548 0123     		moveq	r3, #1
 1183 054a 0023     		movne	r3, #0
 1184 054c DBB2     		uxtb	r3, r3
 1185 054e 1846     		mov	r0, r3
 1186 0550 1549     		ldr	r1, .L58+28
 1187 0552 FFF7FEFF 		bl	_test_assert
 1188 0556 0346     		mov	r3, r0
 1189 0558 002B     		cmp	r3, #0
 1190 055a 00D0     		beq	.L56
 1191              		.loc 7 315 0 is_stmt 0 discriminator 4
 1192 055c 14E0     		b	.L51
 1193              	.L56:
 1194              		.loc 7 316 0 is_stmt 1
 1195 055e 4FF0FF30 		mov	r0, #-1
 1196 0562 FFF7FEFF 		bl	chEvtGetAndClearEvents
 1197 0566 0390     		str	r0, [sp, #12]
 1198              		.loc 7 317 0
ARM GAS  /tmp/ccoREzjN.s 			page 23


 1199 0568 039B     		ldr	r3, [sp, #12]
 1200 056a 002B     		cmp	r3, #0
 1201 056c 0CBF     		ite	eq
 1202 056e 0123     		moveq	r3, #1
 1203 0570 0023     		movne	r3, #0
 1204 0572 DBB2     		uxtb	r3, r3
 1205 0574 1846     		mov	r0, r3
 1206 0576 0749     		ldr	r1, .L58+8
 1207 0578 FFF7FEFF 		bl	_test_assert
 1208 057c 0346     		mov	r3, r0
 1209 057e 002B     		cmp	r3, #0
 1210 0580 00D0     		beq	.L57
 1211              		.loc 7 317 0 is_stmt 0 discriminator 5
 1212 0582 01E0     		b	.L51
 1213              	.L57:
 1214              		.loc 7 318 0 is_stmt 1
 1215 0584 FFF7FEFF 		bl	test_wait_threads
 1216              	.L51:
 1217              		.loc 7 320 0
 1218 0588 05B0     		add	sp, sp, #20
 1219              		.cfi_def_cfa_offset 12
 1220              		@ sp needed
 1221 058a 30BD     		pop	{r4, r5, pc}
 1222              	.L59:
 1223              		.align	2
 1224              	.L58:
 1225 058c 00000000 		.word	test_step
 1226 0590 0C010000 		.word	.LC11
 1227 0594 A0000000 		.word	.LC7
 1228 0598 00000000 		.word	wa
 1229 059c 00000000 		.word	evt_thread3
 1230 05a0 00000000 		.word	threads
 1231 05a4 AC000000 		.word	.LC8
 1232 05a8 C0000000 		.word	.LC9
 1233              		.cfi_endproc
 1234              	.LFE290:
 1235              		.size	test_008_004_execute, .-test_008_004_execute
 1236              		.section	.rodata
 1237 0123 00       		.align	2
 1238              	.LC12:
 1239 0124 4576656E 		.ascii	"Events Flags wait using chEvtWaitAny()\000"
 1239      74732046 
 1239      6C616773 
 1239      20776169 
 1239      74207573 
 1240 014b 00       		.align	2
 1241              		.type	test_008_004, %object
 1242              		.size	test_008_004, 16
 1243              	test_008_004:
 1244 014c 24010000 		.word	.LC12
 1245 0150 00000000 		.word	test_008_004_setup
 1246 0154 00000000 		.word	0
 1247 0158 00000000 		.word	test_008_004_execute
 1248              		.text
 1249              		.align	2
 1250 05ac AFF30080 		.p2align 4,,15
 1251              		.thumb
ARM GAS  /tmp/ccoREzjN.s 			page 24


 1252              		.thumb_func
 1253              		.type	test_008_005_setup, %function
 1254              	test_008_005_setup:
 1255              	.LFB291:
 1256              		.loc 7 348 0
 1257              		.cfi_startproc
 1258              		@ args = 0, pretend = 0, frame = 0
 1259              		@ frame_needed = 0, uses_anonymous_args = 0
 1260 05b0 08B5     		push	{r3, lr}
 1261              		.cfi_def_cfa_offset 8
 1262              		.cfi_offset 3, -8
 1263              		.cfi_offset 14, -4
 1264              		.loc 7 349 0
 1265 05b2 4FF0FF30 		mov	r0, #-1
 1266 05b6 FFF7FEFF 		bl	chEvtGetAndClearEvents
 1267              		.loc 7 350 0
 1268 05ba 08BD     		pop	{r3, pc}
 1269              		.cfi_endproc
 1270              	.LFE291:
 1271              		.size	test_008_005_setup, .-test_008_005_setup
 1272              		.section	.rodata
 1273              		.align	2
 1274              	.LC13:
 1275 015c 6576656E 		.ascii	"event flags error\000"
 1275      7420666C 
 1275      61677320 
 1275      6572726F 
 1275      7200
 1276              		.text
 1277              		.align	2
 1278 05bc AFF30080 		.p2align 4,,15
 1279              		.thumb
 1280              		.thumb_func
 1281              		.type	test_008_005_execute, %function
 1282              	test_008_005_execute:
 1283              	.LFB292:
 1284              		.loc 7 352 0
 1285              		.cfi_startproc
 1286              		@ args = 0, pretend = 0, frame = 8
 1287              		@ frame_needed = 0, uses_anonymous_args = 0
 1288 05c0 30B5     		push	{r4, r5, lr}
 1289              		.cfi_def_cfa_offset 12
 1290              		.cfi_offset 4, -12
 1291              		.cfi_offset 5, -8
 1292              		.cfi_offset 14, -4
 1293 05c2 85B0     		sub	sp, sp, #20
 1294              		.cfi_def_cfa_offset 32
 1295              		.loc 7 357 0
 1296 05c4 434B     		ldr	r3, .L68
 1297 05c6 0122     		movs	r2, #1
 1298 05c8 1A60     		str	r2, [r3]
 1299              		.loc 7 359 0
 1300 05ca 0520     		movs	r0, #5
 1301 05cc FFF7FEFF 		bl	chEvtAddEvents
 1302              		.loc 7 364 0
 1303 05d0 404B     		ldr	r3, .L68
 1304 05d2 0222     		movs	r2, #2
ARM GAS  /tmp/ccoREzjN.s 			page 25


 1305 05d4 1A60     		str	r2, [r3]
 1306              		.loc 7 366 0
 1307 05d6 0520     		movs	r0, #5
 1308 05d8 FFF7FEFF 		bl	chEvtWaitAll
 1309 05dc 0390     		str	r0, [sp, #12]
 1310              		.loc 7 367 0
 1311 05de 039B     		ldr	r3, [sp, #12]
 1312 05e0 052B     		cmp	r3, #5
 1313 05e2 0CBF     		ite	eq
 1314 05e4 0123     		moveq	r3, #1
 1315 05e6 0023     		movne	r3, #0
 1316 05e8 DBB2     		uxtb	r3, r3
 1317 05ea 1846     		mov	r0, r3
 1318 05ec 3A49     		ldr	r1, .L68+4
 1319 05ee FFF7FEFF 		bl	_test_assert
 1320 05f2 0346     		mov	r3, r0
 1321 05f4 002B     		cmp	r3, #0
 1322 05f6 00D0     		beq	.L62
 1323 05f8 6AE0     		b	.L61
 1324              	.L62:
 1325              		.loc 7 368 0
 1326 05fa 4FF0FF30 		mov	r0, #-1
 1327 05fe FFF7FEFF 		bl	chEvtGetAndClearEvents
 1328 0602 0390     		str	r0, [sp, #12]
 1329              		.loc 7 369 0
 1330 0604 039B     		ldr	r3, [sp, #12]
 1331 0606 002B     		cmp	r3, #0
 1332 0608 0CBF     		ite	eq
 1333 060a 0123     		moveq	r3, #1
 1334 060c 0023     		movne	r3, #0
 1335 060e DBB2     		uxtb	r3, r3
 1336 0610 1846     		mov	r0, r3
 1337 0612 3249     		ldr	r1, .L68+8
 1338 0614 FFF7FEFF 		bl	_test_assert
 1339 0618 0346     		mov	r3, r0
 1340 061a 002B     		cmp	r3, #0
 1341 061c 00D0     		beq	.L64
 1342              		.loc 7 369 0 is_stmt 0 discriminator 2
 1343 061e 57E0     		b	.L61
 1344              	.L64:
 1345              		.loc 7 373 0 is_stmt 1
 1346 0620 2C4B     		ldr	r3, .L68
 1347 0622 0322     		movs	r2, #3
 1348 0624 1A60     		str	r2, [r3]
 1349              		.loc 7 375 0
 1350 0626 0420     		movs	r0, #4
 1351 0628 FFF7FEFF 		bl	chEvtAddEvents
 1352              		.loc 7 380 0
 1353 062c 294B     		ldr	r3, .L68
 1354 062e 0422     		movs	r2, #4
 1355 0630 1A60     		str	r2, [r3]
 1356              		.loc 7 382 0
 1357 0632 FFF7FEFF 		bl	test_wait_tick
 1358 0636 0346     		mov	r3, r0
 1359 0638 03F5FA73 		add	r3, r3, #500
 1360 063c 0293     		str	r3, [sp, #8]
 1361              		.loc 7 383 0
ARM GAS  /tmp/ccoREzjN.s 			page 26


 1362 063e 284B     		ldr	r3, .L68+12
 1363 0640 1D68     		ldr	r5, [r3]
 1364 0642 FFF705FD 		bl	chThdGetPriorityX
 1365 0646 0346     		mov	r3, r0
 1366 0648 5C1E     		subs	r4, r3, #1
 1367              		.loc 7 384 0
 1368 064a FFF7F9FC 		bl	chThdGetSelfX
 1369 064e 0346     		mov	r3, r0
 1370              		.loc 7 383 0
 1371 0650 0093     		str	r3, [sp]
 1372 0652 2846     		mov	r0, r5
 1373 0654 4FF4A471 		mov	r1, #328
 1374 0658 2246     		mov	r2, r4
 1375 065a 224B     		ldr	r3, .L68+16
 1376 065c FFF7FEFF 		bl	chThdCreateStatic
 1377 0660 0246     		mov	r2, r0
 1378 0662 214B     		ldr	r3, .L68+20
 1379 0664 1A60     		str	r2, [r3]
 1380              		.loc 7 390 0
 1381 0666 1B4B     		ldr	r3, .L68
 1382 0668 0522     		movs	r2, #5
 1383 066a 1A60     		str	r2, [r3]
 1384              		.loc 7 392 0
 1385 066c 0520     		movs	r0, #5
 1386 066e FFF7FEFF 		bl	chEvtWaitAll
 1387 0672 0390     		str	r0, [sp, #12]
 1388              		.loc 7 393 0
 1389 0674 029B     		ldr	r3, [sp, #8]
 1390 0676 1433     		adds	r3, r3, #20
 1391 0678 0298     		ldr	r0, [sp, #8]
 1392 067a 1946     		mov	r1, r3
 1393 067c 1B4A     		ldr	r2, .L68+24
 1394 067e FFF7FEFF 		bl	_test_assert_time_window
 1395 0682 0346     		mov	r3, r0
 1396 0684 002B     		cmp	r3, #0
 1397 0686 00D0     		beq	.L65
 1398              		.loc 7 393 0 is_stmt 0 discriminator 3
 1399 0688 22E0     		b	.L61
 1400              	.L65:
 1401              		.loc 7 395 0 is_stmt 1
 1402 068a 039B     		ldr	r3, [sp, #12]
 1403 068c 052B     		cmp	r3, #5
 1404 068e 0CBF     		ite	eq
 1405 0690 0123     		moveq	r3, #1
 1406 0692 0023     		movne	r3, #0
 1407 0694 DBB2     		uxtb	r3, r3
 1408 0696 1846     		mov	r0, r3
 1409 0698 1549     		ldr	r1, .L68+28
 1410 069a FFF7FEFF 		bl	_test_assert
 1411 069e 0346     		mov	r3, r0
 1412 06a0 002B     		cmp	r3, #0
 1413 06a2 00D0     		beq	.L66
 1414              		.loc 7 395 0 is_stmt 0 discriminator 4
 1415 06a4 14E0     		b	.L61
 1416              	.L66:
 1417              		.loc 7 396 0 is_stmt 1
 1418 06a6 4FF0FF30 		mov	r0, #-1
ARM GAS  /tmp/ccoREzjN.s 			page 27


 1419 06aa FFF7FEFF 		bl	chEvtGetAndClearEvents
 1420 06ae 0390     		str	r0, [sp, #12]
 1421              		.loc 7 397 0
 1422 06b0 039B     		ldr	r3, [sp, #12]
 1423 06b2 002B     		cmp	r3, #0
 1424 06b4 0CBF     		ite	eq
 1425 06b6 0123     		moveq	r3, #1
 1426 06b8 0023     		movne	r3, #0
 1427 06ba DBB2     		uxtb	r3, r3
 1428 06bc 1846     		mov	r0, r3
 1429 06be 0749     		ldr	r1, .L68+8
 1430 06c0 FFF7FEFF 		bl	_test_assert
 1431 06c4 0346     		mov	r3, r0
 1432 06c6 002B     		cmp	r3, #0
 1433 06c8 00D0     		beq	.L67
 1434              		.loc 7 397 0 is_stmt 0 discriminator 5
 1435 06ca 01E0     		b	.L61
 1436              	.L67:
 1437              		.loc 7 398 0 is_stmt 1
 1438 06cc FFF7FEFF 		bl	test_wait_threads
 1439              	.L61:
 1440              		.loc 7 400 0
 1441 06d0 05B0     		add	sp, sp, #20
 1442              		.cfi_def_cfa_offset 12
 1443              		@ sp needed
 1444 06d2 30BD     		pop	{r4, r5, pc}
 1445              	.L69:
 1446              		.align	2
 1447              	.L68:
 1448 06d4 00000000 		.word	test_step
 1449 06d8 0C010000 		.word	.LC11
 1450 06dc A0000000 		.word	.LC7
 1451 06e0 00000000 		.word	wa
 1452 06e4 00000000 		.word	evt_thread3
 1453 06e8 00000000 		.word	threads
 1454 06ec AC000000 		.word	.LC8
 1455 06f0 5C010000 		.word	.LC13
 1456              		.cfi_endproc
 1457              	.LFE292:
 1458              		.size	test_008_005_execute, .-test_008_005_execute
 1459              		.section	.rodata
 1460 016e 0000     		.align	2
 1461              	.LC14:
 1462 0170 4576656E 		.ascii	"Events Flags wait using chEvtWaitAll()\000"
 1462      74732046 
 1462      6C616773 
 1462      20776169 
 1462      74207573 
 1463 0197 00       		.align	2
 1464              		.type	test_008_005, %object
 1465              		.size	test_008_005, 16
 1466              	test_008_005:
 1467 0198 70010000 		.word	.LC14
 1468 019c 00000000 		.word	test_008_005_setup
 1469 01a0 00000000 		.word	0
 1470 01a4 00000000 		.word	test_008_005_execute
 1471              		.text
ARM GAS  /tmp/ccoREzjN.s 			page 28


 1472              		.align	2
 1473 06f4 AFF30080 		.p2align 4,,15
 1473      AFF30080 
 1473      AFF30080 
 1474              		.thumb
 1475              		.thumb_func
 1476              		.type	test_008_006_setup, %function
 1477              	test_008_006_setup:
 1478              	.LFB293:
 1479              		.loc 7 431 0
 1480              		.cfi_startproc
 1481              		@ args = 0, pretend = 0, frame = 0
 1482              		@ frame_needed = 0, uses_anonymous_args = 0
 1483 0700 08B5     		push	{r3, lr}
 1484              		.cfi_def_cfa_offset 8
 1485              		.cfi_offset 3, -8
 1486              		.cfi_offset 14, -4
 1487              		.loc 7 432 0
 1488 0702 4FF0FF30 		mov	r0, #-1
 1489 0706 FFF7FEFF 		bl	chEvtGetAndClearEvents
 1490              		.loc 7 433 0
 1491 070a 08BD     		pop	{r3, pc}
 1492              		.cfi_endproc
 1493              	.LFE293:
 1494              		.size	test_008_006_setup, .-test_008_006_setup
 1495              		.section	.rodata
 1496              		.align	2
 1497              	.LC15:
 1498 01a8 73707572 		.ascii	"spurious event\000"
 1498      696F7573 
 1498      20657665 
 1498      6E7400
 1499              		.text
 1500              		.align	2
 1501 070c AFF30080 		.p2align 4,,15
 1502              		.thumb
 1503              		.thumb_func
 1504              		.type	test_008_006_execute, %function
 1505              	test_008_006_execute:
 1506              	.LFB294:
 1507              		.loc 7 435 0
 1508              		.cfi_startproc
 1509              		@ args = 0, pretend = 0, frame = 8
 1510              		@ frame_needed = 0, uses_anonymous_args = 0
 1511 0710 00B5     		push	{lr}
 1512              		.cfi_def_cfa_offset 4
 1513              		.cfi_offset 14, -4
 1514 0712 83B0     		sub	sp, sp, #12
 1515              		.cfi_def_cfa_offset 16
 1516              		.loc 7 440 0
 1517 0714 414B     		ldr	r3, .L78
 1518 0716 0122     		movs	r2, #1
 1519 0718 1A60     		str	r2, [r3]
 1520              		.loc 7 442 0
 1521 071a 4FF0FF30 		mov	r0, #-1
 1522 071e 0021     		movs	r1, #0
 1523 0720 FFF7FEFF 		bl	chEvtWaitOneTimeout
ARM GAS  /tmp/ccoREzjN.s 			page 29


 1524 0724 0190     		str	r0, [sp, #4]
 1525              		.loc 7 443 0
 1526 0726 019B     		ldr	r3, [sp, #4]
 1527 0728 002B     		cmp	r3, #0
 1528 072a 0CBF     		ite	eq
 1529 072c 0123     		moveq	r3, #1
 1530 072e 0023     		movne	r3, #0
 1531 0730 DBB2     		uxtb	r3, r3
 1532 0732 1846     		mov	r0, r3
 1533 0734 3A49     		ldr	r1, .L78+4
 1534 0736 FFF7FEFF 		bl	_test_assert
 1535 073a 0346     		mov	r3, r0
 1536 073c 002B     		cmp	r3, #0
 1537 073e 00D0     		beq	.L72
 1538 0740 69E0     		b	.L71
 1539              	.L72:
 1540              		.loc 7 444 0
 1541 0742 4FF0FF30 		mov	r0, #-1
 1542 0746 0021     		movs	r1, #0
 1543 0748 FFF7FEFF 		bl	chEvtWaitAnyTimeout
 1544 074c 0190     		str	r0, [sp, #4]
 1545              		.loc 7 445 0
 1546 074e 019B     		ldr	r3, [sp, #4]
 1547 0750 002B     		cmp	r3, #0
 1548 0752 0CBF     		ite	eq
 1549 0754 0123     		moveq	r3, #1
 1550 0756 0023     		movne	r3, #0
 1551 0758 DBB2     		uxtb	r3, r3
 1552 075a 1846     		mov	r0, r3
 1553 075c 3049     		ldr	r1, .L78+4
 1554 075e FFF7FEFF 		bl	_test_assert
 1555 0762 0346     		mov	r3, r0
 1556 0764 002B     		cmp	r3, #0
 1557 0766 00D0     		beq	.L74
 1558              		.loc 7 445 0 is_stmt 0 discriminator 2
 1559 0768 55E0     		b	.L71
 1560              	.L74:
 1561              		.loc 7 446 0 is_stmt 1
 1562 076a 4FF0FF30 		mov	r0, #-1
 1563 076e 0021     		movs	r1, #0
 1564 0770 FFF7FEFF 		bl	chEvtWaitAllTimeout
 1565 0774 0190     		str	r0, [sp, #4]
 1566              		.loc 7 447 0
 1567 0776 019B     		ldr	r3, [sp, #4]
 1568 0778 002B     		cmp	r3, #0
 1569 077a 0CBF     		ite	eq
 1570 077c 0123     		moveq	r3, #1
 1571 077e 0023     		movne	r3, #0
 1572 0780 DBB2     		uxtb	r3, r3
 1573 0782 1846     		mov	r0, r3
 1574 0784 2649     		ldr	r1, .L78+4
 1575 0786 FFF7FEFF 		bl	_test_assert
 1576 078a 0346     		mov	r3, r0
 1577 078c 002B     		cmp	r3, #0
 1578 078e 00D0     		beq	.L75
 1579              		.loc 7 447 0 is_stmt 0 discriminator 3
 1580 0790 41E0     		b	.L71
ARM GAS  /tmp/ccoREzjN.s 			page 30


 1581              	.L75:
 1582              		.loc 7 452 0 is_stmt 1
 1583 0792 224B     		ldr	r3, .L78
 1584 0794 0222     		movs	r2, #2
 1585 0796 1A60     		str	r2, [r3]
 1586              		.loc 7 454 0
 1587 0798 4FF0FF30 		mov	r0, #-1
 1588 079c 4FF4FA71 		mov	r1, #500
 1589 07a0 FFF7FEFF 		bl	chEvtWaitOneTimeout
 1590 07a4 0190     		str	r0, [sp, #4]
 1591              		.loc 7 455 0
 1592 07a6 019B     		ldr	r3, [sp, #4]
 1593 07a8 002B     		cmp	r3, #0
 1594 07aa 0CBF     		ite	eq
 1595 07ac 0123     		moveq	r3, #1
 1596 07ae 0023     		movne	r3, #0
 1597 07b0 DBB2     		uxtb	r3, r3
 1598 07b2 1846     		mov	r0, r3
 1599 07b4 1A49     		ldr	r1, .L78+4
 1600 07b6 FFF7FEFF 		bl	_test_assert
 1601 07ba 0346     		mov	r3, r0
 1602 07bc 002B     		cmp	r3, #0
 1603 07be 00D0     		beq	.L76
 1604              		.loc 7 455 0 is_stmt 0 discriminator 4
 1605 07c0 29E0     		b	.L71
 1606              	.L76:
 1607              		.loc 7 456 0 is_stmt 1
 1608 07c2 4FF0FF30 		mov	r0, #-1
 1609 07c6 4FF4FA71 		mov	r1, #500
 1610 07ca FFF7FEFF 		bl	chEvtWaitAnyTimeout
 1611 07ce 0190     		str	r0, [sp, #4]
 1612              		.loc 7 457 0
 1613 07d0 019B     		ldr	r3, [sp, #4]
 1614 07d2 002B     		cmp	r3, #0
 1615 07d4 0CBF     		ite	eq
 1616 07d6 0123     		moveq	r3, #1
 1617 07d8 0023     		movne	r3, #0
 1618 07da DBB2     		uxtb	r3, r3
 1619 07dc 1846     		mov	r0, r3
 1620 07de 1049     		ldr	r1, .L78+4
 1621 07e0 FFF7FEFF 		bl	_test_assert
 1622 07e4 0346     		mov	r3, r0
 1623 07e6 002B     		cmp	r3, #0
 1624 07e8 00D0     		beq	.L77
 1625              		.loc 7 457 0 is_stmt 0 discriminator 5
 1626 07ea 14E0     		b	.L71
 1627              	.L77:
 1628              		.loc 7 458 0 is_stmt 1
 1629 07ec 4FF0FF30 		mov	r0, #-1
 1630 07f0 4FF4FA71 		mov	r1, #500
 1631 07f4 FFF7FEFF 		bl	chEvtWaitAllTimeout
 1632 07f8 0190     		str	r0, [sp, #4]
 1633              		.loc 7 459 0
 1634 07fa 019B     		ldr	r3, [sp, #4]
 1635 07fc 002B     		cmp	r3, #0
 1636 07fe 0CBF     		ite	eq
 1637 0800 0123     		moveq	r3, #1
ARM GAS  /tmp/ccoREzjN.s 			page 31


 1638 0802 0023     		movne	r3, #0
 1639 0804 DBB2     		uxtb	r3, r3
 1640 0806 1846     		mov	r0, r3
 1641 0808 0549     		ldr	r1, .L78+4
 1642 080a FFF7FEFF 		bl	_test_assert
 1643 080e 0346     		mov	r3, r0
 1644 0810 002B     		cmp	r3, #0
 1645 0812 00D0     		beq	.L71
 1646              		.loc 7 459 0 is_stmt 0 discriminator 6
 1647 0814 00BF     		nop
 1648              	.L71:
 1649              		.loc 7 461 0 is_stmt 1
 1650 0816 03B0     		add	sp, sp, #12
 1651              		.cfi_def_cfa_offset 4
 1652              		@ sp needed
 1653 0818 5DF804FB 		ldr	pc, [sp], #4
 1654              	.L79:
 1655              		.align	2
 1656              	.L78:
 1657 081c 00000000 		.word	test_step
 1658 0820 A8010000 		.word	.LC15
 1659              		.cfi_endproc
 1660              	.LFE294:
 1661              		.size	test_008_006_execute, .-test_008_006_execute
 1662              		.section	.rodata
 1663 01b7 00       		.align	2
 1664              	.LC16:
 1665 01b8 4576656E 		.ascii	"Events Flags wait timeouts\000"
 1665      74732046 
 1665      6C616773 
 1665      20776169 
 1665      74207469 
 1666 01d3 00       		.align	2
 1667              		.type	test_008_006, %object
 1668              		.size	test_008_006, 16
 1669              	test_008_006:
 1670 01d4 B8010000 		.word	.LC16
 1671 01d8 00000000 		.word	test_008_006_setup
 1672 01dc 00000000 		.word	0
 1673 01e0 00000000 		.word	test_008_006_execute
 1674              		.text
 1675              		.align	2
 1676 0824 AFF30080 		.p2align 4,,15
 1676      AFF30080 
 1676      AFF30080 
 1677              		.thumb
 1678              		.thumb_func
 1679              		.type	test_008_007_setup, %function
 1680              	test_008_007_setup:
 1681              	.LFB295:
 1682              		.loc 7 490 0
 1683              		.cfi_startproc
 1684              		@ args = 0, pretend = 0, frame = 0
 1685              		@ frame_needed = 0, uses_anonymous_args = 0
 1686 0830 08B5     		push	{r3, lr}
 1687              		.cfi_def_cfa_offset 8
 1688              		.cfi_offset 3, -8
ARM GAS  /tmp/ccoREzjN.s 			page 32


 1689              		.cfi_offset 14, -4
 1690              		.loc 7 491 0
 1691 0832 4FF0FF30 		mov	r0, #-1
 1692 0836 FFF7FEFF 		bl	chEvtGetAndClearEvents
 1693              		.loc 7 492 0
 1694 083a 0348     		ldr	r0, .L81
 1695 083c FFF710FC 		bl	chEvtObjectInit
 1696              		.loc 7 493 0
 1697 0840 0248     		ldr	r0, .L81+4
 1698 0842 FFF70DFC 		bl	chEvtObjectInit
 1699              		.loc 7 494 0
 1700 0846 08BD     		pop	{r3, pc}
 1701              	.L82:
 1702              		.align	2
 1703              	.L81:
 1704 0848 00000000 		.word	es1
 1705 084c 04000000 		.word	es2
 1706              		.cfi_endproc
 1707              	.LFE295:
 1708              		.size	test_008_007_setup, .-test_008_007_setup
 1709              		.section	.rodata
 1710              		.align	2
 1711              	.LC17:
 1712 01e4 4100     		.ascii	"A\000"
 1713              		.text
 1714              		.align	2
 1715              		.p2align 4,,15
 1716              		.thumb
 1717              		.thumb_func
 1718              		.type	test_008_007_execute, %function
 1719              	test_008_007_execute:
 1720              	.LFB296:
 1721              		.loc 7 496 0
 1722              		.cfi_startproc
 1723              		@ args = 0, pretend = 0, frame = 48
 1724              		@ frame_needed = 0, uses_anonymous_args = 0
 1725 0850 10B5     		push	{r4, lr}
 1726              		.cfi_def_cfa_offset 8
 1727              		.cfi_offset 4, -8
 1728              		.cfi_offset 14, -4
 1729 0852 8EB0     		sub	sp, sp, #56
 1730              		.cfi_def_cfa_offset 64
 1731              		.loc 7 503 0
 1732 0854 464B     		ldr	r3, .L90
 1733 0856 0122     		movs	r2, #1
 1734 0858 1A60     		str	r2, [r3]
 1735              		.loc 7 505 0
 1736 085a 07AB     		add	r3, sp, #28
 1737 085c 4548     		ldr	r0, .L90+4
 1738 085e 1946     		mov	r1, r3
 1739 0860 0122     		movs	r2, #1
 1740 0862 FFF705FC 		bl	chEvtRegisterMask
 1741              		.loc 7 506 0
 1742 0866 02AB     		add	r3, sp, #8
 1743 0868 4348     		ldr	r0, .L90+8
 1744 086a 1946     		mov	r1, r3
 1745 086c 0422     		movs	r2, #4
ARM GAS  /tmp/ccoREzjN.s 			page 33


 1746 086e FFF7FFFB 		bl	chEvtRegisterMask
 1747              		.loc 7 512 0
 1748 0872 3F4B     		ldr	r3, .L90
 1749 0874 0222     		movs	r2, #2
 1750 0876 1A60     		str	r2, [r3]
 1751              		.loc 7 514 0
 1752 0878 FFF7FEFF 		bl	test_wait_tick
 1753 087c 0346     		mov	r3, r0
 1754 087e 03F5FA73 		add	r3, r3, #500
 1755 0882 0D93     		str	r3, [sp, #52]
 1756              		.loc 7 515 0
 1757 0884 3D4B     		ldr	r3, .L90+12
 1758 0886 1C68     		ldr	r4, [r3]
 1759 0888 FFF7E2FB 		bl	chThdGetPriorityX
 1760 088c 0346     		mov	r3, r0
 1761 088e 5A1E     		subs	r2, r3, #1
 1762 0890 3B4B     		ldr	r3, .L90+16
 1763 0892 0093     		str	r3, [sp]
 1764 0894 2046     		mov	r0, r4
 1765 0896 4FF4A471 		mov	r1, #328
 1766 089a 3A4B     		ldr	r3, .L90+20
 1767 089c FFF7FEFF 		bl	chThdCreateStatic
 1768 08a0 0246     		mov	r2, r0
 1769 08a2 394B     		ldr	r3, .L90+24
 1770 08a4 1A60     		str	r2, [r3]
 1771              		.loc 7 522 0
 1772 08a6 324B     		ldr	r3, .L90
 1773 08a8 0322     		movs	r2, #3
 1774 08aa 1A60     		str	r2, [r3]
 1775              		.loc 7 524 0
 1776 08ac 0520     		movs	r0, #5
 1777 08ae FFF7FEFF 		bl	chEvtWaitAll
 1778 08b2 0C90     		str	r0, [sp, #48]
 1779              		.loc 7 525 0
 1780 08b4 0D9B     		ldr	r3, [sp, #52]
 1781 08b6 1433     		adds	r3, r3, #20
 1782 08b8 0D98     		ldr	r0, [sp, #52]
 1783 08ba 1946     		mov	r1, r3
 1784 08bc 334A     		ldr	r2, .L90+28
 1785 08be FFF7FEFF 		bl	_test_assert_time_window
 1786 08c2 0346     		mov	r3, r0
 1787 08c4 002B     		cmp	r3, #0
 1788 08c6 00D0     		beq	.L84
 1789 08c8 4FE0     		b	.L83
 1790              	.L84:
 1791              		.loc 7 527 0
 1792 08ca 4FF0FF30 		mov	r0, #-1
 1793 08ce FFF7FEFF 		bl	chEvtGetAndClearEvents
 1794 08d2 0C90     		str	r0, [sp, #48]
 1795              		.loc 7 528 0
 1796 08d4 0C9B     		ldr	r3, [sp, #48]
 1797 08d6 002B     		cmp	r3, #0
 1798 08d8 0CBF     		ite	eq
 1799 08da 0123     		moveq	r3, #1
 1800 08dc 0023     		movne	r3, #0
 1801 08de DBB2     		uxtb	r3, r3
 1802 08e0 1846     		mov	r0, r3
ARM GAS  /tmp/ccoREzjN.s 			page 34


 1803 08e2 2B49     		ldr	r1, .L90+32
 1804 08e4 FFF7FEFF 		bl	_test_assert
 1805 08e8 0346     		mov	r3, r0
 1806 08ea 002B     		cmp	r3, #0
 1807 08ec 00D0     		beq	.L86
 1808 08ee 3CE0     		b	.L83
 1809              	.L86:
 1810              		.loc 7 529 0
 1811 08f0 FFF7FEFF 		bl	test_wait_threads
 1812              		.loc 7 533 0
 1813 08f4 1E4B     		ldr	r3, .L90
 1814 08f6 0422     		movs	r2, #4
 1815 08f8 1A60     		str	r2, [r3]
 1816              		.loc 7 535 0
 1817 08fa 07AB     		add	r3, sp, #28
 1818 08fc 1D48     		ldr	r0, .L90+4
 1819 08fe 1946     		mov	r1, r3
 1820 0900 FFF7FEFF 		bl	chEvtUnregister
 1821              		.loc 7 536 0
 1822 0904 02AB     		add	r3, sp, #8
 1823 0906 1C48     		ldr	r0, .L90+8
 1824 0908 1946     		mov	r1, r3
 1825 090a FFF7FEFF 		bl	chEvtUnregister
 1826              		.loc 7 537 0
 1827 090e 1948     		ldr	r0, .L90+4
 1828 0910 FFF7BEFB 		bl	chEvtIsListeningI
 1829 0914 0346     		mov	r3, r0
 1830 0916 002B     		cmp	r3, #0
 1831 0918 14BF     		ite	ne
 1832 091a 0123     		movne	r3, #1
 1833 091c 0023     		moveq	r3, #0
 1834 091e DBB2     		uxtb	r3, r3
 1835 0920 83F00103 		eor	r3, r3, #1
 1836 0924 DBB2     		uxtb	r3, r3
 1837 0926 03F00103 		and	r3, r3, #1
 1838 092a DBB2     		uxtb	r3, r3
 1839 092c 1846     		mov	r0, r3
 1840 092e 1949     		ldr	r1, .L90+36
 1841 0930 FFF7FEFF 		bl	_test_assert
 1842 0934 0346     		mov	r3, r0
 1843 0936 002B     		cmp	r3, #0
 1844 0938 00D0     		beq	.L87
 1845 093a 16E0     		b	.L83
 1846              	.L87:
 1847              		.loc 7 538 0
 1848 093c 0E48     		ldr	r0, .L90+8
 1849 093e FFF7A7FB 		bl	chEvtIsListeningI
 1850 0942 0346     		mov	r3, r0
 1851 0944 002B     		cmp	r3, #0
 1852 0946 14BF     		ite	ne
 1853 0948 0123     		movne	r3, #1
 1854 094a 0023     		moveq	r3, #0
 1855 094c DBB2     		uxtb	r3, r3
 1856 094e 83F00103 		eor	r3, r3, #1
 1857 0952 DBB2     		uxtb	r3, r3
 1858 0954 03F00103 		and	r3, r3, #1
 1859 0958 DBB2     		uxtb	r3, r3
ARM GAS  /tmp/ccoREzjN.s 			page 35


 1860 095a 1846     		mov	r0, r3
 1861 095c 0D49     		ldr	r1, .L90+36
 1862 095e FFF7FEFF 		bl	_test_assert
 1863 0962 0346     		mov	r3, r0
 1864 0964 002B     		cmp	r3, #0
 1865 0966 00D0     		beq	.L83
 1866 0968 00BF     		nop
 1867              	.L83:
 1868              		.loc 7 540 0
 1869 096a 0EB0     		add	sp, sp, #56
 1870              		.cfi_def_cfa_offset 8
 1871              		@ sp needed
 1872 096c 10BD     		pop	{r4, pc}
 1873              	.L91:
 1874 096e 00BF     		.align	2
 1875              	.L90:
 1876 0970 00000000 		.word	test_step
 1877 0974 00000000 		.word	es1
 1878 0978 04000000 		.word	es2
 1879 097c 00000000 		.word	wa
 1880 0980 E4010000 		.word	.LC17
 1881 0984 00000000 		.word	evt_thread7
 1882 0988 00000000 		.word	threads
 1883 098c AC000000 		.word	.LC8
 1884 0990 A0000000 		.word	.LC7
 1885 0994 18000000 		.word	.LC1
 1886              		.cfi_endproc
 1887              	.LFE296:
 1888              		.size	test_008_007_execute, .-test_008_007_execute
 1889              		.section	.rodata
 1890 01e6 0000     		.align	2
 1891              	.LC18:
 1892 01e8 42726F61 		.ascii	"Broadcasting using chEvtBroadcast()\000"
 1892      64636173 
 1892      74696E67 
 1892      20757369 
 1892      6E672063 
 1893              		.align	2
 1894              		.type	test_008_007, %object
 1895              		.size	test_008_007, 16
 1896              	test_008_007:
 1897 020c E8010000 		.word	.LC18
 1898 0210 00000000 		.word	test_008_007_setup
 1899 0214 00000000 		.word	0
 1900 0218 00000000 		.word	test_008_007_execute
 1901              		.global	test_sequence_008
 1902              		.align	2
 1903              		.type	test_sequence_008, %object
 1904              		.size	test_sequence_008, 32
 1905              	test_sequence_008:
 1906 021c 3C000000 		.word	test_008_001
 1907 0220 7C000000 		.word	test_008_002
 1908 0224 FC000000 		.word	test_008_003
 1909 0228 4C010000 		.word	test_008_004
 1910 022c 98010000 		.word	test_008_005
 1911 0230 D4010000 		.word	test_008_006
 1912 0234 0C020000 		.word	test_008_007
ARM GAS  /tmp/ccoREzjN.s 			page 36


 1913 0238 00000000 		.word	0
 1914              		.text
 1915              	.Letext0:
 1916              		.file 8 "/usr/lib/gcc/arm-none-eabi/4.9.3/include/stddef.h"
 1917              		.file 9 "/usr/include/newlib/machine/_default_types.h"
 1918              		.file 10 "/usr/include/newlib/sys/_stdint.h"
 1919              		.file 11 "../../../os/common/ports/ARMCMx/compilers/GCC/chtypes.h"
 1920              		.file 12 "../../../os/rt/include/chsystypes.h"
 1921              		.file 13 "../../../os/rt/include/chschd.h"
 1922              		.file 14 "../../../os/common/ports/ARMCMx/chcore.h"
 1923              		.file 15 "../../../os/rt/include/chtm.h"
 1924              		.file 16 "../../../os/rt/include/chsem.h"
 1925              		.file 17 "../../../os/rt/include/chmtx.h"
 1926              		.file 18 "../../../test/lib/ch_test.h"
 1927              		.file 19 "../../../os/common/ext/CMSIS/include/core_cm4.h"
 1928              		.file 20 "../../../test/rt/source/test/test_root.h"