ARM GAS  /tmp/cc2AKB7B.s 			page 1


   1              		.syntax unified
   2              		.cpu cortex-m4
   3              		.fpu softvfp
   4              		.eabi_attribute 20, 1
   5              		.eabi_attribute 21, 1
   6              		.eabi_attribute 23, 3
   7              		.eabi_attribute 24, 1
   8              		.eabi_attribute 25, 1
   9              		.eabi_attribute 26, 1
  10              		.eabi_attribute 30, 6
  11              		.eabi_attribute 34, 1
  12              		.eabi_attribute 18, 4
  13              		.thumb
  14              		.file	"test_root.c"
  15              		.text
  16              	.Ltext0:
  17              		.cfi_sections	.debug_frame
  18              		.align	2
  19              		.p2align 4,,15
  20              		.thumb
  21              		.thumb_func
  22              		.type	port_lock, %function
  23              	port_lock:
  24              	.LFB127:
  25              		.file 1 "../../../os/common/ports/ARMCMx/chcore_v7m.h"
  26              		.loc 1 594 0
  27              		.cfi_startproc
  28              		@ args = 0, pretend = 0, frame = 8
  29              		@ frame_needed = 0, uses_anonymous_args = 0
  30              		@ link register save eliminated.
  31 0000 82B0     		sub	sp, sp, #8
  32              		.cfi_def_cfa_offset 8
  33 0002 2023     		movs	r3, #32
  34 0004 0193     		str	r3, [sp, #4]
  35              	.LBB6:
  36              	.LBB7:
  37              		.file 2 "../../../os/common/ext/CMSIS/include/cmsis_gcc.h"
  38              		.loc 2 264 0
  39 0006 019B     		ldr	r3, [sp, #4]
  40              	@ 264 "../../../os/common/ext/CMSIS/include/cmsis_gcc.h" 1
  41 0008 83F31188 		MSR basepri, r3
  42              	@ 0 "" 2
  43              		.thumb
  44              	.LBE7:
  45              	.LBE6:
  46              		.loc 1 611 0
  47 000c 02B0     		add	sp, sp, #8
  48              		.cfi_def_cfa_offset 0
  49              		@ sp needed
  50 000e 7047     		bx	lr
  51              		.cfi_endproc
  52              	.LFE127:
  53              		.size	port_lock, .-port_lock
  54              		.align	2
  55              		.p2align 4,,15
  56              		.thumb
  57              		.thumb_func
ARM GAS  /tmp/cc2AKB7B.s 			page 2


  58              		.type	port_unlock, %function
  59              	port_unlock:
  60              	.LFB128:
  61              		.loc 1 618 0
  62              		.cfi_startproc
  63              		@ args = 0, pretend = 0, frame = 8
  64              		@ frame_needed = 0, uses_anonymous_args = 0
  65              		@ link register save eliminated.
  66 0010 82B0     		sub	sp, sp, #8
  67              		.cfi_def_cfa_offset 8
  68 0012 0023     		movs	r3, #0
  69 0014 0193     		str	r3, [sp, #4]
  70              	.LBB8:
  71              	.LBB9:
  72              		.loc 2 264 0
  73 0016 019B     		ldr	r3, [sp, #4]
  74              	@ 264 "../../../os/common/ext/CMSIS/include/cmsis_gcc.h" 1
  75 0018 83F31188 		MSR basepri, r3
  76              	@ 0 "" 2
  77              		.thumb
  78              	.LBE9:
  79              	.LBE8:
  80              		.loc 1 625 0
  81 001c 02B0     		add	sp, sp, #8
  82              		.cfi_def_cfa_offset 0
  83              		@ sp needed
  84 001e 7047     		bx	lr
  85              		.cfi_endproc
  86              	.LFE128:
  87              		.size	port_unlock, .-port_unlock
  88              		.align	2
  89              		.p2align 4,,15
  90              		.thumb
  91              		.thumb_func
  92              		.type	st_lld_get_counter, %function
  93              	st_lld_get_counter:
  94              	.LFB136:
  95              		.file 3 "../../../os/hal/ports/STM32/LLD/TIMv1/hal_st_lld.h"
  96              		.loc 3 139 0
  97              		.cfi_startproc
  98              		@ args = 0, pretend = 0, frame = 0
  99              		@ frame_needed = 0, uses_anonymous_args = 0
 100              		@ link register save eliminated.
 101              		.loc 3 141 0
 102 0020 4FF08043 		mov	r3, #1073741824
 103 0024 5B6A     		ldr	r3, [r3, #36]
 104              		.loc 3 142 0
 105 0026 1846     		mov	r0, r3
 106 0028 7047     		bx	lr
 107              		.cfi_endproc
 108              	.LFE136:
 109              		.size	st_lld_get_counter, .-st_lld_get_counter
 110 002a 00BF     		.align	2
 111 002c AFF30080 		.p2align 4,,15
 112              		.thumb
 113              		.thumb_func
 114              		.type	port_timer_get_time, %function
ARM GAS  /tmp/cc2AKB7B.s 			page 3


 115              	port_timer_get_time:
 116              	.LFB145:
 117              		.file 4 "../../../os/common/ports/ARMCMx/chcore_timer.h"
 118              		.loc 4 105 0
 119              		.cfi_startproc
 120              		@ args = 0, pretend = 0, frame = 0
 121              		@ frame_needed = 0, uses_anonymous_args = 0
 122 0030 08B5     		push	{r3, lr}
 123              		.cfi_def_cfa_offset 8
 124              		.cfi_offset 3, -8
 125              		.cfi_offset 14, -4
 126              		.loc 4 107 0
 127 0032 FFF7F5FF 		bl	st_lld_get_counter
 128 0036 0346     		mov	r3, r0
 129              		.loc 4 108 0
 130 0038 1846     		mov	r0, r3
 131 003a 08BD     		pop	{r3, pc}
 132              		.cfi_endproc
 133              	.LFE145:
 134              		.size	port_timer_get_time, .-port_timer_get_time
 135              		.align	2
 136 003c AFF30080 		.p2align 4,,15
 137              		.thumb
 138              		.thumb_func
 139              		.type	chSysLock, %function
 140              	chSysLock:
 141              	.LFB167:
 142              		.file 5 "../../../os/rt/include/chsys.h"
 143              		.loc 5 374 0
 144              		.cfi_startproc
 145              		@ args = 0, pretend = 0, frame = 0
 146              		@ frame_needed = 0, uses_anonymous_args = 0
 147 0040 08B5     		push	{r3, lr}
 148              		.cfi_def_cfa_offset 8
 149              		.cfi_offset 3, -8
 150              		.cfi_offset 14, -4
 151              		.loc 5 376 0
 152 0042 FFF7DDFF 		bl	port_lock
 153              		.loc 5 379 0
 154 0046 08BD     		pop	{r3, pc}
 155              		.cfi_endproc
 156              	.LFE167:
 157              		.size	chSysLock, .-chSysLock
 158              		.align	2
 159 0048 AFF30080 		.p2align 4,,15
 159      AFF30080 
 160              		.thumb
 161              		.thumb_func
 162              		.type	chSysUnlock, %function
 163              	chSysUnlock:
 164              	.LFB168:
 165              		.loc 5 386 0
 166              		.cfi_startproc
 167              		@ args = 0, pretend = 0, frame = 0
 168              		@ frame_needed = 0, uses_anonymous_args = 0
 169 0050 08B5     		push	{r3, lr}
 170              		.cfi_def_cfa_offset 8
ARM GAS  /tmp/cc2AKB7B.s 			page 4


 171              		.cfi_offset 3, -8
 172              		.cfi_offset 14, -4
 173              		.loc 5 399 0
 174 0052 FFF7DDFF 		bl	port_unlock
 175              		.loc 5 400 0
 176 0056 08BD     		pop	{r3, pc}
 177              		.cfi_endproc
 178              	.LFE168:
 179              		.size	chSysUnlock, .-chSysUnlock
 180              		.align	2
 181 0058 AFF30080 		.p2align 4,,15
 181      AFF30080 
 182              		.thumb
 183              		.thumb_func
 184              		.type	chVTGetSystemTimeX, %function
 185              	chVTGetSystemTimeX:
 186              	.LFB181:
 187              		.file 6 "../../../os/rt/include/chvt.h"
 188              		.loc 6 392 0
 189              		.cfi_startproc
 190              		@ args = 0, pretend = 0, frame = 0
 191              		@ frame_needed = 0, uses_anonymous_args = 0
 192 0060 08B5     		push	{r3, lr}
 193              		.cfi_def_cfa_offset 8
 194              		.cfi_offset 3, -8
 195              		.cfi_offset 14, -4
 196              		.loc 6 397 0
 197 0062 FFF7E5FF 		bl	port_timer_get_time
 198 0066 0346     		mov	r3, r0
 199              		.loc 6 399 0
 200 0068 1846     		mov	r0, r3
 201 006a 08BD     		pop	{r3, pc}
 202              		.cfi_endproc
 203              	.LFE181:
 204              		.size	chVTGetSystemTimeX, .-chVTGetSystemTimeX
 205              		.align	2
 206 006c AFF30080 		.p2align 4,,15
 207              		.thumb
 208              		.thumb_func
 209              		.type	chVTGetSystemTime, %function
 210              	chVTGetSystemTime:
 211              	.LFB182:
 212              		.loc 6 411 0
 213              		.cfi_startproc
 214              		@ args = 0, pretend = 0, frame = 8
 215              		@ frame_needed = 0, uses_anonymous_args = 0
 216 0070 00B5     		push	{lr}
 217              		.cfi_def_cfa_offset 4
 218              		.cfi_offset 14, -4
 219 0072 83B0     		sub	sp, sp, #12
 220              		.cfi_def_cfa_offset 16
 221              		.loc 6 414 0
 222 0074 FFF7E4FF 		bl	chSysLock
 223              		.loc 6 415 0
 224 0078 FFF7F2FF 		bl	chVTGetSystemTimeX
 225 007c 0190     		str	r0, [sp, #4]
 226              		.loc 6 416 0
ARM GAS  /tmp/cc2AKB7B.s 			page 5


 227 007e FFF7E7FF 		bl	chSysUnlock
 228              		.loc 6 418 0
 229 0082 019B     		ldr	r3, [sp, #4]
 230              		.loc 6 419 0
 231 0084 1846     		mov	r0, r3
 232 0086 03B0     		add	sp, sp, #12
 233              		.cfi_def_cfa_offset 4
 234              		@ sp needed
 235 0088 5DF804FB 		ldr	pc, [sp], #4
 236              		.cfi_endproc
 237              	.LFE182:
 238              		.size	chVTGetSystemTime, .-chVTGetSystemTime
 239              		.global	test_suite
 240              		.data
 241              		.align	2
 242              		.type	test_suite, %object
 243              		.size	test_suite, 56
 244              	test_suite:
 245 0000 00000000 		.word	test_sequence_001
 246 0004 00000000 		.word	test_sequence_002
 247 0008 00000000 		.word	test_sequence_003
 248 000c 00000000 		.word	test_sequence_004
 249 0010 00000000 		.word	test_sequence_005
 250 0014 00000000 		.word	test_sequence_006
 251 0018 00000000 		.word	test_sequence_007
 252 001c 00000000 		.word	test_sequence_008
 253 0020 00000000 		.word	test_sequence_009
 254 0024 00000000 		.word	test_sequence_010
 255 0028 00000000 		.word	test_sequence_011
 256 002c 00000000 		.word	test_sequence_012
 257 0030 00000000 		.word	test_sequence_013
 258 0034 00000000 		.word	0
 259              		.section	.rodata
 260              		.align	2
 261              	.LC0:
 262 0000 2A2A2A20 		.ascii	"*** Compiler:     \000"
 262      436F6D70 
 262      696C6572 
 262      3A202020 
 262      202000
 263 0013 00       		.align	2
 264              	.LC1:
 265 0014 47434320 		.ascii	"GCC 4.9.3 20150529 (prerelease)\000"
 265      342E392E 
 265      33203230 
 265      31353035 
 265      32392028 
 266              		.align	2
 267              	.LC2:
 268 0034 2A2A2A20 		.ascii	"*** Architecture: \000"
 268      41726368 
 268      69746563 
 268      74757265 
 268      3A2000
 269 0047 00       		.align	2
 270              	.LC3:
 271 0048 41524D76 		.ascii	"ARMv7E-M\000"
ARM GAS  /tmp/cc2AKB7B.s 			page 6


 271      37452D4D 
 271      00
 272 0051 000000   		.align	2
 273              	.LC4:
 274 0054 2A2A2A20 		.ascii	"*** Core Variant: \000"
 274      436F7265 
 274      20566172 
 274      69616E74 
 274      3A2000
 275 0067 00       		.align	2
 276              	.LC5:
 277 0068 436F7274 		.ascii	"Cortex-M4\000"
 277      65782D4D 
 277      3400
 278 0072 0000     		.align	2
 279              	.LC6:
 280 0074 2A2A2A20 		.ascii	"*** Port Info:    \000"
 280      506F7274 
 280      20496E66 
 280      6F3A2020 
 280      202000
 281 0087 00       		.align	2
 282              	.LC7:
 283 0088 41647661 		.ascii	"Advanced kernel mode\000"
 283      6E636564 
 283      206B6572 
 283      6E656C20 
 283      6D6F6465 
 284              		.text
 285              		.align	2
 286 008c AFF30080 		.p2align 4,,15
 287              		.global	test_print_port_info
 288              		.thumb
 289              		.thumb_func
 290              		.type	test_print_port_info, %function
 291              	test_print_port_info:
 292              	.LFB279:
 293              		.file 7 "../../../test/rt/source/test/test_root.c"
 294              		.loc 7 95 0
 295              		.cfi_startproc
 296              		@ args = 0, pretend = 0, frame = 0
 297              		@ frame_needed = 0, uses_anonymous_args = 0
 298 0090 08B5     		push	{r3, lr}
 299              		.cfi_def_cfa_offset 8
 300              		.cfi_offset 3, -8
 301              		.cfi_offset 14, -4
 302              		.loc 7 98 0
 303 0092 0C48     		ldr	r0, .L14
 304 0094 FFF7FEFF 		bl	test_print
 305              		.loc 7 99 0
 306 0098 0B48     		ldr	r0, .L14+4
 307 009a FFF7FEFF 		bl	test_println
 308              		.loc 7 101 0
 309 009e 0B48     		ldr	r0, .L14+8
 310 00a0 FFF7FEFF 		bl	test_print
 311              		.loc 7 102 0
 312 00a4 0A48     		ldr	r0, .L14+12
ARM GAS  /tmp/cc2AKB7B.s 			page 7


 313 00a6 FFF7FEFF 		bl	test_println
 314              		.loc 7 104 0
 315 00aa 0A48     		ldr	r0, .L14+16
 316 00ac FFF7FEFF 		bl	test_print
 317              		.loc 7 105 0
 318 00b0 0948     		ldr	r0, .L14+20
 319 00b2 FFF7FEFF 		bl	test_println
 320              		.loc 7 108 0
 321 00b6 0948     		ldr	r0, .L14+24
 322 00b8 FFF7FEFF 		bl	test_print
 323              		.loc 7 109 0
 324 00bc 0848     		ldr	r0, .L14+28
 325 00be FFF7FEFF 		bl	test_println
 326              		.loc 7 111 0
 327 00c2 08BD     		pop	{r3, pc}
 328              	.L15:
 329              		.align	2
 330              	.L14:
 331 00c4 00000000 		.word	.LC0
 332 00c8 14000000 		.word	.LC1
 333 00cc 34000000 		.word	.LC2
 334 00d0 48000000 		.word	.LC3
 335 00d4 54000000 		.word	.LC4
 336 00d8 68000000 		.word	.LC5
 337 00dc 74000000 		.word	.LC6
 338 00e0 88000000 		.word	.LC7
 339              		.cfi_endproc
 340              	.LFE279:
 341              		.size	test_print_port_info, .-test_print_port_info
 342              		.comm	test_buffer,1640,8
 343              		.comm	threads,20,4
 344              		.global	wa
 345              		.section	.rodata
 346 009d 000000   		.align	2
 347              		.type	wa, %object
 348              		.size	wa, 20
 349              	wa:
 350 00a0 00000000 		.word	test_buffer
 351 00a4 48010000 		.word	test_buffer+328
 352 00a8 90020000 		.word	test_buffer+656
 353 00ac D8030000 		.word	test_buffer+984
 354 00b0 20050000 		.word	test_buffer+1312
 355              		.text
 356              		.align	2
 357 00e4 AFF30080 		.p2align 4,,15
 357      AFF30080 
 357      AFF30080 
 358              		.global	test_terminate_threads
 359              		.thumb
 360              		.thumb_func
 361              		.type	test_terminate_threads, %function
 362              	test_terminate_threads:
 363              	.LFB280:
 364              		.loc 7 135 0
 365              		.cfi_startproc
 366              		@ args = 0, pretend = 0, frame = 8
 367              		@ frame_needed = 0, uses_anonymous_args = 0
ARM GAS  /tmp/cc2AKB7B.s 			page 8


 368 00f0 00B5     		push	{lr}
 369              		.cfi_def_cfa_offset 4
 370              		.cfi_offset 14, -4
 371 00f2 83B0     		sub	sp, sp, #12
 372              		.cfi_def_cfa_offset 16
 373              		.loc 7 138 0
 374 00f4 0023     		movs	r3, #0
 375 00f6 0193     		str	r3, [sp, #4]
 376 00f8 0FE0     		b	.L17
 377              	.L19:
 378              		.loc 7 139 0
 379 00fa 0B4A     		ldr	r2, .L20
 380 00fc 019B     		ldr	r3, [sp, #4]
 381 00fe 52F82330 		ldr	r3, [r2, r3, lsl #2]
 382 0102 002B     		cmp	r3, #0
 383 0104 06D0     		beq	.L18
 384              		.loc 7 140 0
 385 0106 084A     		ldr	r2, .L20
 386 0108 019B     		ldr	r3, [sp, #4]
 387 010a 52F82330 		ldr	r3, [r2, r3, lsl #2]
 388 010e 1846     		mov	r0, r3
 389 0110 FFF7FEFF 		bl	chThdTerminate
 390              	.L18:
 391              		.loc 7 138 0 discriminator 2
 392 0114 019B     		ldr	r3, [sp, #4]
 393 0116 0133     		adds	r3, r3, #1
 394 0118 0193     		str	r3, [sp, #4]
 395              	.L17:
 396              		.loc 7 138 0 is_stmt 0 discriminator 1
 397 011a 019B     		ldr	r3, [sp, #4]
 398 011c 042B     		cmp	r3, #4
 399 011e ECD9     		bls	.L19
 400              		.loc 7 141 0 is_stmt 1
 401 0120 03B0     		add	sp, sp, #12
 402              		.cfi_def_cfa_offset 4
 403              		@ sp needed
 404 0122 5DF804FB 		ldr	pc, [sp], #4
 405              	.L21:
 406 0126 00BF     		.align	2
 407              	.L20:
 408 0128 00000000 		.word	threads
 409              		.cfi_endproc
 410              	.LFE280:
 411              		.size	test_terminate_threads, .-test_terminate_threads
 412              		.align	2
 413 012c AFF30080 		.p2align 4,,15
 414              		.global	test_wait_threads
 415              		.thumb
 416              		.thumb_func
 417              		.type	test_wait_threads, %function
 418              	test_wait_threads:
 419              	.LFB281:
 420              		.loc 7 146 0
 421              		.cfi_startproc
 422              		@ args = 0, pretend = 0, frame = 8
 423              		@ frame_needed = 0, uses_anonymous_args = 0
 424 0130 00B5     		push	{lr}
ARM GAS  /tmp/cc2AKB7B.s 			page 9


 425              		.cfi_def_cfa_offset 4
 426              		.cfi_offset 14, -4
 427 0132 83B0     		sub	sp, sp, #12
 428              		.cfi_def_cfa_offset 16
 429              		.loc 7 149 0
 430 0134 0023     		movs	r3, #0
 431 0136 0193     		str	r3, [sp, #4]
 432 0138 14E0     		b	.L23
 433              	.L25:
 434              		.loc 7 150 0
 435 013a 0D4A     		ldr	r2, .L26
 436 013c 019B     		ldr	r3, [sp, #4]
 437 013e 52F82330 		ldr	r3, [r2, r3, lsl #2]
 438 0142 002B     		cmp	r3, #0
 439 0144 0BD0     		beq	.L24
 440              		.loc 7 151 0
 441 0146 0A4A     		ldr	r2, .L26
 442 0148 019B     		ldr	r3, [sp, #4]
 443 014a 52F82330 		ldr	r3, [r2, r3, lsl #2]
 444 014e 1846     		mov	r0, r3
 445 0150 FFF7FEFF 		bl	chThdWait
 446              		.loc 7 152 0
 447 0154 064A     		ldr	r2, .L26
 448 0156 019B     		ldr	r3, [sp, #4]
 449 0158 0021     		movs	r1, #0
 450 015a 42F82310 		str	r1, [r2, r3, lsl #2]
 451              	.L24:
 452              		.loc 7 149 0 discriminator 2
 453 015e 019B     		ldr	r3, [sp, #4]
 454 0160 0133     		adds	r3, r3, #1
 455 0162 0193     		str	r3, [sp, #4]
 456              	.L23:
 457              		.loc 7 149 0 is_stmt 0 discriminator 1
 458 0164 019B     		ldr	r3, [sp, #4]
 459 0166 042B     		cmp	r3, #4
 460 0168 E7D9     		bls	.L25
 461              		.loc 7 154 0 is_stmt 1
 462 016a 03B0     		add	sp, sp, #12
 463              		.cfi_def_cfa_offset 4
 464              		@ sp needed
 465 016c 5DF804FB 		ldr	pc, [sp], #4
 466              	.L27:
 467              		.align	2
 468              	.L26:
 469 0170 00000000 		.word	threads
 470              		.cfi_endproc
 471              	.LFE281:
 472              		.size	test_wait_threads, .-test_wait_threads
 473              		.align	2
 474 0174 AFF30080 		.p2align 4,,15
 474      AFF30080 
 474      AFF30080 
 475              		.global	test_wait_tick
 476              		.thumb
 477              		.thumb_func
 478              		.type	test_wait_tick, %function
 479              	test_wait_tick:
ARM GAS  /tmp/cc2AKB7B.s 			page 10


 480              	.LFB282:
 481              		.loc 7 159 0
 482              		.cfi_startproc
 483              		@ args = 0, pretend = 0, frame = 0
 484              		@ frame_needed = 0, uses_anonymous_args = 0
 485 0180 08B5     		push	{r3, lr}
 486              		.cfi_def_cfa_offset 8
 487              		.cfi_offset 3, -8
 488              		.cfi_offset 14, -4
 489              		.loc 7 161 0
 490 0182 0120     		movs	r0, #1
 491 0184 FFF7FEFF 		bl	chThdSleep
 492              		.loc 7 162 0
 493 0188 FFF772FF 		bl	chVTGetSystemTime
 494 018c 0346     		mov	r3, r0
 495              		.loc 7 163 0
 496 018e 1846     		mov	r0, r3
 497 0190 08BD     		pop	{r3, pc}
 498              		.cfi_endproc
 499              	.LFE282:
 500              		.size	test_wait_tick, .-test_wait_tick
 501              	.Letext0:
 502              		.file 8 "/usr/lib/gcc/arm-none-eabi/4.9.3/include/stddef.h"
 503              		.file 9 "/usr/include/newlib/machine/_default_types.h"
 504              		.file 10 "/usr/include/newlib/sys/_stdint.h"
 505              		.file 11 "../../../os/common/ports/ARMCMx/compilers/GCC/chtypes.h"
 506              		.file 12 "../../../os/rt/include/chsystypes.h"
 507              		.file 13 "../../../os/rt/include/chschd.h"
 508              		.file 14 "../../../os/common/ports/ARMCMx/chcore.h"
 509              		.file 15 "../../../os/hal/ports/STM32/LLD/TIMv1/stm32_tim.h"
 510              		.file 16 "../../../os/rt/include/chtm.h"
 511              		.file 17 "../../../os/rt/include/chsem.h"
 512              		.file 18 "../../../os/rt/include/chmtx.h"
 513              		.file 19 "../../../test/lib/ch_test.h"
 514              		.file 20 "../../../os/common/ext/CMSIS/include/core_cm4.h"
 515              		.file 21 "../../../test/rt/source/test/test_sequence_001.h"
 516              		.file 22 "../../../test/rt/source/test/test_sequence_002.h"
 517              		.file 23 "../../../test/rt/source/test/test_sequence_003.h"
 518              		.file 24 "../../../test/rt/source/test/test_sequence_004.h"
 519              		.file 25 "../../../test/rt/source/test/test_sequence_005.h"
 520              		.file 26 "../../../test/rt/source/test/test_sequence_006.h"
 521              		.file 27 "../../../test/rt/source/test/test_sequence_007.h"
 522              		.file 28 "../../../test/rt/source/test/test_sequence_008.h"
 523              		.file 29 "../../../test/rt/source/test/test_sequence_009.h"
 524              		.file 30 "../../../test/rt/source/test/test_sequence_010.h"
 525              		.file 31 "../../../test/rt/source/test/test_sequence_011.h"
 526              		.file 32 "../../../test/rt/source/test/test_sequence_012.h"
 527              		.file 33 "../../../test/rt/source/test/test_sequence_013.h"