ARM GAS  /tmp/cc2AKB7B.s 			page 1


   1              		.syntax unified
   2              		.cpu cortex-m4
   3              		.fpu softvfp
   4              		.eabi_attribute 20, 1
   5              		.eabi_attribute 21, 1
   6              		.eabi_attribute 23, 3
   7              		.eabi_attribute 24, 1
   8              		.eabi_attribute 25, 1
   9              		.eabi_attribute 26, 1
  10              		.eabi_attribute 30, 6
  11              		.eabi_attribute 34, 1
  12              		.eabi_attribute 18, 4
  13              		.thumb
  14              		.file	"test_root.c"
  15              		.text
  16              	.Ltext0:
  17              		.cfi_sections	.debug_frame
  18              		.align	2
  19              		.p2align 4,,15
  20              		.thumb
  21              		.thumb_func
  22              		.type	port_lock, %function
  23              	port_lock:
  24              	.LFB127:
  25              		.file 1 "../../../os/common/ports/ARMCMx/chcore_v7m.h"
  26              		.loc 1 594 0
  27              		.cfi_startproc
  28              		@ args = 0, pretend = 0, frame = 8
  29              		@ frame_needed = 0, uses_anonymous_args = 0
  30              		@ link register save eliminated.
  31 0000 82B0     		sub	sp, sp, #8
  32              		.cfi_def_cfa_offset 8
  33 0002 2023     		movs	r3, #32
  34 0004 0193     		str	r3, [sp, #4]
  35              	.LBB6:
  36              	.LBB7:
  37              		.file 2 "../../../os/common/ext/CMSIS/include/cmsis_gcc.h"
  38              		.loc 2 264 0
  39 0006 019B     		ldr	r3, [sp, #4]
  40              	@ 264 "../../../os/common/ext/CMSIS/include/cmsis_gcc.h" 1
  41 0008 83F31188 		MSR basepri, r3
  42              	@ 0 "" 2
  43              		.thumb
  44              	.LBE7:
  45              	.LBE6:
  46              		.loc 1 611 0
  47 000c 02B0     		add	sp, sp, #8
  48              		.cfi_def_cfa_offset 0
  49              		@ sp needed
  50 000e 7047     		bx	lr
  51              		.cfi_endproc
  52              	.LFE127:
  53              		.size	port_lock, .-port_lock
  54              		.align	2
  55              		.p2align 4,,15
  56              		.thumb
  57              		.thumb_func
ARM GAS  /tmp/cc2AKB7B.s 			page 2


  58              		.type	port_unlock, %function
  59              	port_unlock:
  60              	.LFB128:
  61              		.loc 1 618 0
  62              		.cfi_startproc
  63              		@ args = 0, pretend = 0, frame = 8
  64              		@ frame_needed = 0, uses_anonymous_args = 0
  65              		@ link register save eliminated.
  66 0010 82B0     		sub	sp, sp, #8
  67              		.cfi_def_cfa_offset 8
  68 0012 0023     		movs	r3, #0
  69 0014 0193     		str	r3, [sp, #4]
  70              	.LBB8:
  71              	.LBB9:
  72              		.loc 2 264 0
  73 0016 019B     		ldr	r3, [sp, #4]
  74              	@ 264 "../../../os/common/ext/CMSIS/include/cmsis_gcc.h" 1
  75 0018 83F31188 		MSR basepri, r3
  76              	@ 0 "" 2
  77              		.thumb
  78              	.LBE9:
  79              	.LBE8:
  80              		.loc 1 625 0
  81 001c 02B0     		add	sp, sp, #8
  82              		.cfi_def_cfa_offset 0
  83              		@ sp needed
  84 001e 7047     		bx	lr
  85              		.cfi_endproc
  86              	.LFE128:
  87              		.size	port_unlock, .-port_unlock
  88              		.align	2
  89              		.p2align 4,,15
  90              		.thumb
  91              		.thumb_func
  92              		.type	st_lld_get_counter, %function
  93              	st_lld_get_counter:
  94              	.LFB136:
  95              		.file 3 "../../../os/hal/ports/STM32/LLD/TIMv1/hal_st_lld.h"
  96              		.loc 3 139 0
  97              		.cfi_startproc
  98              		@ args = 0, pretend = 0, frame = 0
  99              		@ frame_needed = 0, uses_anonymous_args = 0
 100              		@ link register save eliminated.
 101              		.loc 3 141 0
 102 0020 4FF08043 		mov	r3, #1073741824
 103 0024 5B6A     		ldr	r3, [r3, #36]
 104              		.loc 3 142 0
 105 0026 1846     		mov	r0, r3
 106 0028 7047     		bx	lr
 107              		.cfi_endproc
 108              	.LFE136:
 109              		.size	st_lld_get_counter, .-st_lld_get_counter
 110 002a 00BF     		.align	2
 111 002c AFF30080 		.p2align 4,,15
 112              		.thumb
 113              		.thumb_func
 114              		.type	port_timer_get_time, %function
ARM GAS  /tmp/cc2AKB7B.s 			page 3


 115              	port_timer_get_time:
 116              	.LFB145:
 117              		.file 4 "../../../os/common/ports/ARMCMx/chcore_timer.h"
 118              		.loc 4 105 0
 119              		.cfi_startproc
 120              		@ args = 0, pretend = 0, frame = 0
 121              		@ frame_needed = 0, uses_anonymous_args = 0
 122 0030 08B5     		push	{r3, lr}
 123              		.cfi_def_cfa_offset 8
 124              		.cfi_offset 3, -8
 125              		.cfi_offset 14, -4
 126              		.loc 4 107 0
 127 0032 FFF7F5FF 		bl	st_lld_get_counter
 128 0036 0346     		mov	r3, r0
 129              		.loc 4 108 0
 130 0038 1846     		mov	r0, r3
 131 003a 08BD     		pop	{r3, pc}
 132              		.cfi_endproc
 133              	.LFE145:
 134              		.size	port_timer_get_time, .-port_timer_get_time
 135              		.align	2
 136 003c AFF30080 		.p2align 4,,15
 137              		.thumb
 138              		.thumb_func
 139              		.type	chSysLock, %function
 140              	chSysLock:
 141              	.LFB167:
 142              		.file 5 "../../../os/rt/include/chsys.h"
 143              		.loc 5 374 0
 144              		.cfi_startproc
 145              		@ args = 0, pretend = 0, frame = 0
 146              		@ frame_needed = 0, uses_anonymous_args = 0
 147 0040 08B5     		push	{r3, lr}
 148              		.cfi_def_cfa_offset 8
 149              		.cfi_offset 3, -8
 150              		.cfi_offset 14, -4
 151              		.loc 5 376 0
 152 0042 FFF7DDFF 		bl	port_lock
 153              		.loc 5 379 0
 154 0046 08BD     		pop	{r3, pc}
 155              		.cfi_endproc
 156              	.LFE167:
 157              		.size	chSysLock, .-chSysLock
 158              		.align	2
 159 0048 AFF30080 		.p2align 4,,15
 159      AFF30080 
 160              		.thumb
 161              		.thumb_func
 162              		.type	chSysUnlock, %function
 163              	chSysUnlock:
 164              	.LFB168:
 165              		.loc 5 386 0
 166              		.cfi_startproc
 167              		@ args = 0, pretend = 0, frame = 0
 168              		@ frame_needed = 0, uses_anonymous_args = 0
 169 0050 08B5     		push	{r3, lr}
 170              		.cfi_def_cfa_offset 8
ARM GAS  /tmp/cc2AKB7B.s 			page 4


 171              		.cfi_offset 3, -8
 172              		.cfi_offset 14, -4
 173              		.loc 5 399 0
 174 0052 FFF7DDFF 		bl	port_unlock
 175              		.loc 5 400 0
 176 0056 08BD     		pop	{r3, pc}
 177              		.cfi_endproc
 178              	.LFE168:
 179              		.size	chSysUnlock, .-chSysUnlock
 180              		.align	2
 181 0058 AFF30080 		.p2align 4,,15
 181      AFF30080 
 182              		.thumb
 183              		.thumb_func
 184              		.type	chVTGetSystemTimeX, %function
 185              	chVTGetSystemTimeX:
 186              	.LFB181:
 187              		.file 6 "../../../os/rt/include/chvt.h"
 188              		.loc 6 392 0
 189              		.cfi_startproc
 190              		@ args = 0, pretend = 0, frame = 0
 191              		@ frame_needed = 0, uses_anonymous_args = 0
 192 0060 08B5     		push	{r3, lr}
 193              		.cfi_def_cfa_offset 8
 194              		.cfi_offset 3, -8
 195              		.cfi_offset 14, -4
 196              		.loc 6 397 0
 197 0062 FFF7E5FF 		bl	port_timer_get_time
 198 0066 0346     		mov	r3, r0
 199              		.loc 6 399 0
 200 0068 1846     		mov	r0, r3
 201 006a 08BD     		pop	{r3, pc}
 202              		.cfi_endproc
 203              	.LFE181:
 204              		.size	chVTGetSystemTimeX, .-chVTGetSystemTimeX
 205              		.align	2
 206 006c AFF30080 		.p2align 4,,15
 207              		.thumb
 208              		.thumb_func
 209              		.type	chVTGetSystemTime, %function
 210              	chVTGetSystemTime:
 211              	.LFB182:
 212              		.loc 6 411 0
 213              		.cfi_startproc
 214              		@ args = 0, pretend = 0, frame = 8
 215              		@ frame_needed = 0, uses_anonymous_args = 0
 216 0070 00B5     		push	{lr}
 217              		.cfi_def_cfa_offset 4
 218              		.cfi_offset 14, -4
 219 0072 83B0     		sub	sp, sp, #12
 220              		.cfi_def_cfa_offset 16
 221              		.loc 6 414 0
 222 0074 FFF7E4FF 		bl	chSysLock
 223              		.loc 6 415 0
 224 0078 FFF7F2FF 		bl	chVTGetSystemTimeX
 225 007c 0190     		str	r0, [sp, #4]
 226              		.loc 6 416 0
ARM GAS  /tmp/cc2AKB7B.s 			page 5


 227 007e FFF7E7FF 		bl	chSysUnlock
 228              		.loc 6 418 0
 229 0082 019B     		ldr	r3, [sp, #4]
 230              		.loc 6 419 0
 231 0084 1846     		mov	r0, r3
 232 0086 03B0     		add	sp, sp, #12
 233              		.cfi_def_cfa_offset 4
 234              		@ sp needed
 235 0088 5DF804FB 		ldr	pc, [sp], #4
 236              		.cfi_endproc
 237              	.LFE182:
 238              		.size	chVTGetSystemTime, .-chVTGetSystemTime
 239              		.global	test_suite
 240              		.data
 241              		.align	2
 242              		.type	test_suite, %object
 243              		.size	test_suite, 56
 244              	test_suite:
 245 0000 00000000 		.word	test_sequence_001
 246 0004 00000000 		.word	test_sequence_002
 247 0008 00000000 		.word	test_sequence_003
 248 000c 00000000 		.word	test_sequence_004
 249 0010 00000000 		.word	test_sequence_005
 250 0014 00000000 		.word	test_sequence_006
 251 0018 00000000 		.word	test_sequence_007
 252 001c 00000000 		.word	test_sequence_008
 253 0020 00000000 		.word	test_sequence_009
 254 0024 00000000 		.word	test_sequence_010
 255 0028 00000000 		.word	test_sequence_011
 256 002c 00000000 		.word	test_sequence_012
 257 0030 00000000 		.word	test_sequence_013
 258 0034 00000000 		.word	0
 259              		.section	.rodata
 260              		.align	2
 261              	.LC0:
 262 0000 2A2A2A20 		.ascii	"*** Compiler:     \000"
 262      436F6D70 
 262      696C6572 
 262      3A202020 
 262      202000
 263 0013 00       		.align	2
 264              	.LC1:
 265 0014 47434320 		.ascii	"GCC 4.9.3 20150529 (prerelease)\000"
 265      342E392E 
 265      33203230 
 265      31353035 
 265      32392028 
 266              		.align	2
 267              	.LC2:
 268 0034 2A2A2A20 		.ascii	"*** Architecture: \000"
 268      41726368 
 268      69746563 
 268      74757265 
 268      3A2000
 269 0047 00       		.align	2
 270              	.LC3:
 271 0048 41524D76 		.ascii	"ARMv7E-M\000"
ARM GAS  /tmp/cc2AKB7B.s 			page 6


 271      37452D4D 
 271      00
 272 0051 000000   		.align	2
 273              	.LC4:
 274 0054 2A2A2A20 		.ascii	"*** Core Variant: \000"
 274      436F7265 
 274      20566172 
 274      69616E74 
 274      3A2000
 275 0067 00       		.align	2
 276              	.LC5:
 277 0068 436F7274 		.ascii	"Cortex-M4\000"
 277      65782D4D 
 277      3400
 278 0072 0000     		.align	2
 279              	.LC6:
 280 0074 2A2A2A20 		.ascii	"*** Port Info:    \000"
 280      506F7274 
 280      20496E66 
 280      6F3A2020 
 280      202000
 281 0087 00       		.align	2
 282              	.LC7:
 283 0088 41647661 		.ascii	"Advanced kernel mode\000"
 283      6E636564 
 283      206B6572 
 283      6E656C20 
 283      6D6F6465 
 284              		.text
 285              		.align	2
 286 008c AFF30080 		.p2align 4,,15
 287              		.global	test_print_port_info
 288              		.thumb
 289              		.thumb_func
 290              		.type	test_print_port_info, %function
 291              	test_print_port_info:
 292              	.LFB279:
 293              		.file 7 "../../../test/rt/source/test/test_root.c"
 294              		.loc 7 95 0
 295              		.cfi_startproc
 296              		@ args = 0, pretend = 0, frame = 0
 297              		@ frame_needed = 0, uses_anonymous_args = 0
 298 0090 08B5     		push	{r3, lr}
 299              		.cfi_def_cfa_offset 8
 300              		.cfi_offset 3, -8
 301              		.cfi_offset 14, -4
 302              		.loc 7 98 0
 303 0092 0C48     		ldr	r0, .L14
 304 0094 FFF7FEFF 		bl	test_print
 305              		.loc 7 99 0
 306 0098 0B48     		ldr	r0, .L14+4
 307 009a FFF7FEFF 		bl	test_println
 308              		.loc 7 101 0
 309 009e 0B48     		ldr	r0, .L14+8
 310 00a0 FFF7FEFF 		bl	test_print
 311              		.loc 7 102 0
 312 00a4 0A48     		ldr	r0, .L14+12
ARM GAS  /tmp/cc2AKB7B.s 			page 7


 313 00a6 FFF7FEFF 		bl	test_println
 314              		.loc 7 104 0
 315 00aa 0A48     		ldr	r0, .L14+16
 316 00ac FFF7FEFF 		bl	test_print
 317              		.loc 7 105 0
 318 00b0 0948     		ldr	r0, .L14+20
 319 00b2 FFF7FEFF 		bl	test_println
 320              		.loc 7 108 0
 321 00b6 0948     		ldr	r0, .L14+24
 322 00b8 FFF7FEFF 		bl	test_print
 323              		.loc 7 109 0
 324 00bc 0848     		ldr	r0, .L14+28
 325 00be FFF7FEFF 		bl	test_println
 326              		.loc 7 111 0
 327 00c2 08BD     		pop	{r3, pc}
 328              	.L15:
 329              		.align	2
 330              	.L14:
 331 00c4 00000000 		.word	.LC0
 332 00c8 14000000 		.word	.LC1
 333 00cc 34000000 		.word	.LC2
 334 00d0 48000000 		.word	.LC3
 335 00d4 54000000 		.word	.LC4
 336 00d8 68000000 		.word	.LC5
 337 00dc 74000000 		.word	.LC6
 338 00e0 88000000 		.word	.LC7
 339              		.cfi_endproc
 340              	.LFE279:
 341              		.size	test_print_port_info, .-test_print_port_info
 342              		.comm	test_buffer,1640,8
 343              		.comm	threads,20,4
 344              		.global	wa
 345              		.section	.rodata
 346 009d 000000   		.align	2
 347              		.type	wa, %object
 348              		.size	wa, 20
 349              	wa:
 350 00a0 00000000 		.word	test_buffer
 351 00a4 48010000 		.word	test_buffer+328
 352 00a8 90020000 		.word	test_buffer+656
 353 00ac D8030000 		.word	test_buffer+984
 354 00b0 20050000 		.word	test_buffer+1312
 355              		.text
 356              		.align	2
 357 00e4 AFF30080 		.p2align 4,,15
 357      AFF30080 
 357      AFF30080 
 358              		.global	test_terminate_threads
 359              		.thumb
 360              		.thumb_func
 361              		.type	test_terminate_threads, %function
 362              	test_terminate_threads:
 363              	.LFB280:
 364              		.loc 7 135 0
 365              		.cfi_startproc
 366              		@ args = 0, pretend = 0, frame = 8
 367              		@ frame_needed = 0, uses_anonymous_args = 0
ARM GAS  /tmp/cc2AKB7B.s 			page 8


 368 00f0 00B5     		push	{lr}
 369              		.cfi_def_cfa_offset 4
 370              		.cfi_offset 14, -4
 371 00f2 83B0     		sub	sp, sp, #12
 372              		.cfi_def_cfa_offset 16
 373              		.loc 7 138 0
 374 00f4 0023     		movs	r3, #0
 375 00f6 0193     		str	r3, [sp, #4]
 376 00f8 0FE0     		b	.L17
 377              	.L19:
 378              		.loc 7 139 0
 379 00fa 0B4A     		ldr	r2, .L20
 380 00fc 019B     		ldr	r3, [sp, #4]
 381 00fe 52F82330 		ldr	r3, [r2, r3, lsl #2]
 382 0102 002B     		cmp	r3, #0
 383 0104 06D0     		beq	.L18
 384              		.loc 7 140 0
 385 0106 084A     		ldr	r2, .L20
 386 0108 019B     		ldr	r3, [sp, #4]
 387 010a 52F82330 		ldr	r3, [r2, r3, lsl #2]
 388 010e 1846     		mov	r0, r3
 389 0110 FFF7FEFF 		bl	chThdTerminate
 390              	.L18:
 391              		.loc 7 138 0 discriminator 2
 392 0114 019B     		ldr	r3, [sp, #4]
 393 0116 0133     		adds	r3, r3, #1
 394 0118 0193     		str	r3, [sp, #4]
 395              	.L17:
 396              		.loc 7 138 0 is_stmt 0 discriminator 1
 397 011a 019B     		ldr	r3, [sp, #4]
 398 011c 042B     		cmp	r3, #4
 399 011e ECD9     		bls	.L19
 400              		.loc 7 141 0 is_stmt 1
 401 0120 03B0     		add	sp, sp, #12
 402              		.cfi_def_cfa_offset 4
 403              		@ sp needed
 404 0122 5DF804FB 		ldr	pc, [sp], #4
 405              	.L21:
 406 0126 00BF     		.align	2
 407              	.L20:
 408 0128 00000000 		.word	threads
 409              		.cfi_endproc
 410              	.LFE280:
 411              		.size	test_terminate_threads, .-test_terminate_threads
 412              		.align	2
 413 012c AFF30080 		.p2align 4,,15
 414              		.global	test_wait_threads
 415              		.thumb
 416              		.thumb_func
 417              		.type	test_wait_threads, %function
 418              	test_wait_threads:
 419              	.LFB281:
 420              		.loc 7 146 0
 421              		.cfi_startproc
 422              		@ args = 0, pretend = 0, frame = 8
 423              		@ frame_needed = 0, uses_anonymous_args = 0
 424 0130 00B5     		push	{lr}
ARM GAS  /tmp/cc2AKB7B.s 			page 9


 425              		.cfi_def_cfa_offset 4
 426              		.cfi_offset 14, -4
 427 0132 83B0     		sub	sp, sp, #12
 428              		.cfi_def_cfa_offset 16
 429              		.loc 7 149 0
 430 0134 0023     		movs	r3, #0
 431 0136 0193     		str	r3, [sp, #4]
 432 0138 14E0     		b	.L23
 433              	.L25:
 434              		.loc 7 150 0
 435 013a 0D4A     		ldr	r2, .L26
 436 013c 019B     		ldr	r3, [sp, #4]
 437 013e 52F82330 		ldr	r3, [r2, r3, lsl #2]
 438 0142 002B     		cmp	r3, #0
 439 0144 0BD0     		beq	.L24
 440              		.loc 7 151 0
 441 0146 0A4A     		ldr	r2, .L26
 442 0148 019B     		ldr	r3, [sp, #4]
 443 014a 52F82330 		ldr	r3, [r2, r3, lsl #2]
 444 014e 1846     		mov	r0, r3
 445 0150 FFF7FEFF 		bl	chThdWait
 446              		.loc 7 152 0
 447 0154 064A     		ldr	r2, .L26
 448 0156 019B     		ldr	r3, [sp, #4]
 449 0158 0021     		movs	r1, #0
 450 015a 42F82310 		str	r1, [r2, r3, lsl #2]
 451              	.L24:
 452              		.loc 7 149 0 discriminator 2
 453 015e 019B     		ldr	r3, [sp, #4]
 454 0160 0133     		adds	r3, r3, #1
 455 0162 0193     		str	r3, [sp, #4]
 456              	.L23:
 457              		.loc 7 149 0 is_stmt 0 discriminator 1
 458 0164 019B     		ldr	r3, [sp, #4]
 459 0166 042B     		cmp	r3, #4
 460 0168 E7D9     		bls	.L25
 461              		.loc 7 154 0 is_stmt 1
 462 016a 03B0     		add	sp, sp, #12
 463              		.cfi_def_cfa_offset 4
 464              		@ sp needed
 465 016c 5DF804FB 		ldr	pc, [sp], #4
 466              	.L27:
 467              		.align	2
 468              	.L26:
 469 0170 00000000 		.word	threads
 470              		.cfi_endproc
 471              	.LFE281:
 472              		.size	test_wait_threads, .-test_wait_threads
 473              		.align	2
 474 0174 AFF30080 		.p2align 4,,15
 474      AFF30080 
 474      AFF30080 
 475              		.global	test_wait_tick
 476              		.thumb
 477              		.thumb_func
 478              		.type	test_wait_tick, %function
 479              	test_wait_tick:
ARM GAS  /tmp/cc2AKB7B.s 			page 10


 480              	.LFB282:
 481              		.loc 7 159 0
 482              		.cfi_startproc
 483              		@ args = 0, pretend = 0, frame = 0
 484              		@ frame_needed = 0, uses_anonymous_args = 0
 485 0180 08B5     		push	{r3, lr}
 486              		.cfi_def_cfa_offset 8
 487              		.cfi_offset 3, -8
 488              		.cfi_offset 14, -4
 489              		.loc 7 161 0
 490 0182 0120     		movs	r0, #1
 491 0184 FFF7FEFF 		bl	chThdSleep
 492              		.loc 7 162 0
 493 0188 FFF772FF 		bl	chVTGetSystemTime
 494 018c 0346     		mov	r3, r0
 495              		.loc 7 163 0
 496 018e 1846     		mov	r0, r3
 497 0190 08BD     		pop	{r3, pc}
 498              		.cfi_endproc
 499              	.LFE282:
 500              		.size	test_wait_tick, .-test_wait_tick
 501              	.Letext0:
 502              		.file 8 "/usr/lib/gcc/arm-none-eabi/4.9.3/include/stddef.h"
 503              		.file 9 "/usr/include/newlib/machine/_default_types.h"
 504              		.file 10 "/usr/include/newlib/sys/_stdint.h"
 505              		.file 11 "../../../os/common/ports/ARMCMx/compilers/GCC/chtypes.h"
 506              		.file 12 "../../../os/rt/include/chsystypes.h"
 507              		.file 13 "../../../os/rt/include/chschd.h"
 508              		.file 14 "../../../os/common/ports/ARMCMx/chcore.h"
 509              		.file 15 "../../../os/hal/ports/STM32/LLD/TIMv1/stm32_tim.h"
 510              		.file 16 "../../../os/rt/include/chtm.h"
 511              		.file 17 "../../../os/rt/include/chsem.h"
 512              		.file 18 "../../../os/rt/include/chmtx.h"
 513              		.file 19 "../../../test/lib/ch_test.h"
 514              		.file 20 "../../../os/common/ext/CMSIS/include/core_cm4.h"
 515              		.file 21 "../../../test/rt/source/test/test_sequence_001.h"
 516              		.file 22 "../../../test/rt/source/test/test_sequence_002.h"
 517              		.file 23 "../../../test/rt/source/test/test_sequence_003.h"
 518              		.file 24 "../../../test/rt/source/test/test_sequence_004.h"
 519              		.file 25 "../../../test/rt/source/test/test_sequence_005.h"
 520              		.file 26 "../../../test/rt/source/test/test_sequence_006.h"
 521              		.file 27 "../../../test/rt/source/test/test_sequence_007.h"
 522              		.file 28 "../../../test/rt/source/test/test_sequence_008.h"
 523              		.file 29 "../../../test/rt/source/test/test_sequence_009.h"
 524              		.file 30 "../../../test/rt/source/test/test_sequence_010.h"
 525              		.file 31 "../../../test/rt/source/test/test_sequence_011.h"
 526              		.file 32 "../../../test/rt/source/test/test_sequence_012.h"
 527              		.file 33 "../../../test/rt/source/test/test_sequence_013.h"
 528 0192 00BF     		.section	.debug_info,"",%progbits
 529              	.Ldebug_info0:
 530 0000 C10A0000 		.4byte	0xac1
 531 0004 0400     		.2byte	0x4
 532 0006 00000000 		.4byte	.Ldebug_abbrev0
 533 000a 04       		.byte	0x4
 534 000b 01       		.uleb128 0x1
 535 000c 88040000 		.4byte	.LASF131
 536 0010 01       		.byte	0x1
ARM GAS  /tmp/cc2AKB7B.s 			page 11


 537 0011 E4050000 		.4byte	.LASF132
 538 0015 F0010000 		.4byte	.LASF133
 539 0019 00000000 		.4byte	.Ltext0
 540 001d 92010000 		.4byte	.Letext0-.Ltext0
 541 0021 00000000 		.4byte	.Ldebug_line0
 542 0025 02       		.uleb128 0x2
 543 0026 04       		.byte	0x4
 544 0027 05       		.byte	0x5
 545 0028 696E7400 		.ascii	"int\000"
 546 002c 03       		.uleb128 0x3
 547 002d 12000000 		.4byte	.LASF2
 548 0031 08       		.byte	0x8
 549 0032 D4       		.byte	0xd4
 550 0033 37000000 		.4byte	0x37
 551 0037 04       		.uleb128 0x4
 552 0038 04       		.byte	0x4
 553 0039 07       		.byte	0x7
 554 003a CD010000 		.4byte	.LASF0
 555 003e 04       		.uleb128 0x4
 556 003f 01       		.byte	0x1
 557 0040 06       		.byte	0x6
 558 0041 25010000 		.4byte	.LASF1
 559 0045 03       		.uleb128 0x3
 560 0046 73000000 		.4byte	.LASF3
 561 004a 09       		.byte	0x9
 562 004b 1D       		.byte	0x1d
 563 004c 50000000 		.4byte	0x50
 564 0050 04       		.uleb128 0x4
 565 0051 01       		.byte	0x1
 566 0052 08       		.byte	0x8
 567 0053 C5030000 		.4byte	.LASF4
 568 0057 04       		.uleb128 0x4
 569 0058 02       		.byte	0x2
 570 0059 05       		.byte	0x5
 571 005a DB030000 		.4byte	.LASF5
 572 005e 04       		.uleb128 0x4
 573 005f 02       		.byte	0x2
 574 0060 07       		.byte	0x7
 575 0061 61050000 		.4byte	.LASF6
 576 0065 03       		.uleb128 0x3
 577 0066 94020000 		.4byte	.LASF7
 578 006a 09       		.byte	0x9
 579 006b 3F       		.byte	0x3f
 580 006c 70000000 		.4byte	0x70
 581 0070 04       		.uleb128 0x4
 582 0071 04       		.byte	0x4
 583 0072 05       		.byte	0x5
 584 0073 53010000 		.4byte	.LASF8
 585 0077 03       		.uleb128 0x3
 586 0078 8A010000 		.4byte	.LASF9
 587 007c 09       		.byte	0x9
 588 007d 41       		.byte	0x41
 589 007e 82000000 		.4byte	0x82
 590 0082 04       		.uleb128 0x4
 591 0083 04       		.byte	0x4
 592 0084 07       		.byte	0x7
 593 0085 76040000 		.4byte	.LASF10
ARM GAS  /tmp/cc2AKB7B.s 			page 12


 594 0089 04       		.uleb128 0x4
 595 008a 08       		.byte	0x8
 596 008b 05       		.byte	0x5
 597 008c 6F010000 		.4byte	.LASF11
 598 0090 03       		.uleb128 0x3
 599 0091 60030000 		.4byte	.LASF12
 600 0095 09       		.byte	0x9
 601 0096 5B       		.byte	0x5b
 602 0097 9B000000 		.4byte	0x9b
 603 009b 04       		.uleb128 0x4
 604 009c 08       		.byte	0x8
 605 009d 07       		.byte	0x7
 606 009e A7000000 		.4byte	.LASF13
 607 00a2 03       		.uleb128 0x3
 608 00a3 D6050000 		.4byte	.LASF14
 609 00a7 0A       		.byte	0xa
 610 00a8 14       		.byte	0x14
 611 00a9 45000000 		.4byte	0x45
 612 00ad 03       		.uleb128 0x3
 613 00ae BD030000 		.4byte	.LASF15
 614 00b2 0A       		.byte	0xa
 615 00b3 1F       		.byte	0x1f
 616 00b4 65000000 		.4byte	0x65
 617 00b8 03       		.uleb128 0x3
 618 00b9 50040000 		.4byte	.LASF16
 619 00bd 0A       		.byte	0xa
 620 00be 20       		.byte	0x20
 621 00bf 77000000 		.4byte	0x77
 622 00c3 03       		.uleb128 0x3
 623 00c4 02030000 		.4byte	.LASF17
 624 00c8 0A       		.byte	0xa
 625 00c9 26       		.byte	0x26
 626 00ca 90000000 		.4byte	0x90
 627 00ce 03       		.uleb128 0x3
 628 00cf 88050000 		.4byte	.LASF18
 629 00d3 0B       		.byte	0xb
 630 00d4 39       		.byte	0x39
 631 00d5 B8000000 		.4byte	0xb8
 632 00d9 03       		.uleb128 0x3
 633 00da B3060000 		.4byte	.LASF19
 634 00de 0B       		.byte	0xb
 635 00df 3C       		.byte	0x3c
 636 00e0 A2000000 		.4byte	0xa2
 637 00e4 03       		.uleb128 0x3
 638 00e5 5C010000 		.4byte	.LASF20
 639 00e9 0B       		.byte	0xb
 640 00ea 3D       		.byte	0x3d
 641 00eb A2000000 		.4byte	0xa2
 642 00ef 03       		.uleb128 0x3
 643 00f0 6B030000 		.4byte	.LASF21
 644 00f4 0B       		.byte	0xb
 645 00f5 3E       		.byte	0x3e
 646 00f6 A2000000 		.4byte	0xa2
 647 00fa 03       		.uleb128 0x3
 648 00fb 9F030000 		.4byte	.LASF22
 649 00ff 0B       		.byte	0xb
 650 0100 40       		.byte	0x40
ARM GAS  /tmp/cc2AKB7B.s 			page 13


 651 0101 B8000000 		.4byte	0xb8
 652 0105 03       		.uleb128 0x3
 653 0106 4B020000 		.4byte	.LASF23
 654 010a 0B       		.byte	0xb
 655 010b 41       		.byte	0x41
 656 010c AD000000 		.4byte	0xad
 657 0110 03       		.uleb128 0x3
 658 0111 88020000 		.4byte	.LASF24
 659 0115 0B       		.byte	0xb
 660 0116 43       		.byte	0x43
 661 0117 B8000000 		.4byte	0xb8
 662 011b 03       		.uleb128 0x3
 663 011c B4010000 		.4byte	.LASF25
 664 0120 0B       		.byte	0xb
 665 0121 45       		.byte	0x45
 666 0122 AD000000 		.4byte	0xad
 667 0126 03       		.uleb128 0x3
 668 0127 2F050000 		.4byte	.LASF26
 669 012b 0C       		.byte	0xc
 670 012c 33       		.byte	0x33
 671 012d B8000000 		.4byte	0xb8
 672 0131 03       		.uleb128 0x3
 673 0132 1B050000 		.4byte	.LASF27
 674 0136 0C       		.byte	0xc
 675 0137 3F       		.byte	0x3f
 676 0138 3C010000 		.4byte	0x13c
 677 013c 05       		.uleb128 0x5
 678 013d 41020000 		.4byte	.LASF45
 679 0141 44       		.byte	0x44
 680 0142 0D       		.byte	0xd
 681 0143 9A       		.byte	0x9a
 682 0144 1A020000 		.4byte	0x21a
 683 0148 06       		.uleb128 0x6
 684 0149 7D010000 		.4byte	.LASF28
 685 014d 0D       		.byte	0xd
 686 014e 9B       		.byte	0x9b
 687 014f 4F020000 		.4byte	0x24f
 688 0153 00       		.byte	0
 689 0154 06       		.uleb128 0x6
 690 0155 53030000 		.4byte	.LASF29
 691 0159 0D       		.byte	0xd
 692 015a 9C       		.byte	0x9c
 693 015b FA000000 		.4byte	0xfa
 694 015f 08       		.byte	0x8
 695 0160 07       		.uleb128 0x7
 696 0161 63747800 		.ascii	"ctx\000"
 697 0165 0D       		.byte	0xd
 698 0166 9D       		.byte	0x9d
 699 0167 6C040000 		.4byte	0x46c
 700 016b 0C       		.byte	0xc
 701 016c 06       		.uleb128 0x6
 702 016d B4020000 		.4byte	.LASF30
 703 0171 0D       		.byte	0xd
 704 0172 9F       		.byte	0x9f
 705 0173 25020000 		.4byte	0x225
 706 0177 10       		.byte	0x10
 707 0178 06       		.uleb128 0x6
ARM GAS  /tmp/cc2AKB7B.s 			page 14


 708 0179 10050000 		.4byte	.LASF31
 709 017d 0D       		.byte	0xd
 710 017e A0       		.byte	0xa0
 711 017f 25020000 		.4byte	0x225
 712 0183 14       		.byte	0x14
 713 0184 06       		.uleb128 0x6
 714 0185 31020000 		.4byte	.LASF32
 715 0189 0D       		.byte	0xd
 716 018a A7       		.byte	0xa7
 717 018b 13070000 		.4byte	0x713
 718 018f 18       		.byte	0x18
 719 0190 06       		.uleb128 0x6
 720 0191 83010000 		.4byte	.LASF33
 721 0195 0D       		.byte	0xd
 722 0196 B0       		.byte	0xb0
 723 0197 25070000 		.4byte	0x725
 724 019b 1C       		.byte	0x1c
 725 019c 06       		.uleb128 0x6
 726 019d 4D010000 		.4byte	.LASF34
 727 01a1 0D       		.byte	0xd
 728 01a2 B5       		.byte	0xb5
 729 01a3 E4000000 		.4byte	0xe4
 730 01a7 20       		.byte	0x20
 731 01a8 06       		.uleb128 0x6
 732 01a9 DE050000 		.4byte	.LASF35
 733 01ad 0D       		.byte	0xd
 734 01ae B9       		.byte	0xb9
 735 01af D9000000 		.4byte	0xd9
 736 01b3 21       		.byte	0x21
 737 01b4 06       		.uleb128 0x6
 738 01b5 8A030000 		.4byte	.LASF36
 739 01b9 0D       		.byte	0xd
 740 01ba BE       		.byte	0xbe
 741 01bb EF000000 		.4byte	0xef
 742 01bf 22       		.byte	0x22
 743 01c0 08       		.uleb128 0x8
 744 01c1 7500     		.ascii	"u\000"
 745 01c3 0D       		.byte	0xd
 746 01c4 0F01     		.2byte	0x10f
 747 01c6 48060000 		.4byte	0x648
 748 01ca 24       		.byte	0x24
 749 01cb 09       		.uleb128 0x9
 750 01cc 9E010000 		.4byte	.LASF37
 751 01d0 0D       		.byte	0xd
 752 01d1 1401     		.2byte	0x114
 753 01d3 2B020000 		.4byte	0x22b
 754 01d7 28       		.byte	0x28
 755 01d8 09       		.uleb128 0x9
 756 01d9 44010000 		.4byte	.LASF38
 757 01dd 0D       		.byte	0xd
 758 01de 1A01     		.2byte	0x11a
 759 01e0 4F020000 		.4byte	0x24f
 760 01e4 2C       		.byte	0x2c
 761 01e5 09       		.uleb128 0x9
 762 01e6 51020000 		.4byte	.LASF39
 763 01ea 0D       		.byte	0xd
 764 01eb 2001     		.2byte	0x120
ARM GAS  /tmp/cc2AKB7B.s 			page 15


 765 01ed 10010000 		.4byte	0x110
 766 01f1 34       		.byte	0x34
 767 01f2 09       		.uleb128 0x9
 768 01f3 C7060000 		.4byte	.LASF40
 769 01f7 0D       		.byte	0xd
 770 01f8 2701     		.2byte	0x127
 771 01fa 0D070000 		.4byte	0x70d
 772 01fe 38       		.byte	0x38
 773 01ff 09       		.uleb128 0x9
 774 0200 BA020000 		.4byte	.LASF41
 775 0204 0D       		.byte	0xd
 776 0205 2B01     		.2byte	0x12b
 777 0207 FA000000 		.4byte	0xfa
 778 020b 3C       		.byte	0x3c
 779 020c 09       		.uleb128 0x9
 780 020d 36020000 		.4byte	.LASF42
 781 0211 0D       		.byte	0xd
 782 0212 3201     		.2byte	0x132
 783 0214 02030000 		.4byte	0x302
 784 0218 40       		.byte	0x40
 785 0219 00       		.byte	0
 786 021a 03       		.uleb128 0x3
 787 021b CC020000 		.4byte	.LASF43
 788 021f 0C       		.byte	0xc
 789 0220 44       		.byte	0x44
 790 0221 25020000 		.4byte	0x225
 791 0225 0A       		.uleb128 0xa
 792 0226 04       		.byte	0x4
 793 0227 31010000 		.4byte	0x131
 794 022b 03       		.uleb128 0x3
 795 022c A4060000 		.4byte	.LASF44
 796 0230 0C       		.byte	0xc
 797 0231 49       		.byte	0x49
 798 0232 36020000 		.4byte	0x236
 799 0236 05       		.uleb128 0x5
 800 0237 60040000 		.4byte	.LASF46
 801 023b 04       		.byte	0x4
 802 023c 0D       		.byte	0xd
 803 023d 88       		.byte	0x88
 804 023e 4F020000 		.4byte	0x24f
 805 0242 06       		.uleb128 0x6
 806 0243 19000000 		.4byte	.LASF47
 807 0247 0D       		.byte	0xd
 808 0248 89       		.byte	0x89
 809 0249 25020000 		.4byte	0x225
 810 024d 00       		.byte	0
 811 024e 00       		.byte	0
 812 024f 03       		.uleb128 0x3
 813 0250 A5050000 		.4byte	.LASF48
 814 0254 0C       		.byte	0xc
 815 0255 50       		.byte	0x50
 816 0256 5A020000 		.4byte	0x25a
 817 025a 05       		.uleb128 0x5
 818 025b 02010000 		.4byte	.LASF49
 819 025f 08       		.byte	0x8
 820 0260 0D       		.byte	0xd
 821 0261 8F       		.byte	0x8f
ARM GAS  /tmp/cc2AKB7B.s 			page 16


 822 0262 7F020000 		.4byte	0x27f
 823 0266 06       		.uleb128 0x6
 824 0267 19000000 		.4byte	.LASF47
 825 026b 0D       		.byte	0xd
 826 026c 90       		.byte	0x90
 827 026d 25020000 		.4byte	0x225
 828 0271 00       		.byte	0
 829 0272 06       		.uleb128 0x6
 830 0273 7D000000 		.4byte	.LASF50
 831 0277 0D       		.byte	0xd
 832 0278 91       		.byte	0x91
 833 0279 25020000 		.4byte	0x225
 834 027d 04       		.byte	0x4
 835 027e 00       		.byte	0
 836 027f 03       		.uleb128 0x3
 837 0280 00000000 		.4byte	.LASF51
 838 0284 0C       		.byte	0xc
 839 0285 57       		.byte	0x57
 840 0286 8A020000 		.4byte	0x28a
 841 028a 0B       		.uleb128 0xb
 842 028b 7A020000 		.4byte	.LASF52
 843 028f 1C       		.byte	0x1c
 844 0290 0D       		.byte	0xd
 845 0291 6A01     		.2byte	0x16a
 846 0293 E6020000 		.4byte	0x2e6
 847 0297 09       		.uleb128 0x9
 848 0298 7D010000 		.4byte	.LASF28
 849 029c 0D       		.byte	0xd
 850 029d 6B01     		.2byte	0x16b
 851 029f 4F020000 		.4byte	0x24f
 852 02a3 00       		.byte	0
 853 02a4 09       		.uleb128 0x9
 854 02a5 53030000 		.4byte	.LASF29
 855 02a9 0D       		.byte	0xd
 856 02aa 6C01     		.2byte	0x16c
 857 02ac FA000000 		.4byte	0xfa
 858 02b0 08       		.byte	0x8
 859 02b1 08       		.uleb128 0x8
 860 02b2 63747800 		.ascii	"ctx\000"
 861 02b6 0D       		.byte	0xd
 862 02b7 6E01     		.2byte	0x16e
 863 02b9 6C040000 		.4byte	0x46c
 864 02bd 0C       		.byte	0xc
 865 02be 09       		.uleb128 0x9
 866 02bf B4020000 		.4byte	.LASF30
 867 02c3 0D       		.byte	0xd
 868 02c4 7101     		.2byte	0x171
 869 02c6 25020000 		.4byte	0x225
 870 02ca 10       		.byte	0x10
 871 02cb 09       		.uleb128 0x9
 872 02cc 10050000 		.4byte	.LASF31
 873 02d0 0D       		.byte	0xd
 874 02d1 7201     		.2byte	0x172
 875 02d3 25020000 		.4byte	0x225
 876 02d7 14       		.byte	0x14
 877 02d8 09       		.uleb128 0x9
 878 02d9 58030000 		.4byte	.LASF53
ARM GAS  /tmp/cc2AKB7B.s 			page 17


 879 02dd 0D       		.byte	0xd
 880 02de 7501     		.2byte	0x175
 881 02e0 25020000 		.4byte	0x225
 882 02e4 18       		.byte	0x18
 883 02e5 00       		.byte	0
 884 02e6 03       		.uleb128 0x3
 885 02e7 39050000 		.4byte	.LASF54
 886 02eb 0C       		.byte	0xc
 887 02ec 5C       		.byte	0x5c
 888 02ed F1020000 		.4byte	0x2f1
 889 02f1 0A       		.uleb128 0xa
 890 02f2 04       		.byte	0x4
 891 02f3 F7020000 		.4byte	0x2f7
 892 02f7 0C       		.uleb128 0xc
 893 02f8 02030000 		.4byte	0x302
 894 02fc 0D       		.uleb128 0xd
 895 02fd 02030000 		.4byte	0x302
 896 0301 00       		.byte	0
 897 0302 0E       		.uleb128 0xe
 898 0303 04       		.byte	0x4
 899 0304 03       		.uleb128 0x3
 900 0305 8F030000 		.4byte	.LASF55
 901 0309 0C       		.byte	0xc
 902 030a 61       		.byte	0x61
 903 030b 0F030000 		.4byte	0x30f
 904 030f 0B       		.uleb128 0xb
 905 0310 1A040000 		.4byte	.LASF56
 906 0314 14       		.byte	0x14
 907 0315 0D       		.byte	0xd
 908 0316 4501     		.2byte	0x145
 909 0318 5E030000 		.4byte	0x35e
 910 031c 09       		.uleb128 0x9
 911 031d 19000000 		.4byte	.LASF47
 912 0321 0D       		.byte	0xd
 913 0322 4601     		.2byte	0x146
 914 0324 2B070000 		.4byte	0x72b
 915 0328 00       		.byte	0
 916 0329 09       		.uleb128 0x9
 917 032a 7D000000 		.4byte	.LASF50
 918 032e 0D       		.byte	0xd
 919 032f 4701     		.2byte	0x147
 920 0331 2B070000 		.4byte	0x72b
 921 0335 04       		.byte	0x4
 922 0336 09       		.uleb128 0x9
 923 0337 1E000000 		.4byte	.LASF57
 924 033b 0D       		.byte	0xd
 925 033c 4801     		.2byte	0x148
 926 033e 26010000 		.4byte	0x126
 927 0342 08       		.byte	0x8
 928 0343 09       		.uleb128 0x9
 929 0344 65010000 		.4byte	.LASF58
 930 0348 0D       		.byte	0xd
 931 0349 4901     		.2byte	0x149
 932 034b E6020000 		.4byte	0x2e6
 933 034f 0C       		.byte	0xc
 934 0350 08       		.uleb128 0x8
 935 0351 70617200 		.ascii	"par\000"
ARM GAS  /tmp/cc2AKB7B.s 			page 18


 936 0355 0D       		.byte	0xd
 937 0356 4B01     		.2byte	0x14b
 938 0358 02030000 		.4byte	0x302
 939 035c 10       		.byte	0x10
 940 035d 00       		.byte	0
 941 035e 03       		.uleb128 0x3
 942 035f DA000000 		.4byte	.LASF59
 943 0363 0C       		.byte	0xc
 944 0364 66       		.byte	0x66
 945 0365 69030000 		.4byte	0x369
 946 0369 0B       		.uleb128 0xb
 947 036a DF020000 		.4byte	.LASF60
 948 036e 10       		.byte	0x10
 949 036f 0D       		.byte	0xd
 950 0370 5501     		.2byte	0x155
 951 0372 AB030000 		.4byte	0x3ab
 952 0376 09       		.uleb128 0x9
 953 0377 19000000 		.4byte	.LASF47
 954 037b 0D       		.byte	0xd
 955 037c 5601     		.2byte	0x156
 956 037e 2B070000 		.4byte	0x72b
 957 0382 00       		.byte	0
 958 0383 09       		.uleb128 0x9
 959 0384 7D000000 		.4byte	.LASF50
 960 0388 0D       		.byte	0xd
 961 0389 5801     		.2byte	0x158
 962 038b 2B070000 		.4byte	0x72b
 963 038f 04       		.byte	0x4
 964 0390 09       		.uleb128 0x9
 965 0391 1E000000 		.4byte	.LASF57
 966 0395 0D       		.byte	0xd
 967 0396 5A01     		.2byte	0x15a
 968 0398 26010000 		.4byte	0x126
 969 039c 08       		.byte	0x8
 970 039d 09       		.uleb128 0x9
 971 039e E5030000 		.4byte	.LASF61
 972 03a2 0D       		.byte	0xd
 973 03a3 6201     		.2byte	0x162
 974 03a5 26010000 		.4byte	0x126
 975 03a9 0C       		.byte	0xc
 976 03aa 00       		.byte	0
 977 03ab 03       		.uleb128 0x3
 978 03ac 8E000000 		.4byte	.LASF62
 979 03b0 0C       		.byte	0xc
 980 03b1 6B       		.byte	0x6b
 981 03b2 B6030000 		.4byte	0x3b6
 982 03b6 0B       		.uleb128 0xb
 983 03b7 A7030000 		.4byte	.LASF63
 984 03bb 04       		.byte	0x4
 985 03bc 0D       		.byte	0xd
 986 03bd 7C01     		.2byte	0x17c
 987 03bf D1030000 		.4byte	0x3d1
 988 03c3 09       		.uleb128 0x9
 989 03c4 50050000 		.4byte	.LASF64
 990 03c8 0D       		.byte	0xd
 991 03c9 8401     		.2byte	0x184
 992 03cb 31070000 		.4byte	0x731
ARM GAS  /tmp/cc2AKB7B.s 			page 19


 993 03cf 00       		.byte	0
 994 03d0 00       		.byte	0
 995 03d1 03       		.uleb128 0x3
 996 03d2 5A020000 		.4byte	.LASF65
 997 03d6 0C       		.byte	0xc
 998 03d7 70       		.byte	0x70
 999 03d8 DC030000 		.4byte	0x3dc
 1000 03dc 0B       		.uleb128 0xb
 1001 03dd FD030000 		.4byte	.LASF66
 1002 03e1 78       		.byte	0x78
 1003 03e2 0D       		.byte	0xd
 1004 03e3 9C01     		.2byte	0x19c
 1005 03e5 2A040000 		.4byte	0x42a
 1006 03e9 09       		.uleb128 0x9
 1007 03ea D0050000 		.4byte	.LASF67
 1008 03ee 0D       		.byte	0xd
 1009 03ef A001     		.2byte	0x1a0
 1010 03f1 7F020000 		.4byte	0x27f
 1011 03f5 00       		.byte	0
 1012 03f6 09       		.uleb128 0x9
 1013 03f7 31010000 		.4byte	.LASF68
 1014 03fb 0D       		.byte	0xd
 1015 03fc A401     		.2byte	0x1a4
 1016 03fe 5E030000 		.4byte	0x35e
 1017 0402 1C       		.byte	0x1c
 1018 0403 08       		.uleb128 0x8
 1019 0404 64626700 		.ascii	"dbg\000"
 1020 0408 0D       		.byte	0xd
 1021 0409 A801     		.2byte	0x1a8
 1022 040b AB030000 		.4byte	0x3ab
 1023 040f 2C       		.byte	0x2c
 1024 0410 09       		.uleb128 0x9
 1025 0411 C7000000 		.4byte	.LASF69
 1026 0415 0D       		.byte	0xd
 1027 0416 AC01     		.2byte	0x1ac
 1028 0418 31010000 		.4byte	0x131
 1029 041c 30       		.byte	0x30
 1030 041d 08       		.uleb128 0x8
 1031 041e 746D00   		.ascii	"tm\000"
 1032 0421 0D       		.byte	0xd
 1033 0422 B101     		.2byte	0x1b1
 1034 0424 3D060000 		.4byte	0x63d
 1035 0428 74       		.byte	0x74
 1036 0429 00       		.byte	0
 1037 042a 04       		.uleb128 0x4
 1038 042b 04       		.byte	0x4
 1039 042c 07       		.byte	0x7
 1040 042d C3020000 		.4byte	.LASF70
 1041 0431 0F       		.uleb128 0xf
 1042 0432 B8000000 		.4byte	0xb8
 1043 0436 10       		.uleb128 0x10
 1044 0437 B8000000 		.4byte	0xb8
 1045 043b 46040000 		.4byte	0x446
 1046 043f 11       		.uleb128 0x11
 1047 0440 2A040000 		.4byte	0x42a
 1048 0444 01       		.byte	0x1
 1049 0445 00       		.byte	0
ARM GAS  /tmp/cc2AKB7B.s 			page 20


 1050 0446 10       		.uleb128 0x10
 1051 0447 B8000000 		.4byte	0xb8
 1052 044b 56040000 		.4byte	0x456
 1053 044f 11       		.uleb128 0x11
 1054 0450 2A040000 		.4byte	0x42a
 1055 0454 03       		.byte	0x3
 1056 0455 00       		.byte	0
 1057 0456 03       		.uleb128 0x3
 1058 0457 95010000 		.4byte	.LASF71
 1059 045b 0E       		.byte	0xe
 1060 045c 65       		.byte	0x65
 1061 045d 02030000 		.4byte	0x302
 1062 0461 03       		.uleb128 0x3
 1063 0462 9E020000 		.4byte	.LASF72
 1064 0466 0E       		.byte	0xe
 1065 0467 6D       		.byte	0x6d
 1066 0468 C3000000 		.4byte	0xc3
 1067 046c 05       		.uleb128 0x5
 1068 046d 1D030000 		.4byte	.LASF73
 1069 0471 04       		.byte	0x4
 1070 0472 0E       		.byte	0xe
 1071 0473 89       		.byte	0x89
 1072 0474 84040000 		.4byte	0x484
 1073 0478 07       		.uleb128 0x7
 1074 0479 737000   		.ascii	"sp\000"
 1075 047c 0E       		.byte	0xe
 1076 047d 8A       		.byte	0x8a
 1077 047e 00050000 		.4byte	0x500
 1078 0482 00       		.byte	0
 1079 0483 00       		.byte	0
 1080 0484 0B       		.uleb128 0xb
 1081 0485 82000000 		.4byte	.LASF74
 1082 0489 24       		.byte	0x24
 1083 048a 01       		.byte	0x1
 1084 048b 5901     		.2byte	0x159
 1085 048d 00050000 		.4byte	0x500
 1086 0491 08       		.uleb128 0x8
 1087 0492 723400   		.ascii	"r4\000"
 1088 0495 01       		.byte	0x1
 1089 0496 6C01     		.2byte	0x16c
 1090 0498 56040000 		.4byte	0x456
 1091 049c 00       		.byte	0
 1092 049d 08       		.uleb128 0x8
 1093 049e 723500   		.ascii	"r5\000"
 1094 04a1 01       		.byte	0x1
 1095 04a2 6D01     		.2byte	0x16d
 1096 04a4 56040000 		.4byte	0x456
 1097 04a8 04       		.byte	0x4
 1098 04a9 08       		.uleb128 0x8
 1099 04aa 723600   		.ascii	"r6\000"
 1100 04ad 01       		.byte	0x1
 1101 04ae 6E01     		.2byte	0x16e
 1102 04b0 56040000 		.4byte	0x456
 1103 04b4 08       		.byte	0x8
 1104 04b5 08       		.uleb128 0x8
 1105 04b6 723700   		.ascii	"r7\000"
 1106 04b9 01       		.byte	0x1
ARM GAS  /tmp/cc2AKB7B.s 			page 21


 1107 04ba 6F01     		.2byte	0x16f
 1108 04bc 56040000 		.4byte	0x456
 1109 04c0 0C       		.byte	0xc
 1110 04c1 08       		.uleb128 0x8
 1111 04c2 723800   		.ascii	"r8\000"
 1112 04c5 01       		.byte	0x1
 1113 04c6 7001     		.2byte	0x170
 1114 04c8 56040000 		.4byte	0x456
 1115 04cc 10       		.byte	0x10
 1116 04cd 08       		.uleb128 0x8
 1117 04ce 723900   		.ascii	"r9\000"
 1118 04d1 01       		.byte	0x1
 1119 04d2 7101     		.2byte	0x171
 1120 04d4 56040000 		.4byte	0x456
 1121 04d8 14       		.byte	0x14
 1122 04d9 08       		.uleb128 0x8
 1123 04da 72313000 		.ascii	"r10\000"
 1124 04de 01       		.byte	0x1
 1125 04df 7201     		.2byte	0x172
 1126 04e1 56040000 		.4byte	0x456
 1127 04e5 18       		.byte	0x18
 1128 04e6 08       		.uleb128 0x8
 1129 04e7 72313100 		.ascii	"r11\000"
 1130 04eb 01       		.byte	0x1
 1131 04ec 7301     		.2byte	0x173
 1132 04ee 56040000 		.4byte	0x456
 1133 04f2 1C       		.byte	0x1c
 1134 04f3 08       		.uleb128 0x8
 1135 04f4 6C7200   		.ascii	"lr\000"
 1136 04f7 01       		.byte	0x1
 1137 04f8 7401     		.2byte	0x174
 1138 04fa 56040000 		.4byte	0x456
 1139 04fe 20       		.byte	0x20
 1140 04ff 00       		.byte	0
 1141 0500 0A       		.uleb128 0xa
 1142 0501 04       		.byte	0x4
 1143 0502 84040000 		.4byte	0x484
 1144 0506 12       		.uleb128 0x12
 1145 0507 60       		.byte	0x60
 1146 0508 0F       		.byte	0xf
 1147 0509 A101     		.2byte	0x1a1
 1148 050b 12060000 		.4byte	0x612
 1149 050f 08       		.uleb128 0x8
 1150 0510 43523100 		.ascii	"CR1\000"
 1151 0514 0F       		.byte	0xf
 1152 0515 A201     		.2byte	0x1a2
 1153 0517 31040000 		.4byte	0x431
 1154 051b 00       		.byte	0
 1155 051c 08       		.uleb128 0x8
 1156 051d 43523200 		.ascii	"CR2\000"
 1157 0521 0F       		.byte	0xf
 1158 0522 A301     		.2byte	0x1a3
 1159 0524 31040000 		.4byte	0x431
 1160 0528 04       		.byte	0x4
 1161 0529 09       		.uleb128 0x9
 1162 052a 3C020000 		.4byte	.LASF75
 1163 052e 0F       		.byte	0xf
ARM GAS  /tmp/cc2AKB7B.s 			page 22


 1164 052f A401     		.2byte	0x1a4
 1165 0531 31040000 		.4byte	0x431
 1166 0535 08       		.byte	0x8
 1167 0536 09       		.uleb128 0x9
 1168 0537 0D000000 		.4byte	.LASF76
 1169 053b 0F       		.byte	0xf
 1170 053c A501     		.2byte	0x1a5
 1171 053e 31040000 		.4byte	0x431
 1172 0542 0C       		.byte	0xc
 1173 0543 08       		.uleb128 0x8
 1174 0544 535200   		.ascii	"SR\000"
 1175 0547 0F       		.byte	0xf
 1176 0548 A601     		.2byte	0x1a6
 1177 054a 31040000 		.4byte	0x431
 1178 054e 10       		.byte	0x10
 1179 054f 08       		.uleb128 0x8
 1180 0550 45475200 		.ascii	"EGR\000"
 1181 0554 0F       		.byte	0xf
 1182 0555 A701     		.2byte	0x1a7
 1183 0557 31040000 		.4byte	0x431
 1184 055b 14       		.byte	0x14
 1185 055c 09       		.uleb128 0x9
 1186 055d 13010000 		.4byte	.LASF77
 1187 0561 0F       		.byte	0xf
 1188 0562 A801     		.2byte	0x1a8
 1189 0564 31040000 		.4byte	0x431
 1190 0568 18       		.byte	0x18
 1191 0569 09       		.uleb128 0x9
 1192 056a 19010000 		.4byte	.LASF78
 1193 056e 0F       		.byte	0xf
 1194 056f A901     		.2byte	0x1a9
 1195 0571 31040000 		.4byte	0x431
 1196 0575 1C       		.byte	0x1c
 1197 0576 09       		.uleb128 0x9
 1198 0577 6A010000 		.4byte	.LASF79
 1199 057b 0F       		.byte	0xf
 1200 057c AA01     		.2byte	0x1aa
 1201 057e 31040000 		.4byte	0x431
 1202 0582 20       		.byte	0x20
 1203 0583 08       		.uleb128 0x8
 1204 0584 434E5400 		.ascii	"CNT\000"
 1205 0588 0F       		.byte	0xf
 1206 0589 AB01     		.2byte	0x1ab
 1207 058b 31040000 		.4byte	0x431
 1208 058f 24       		.byte	0x24
 1209 0590 08       		.uleb128 0x8
 1210 0591 50534300 		.ascii	"PSC\000"
 1211 0595 0F       		.byte	0xf
 1212 0596 AC01     		.2byte	0x1ac
 1213 0598 31040000 		.4byte	0x431
 1214 059c 28       		.byte	0x28
 1215 059d 08       		.uleb128 0x8
 1216 059e 41525200 		.ascii	"ARR\000"
 1217 05a2 0F       		.byte	0xf
 1218 05a3 AD01     		.2byte	0x1ad
 1219 05a5 31040000 		.4byte	0x431
 1220 05a9 2C       		.byte	0x2c
ARM GAS  /tmp/cc2AKB7B.s 			page 23


 1221 05aa 08       		.uleb128 0x8
 1222 05ab 52435200 		.ascii	"RCR\000"
 1223 05af 0F       		.byte	0xf
 1224 05b0 AE01     		.2byte	0x1ae
 1225 05b2 31040000 		.4byte	0x431
 1226 05b6 30       		.byte	0x30
 1227 05b7 08       		.uleb128 0x8
 1228 05b8 43435200 		.ascii	"CCR\000"
 1229 05bc 0F       		.byte	0xf
 1230 05bd AF01     		.2byte	0x1af
 1231 05bf 12060000 		.4byte	0x612
 1232 05c3 34       		.byte	0x34
 1233 05c4 09       		.uleb128 0x9
 1234 05c5 FD000000 		.4byte	.LASF80
 1235 05c9 0F       		.byte	0xf
 1236 05ca B001     		.2byte	0x1b0
 1237 05cc 31040000 		.4byte	0x431
 1238 05d0 44       		.byte	0x44
 1239 05d1 08       		.uleb128 0x8
 1240 05d2 44435200 		.ascii	"DCR\000"
 1241 05d6 0F       		.byte	0xf
 1242 05d7 B101     		.2byte	0x1b1
 1243 05d9 31040000 		.4byte	0x431
 1244 05dd 48       		.byte	0x48
 1245 05de 09       		.uleb128 0x9
 1246 05df 16050000 		.4byte	.LASF81
 1247 05e3 0F       		.byte	0xf
 1248 05e4 B201     		.2byte	0x1b2
 1249 05e6 31040000 		.4byte	0x431
 1250 05ea 4C       		.byte	0x4c
 1251 05eb 08       		.uleb128 0x8
 1252 05ec 4F5200   		.ascii	"OR\000"
 1253 05ef 0F       		.byte	0xf
 1254 05f0 B301     		.2byte	0x1b3
 1255 05f2 31040000 		.4byte	0x431
 1256 05f6 50       		.byte	0x50
 1257 05f7 09       		.uleb128 0x9
 1258 05f8 1F010000 		.4byte	.LASF82
 1259 05fc 0F       		.byte	0xf
 1260 05fd B401     		.2byte	0x1b4
 1261 05ff 31040000 		.4byte	0x431
 1262 0603 54       		.byte	0x54
 1263 0604 09       		.uleb128 0x9
 1264 0605 38040000 		.4byte	.LASF83
 1265 0609 0F       		.byte	0xf
 1266 060a B501     		.2byte	0x1b5
 1267 060c 17060000 		.4byte	0x617
 1268 0610 58       		.byte	0x58
 1269 0611 00       		.byte	0
 1270 0612 0F       		.uleb128 0xf
 1271 0613 46040000 		.4byte	0x446
 1272 0617 0F       		.uleb128 0xf
 1273 0618 36040000 		.4byte	0x436
 1274 061c 13       		.uleb128 0x13
 1275 061d 66020000 		.4byte	.LASF84
 1276 0621 0F       		.byte	0xf
 1277 0622 B601     		.2byte	0x1b6
ARM GAS  /tmp/cc2AKB7B.s 			page 24


 1278 0624 06050000 		.4byte	0x506
 1279 0628 14       		.uleb128 0x14
 1280 0629 04       		.byte	0x4
 1281 062a 10       		.byte	0x10
 1282 062b 38       		.byte	0x38
 1283 062c 3D060000 		.4byte	0x63d
 1284 0630 06       		.uleb128 0x6
 1285 0631 5A050000 		.4byte	.LASF85
 1286 0635 10       		.byte	0x10
 1287 0636 3C       		.byte	0x3c
 1288 0637 CE000000 		.4byte	0xce
 1289 063b 00       		.byte	0
 1290 063c 00       		.byte	0
 1291 063d 03       		.uleb128 0x3
 1292 063e 2A030000 		.4byte	.LASF86
 1293 0642 10       		.byte	0x10
 1294 0643 3D       		.byte	0x3d
 1295 0644 28060000 		.4byte	0x628
 1296 0648 15       		.uleb128 0x15
 1297 0649 04       		.byte	0x4
 1298 064a 0D       		.byte	0xd
 1299 064b D2       		.byte	0xd2
 1300 064c AB060000 		.4byte	0x6ab
 1301 0650 16       		.uleb128 0x16
 1302 0651 24000000 		.4byte	.LASF87
 1303 0655 0D       		.byte	0xd
 1304 0656 D9       		.byte	0xd9
 1305 0657 05010000 		.4byte	0x105
 1306 065b 16       		.uleb128 0x16
 1307 065c BE000000 		.4byte	.LASF88
 1308 0660 0D       		.byte	0xd
 1309 0661 E0       		.byte	0xe0
 1310 0662 05010000 		.4byte	0x105
 1311 0666 16       		.uleb128 0x16
 1312 0667 9D060000 		.4byte	.LASF89
 1313 066b 0D       		.byte	0xd
 1314 066c E7       		.byte	0xe7
 1315 066d 02030000 		.4byte	0x302
 1316 0671 16       		.uleb128 0x16
 1317 0672 E1010000 		.4byte	.LASF90
 1318 0676 0D       		.byte	0xd
 1319 0677 EE       		.byte	0xee
 1320 0678 AB060000 		.4byte	0x6ab
 1321 067c 16       		.uleb128 0x16
 1322 067d D2000000 		.4byte	.LASF91
 1323 0681 0D       		.byte	0xd
 1324 0682 F3       		.byte	0xf3
 1325 0683 05010000 		.4byte	0x105
 1326 0687 16       		.uleb128 0x16
 1327 0688 DA010000 		.4byte	.LASF92
 1328 068c 0D       		.byte	0xd
 1329 068d FC       		.byte	0xfc
 1330 068e D6060000 		.4byte	0x6d6
 1331 0692 17       		.uleb128 0x17
 1332 0693 59040000 		.4byte	.LASF93
 1333 0697 0D       		.byte	0xd
 1334 0698 0501     		.2byte	0x105
ARM GAS  /tmp/cc2AKB7B.s 			page 25


 1335 069a 0D070000 		.4byte	0x70d
 1336 069e 17       		.uleb128 0x17
 1337 069f F6030000 		.4byte	.LASF94
 1338 06a3 0D       		.byte	0xd
 1339 06a4 0D01     		.2byte	0x10d
 1340 06a6 10010000 		.4byte	0x110
 1341 06aa 00       		.byte	0
 1342 06ab 0A       		.uleb128 0xa
 1343 06ac 04       		.byte	0x4
 1344 06ad 1A020000 		.4byte	0x21a
 1345 06b1 05       		.uleb128 0x5
 1346 06b2 2B040000 		.4byte	.LASF95
 1347 06b6 0C       		.byte	0xc
 1348 06b7 11       		.byte	0x11
 1349 06b8 34       		.byte	0x34
 1350 06b9 D6060000 		.4byte	0x6d6
 1351 06bd 06       		.uleb128 0x6
 1352 06be 7D010000 		.4byte	.LASF28
 1353 06c2 11       		.byte	0x11
 1354 06c3 35       		.byte	0x35
 1355 06c4 4F020000 		.4byte	0x24f
 1356 06c8 00       		.byte	0
 1357 06c9 07       		.uleb128 0x7
 1358 06ca 636E7400 		.ascii	"cnt\000"
 1359 06ce 11       		.byte	0x11
 1360 06cf 37       		.byte	0x37
 1361 06d0 1B010000 		.4byte	0x11b
 1362 06d4 08       		.byte	0x8
 1363 06d5 00       		.byte	0
 1364 06d6 0A       		.uleb128 0xa
 1365 06d7 04       		.byte	0x4
 1366 06d8 B1060000 		.4byte	0x6b1
 1367 06dc 05       		.uleb128 0x5
 1368 06dd B5050000 		.4byte	.LASF96
 1369 06e1 10       		.byte	0x10
 1370 06e2 12       		.byte	0x12
 1371 06e3 39       		.byte	0x39
 1372 06e4 0D070000 		.4byte	0x70d
 1373 06e8 06       		.uleb128 0x6
 1374 06e9 7D010000 		.4byte	.LASF28
 1375 06ed 12       		.byte	0x12
 1376 06ee 3A       		.byte	0x3a
 1377 06ef 4F020000 		.4byte	0x24f
 1378 06f3 00       		.byte	0
 1379 06f4 06       		.uleb128 0x6
 1380 06f5 70040000 		.4byte	.LASF97
 1381 06f9 12       		.byte	0x12
 1382 06fa 3C       		.byte	0x3c
 1383 06fb 25020000 		.4byte	0x225
 1384 06ff 08       		.byte	0x8
 1385 0700 06       		.uleb128 0x6
 1386 0701 19000000 		.4byte	.LASF47
 1387 0705 12       		.byte	0x12
 1388 0706 3E       		.byte	0x3e
 1389 0707 41070000 		.4byte	0x741
 1390 070b 0C       		.byte	0xc
 1391 070c 00       		.byte	0
ARM GAS  /tmp/cc2AKB7B.s 			page 26


 1392 070d 0A       		.uleb128 0xa
 1393 070e 04       		.byte	0x4
 1394 070f DC060000 		.4byte	0x6dc
 1395 0713 0A       		.uleb128 0xa
 1396 0714 04       		.byte	0x4
 1397 0715 19070000 		.4byte	0x719
 1398 0719 18       		.uleb128 0x18
 1399 071a 1E070000 		.4byte	0x71e
 1400 071e 04       		.uleb128 0x4
 1401 071f 01       		.byte	0x1
 1402 0720 08       		.byte	0x8
 1403 0721 0B050000 		.4byte	.LASF98
 1404 0725 0A       		.uleb128 0xa
 1405 0726 04       		.byte	0x4
 1406 0727 61040000 		.4byte	0x461
 1407 072b 0A       		.uleb128 0xa
 1408 072c 04       		.byte	0x4
 1409 072d 04030000 		.4byte	0x304
 1410 0731 0F       		.uleb128 0xf
 1411 0732 13070000 		.4byte	0x713
 1412 0736 03       		.uleb128 0x3
 1413 0737 A6010000 		.4byte	.LASF99
 1414 073b 12       		.byte	0x12
 1415 073c 34       		.byte	0x34
 1416 073d DC060000 		.4byte	0x6dc
 1417 0741 0A       		.uleb128 0xa
 1418 0742 04       		.byte	0x4
 1419 0743 36070000 		.4byte	0x736
 1420 0747 04       		.uleb128 0x4
 1421 0748 01       		.byte	0x1
 1422 0749 02       		.byte	0x2
 1423 074a B7030000 		.4byte	.LASF100
 1424 074e 0A       		.uleb128 0xa
 1425 074f 04       		.byte	0x4
 1426 0750 54070000 		.4byte	0x754
 1427 0754 19       		.uleb128 0x19
 1428 0755 14       		.uleb128 0x14
 1429 0756 10       		.byte	0x10
 1430 0757 13       		.byte	0x13
 1431 0758 3D       		.byte	0x3d
 1432 0759 8E070000 		.4byte	0x78e
 1433 075d 06       		.uleb128 0x6
 1434 075e 31020000 		.4byte	.LASF32
 1435 0762 13       		.byte	0x13
 1436 0763 3E       		.byte	0x3e
 1437 0764 13070000 		.4byte	0x713
 1438 0768 00       		.byte	0
 1439 0769 06       		.uleb128 0x6
 1440 076a 3B030000 		.4byte	.LASF101
 1441 076e 13       		.byte	0x13
 1442 076f 3F       		.byte	0x3f
 1443 0770 4E070000 		.4byte	0x74e
 1444 0774 04       		.byte	0x4
 1445 0775 06       		.uleb128 0x6
 1446 0776 E7010000 		.4byte	.LASF102
 1447 077a 13       		.byte	0x13
 1448 077b 40       		.byte	0x40
ARM GAS  /tmp/cc2AKB7B.s 			page 27


 1449 077c 4E070000 		.4byte	0x74e
 1450 0780 08       		.byte	0x8
 1451 0781 06       		.uleb128 0x6
 1452 0782 D3030000 		.4byte	.LASF103
 1453 0786 13       		.byte	0x13
 1454 0787 41       		.byte	0x41
 1455 0788 4E070000 		.4byte	0x74e
 1456 078c 0C       		.byte	0xc
 1457 078d 00       		.byte	0
 1458 078e 03       		.uleb128 0x3
 1459 078f A9020000 		.4byte	.LASF104
 1460 0793 13       		.byte	0x13
 1461 0794 42       		.byte	0x42
 1462 0795 55070000 		.4byte	0x755
 1463 0799 1A       		.uleb128 0x1a
 1464 079a 42050000 		.4byte	.LASF134
 1465 079e 02       		.byte	0x2
 1466 079f 0601     		.2byte	0x106
 1467 07a1 03       		.byte	0x3
 1468 07a2 B3070000 		.4byte	0x7b3
 1469 07a6 1B       		.uleb128 0x1b
 1470 07a7 AE010000 		.4byte	.LASF135
 1471 07ab 02       		.byte	0x2
 1472 07ac 0601     		.2byte	0x106
 1473 07ae B8000000 		.4byte	0xb8
 1474 07b2 00       		.byte	0
 1475 07b3 1C       		.uleb128 0x1c
 1476 07b4 9D000000 		.4byte	.LASF105
 1477 07b8 01       		.byte	0x1
 1478 07b9 5202     		.2byte	0x252
 1479 07bb 00000000 		.4byte	.LFB127
 1480 07bf 10000000 		.4byte	.LFE127-.LFB127
 1481 07c3 01       		.uleb128 0x1
 1482 07c4 9C       		.byte	0x9c
 1483 07c5 E3070000 		.4byte	0x7e3
 1484 07c9 1D       		.uleb128 0x1d
 1485 07ca 99070000 		.4byte	0x799
 1486 07ce 06000000 		.4byte	.LBB6
 1487 07d2 06000000 		.4byte	.LBE6-.LBB6
 1488 07d6 01       		.byte	0x1
 1489 07d7 5A02     		.2byte	0x25a
 1490 07d9 1E       		.uleb128 0x1e
 1491 07da A6070000 		.4byte	0x7a6
 1492 07de 02       		.uleb128 0x2
 1493 07df 91       		.byte	0x91
 1494 07e0 7C       		.sleb128 -4
 1495 07e1 00       		.byte	0
 1496 07e2 00       		.byte	0
 1497 07e3 1C       		.uleb128 0x1c
 1498 07e4 38010000 		.4byte	.LASF106
 1499 07e8 01       		.byte	0x1
 1500 07e9 6A02     		.2byte	0x26a
 1501 07eb 10000000 		.4byte	.LFB128
 1502 07ef 10000000 		.4byte	.LFE128-.LFB128
 1503 07f3 01       		.uleb128 0x1
 1504 07f4 9C       		.byte	0x9c
 1505 07f5 13080000 		.4byte	0x813
ARM GAS  /tmp/cc2AKB7B.s 			page 28


 1506 07f9 1D       		.uleb128 0x1d
 1507 07fa 99070000 		.4byte	0x799
 1508 07fe 16000000 		.4byte	.LBB8
 1509 0802 06000000 		.4byte	.LBE8-.LBB8
 1510 0806 01       		.byte	0x1
 1511 0807 6D02     		.2byte	0x26d
 1512 0809 1E       		.uleb128 0x1e
 1513 080a A6070000 		.4byte	0x7a6
 1514 080e 02       		.uleb128 0x2
 1515 080f 91       		.byte	0x91
 1516 0810 7C       		.sleb128 -4
 1517 0811 00       		.byte	0
 1518 0812 00       		.byte	0
 1519 0813 1F       		.uleb128 0x1f
 1520 0814 3D040000 		.4byte	.LASF107
 1521 0818 03       		.byte	0x3
 1522 0819 8B       		.byte	0x8b
 1523 081a 26010000 		.4byte	0x126
 1524 081e 20000000 		.4byte	.LFB136
 1525 0822 0A000000 		.4byte	.LFE136-.LFB136
 1526 0826 01       		.uleb128 0x1
 1527 0827 9C       		.byte	0x9c
 1528 0828 20       		.uleb128 0x20
 1529 0829 74050000 		.4byte	.LASF108
 1530 082d 04       		.byte	0x4
 1531 082e 69       		.byte	0x69
 1532 082f 26010000 		.4byte	0x126
 1533 0833 30000000 		.4byte	.LFB145
 1534 0837 0C000000 		.4byte	.LFE145-.LFB145
 1535 083b 01       		.uleb128 0x1
 1536 083c 9C       		.byte	0x9c
 1537 083d 21       		.uleb128 0x21
 1538 083e 10040000 		.4byte	.LASF136
 1539 0842 05       		.byte	0x5
 1540 0843 7601     		.2byte	0x176
 1541 0845 40000000 		.4byte	.LFB167
 1542 0849 08000000 		.4byte	.LFE167-.LFB167
 1543 084d 01       		.uleb128 0x1
 1544 084e 9C       		.byte	0x9c
 1545 084f 22       		.uleb128 0x22
 1546 0850 BB060000 		.4byte	.LASF109
 1547 0854 05       		.byte	0x5
 1548 0855 8201     		.2byte	0x182
 1549 0857 50000000 		.4byte	.LFB168
 1550 085b 08000000 		.4byte	.LFE168-.LFB168
 1551 085f 01       		.uleb128 0x1
 1552 0860 9C       		.byte	0x9c
 1553 0861 6F080000 		.4byte	0x86f
 1554 0865 23       		.uleb128 0x23
 1555 0866 07040000 		.4byte	.LASF137
 1556 086a 7F080000 		.4byte	0x87f
 1557 086e 00       		.byte	0
 1558 086f 10       		.uleb128 0x10
 1559 0870 1E070000 		.4byte	0x71e
 1560 0874 7F080000 		.4byte	0x87f
 1561 0878 11       		.uleb128 0x11
 1562 0879 2A040000 		.4byte	0x42a
ARM GAS  /tmp/cc2AKB7B.s 			page 29


 1563 087d 0B       		.byte	0xb
 1564 087e 00       		.byte	0
 1565 087f 18       		.uleb128 0x18
 1566 0880 6F080000 		.4byte	0x86f
 1567 0884 24       		.uleb128 0x24
 1568 0885 BA010000 		.4byte	.LASF110
 1569 0889 06       		.byte	0x6
 1570 088a 8801     		.2byte	0x188
 1571 088c 26010000 		.4byte	0x126
 1572 0890 60000000 		.4byte	.LFB181
 1573 0894 0C000000 		.4byte	.LFE181-.LFB181
 1574 0898 01       		.uleb128 0x1
 1575 0899 9C       		.byte	0x9c
 1576 089a 25       		.uleb128 0x25
 1577 089b 41030000 		.4byte	.LASF138
 1578 089f 06       		.byte	0x6
 1579 08a0 9B01     		.2byte	0x19b
 1580 08a2 26010000 		.4byte	0x126
 1581 08a6 70000000 		.4byte	.LFB182
 1582 08aa 1C000000 		.4byte	.LFE182-.LFB182
 1583 08ae 01       		.uleb128 0x1
 1584 08af 9C       		.byte	0x9c
 1585 08b0 C4080000 		.4byte	0x8c4
 1586 08b4 26       		.uleb128 0x26
 1587 08b5 72020000 		.4byte	.LASF111
 1588 08b9 06       		.byte	0x6
 1589 08ba 9C01     		.2byte	0x19c
 1590 08bc 26010000 		.4byte	0x126
 1591 08c0 02       		.uleb128 0x2
 1592 08c1 91       		.byte	0x91
 1593 08c2 74       		.sleb128 -12
 1594 08c3 00       		.byte	0
 1595 08c4 27       		.uleb128 0x27
 1596 08c5 90050000 		.4byte	.LASF139
 1597 08c9 07       		.byte	0x7
 1598 08ca 5F       		.byte	0x5f
 1599 08cb 90000000 		.4byte	.LFB279
 1600 08cf 54000000 		.4byte	.LFE279-.LFB279
 1601 08d3 01       		.uleb128 0x1
 1602 08d4 9C       		.byte	0x9c
 1603 08d5 28       		.uleb128 0x28
 1604 08d6 73030000 		.4byte	.LASF112
 1605 08da 07       		.byte	0x7
 1606 08db 87       		.byte	0x87
 1607 08dc F0000000 		.4byte	.LFB280
 1608 08e0 3C000000 		.4byte	.LFE280-.LFB280
 1609 08e4 01       		.uleb128 0x1
 1610 08e5 9C       		.byte	0x9c
 1611 08e6 F7080000 		.4byte	0x8f7
 1612 08ea 29       		.uleb128 0x29
 1613 08eb 6900     		.ascii	"i\000"
 1614 08ed 07       		.byte	0x7
 1615 08ee 88       		.byte	0x88
 1616 08ef 37000000 		.4byte	0x37
 1617 08f3 02       		.uleb128 0x2
 1618 08f4 91       		.byte	0x91
 1619 08f5 74       		.sleb128 -12
ARM GAS  /tmp/cc2AKB7B.s 			page 30


 1620 08f6 00       		.byte	0
 1621 08f7 28       		.uleb128 0x28
 1622 08f8 0B030000 		.4byte	.LASF113
 1623 08fc 07       		.byte	0x7
 1624 08fd 92       		.byte	0x92
 1625 08fe 30010000 		.4byte	.LFB281
 1626 0902 44000000 		.4byte	.LFE281-.LFB281
 1627 0906 01       		.uleb128 0x1
 1628 0907 9C       		.byte	0x9c
 1629 0908 19090000 		.4byte	0x919
 1630 090c 29       		.uleb128 0x29
 1631 090d 6900     		.ascii	"i\000"
 1632 090f 07       		.byte	0x7
 1633 0910 93       		.byte	0x93
 1634 0911 37000000 		.4byte	0x37
 1635 0915 02       		.uleb128 0x2
 1636 0916 91       		.byte	0x91
 1637 0917 74       		.sleb128 -12
 1638 0918 00       		.byte	0
 1639 0919 2A       		.uleb128 0x2a
 1640 091a CF060000 		.4byte	.LASF140
 1641 091e 07       		.byte	0x7
 1642 091f 9F       		.byte	0x9f
 1643 0920 26010000 		.4byte	0x126
 1644 0924 80010000 		.4byte	.LFB282
 1645 0928 12000000 		.4byte	.LFE282-.LFB282
 1646 092c 01       		.uleb128 0x1
 1647 092d 9C       		.byte	0x9c
 1648 092e 2B       		.uleb128 0x2b
 1649 092f F0000000 		.4byte	.LASF114
 1650 0933 14       		.byte	0x14
 1651 0934 4407     		.2byte	0x744
 1652 0936 3A090000 		.4byte	0x93a
 1653 093a 0F       		.uleb128 0xf
 1654 093b AD000000 		.4byte	0xad
 1655 093f 2C       		.uleb128 0x2c
 1656 0940 636800   		.ascii	"ch\000"
 1657 0943 0D       		.byte	0xd
 1658 0944 D201     		.2byte	0x1d2
 1659 0946 D1030000 		.4byte	0x3d1
 1660 094a 10       		.uleb128 0x10
 1661 094b 55090000 		.4byte	0x955
 1662 094f 55090000 		.4byte	0x955
 1663 0953 2D       		.uleb128 0x2d
 1664 0954 00       		.byte	0
 1665 0955 0A       		.uleb128 0xa
 1666 0956 04       		.byte	0x4
 1667 0957 5B090000 		.4byte	0x95b
 1668 095b 18       		.uleb128 0x18
 1669 095c 8E070000 		.4byte	0x78e
 1670 0960 2E       		.uleb128 0x2e
 1671 0961 BE050000 		.4byte	.LASF115
 1672 0965 15       		.byte	0x15
 1673 0966 19       		.byte	0x19
 1674 0967 6B090000 		.4byte	0x96b
 1675 096b 18       		.uleb128 0x18
 1676 096c 4A090000 		.4byte	0x94a
ARM GAS  /tmp/cc2AKB7B.s 			page 31


 1677 0970 2E       		.uleb128 0x2e
 1678 0971 0D060000 		.4byte	.LASF116
 1679 0975 16       		.byte	0x16
 1680 0976 19       		.byte	0x19
 1681 0977 7B090000 		.4byte	0x97b
 1682 097b 18       		.uleb128 0x18
 1683 097c 4A090000 		.4byte	0x94a
 1684 0980 2E       		.uleb128 0x2e
 1685 0981 1F060000 		.4byte	.LASF117
 1686 0985 17       		.byte	0x17
 1687 0986 19       		.byte	0x19
 1688 0987 8B090000 		.4byte	0x98b
 1689 098b 18       		.uleb128 0x18
 1690 098c 4A090000 		.4byte	0x94a
 1691 0990 2E       		.uleb128 0x2e
 1692 0991 31060000 		.4byte	.LASF118
 1693 0995 18       		.byte	0x18
 1694 0996 19       		.byte	0x19
 1695 0997 9B090000 		.4byte	0x99b
 1696 099b 18       		.uleb128 0x18
 1697 099c 4A090000 		.4byte	0x94a
 1698 09a0 2E       		.uleb128 0x2e
 1699 09a1 43060000 		.4byte	.LASF119
 1700 09a5 19       		.byte	0x19
 1701 09a6 19       		.byte	0x19
 1702 09a7 AB090000 		.4byte	0x9ab
 1703 09ab 18       		.uleb128 0x18
 1704 09ac 4A090000 		.4byte	0x94a
 1705 09b0 2E       		.uleb128 0x2e
 1706 09b1 55060000 		.4byte	.LASF120
 1707 09b5 1A       		.byte	0x1a
 1708 09b6 19       		.byte	0x19
 1709 09b7 BB090000 		.4byte	0x9bb
 1710 09bb 18       		.uleb128 0x18
 1711 09bc 4A090000 		.4byte	0x94a
 1712 09c0 2E       		.uleb128 0x2e
 1713 09c1 67060000 		.4byte	.LASF121
 1714 09c5 1B       		.byte	0x1b
 1715 09c6 19       		.byte	0x19
 1716 09c7 CB090000 		.4byte	0x9cb
 1717 09cb 18       		.uleb128 0x18
 1718 09cc 4A090000 		.4byte	0x94a
 1719 09d0 2E       		.uleb128 0x2e
 1720 09d1 79060000 		.4byte	.LASF122
 1721 09d5 1C       		.byte	0x1c
 1722 09d6 19       		.byte	0x19
 1723 09d7 DB090000 		.4byte	0x9db
 1724 09db 18       		.uleb128 0x18
 1725 09dc 4A090000 		.4byte	0x94a
 1726 09e0 2E       		.uleb128 0x2e
 1727 09e1 8B060000 		.4byte	.LASF123
 1728 09e5 1D       		.byte	0x1d
 1729 09e6 19       		.byte	0x19
 1730 09e7 EB090000 		.4byte	0x9eb
 1731 09eb 18       		.uleb128 0x18
 1732 09ec 4A090000 		.4byte	0x94a
 1733 09f0 2E       		.uleb128 0x2e
ARM GAS  /tmp/cc2AKB7B.s 			page 32


 1734 09f1 2B000000 		.4byte	.LASF124
 1735 09f5 1E       		.byte	0x1e
 1736 09f6 19       		.byte	0x19
 1737 09f7 FB090000 		.4byte	0x9fb
 1738 09fb 18       		.uleb128 0x18
 1739 09fc 4A090000 		.4byte	0x94a
 1740 0a00 2E       		.uleb128 0x2e
 1741 0a01 3D000000 		.4byte	.LASF125
 1742 0a05 1F       		.byte	0x1f
 1743 0a06 19       		.byte	0x19
 1744 0a07 0B0A0000 		.4byte	0xa0b
 1745 0a0b 18       		.uleb128 0x18
 1746 0a0c 4A090000 		.4byte	0x94a
 1747 0a10 2E       		.uleb128 0x2e
 1748 0a11 4F000000 		.4byte	.LASF126
 1749 0a15 20       		.byte	0x20
 1750 0a16 19       		.byte	0x19
 1751 0a17 1B0A0000 		.4byte	0xa1b
 1752 0a1b 18       		.uleb128 0x18
 1753 0a1c 4A090000 		.4byte	0x94a
 1754 0a20 2E       		.uleb128 0x2e
 1755 0a21 61000000 		.4byte	.LASF127
 1756 0a25 21       		.byte	0x21
 1757 0a26 19       		.byte	0x19
 1758 0a27 2B0A0000 		.4byte	0xa2b
 1759 0a2b 18       		.uleb128 0x18
 1760 0a2c 4A090000 		.4byte	0x94a
 1761 0a30 10       		.uleb128 0x10
 1762 0a31 400A0000 		.4byte	0xa40
 1763 0a35 400A0000 		.4byte	0xa40
 1764 0a39 11       		.uleb128 0x11
 1765 0a3a 2A040000 		.4byte	0x42a
 1766 0a3e 0D       		.byte	0xd
 1767 0a3f 00       		.byte	0
 1768 0a40 0A       		.uleb128 0xa
 1769 0a41 04       		.byte	0x4
 1770 0a42 460A0000 		.4byte	0xa46
 1771 0a46 18       		.uleb128 0x18
 1772 0a47 55090000 		.4byte	0x955
 1773 0a4b 2F       		.uleb128 0x2f
 1774 0a4c 24050000 		.4byte	.LASF128
 1775 0a50 07       		.byte	0x7
 1776 0a51 3A       		.byte	0x3a
 1777 0a52 300A0000 		.4byte	0xa30
 1778 0a56 05       		.uleb128 0x5
 1779 0a57 03       		.byte	0x3
 1780 0a58 00000000 		.4byte	test_suite
 1781 0a5c 10       		.uleb128 0x10
 1782 0a5d A2000000 		.4byte	0xa2
 1783 0a61 6D0A0000 		.4byte	0xa6d
 1784 0a65 30       		.uleb128 0x30
 1785 0a66 2A040000 		.4byte	0x42a
 1786 0a6a 6706     		.2byte	0x667
 1787 0a6c 00       		.byte	0
 1788 0a6d 2F       		.uleb128 0x2f
 1789 0a6e F6020000 		.4byte	.LASF129
 1790 0a72 07       		.byte	0x7
ARM GAS  /tmp/cc2AKB7B.s 			page 33


 1791 0a73 74       		.byte	0x74
 1792 0a74 5C0A0000 		.4byte	0xa5c
 1793 0a78 05       		.uleb128 0x5
 1794 0a79 03       		.byte	0x3
 1795 0a7a 00000000 		.4byte	test_buffer
 1796 0a7e 10       		.uleb128 0x10
 1797 0a7f 25020000 		.4byte	0x225
 1798 0a83 8E0A0000 		.4byte	0xa8e
 1799 0a87 11       		.uleb128 0x11
 1800 0a88 2A040000 		.4byte	0x42a
 1801 0a8c 04       		.byte	0x4
 1802 0a8d 00       		.byte	0
 1803 0a8e 2F       		.uleb128 0x2f
 1804 0a8f EE030000 		.4byte	.LASF130
 1805 0a93 07       		.byte	0x7
 1806 0a94 79       		.byte	0x79
 1807 0a95 7E0A0000 		.4byte	0xa7e
 1808 0a99 05       		.uleb128 0x5
 1809 0a9a 03       		.byte	0x3
 1810 0a9b 00000000 		.4byte	threads
 1811 0a9f 10       		.uleb128 0x10
 1812 0aa0 02030000 		.4byte	0x302
 1813 0aa4 AF0A0000 		.4byte	0xaaf
 1814 0aa8 11       		.uleb128 0x11
 1815 0aa9 2A040000 		.4byte	0x42a
 1816 0aad 04       		.byte	0x4
 1817 0aae 00       		.byte	0
 1818 0aaf 31       		.uleb128 0x31
 1819 0ab0 776100   		.ascii	"wa\000"
 1820 0ab3 07       		.byte	0x7
 1821 0ab4 7E       		.byte	0x7e
 1822 0ab5 BF0A0000 		.4byte	0xabf
 1823 0ab9 05       		.uleb128 0x5
 1824 0aba 03       		.byte	0x3
 1825 0abb 00000000 		.4byte	wa
 1826 0abf 18       		.uleb128 0x18
 1827 0ac0 9F0A0000 		.4byte	0xa9f
 1828 0ac4 00       		.byte	0
 1829              		.section	.debug_abbrev,"",%progbits
 1830              	.Ldebug_abbrev0:
 1831 0000 01       		.uleb128 0x1
 1832 0001 11       		.uleb128 0x11
 1833 0002 01       		.byte	0x1
 1834 0003 25       		.uleb128 0x25
 1835 0004 0E       		.uleb128 0xe
 1836 0005 13       		.uleb128 0x13
 1837 0006 0B       		.uleb128 0xb
 1838 0007 03       		.uleb128 0x3
 1839 0008 0E       		.uleb128 0xe
 1840 0009 1B       		.uleb128 0x1b
 1841 000a 0E       		.uleb128 0xe
 1842 000b 11       		.uleb128 0x11
 1843 000c 01       		.uleb128 0x1
 1844 000d 12       		.uleb128 0x12
 1845 000e 06       		.uleb128 0x6
 1846 000f 10       		.uleb128 0x10
 1847 0010 17       		.uleb128 0x17
ARM GAS  /tmp/cc2AKB7B.s 			page 34


 1848 0011 00       		.byte	0
 1849 0012 00       		.byte	0
 1850 0013 02       		.uleb128 0x2
 1851 0014 24       		.uleb128 0x24
 1852 0015 00       		.byte	0
 1853 0016 0B       		.uleb128 0xb
 1854 0017 0B       		.uleb128 0xb
 1855 0018 3E       		.uleb128 0x3e
 1856 0019 0B       		.uleb128 0xb
 1857 001a 03       		.uleb128 0x3
 1858 001b 08       		.uleb128 0x8
 1859 001c 00       		.byte	0
 1860 001d 00       		.byte	0
 1861 001e 03       		.uleb128 0x3
 1862 001f 16       		.uleb128 0x16
 1863 0020 00       		.byte	0
 1864 0021 03       		.uleb128 0x3
 1865 0022 0E       		.uleb128 0xe
 1866 0023 3A       		.uleb128 0x3a
 1867 0024 0B       		.uleb128 0xb
 1868 0025 3B       		.uleb128 0x3b
 1869 0026 0B       		.uleb128 0xb
 1870 0027 49       		.uleb128 0x49
 1871 0028 13       		.uleb128 0x13
 1872 0029 00       		.byte	0
 1873 002a 00       		.byte	0
 1874 002b 04       		.uleb128 0x4
 1875 002c 24       		.uleb128 0x24
 1876 002d 00       		.byte	0
 1877 002e 0B       		.uleb128 0xb
 1878 002f 0B       		.uleb128 0xb
 1879 0030 3E       		.uleb128 0x3e
 1880 0031 0B       		.uleb128 0xb
 1881 0032 03       		.uleb128 0x3
 1882 0033 0E       		.uleb128 0xe
 1883 0034 00       		.byte	0
 1884 0035 00       		.byte	0
 1885 0036 05       		.uleb128 0x5
 1886 0037 13       		.uleb128 0x13
 1887 0038 01       		.byte	0x1
 1888 0039 03       		.uleb128 0x3
 1889 003a 0E       		.uleb128 0xe
 1890 003b 0B       		.uleb128 0xb
 1891 003c 0B       		.uleb128 0xb
 1892 003d 3A       		.uleb128 0x3a
 1893 003e 0B       		.uleb128 0xb
 1894 003f 3B       		.uleb128 0x3b
 1895 0040 0B       		.uleb128 0xb
 1896 0041 01       		.uleb128 0x1
 1897 0042 13       		.uleb128 0x13
 1898 0043 00       		.byte	0
 1899 0044 00       		.byte	0
 1900 0045 06       		.uleb128 0x6
 1901 0046 0D       		.uleb128 0xd
 1902 0047 00       		.byte	0
 1903 0048 03       		.uleb128 0x3
 1904 0049 0E       		.uleb128 0xe
ARM GAS  /tmp/cc2AKB7B.s 			page 35


 1905 004a 3A       		.uleb128 0x3a
 1906 004b 0B       		.uleb128 0xb
 1907 004c 3B       		.uleb128 0x3b
 1908 004d 0B       		.uleb128 0xb
 1909 004e 49       		.uleb128 0x49
 1910 004f 13       		.uleb128 0x13
 1911 0050 38       		.uleb128 0x38
 1912 0051 0B       		.uleb128 0xb
 1913 0052 00       		.byte	0
 1914 0053 00       		.byte	0
 1915 0054 07       		.uleb128 0x7
 1916 0055 0D       		.uleb128 0xd
 1917 0056 00       		.byte	0
 1918 0057 03       		.uleb128 0x3
 1919 0058 08       		.uleb128 0x8
 1920 0059 3A       		.uleb128 0x3a
 1921 005a 0B       		.uleb128 0xb
 1922 005b 3B       		.uleb128 0x3b
 1923 005c 0B       		.uleb128 0xb
 1924 005d 49       		.uleb128 0x49
 1925 005e 13       		.uleb128 0x13
 1926 005f 38       		.uleb128 0x38
 1927 0060 0B       		.uleb128 0xb
 1928 0061 00       		.byte	0
 1929 0062 00       		.byte	0
 1930 0063 08       		.uleb128 0x8
 1931 0064 0D       		.uleb128 0xd
 1932 0065 00       		.byte	0
 1933 0066 03       		.uleb128 0x3
 1934 0067 08       		.uleb128 0x8
 1935 0068 3A       		.uleb128 0x3a
 1936 0069 0B       		.uleb128 0xb
 1937 006a 3B       		.uleb128 0x3b
 1938 006b 05       		.uleb128 0x5
 1939 006c 49       		.uleb128 0x49
 1940 006d 13       		.uleb128 0x13
 1941 006e 38       		.uleb128 0x38
 1942 006f 0B       		.uleb128 0xb
 1943 0070 00       		.byte	0
 1944 0071 00       		.byte	0
 1945 0072 09       		.uleb128 0x9
 1946 0073 0D       		.uleb128 0xd
 1947 0074 00       		.byte	0
 1948 0075 03       		.uleb128 0x3
 1949 0076 0E       		.uleb128 0xe
 1950 0077 3A       		.uleb128 0x3a
 1951 0078 0B       		.uleb128 0xb
 1952 0079 3B       		.uleb128 0x3b
 1953 007a 05       		.uleb128 0x5
 1954 007b 49       		.uleb128 0x49
 1955 007c 13       		.uleb128 0x13
 1956 007d 38       		.uleb128 0x38
 1957 007e 0B       		.uleb128 0xb
 1958 007f 00       		.byte	0
 1959 0080 00       		.byte	0
 1960 0081 0A       		.uleb128 0xa
 1961 0082 0F       		.uleb128 0xf
ARM GAS  /tmp/cc2AKB7B.s 			page 36


 1962 0083 00       		.byte	0
 1963 0084 0B       		.uleb128 0xb
 1964 0085 0B       		.uleb128 0xb
 1965 0086 49       		.uleb128 0x49
 1966 0087 13       		.uleb128 0x13
 1967 0088 00       		.byte	0
 1968 0089 00       		.byte	0
 1969 008a 0B       		.uleb128 0xb
 1970 008b 13       		.uleb128 0x13
 1971 008c 01       		.byte	0x1
 1972 008d 03       		.uleb128 0x3
 1973 008e 0E       		.uleb128 0xe
 1974 008f 0B       		.uleb128 0xb
 1975 0090 0B       		.uleb128 0xb
 1976 0091 3A       		.uleb128 0x3a
 1977 0092 0B       		.uleb128 0xb
 1978 0093 3B       		.uleb128 0x3b
 1979 0094 05       		.uleb128 0x5
 1980 0095 01       		.uleb128 0x1
 1981 0096 13       		.uleb128 0x13
 1982 0097 00       		.byte	0
 1983 0098 00       		.byte	0
 1984 0099 0C       		.uleb128 0xc
 1985 009a 15       		.uleb128 0x15
 1986 009b 01       		.byte	0x1
 1987 009c 27       		.uleb128 0x27
 1988 009d 19       		.uleb128 0x19
 1989 009e 01       		.uleb128 0x1
 1990 009f 13       		.uleb128 0x13
 1991 00a0 00       		.byte	0
 1992 00a1 00       		.byte	0
 1993 00a2 0D       		.uleb128 0xd
 1994 00a3 05       		.uleb128 0x5
 1995 00a4 00       		.byte	0
 1996 00a5 49       		.uleb128 0x49
 1997 00a6 13       		.uleb128 0x13
 1998 00a7 00       		.byte	0
 1999 00a8 00       		.byte	0
 2000 00a9 0E       		.uleb128 0xe
 2001 00aa 0F       		.uleb128 0xf
 2002 00ab 00       		.byte	0
 2003 00ac 0B       		.uleb128 0xb
 2004 00ad 0B       		.uleb128 0xb
 2005 00ae 00       		.byte	0
 2006 00af 00       		.byte	0
 2007 00b0 0F       		.uleb128 0xf
 2008 00b1 35       		.uleb128 0x35
 2009 00b2 00       		.byte	0
 2010 00b3 49       		.uleb128 0x49
 2011 00b4 13       		.uleb128 0x13
 2012 00b5 00       		.byte	0
 2013 00b6 00       		.byte	0
 2014 00b7 10       		.uleb128 0x10
 2015 00b8 01       		.uleb128 0x1
 2016 00b9 01       		.byte	0x1
 2017 00ba 49       		.uleb128 0x49
 2018 00bb 13       		.uleb128 0x13
ARM GAS  /tmp/cc2AKB7B.s 			page 37


 2019 00bc 01       		.uleb128 0x1
 2020 00bd 13       		.uleb128 0x13
 2021 00be 00       		.byte	0
 2022 00bf 00       		.byte	0
 2023 00c0 11       		.uleb128 0x11
 2024 00c1 21       		.uleb128 0x21
 2025 00c2 00       		.byte	0
 2026 00c3 49       		.uleb128 0x49
 2027 00c4 13       		.uleb128 0x13
 2028 00c5 2F       		.uleb128 0x2f
 2029 00c6 0B       		.uleb128 0xb
 2030 00c7 00       		.byte	0
 2031 00c8 00       		.byte	0
 2032 00c9 12       		.uleb128 0x12
 2033 00ca 13       		.uleb128 0x13
 2034 00cb 01       		.byte	0x1
 2035 00cc 0B       		.uleb128 0xb
 2036 00cd 0B       		.uleb128 0xb
 2037 00ce 3A       		.uleb128 0x3a
 2038 00cf 0B       		.uleb128 0xb
 2039 00d0 3B       		.uleb128 0x3b
 2040 00d1 05       		.uleb128 0x5
 2041 00d2 01       		.uleb128 0x1
 2042 00d3 13       		.uleb128 0x13
 2043 00d4 00       		.byte	0
 2044 00d5 00       		.byte	0
 2045 00d6 13       		.uleb128 0x13
 2046 00d7 16       		.uleb128 0x16
 2047 00d8 00       		.byte	0
 2048 00d9 03       		.uleb128 0x3
 2049 00da 0E       		.uleb128 0xe
 2050 00db 3A       		.uleb128 0x3a
 2051 00dc 0B       		.uleb128 0xb
 2052 00dd 3B       		.uleb128 0x3b
 2053 00de 05       		.uleb128 0x5
 2054 00df 49       		.uleb128 0x49
 2055 00e0 13       		.uleb128 0x13
 2056 00e1 00       		.byte	0
 2057 00e2 00       		.byte	0
 2058 00e3 14       		.uleb128 0x14
 2059 00e4 13       		.uleb128 0x13
 2060 00e5 01       		.byte	0x1
 2061 00e6 0B       		.uleb128 0xb
 2062 00e7 0B       		.uleb128 0xb
 2063 00e8 3A       		.uleb128 0x3a
 2064 00e9 0B       		.uleb128 0xb
 2065 00ea 3B       		.uleb128 0x3b
 2066 00eb 0B       		.uleb128 0xb
 2067 00ec 01       		.uleb128 0x1
 2068 00ed 13       		.uleb128 0x13
 2069 00ee 00       		.byte	0
 2070 00ef 00       		.byte	0
 2071 00f0 15       		.uleb128 0x15
 2072 00f1 17       		.uleb128 0x17
 2073 00f2 01       		.byte	0x1
 2074 00f3 0B       		.uleb128 0xb
 2075 00f4 0B       		.uleb128 0xb
ARM GAS  /tmp/cc2AKB7B.s 			page 38


 2076 00f5 3A       		.uleb128 0x3a
 2077 00f6 0B       		.uleb128 0xb
 2078 00f7 3B       		.uleb128 0x3b
 2079 00f8 0B       		.uleb128 0xb
 2080 00f9 01       		.uleb128 0x1
 2081 00fa 13       		.uleb128 0x13
 2082 00fb 00       		.byte	0
 2083 00fc 00       		.byte	0
 2084 00fd 16       		.uleb128 0x16
 2085 00fe 0D       		.uleb128 0xd
 2086 00ff 00       		.byte	0
 2087 0100 03       		.uleb128 0x3
 2088 0101 0E       		.uleb128 0xe
 2089 0102 3A       		.uleb128 0x3a
 2090 0103 0B       		.uleb128 0xb
 2091 0104 3B       		.uleb128 0x3b
 2092 0105 0B       		.uleb128 0xb
 2093 0106 49       		.uleb128 0x49
 2094 0107 13       		.uleb128 0x13
 2095 0108 00       		.byte	0
 2096 0109 00       		.byte	0
 2097 010a 17       		.uleb128 0x17
 2098 010b 0D       		.uleb128 0xd
 2099 010c 00       		.byte	0
 2100 010d 03       		.uleb128 0x3
 2101 010e 0E       		.uleb128 0xe
 2102 010f 3A       		.uleb128 0x3a
 2103 0110 0B       		.uleb128 0xb
 2104 0111 3B       		.uleb128 0x3b
 2105 0112 05       		.uleb128 0x5
 2106 0113 49       		.uleb128 0x49
 2107 0114 13       		.uleb128 0x13
 2108 0115 00       		.byte	0
 2109 0116 00       		.byte	0
 2110 0117 18       		.uleb128 0x18
 2111 0118 26       		.uleb128 0x26
 2112 0119 00       		.byte	0
 2113 011a 49       		.uleb128 0x49
 2114 011b 13       		.uleb128 0x13
 2115 011c 00       		.byte	0
 2116 011d 00       		.byte	0
 2117 011e 19       		.uleb128 0x19
 2118 011f 15       		.uleb128 0x15
 2119 0120 00       		.byte	0
 2120 0121 27       		.uleb128 0x27
 2121 0122 19       		.uleb128 0x19
 2122 0123 00       		.byte	0
 2123 0124 00       		.byte	0
 2124 0125 1A       		.uleb128 0x1a
 2125 0126 2E       		.uleb128 0x2e
 2126 0127 01       		.byte	0x1
 2127 0128 03       		.uleb128 0x3
 2128 0129 0E       		.uleb128 0xe
 2129 012a 3A       		.uleb128 0x3a
 2130 012b 0B       		.uleb128 0xb
 2131 012c 3B       		.uleb128 0x3b
 2132 012d 05       		.uleb128 0x5
ARM GAS  /tmp/cc2AKB7B.s 			page 39


 2133 012e 27       		.uleb128 0x27
 2134 012f 19       		.uleb128 0x19
 2135 0130 20       		.uleb128 0x20
 2136 0131 0B       		.uleb128 0xb
 2137 0132 01       		.uleb128 0x1
 2138 0133 13       		.uleb128 0x13
 2139 0134 00       		.byte	0
 2140 0135 00       		.byte	0
 2141 0136 1B       		.uleb128 0x1b
 2142 0137 05       		.uleb128 0x5
 2143 0138 00       		.byte	0
 2144 0139 03       		.uleb128 0x3
 2145 013a 0E       		.uleb128 0xe
 2146 013b 3A       		.uleb128 0x3a
 2147 013c 0B       		.uleb128 0xb
 2148 013d 3B       		.uleb128 0x3b
 2149 013e 05       		.uleb128 0x5
 2150 013f 49       		.uleb128 0x49
 2151 0140 13       		.uleb128 0x13
 2152 0141 00       		.byte	0
 2153 0142 00       		.byte	0
 2154 0143 1C       		.uleb128 0x1c
 2155 0144 2E       		.uleb128 0x2e
 2156 0145 01       		.byte	0x1
 2157 0146 03       		.uleb128 0x3
 2158 0147 0E       		.uleb128 0xe
 2159 0148 3A       		.uleb128 0x3a
 2160 0149 0B       		.uleb128 0xb
 2161 014a 3B       		.uleb128 0x3b
 2162 014b 05       		.uleb128 0x5
 2163 014c 27       		.uleb128 0x27
 2164 014d 19       		.uleb128 0x19
 2165 014e 11       		.uleb128 0x11
 2166 014f 01       		.uleb128 0x1
 2167 0150 12       		.uleb128 0x12
 2168 0151 06       		.uleb128 0x6
 2169 0152 40       		.uleb128 0x40
 2170 0153 18       		.uleb128 0x18
 2171 0154 9742     		.uleb128 0x2117
 2172 0156 19       		.uleb128 0x19
 2173 0157 01       		.uleb128 0x1
 2174 0158 13       		.uleb128 0x13
 2175 0159 00       		.byte	0
 2176 015a 00       		.byte	0
 2177 015b 1D       		.uleb128 0x1d
 2178 015c 1D       		.uleb128 0x1d
 2179 015d 01       		.byte	0x1
 2180 015e 31       		.uleb128 0x31
 2181 015f 13       		.uleb128 0x13
 2182 0160 11       		.uleb128 0x11
 2183 0161 01       		.uleb128 0x1
 2184 0162 12       		.uleb128 0x12
 2185 0163 06       		.uleb128 0x6
 2186 0164 58       		.uleb128 0x58
 2187 0165 0B       		.uleb128 0xb
 2188 0166 59       		.uleb128 0x59
 2189 0167 05       		.uleb128 0x5
ARM GAS  /tmp/cc2AKB7B.s 			page 40


 2190 0168 00       		.byte	0
 2191 0169 00       		.byte	0
 2192 016a 1E       		.uleb128 0x1e
 2193 016b 05       		.uleb128 0x5
 2194 016c 00       		.byte	0
 2195 016d 31       		.uleb128 0x31
 2196 016e 13       		.uleb128 0x13
 2197 016f 02       		.uleb128 0x2
 2198 0170 18       		.uleb128 0x18
 2199 0171 00       		.byte	0
 2200 0172 00       		.byte	0
 2201 0173 1F       		.uleb128 0x1f
 2202 0174 2E       		.uleb128 0x2e
 2203 0175 00       		.byte	0
 2204 0176 03       		.uleb128 0x3
 2205 0177 0E       		.uleb128 0xe
 2206 0178 3A       		.uleb128 0x3a
 2207 0179 0B       		.uleb128 0xb
 2208 017a 3B       		.uleb128 0x3b
 2209 017b 0B       		.uleb128 0xb
 2210 017c 27       		.uleb128 0x27
 2211 017d 19       		.uleb128 0x19
 2212 017e 49       		.uleb128 0x49
 2213 017f 13       		.uleb128 0x13
 2214 0180 11       		.uleb128 0x11
 2215 0181 01       		.uleb128 0x1
 2216 0182 12       		.uleb128 0x12
 2217 0183 06       		.uleb128 0x6
 2218 0184 40       		.uleb128 0x40
 2219 0185 18       		.uleb128 0x18
 2220 0186 9742     		.uleb128 0x2117
 2221 0188 19       		.uleb128 0x19
 2222 0189 00       		.byte	0
 2223 018a 00       		.byte	0
 2224 018b 20       		.uleb128 0x20
 2225 018c 2E       		.uleb128 0x2e
 2226 018d 00       		.byte	0
 2227 018e 03       		.uleb128 0x3
 2228 018f 0E       		.uleb128 0xe
 2229 0190 3A       		.uleb128 0x3a
 2230 0191 0B       		.uleb128 0xb
 2231 0192 3B       		.uleb128 0x3b
 2232 0193 0B       		.uleb128 0xb
 2233 0194 27       		.uleb128 0x27
 2234 0195 19       		.uleb128 0x19
 2235 0196 49       		.uleb128 0x49
 2236 0197 13       		.uleb128 0x13
 2237 0198 11       		.uleb128 0x11
 2238 0199 01       		.uleb128 0x1
 2239 019a 12       		.uleb128 0x12
 2240 019b 06       		.uleb128 0x6
 2241 019c 40       		.uleb128 0x40
 2242 019d 18       		.uleb128 0x18
 2243 019e 9642     		.uleb128 0x2116
 2244 01a0 19       		.uleb128 0x19
 2245 01a1 00       		.byte	0
 2246 01a2 00       		.byte	0
ARM GAS  /tmp/cc2AKB7B.s 			page 41


 2247 01a3 21       		.uleb128 0x21
 2248 01a4 2E       		.uleb128 0x2e
 2249 01a5 00       		.byte	0
 2250 01a6 03       		.uleb128 0x3
 2251 01a7 0E       		.uleb128 0xe
 2252 01a8 3A       		.uleb128 0x3a
 2253 01a9 0B       		.uleb128 0xb
 2254 01aa 3B       		.uleb128 0x3b
 2255 01ab 05       		.uleb128 0x5
 2256 01ac 27       		.uleb128 0x27
 2257 01ad 19       		.uleb128 0x19
 2258 01ae 11       		.uleb128 0x11
 2259 01af 01       		.uleb128 0x1
 2260 01b0 12       		.uleb128 0x12
 2261 01b1 06       		.uleb128 0x6
 2262 01b2 40       		.uleb128 0x40
 2263 01b3 18       		.uleb128 0x18
 2264 01b4 9642     		.uleb128 0x2116
 2265 01b6 19       		.uleb128 0x19
 2266 01b7 00       		.byte	0
 2267 01b8 00       		.byte	0
 2268 01b9 22       		.uleb128 0x22
 2269 01ba 2E       		.uleb128 0x2e
 2270 01bb 01       		.byte	0x1
 2271 01bc 03       		.uleb128 0x3
 2272 01bd 0E       		.uleb128 0xe
 2273 01be 3A       		.uleb128 0x3a
 2274 01bf 0B       		.uleb128 0xb
 2275 01c0 3B       		.uleb128 0x3b
 2276 01c1 05       		.uleb128 0x5
 2277 01c2 27       		.uleb128 0x27
 2278 01c3 19       		.uleb128 0x19
 2279 01c4 11       		.uleb128 0x11
 2280 01c5 01       		.uleb128 0x1
 2281 01c6 12       		.uleb128 0x12
 2282 01c7 06       		.uleb128 0x6
 2283 01c8 40       		.uleb128 0x40
 2284 01c9 18       		.uleb128 0x18
 2285 01ca 9642     		.uleb128 0x2116
 2286 01cc 19       		.uleb128 0x19
 2287 01cd 01       		.uleb128 0x1
 2288 01ce 13       		.uleb128 0x13
 2289 01cf 00       		.byte	0
 2290 01d0 00       		.byte	0
 2291 01d1 23       		.uleb128 0x23
 2292 01d2 34       		.uleb128 0x34
 2293 01d3 00       		.byte	0
 2294 01d4 03       		.uleb128 0x3
 2295 01d5 0E       		.uleb128 0xe
 2296 01d6 49       		.uleb128 0x49
 2297 01d7 13       		.uleb128 0x13
 2298 01d8 34       		.uleb128 0x34
 2299 01d9 19       		.uleb128 0x19
 2300 01da 00       		.byte	0
 2301 01db 00       		.byte	0
 2302 01dc 24       		.uleb128 0x24
 2303 01dd 2E       		.uleb128 0x2e
ARM GAS  /tmp/cc2AKB7B.s 			page 42


 2304 01de 00       		.byte	0
 2305 01df 03       		.uleb128 0x3
 2306 01e0 0E       		.uleb128 0xe
 2307 01e1 3A       		.uleb128 0x3a
 2308 01e2 0B       		.uleb128 0xb
 2309 01e3 3B       		.uleb128 0x3b
 2310 01e4 05       		.uleb128 0x5
 2311 01e5 27       		.uleb128 0x27
 2312 01e6 19       		.uleb128 0x19
 2313 01e7 49       		.uleb128 0x49
 2314 01e8 13       		.uleb128 0x13
 2315 01e9 11       		.uleb128 0x11
 2316 01ea 01       		.uleb128 0x1
 2317 01eb 12       		.uleb128 0x12
 2318 01ec 06       		.uleb128 0x6
 2319 01ed 40       		.uleb128 0x40
 2320 01ee 18       		.uleb128 0x18
 2321 01ef 9642     		.uleb128 0x2116
 2322 01f1 19       		.uleb128 0x19
 2323 01f2 00       		.byte	0
 2324 01f3 00       		.byte	0
 2325 01f4 25       		.uleb128 0x25
 2326 01f5 2E       		.uleb128 0x2e
 2327 01f6 01       		.byte	0x1
 2328 01f7 03       		.uleb128 0x3
 2329 01f8 0E       		.uleb128 0xe
 2330 01f9 3A       		.uleb128 0x3a
 2331 01fa 0B       		.uleb128 0xb
 2332 01fb 3B       		.uleb128 0x3b
 2333 01fc 05       		.uleb128 0x5
 2334 01fd 27       		.uleb128 0x27
 2335 01fe 19       		.uleb128 0x19
 2336 01ff 49       		.uleb128 0x49
 2337 0200 13       		.uleb128 0x13
 2338 0201 11       		.uleb128 0x11
 2339 0202 01       		.uleb128 0x1
 2340 0203 12       		.uleb128 0x12
 2341 0204 06       		.uleb128 0x6
 2342 0205 40       		.uleb128 0x40
 2343 0206 18       		.uleb128 0x18
 2344 0207 9642     		.uleb128 0x2116
 2345 0209 19       		.uleb128 0x19
 2346 020a 01       		.uleb128 0x1
 2347 020b 13       		.uleb128 0x13
 2348 020c 00       		.byte	0
 2349 020d 00       		.byte	0
 2350 020e 26       		.uleb128 0x26
 2351 020f 34       		.uleb128 0x34
 2352 0210 00       		.byte	0
 2353 0211 03       		.uleb128 0x3
 2354 0212 0E       		.uleb128 0xe
 2355 0213 3A       		.uleb128 0x3a
 2356 0214 0B       		.uleb128 0xb
 2357 0215 3B       		.uleb128 0x3b
 2358 0216 05       		.uleb128 0x5
 2359 0217 49       		.uleb128 0x49
 2360 0218 13       		.uleb128 0x13
ARM GAS  /tmp/cc2AKB7B.s 			page 43


 2361 0219 02       		.uleb128 0x2
 2362 021a 18       		.uleb128 0x18
 2363 021b 00       		.byte	0
 2364 021c 00       		.byte	0
 2365 021d 27       		.uleb128 0x27
 2366 021e 2E       		.uleb128 0x2e
 2367 021f 00       		.byte	0
 2368 0220 3F       		.uleb128 0x3f
 2369 0221 19       		.uleb128 0x19
 2370 0222 03       		.uleb128 0x3
 2371 0223 0E       		.uleb128 0xe
 2372 0224 3A       		.uleb128 0x3a
 2373 0225 0B       		.uleb128 0xb
 2374 0226 3B       		.uleb128 0x3b
 2375 0227 0B       		.uleb128 0xb
 2376 0228 27       		.uleb128 0x27
 2377 0229 19       		.uleb128 0x19
 2378 022a 11       		.uleb128 0x11
 2379 022b 01       		.uleb128 0x1
 2380 022c 12       		.uleb128 0x12
 2381 022d 06       		.uleb128 0x6
 2382 022e 40       		.uleb128 0x40
 2383 022f 18       		.uleb128 0x18
 2384 0230 9642     		.uleb128 0x2116
 2385 0232 19       		.uleb128 0x19
 2386 0233 00       		.byte	0
 2387 0234 00       		.byte	0
 2388 0235 28       		.uleb128 0x28
 2389 0236 2E       		.uleb128 0x2e
 2390 0237 01       		.byte	0x1
 2391 0238 3F       		.uleb128 0x3f
 2392 0239 19       		.uleb128 0x19
 2393 023a 03       		.uleb128 0x3
 2394 023b 0E       		.uleb128 0xe
 2395 023c 3A       		.uleb128 0x3a
 2396 023d 0B       		.uleb128 0xb
 2397 023e 3B       		.uleb128 0x3b
 2398 023f 0B       		.uleb128 0xb
 2399 0240 27       		.uleb128 0x27
 2400 0241 19       		.uleb128 0x19
 2401 0242 11       		.uleb128 0x11
 2402 0243 01       		.uleb128 0x1
 2403 0244 12       		.uleb128 0x12
 2404 0245 06       		.uleb128 0x6
 2405 0246 40       		.uleb128 0x40
 2406 0247 18       		.uleb128 0x18
 2407 0248 9642     		.uleb128 0x2116
 2408 024a 19       		.uleb128 0x19
 2409 024b 01       		.uleb128 0x1
 2410 024c 13       		.uleb128 0x13
 2411 024d 00       		.byte	0
 2412 024e 00       		.byte	0
 2413 024f 29       		.uleb128 0x29
 2414 0250 34       		.uleb128 0x34
 2415 0251 00       		.byte	0
 2416 0252 03       		.uleb128 0x3
 2417 0253 08       		.uleb128 0x8
ARM GAS  /tmp/cc2AKB7B.s 			page 44


 2418 0254 3A       		.uleb128 0x3a
 2419 0255 0B       		.uleb128 0xb
 2420 0256 3B       		.uleb128 0x3b
 2421 0257 0B       		.uleb128 0xb
 2422 0258 49       		.uleb128 0x49
 2423 0259 13       		.uleb128 0x13
 2424 025a 02       		.uleb128 0x2
 2425 025b 18       		.uleb128 0x18
 2426 025c 00       		.byte	0
 2427 025d 00       		.byte	0
 2428 025e 2A       		.uleb128 0x2a
 2429 025f 2E       		.uleb128 0x2e
 2430 0260 00       		.byte	0
 2431 0261 3F       		.uleb128 0x3f
 2432 0262 19       		.uleb128 0x19
 2433 0263 03       		.uleb128 0x3
 2434 0264 0E       		.uleb128 0xe
 2435 0265 3A       		.uleb128 0x3a
 2436 0266 0B       		.uleb128 0xb
 2437 0267 3B       		.uleb128 0x3b
 2438 0268 0B       		.uleb128 0xb
 2439 0269 27       		.uleb128 0x27
 2440 026a 19       		.uleb128 0x19
 2441 026b 49       		.uleb128 0x49
 2442 026c 13       		.uleb128 0x13
 2443 026d 11       		.uleb128 0x11
 2444 026e 01       		.uleb128 0x1
 2445 026f 12       		.uleb128 0x12
 2446 0270 06       		.uleb128 0x6
 2447 0271 40       		.uleb128 0x40
 2448 0272 18       		.uleb128 0x18
 2449 0273 9642     		.uleb128 0x2116
 2450 0275 19       		.uleb128 0x19
 2451 0276 00       		.byte	0
 2452 0277 00       		.byte	0
 2453 0278 2B       		.uleb128 0x2b
 2454 0279 34       		.uleb128 0x34
 2455 027a 00       		.byte	0
 2456 027b 03       		.uleb128 0x3
 2457 027c 0E       		.uleb128 0xe
 2458 027d 3A       		.uleb128 0x3a
 2459 027e 0B       		.uleb128 0xb
 2460 027f 3B       		.uleb128 0x3b
 2461 0280 05       		.uleb128 0x5
 2462 0281 49       		.uleb128 0x49
 2463 0282 13       		.uleb128 0x13
 2464 0283 3F       		.uleb128 0x3f
 2465 0284 19       		.uleb128 0x19
 2466 0285 3C       		.uleb128 0x3c
 2467 0286 19       		.uleb128 0x19
 2468 0287 00       		.byte	0
 2469 0288 00       		.byte	0
 2470 0289 2C       		.uleb128 0x2c
 2471 028a 34       		.uleb128 0x34
 2472 028b 00       		.byte	0
 2473 028c 03       		.uleb128 0x3
 2474 028d 08       		.uleb128 0x8
ARM GAS  /tmp/cc2AKB7B.s 			page 45


 2475 028e 3A       		.uleb128 0x3a
 2476 028f 0B       		.uleb128 0xb
 2477 0290 3B       		.uleb128 0x3b
 2478 0291 05       		.uleb128 0x5
 2479 0292 49       		.uleb128 0x49
 2480 0293 13       		.uleb128 0x13
 2481 0294 3F       		.uleb128 0x3f
 2482 0295 19       		.uleb128 0x19
 2483 0296 3C       		.uleb128 0x3c
 2484 0297 19       		.uleb128 0x19
 2485 0298 00       		.byte	0
 2486 0299 00       		.byte	0
 2487 029a 2D       		.uleb128 0x2d
 2488 029b 21       		.uleb128 0x21
 2489 029c 00       		.byte	0
 2490 029d 00       		.byte	0
 2491 029e 00       		.byte	0
 2492 029f 2E       		.uleb128 0x2e
 2493 02a0 34       		.uleb128 0x34
 2494 02a1 00       		.byte	0
 2495 02a2 03       		.uleb128 0x3
 2496 02a3 0E       		.uleb128 0xe
 2497 02a4 3A       		.uleb128 0x3a
 2498 02a5 0B       		.uleb128 0xb
 2499 02a6 3B       		.uleb128 0x3b
 2500 02a7 0B       		.uleb128 0xb
 2501 02a8 49       		.uleb128 0x49
 2502 02a9 13       		.uleb128 0x13
 2503 02aa 3F       		.uleb128 0x3f
 2504 02ab 19       		.uleb128 0x19
 2505 02ac 3C       		.uleb128 0x3c
 2506 02ad 19       		.uleb128 0x19
 2507 02ae 00       		.byte	0
 2508 02af 00       		.byte	0
 2509 02b0 2F       		.uleb128 0x2f
 2510 02b1 34       		.uleb128 0x34
 2511 02b2 00       		.byte	0
 2512 02b3 03       		.uleb128 0x3
 2513 02b4 0E       		.uleb128 0xe
 2514 02b5 3A       		.uleb128 0x3a
 2515 02b6 0B       		.uleb128 0xb
 2516 02b7 3B       		.uleb128 0x3b
 2517 02b8 0B       		.uleb128 0xb
 2518 02b9 49       		.uleb128 0x49
 2519 02ba 13       		.uleb128 0x13
 2520 02bb 3F       		.uleb128 0x3f
 2521 02bc 19       		.uleb128 0x19
 2522 02bd 02       		.uleb128 0x2
 2523 02be 18       		.uleb128 0x18
 2524 02bf 00       		.byte	0
 2525 02c0 00       		.byte	0
 2526 02c1 30       		.uleb128 0x30
 2527 02c2 21       		.uleb128 0x21
 2528 02c3 00       		.byte	0
 2529 02c4 49       		.uleb128 0x49
 2530 02c5 13       		.uleb128 0x13
 2531 02c6 2F       		.uleb128 0x2f
ARM GAS  /tmp/cc2AKB7B.s 			page 46


 2532 02c7 05       		.uleb128 0x5
 2533 02c8 00       		.byte	0
 2534 02c9 00       		.byte	0
 2535 02ca 31       		.uleb128 0x31
 2536 02cb 34       		.uleb128 0x34
 2537 02cc 00       		.byte	0
 2538 02cd 03       		.uleb128 0x3
 2539 02ce 08       		.uleb128 0x8
 2540 02cf 3A       		.uleb128 0x3a
 2541 02d0 0B       		.uleb128 0xb
 2542 02d1 3B       		.uleb128 0x3b
 2543 02d2 0B       		.uleb128 0xb
 2544 02d3 49       		.uleb128 0x49
 2545 02d4 13       		.uleb128 0x13
 2546 02d5 3F       		.uleb128 0x3f
 2547 02d6 19       		.uleb128 0x19
 2548 02d7 02       		.uleb128 0x2
 2549 02d8 18       		.uleb128 0x18
 2550 02d9 00       		.byte	0
 2551 02da 00       		.byte	0
 2552 02db 00       		.byte	0
 2553              		.section	.debug_aranges,"",%progbits
 2554 0000 1C000000 		.4byte	0x1c
 2555 0004 0200     		.2byte	0x2
 2556 0006 00000000 		.4byte	.Ldebug_info0
 2557 000a 04       		.byte	0x4
 2558 000b 00       		.byte	0
 2559 000c 0000     		.2byte	0
 2560 000e 0000     		.2byte	0
 2561 0010 00000000 		.4byte	.Ltext0
 2562 0014 92010000 		.4byte	.Letext0-.Ltext0
 2563 0018 00000000 		.4byte	0
 2564 001c 00000000 		.4byte	0
 2565              		.section	.debug_line,"",%progbits
 2566              	.Ldebug_line0:
 2567 0000 1E040000 		.section	.debug_str,"MS",%progbits,1
 2567      02008B03 
 2567      00000201 
 2567      FB0E0D00 
 2567      01010101 
 2568              	.LASF51:
 2569 0000 72656164 		.ascii	"ready_list_t\000"
 2569      795F6C69 
 2569      73745F74 
 2569      00
 2570              	.LASF76:
 2571 000d 44494552 		.ascii	"DIER\000"
 2571      00
 2572              	.LASF2:
 2573 0012 73697A65 		.ascii	"size_t\000"
 2573      5F7400
 2574              	.LASF47:
 2575 0019 6E657874 		.ascii	"next\000"
 2575      00
 2576              	.LASF57:
 2577 001e 64656C74 		.ascii	"delta\000"
 2577      6100
ARM GAS  /tmp/cc2AKB7B.s 			page 47


 2578              	.LASF87:
 2579 0024 7264796D 		.ascii	"rdymsg\000"
 2579      736700
 2580              	.LASF124:
 2581 002b 74657374 		.ascii	"test_sequence_010\000"
 2581      5F736571 
 2581      75656E63 
 2581      655F3031 
 2581      3000
 2582              	.LASF125:
 2583 003d 74657374 		.ascii	"test_sequence_011\000"
 2583      5F736571 
 2583      75656E63 
 2583      655F3031 
 2583      3100
 2584              	.LASF126:
 2585 004f 74657374 		.ascii	"test_sequence_012\000"
 2585      5F736571 
 2585      75656E63 
 2585      655F3031 
 2585      3200
 2586              	.LASF127:
 2587 0061 74657374 		.ascii	"test_sequence_013\000"
 2587      5F736571 
 2587      75656E63 
 2587      655F3031 
 2587      3300
 2588              	.LASF3:
 2589 0073 5F5F7569 		.ascii	"__uint8_t\000"
 2589      6E74385F 
 2589      7400
 2590              	.LASF50:
 2591 007d 70726576 		.ascii	"prev\000"
 2591      00
 2592              	.LASF74:
 2593 0082 706F7274 		.ascii	"port_intctx\000"
 2593      5F696E74 
 2593      63747800 
 2594              	.LASF62:
 2595 008e 73797374 		.ascii	"system_debug_t\000"
 2595      656D5F64 
 2595      65627567 
 2595      5F7400
 2596              	.LASF105:
 2597 009d 706F7274 		.ascii	"port_lock\000"
 2597      5F6C6F63 
 2597      6B00
 2598              	.LASF13:
 2599 00a7 6C6F6E67 		.ascii	"long long unsigned int\000"
 2599      206C6F6E 
 2599      6720756E 
 2599      7369676E 
 2599      65642069 
 2600              	.LASF88:
 2601 00be 65786974 		.ascii	"exitcode\000"
 2601      636F6465 
 2601      00
ARM GAS  /tmp/cc2AKB7B.s 			page 48


 2602              	.LASF69:
 2603 00c7 6D61696E 		.ascii	"mainthread\000"
 2603      74687265 
 2603      616400
 2604              	.LASF91:
 2605 00d2 73656E74 		.ascii	"sentmsg\000"
 2605      6D736700 
 2606              	.LASF59:
 2607 00da 76697274 		.ascii	"virtual_timers_list_t\000"
 2607      75616C5F 
 2607      74696D65 
 2607      72735F6C 
 2607      6973745F 
 2608              	.LASF114:
 2609 00f0 49544D5F 		.ascii	"ITM_RxBuffer\000"
 2609      52784275 
 2609      66666572 
 2609      00
 2610              	.LASF80:
 2611 00fd 42445452 		.ascii	"BDTR\000"
 2611      00
 2612              	.LASF49:
 2613 0102 63685F74 		.ascii	"ch_threads_queue\000"
 2613      68726561 
 2613      64735F71 
 2613      75657565 
 2613      00
 2614              	.LASF77:
 2615 0113 43434D52 		.ascii	"CCMR1\000"
 2615      3100
 2616              	.LASF78:
 2617 0119 43434D52 		.ascii	"CCMR2\000"
 2617      3200
 2618              	.LASF82:
 2619 011f 43434D52 		.ascii	"CCMR3\000"
 2619      3300
 2620              	.LASF1:
 2621 0125 7369676E 		.ascii	"signed char\000"
 2621      65642063 
 2621      68617200 
 2622              	.LASF68:
 2623 0131 76746C69 		.ascii	"vtlist\000"
 2623      737400
 2624              	.LASF106:
 2625 0138 706F7274 		.ascii	"port_unlock\000"
 2625      5F756E6C 
 2625      6F636B00 
 2626              	.LASF38:
 2627 0144 6D736771 		.ascii	"msgqueue\000"
 2627      75657565 
 2627      00
 2628              	.LASF34:
 2629 014d 73746174 		.ascii	"state\000"
 2629      6500
 2630              	.LASF8:
 2631 0153 6C6F6E67 		.ascii	"long int\000"
 2631      20696E74 
ARM GAS  /tmp/cc2AKB7B.s 			page 49


 2631      00
 2632              	.LASF20:
 2633 015c 74737461 		.ascii	"tstate_t\000"
 2633      74655F74 
 2633      00
 2634              	.LASF58:
 2635 0165 66756E63 		.ascii	"func\000"
 2635      00
 2636              	.LASF79:
 2637 016a 43434552 		.ascii	"CCER\000"
 2637      00
 2638              	.LASF11:
 2639 016f 6C6F6E67 		.ascii	"long long int\000"
 2639      206C6F6E 
 2639      6720696E 
 2639      7400
 2640              	.LASF28:
 2641 017d 71756575 		.ascii	"queue\000"
 2641      6500
 2642              	.LASF33:
 2643 0183 77616261 		.ascii	"wabase\000"
 2643      736500
 2644              	.LASF9:
 2645 018a 5F5F7569 		.ascii	"__uint32_t\000"
 2645      6E743332 
 2645      5F7400
 2646              	.LASF71:
 2647 0195 72656761 		.ascii	"regarm_t\000"
 2647      726D5F74 
 2647      00
 2648              	.LASF37:
 2649 019e 77616974 		.ascii	"waiting\000"
 2649      696E6700 
 2650              	.LASF99:
 2651 01a6 6D757465 		.ascii	"mutex_t\000"
 2651      785F7400 
 2652              	.LASF135:
 2653 01ae 76616C75 		.ascii	"value\000"
 2653      6500
 2654              	.LASF25:
 2655 01b4 636E745F 		.ascii	"cnt_t\000"
 2655      7400
 2656              	.LASF110:
 2657 01ba 63685654 		.ascii	"chVTGetSystemTimeX\000"
 2657      47657453 
 2657      79737465 
 2657      6D54696D 
 2657      655800
 2658              	.LASF0:
 2659 01cd 756E7369 		.ascii	"unsigned int\000"
 2659      676E6564 
 2659      20696E74 
 2659      00
 2660              	.LASF92:
 2661 01da 77747365 		.ascii	"wtsemp\000"
 2661      6D7000
 2662              	.LASF90:
ARM GAS  /tmp/cc2AKB7B.s 			page 50


 2663 01e1 77747472 		.ascii	"wttrp\000"
 2663      7000
 2664              	.LASF102:
 2665 01e7 74656172 		.ascii	"teardown\000"
 2665      646F776E 
 2665      00
 2666              	.LASF133:
 2667 01f0 2F686F6D 		.ascii	"/home/declan/ChibiOS2/ChibiOS/demos/STM32/RT-STM32F"
 2667      652F6465 
 2667      636C616E 
 2667      2F436869 
 2667      62694F53 
 2668 0223 3430372D 		.ascii	"407-DISCOVERY\000"
 2668      44495343 
 2668      4F564552 
 2668      5900
 2669              	.LASF32:
 2670 0231 6E616D65 		.ascii	"name\000"
 2670      00
 2671              	.LASF42:
 2672 0236 6D706F6F 		.ascii	"mpool\000"
 2672      6C00
 2673              	.LASF75:
 2674 023c 534D4352 		.ascii	"SMCR\000"
 2674      00
 2675              	.LASF45:
 2676 0241 63685F74 		.ascii	"ch_thread\000"
 2676      68726561 
 2676      6400
 2677              	.LASF23:
 2678 024b 6D73675F 		.ascii	"msg_t\000"
 2678      7400
 2679              	.LASF39:
 2680 0251 6570656E 		.ascii	"epending\000"
 2680      64696E67 
 2680      00
 2681              	.LASF65:
 2682 025a 63685F73 		.ascii	"ch_system_t\000"
 2682      79737465 
 2682      6D5F7400 
 2683              	.LASF84:
 2684 0266 73746D33 		.ascii	"stm32_tim_t\000"
 2684      325F7469 
 2684      6D5F7400 
 2685              	.LASF111:
 2686 0272 73797374 		.ascii	"systime\000"
 2686      696D6500 
 2687              	.LASF52:
 2688 027a 63685F72 		.ascii	"ch_ready_list\000"
 2688      65616479 
 2688      5F6C6973 
 2688      7400
 2689              	.LASF24:
 2690 0288 6576656E 		.ascii	"eventmask_t\000"
 2690      746D6173 
 2690      6B5F7400 
 2691              	.LASF7:
ARM GAS  /tmp/cc2AKB7B.s 			page 51


 2692 0294 5F5F696E 		.ascii	"__int32_t\000"
 2692      7433325F 
 2692      7400
 2693              	.LASF72:
 2694 029e 73746B61 		.ascii	"stkalign_t\000"
 2694      6C69676E 
 2694      5F7400
 2695              	.LASF104:
 2696 02a9 74657374 		.ascii	"testcase_t\000"
 2696      63617365 
 2696      5F7400
 2697              	.LASF30:
 2698 02b4 6E657765 		.ascii	"newer\000"
 2698      7200
 2699              	.LASF41:
 2700 02ba 7265616C 		.ascii	"realprio\000"
 2700      7072696F 
 2700      00
 2701              	.LASF70:
 2702 02c3 73697A65 		.ascii	"sizetype\000"
 2702      74797065 
 2702      00
 2703              	.LASF43:
 2704 02cc 74687265 		.ascii	"thread_reference_t\000"
 2704      61645F72 
 2704      65666572 
 2704      656E6365 
 2704      5F7400
 2705              	.LASF60:
 2706 02df 63685F76 		.ascii	"ch_virtual_timers_list\000"
 2706      69727475 
 2706      616C5F74 
 2706      696D6572 
 2706      735F6C69 
 2707              	.LASF129:
 2708 02f6 74657374 		.ascii	"test_buffer\000"
 2708      5F627566 
 2708      66657200 
 2709              	.LASF17:
 2710 0302 75696E74 		.ascii	"uint64_t\000"
 2710      36345F74 
 2710      00
 2711              	.LASF113:
 2712 030b 74657374 		.ascii	"test_wait_threads\000"
 2712      5F776169 
 2712      745F7468 
 2712      72656164 
 2712      7300
 2713              	.LASF73:
 2714 031d 706F7274 		.ascii	"port_context\000"
 2714      5F636F6E 
 2714      74657874 
 2714      00
 2715              	.LASF86:
 2716 032a 746D5F63 		.ascii	"tm_calibration_t\000"
 2716      616C6962 
 2716      72617469 
ARM GAS  /tmp/cc2AKB7B.s 			page 52


 2716      6F6E5F74 
 2716      00
 2717              	.LASF101:
 2718 033b 73657475 		.ascii	"setup\000"
 2718      7000
 2719              	.LASF138:
 2720 0341 63685654 		.ascii	"chVTGetSystemTime\000"
 2720      47657453 
 2720      79737465 
 2720      6D54696D 
 2720      6500
 2721              	.LASF29:
 2722 0353 7072696F 		.ascii	"prio\000"
 2722      00
 2723              	.LASF53:
 2724 0358 63757272 		.ascii	"current\000"
 2724      656E7400 
 2725              	.LASF12:
 2726 0360 5F5F7569 		.ascii	"__uint64_t\000"
 2726      6E743634 
 2726      5F7400
 2727              	.LASF21:
 2728 036b 74726566 		.ascii	"trefs_t\000"
 2728      735F7400 
 2729              	.LASF112:
 2730 0373 74657374 		.ascii	"test_terminate_threads\000"
 2730      5F746572 
 2730      6D696E61 
 2730      74655F74 
 2730      68726561 
 2731              	.LASF36:
 2732 038a 72656673 		.ascii	"refs\000"
 2732      00
 2733              	.LASF55:
 2734 038f 76697274 		.ascii	"virtual_timer_t\000"
 2734      75616C5F 
 2734      74696D65 
 2734      725F7400 
 2735              	.LASF22:
 2736 039f 74707269 		.ascii	"tprio_t\000"
 2736      6F5F7400 
 2737              	.LASF63:
 2738 03a7 63685F73 		.ascii	"ch_system_debug\000"
 2738      79737465 
 2738      6D5F6465 
 2738      62756700 
 2739              	.LASF100:
 2740 03b7 5F426F6F 		.ascii	"_Bool\000"
 2740      6C00
 2741              	.LASF15:
 2742 03bd 696E7433 		.ascii	"int32_t\000"
 2742      325F7400 
 2743              	.LASF4:
 2744 03c5 756E7369 		.ascii	"unsigned char\000"
 2744      676E6564 
 2744      20636861 
 2744      7200
ARM GAS  /tmp/cc2AKB7B.s 			page 53


 2745              	.LASF103:
 2746 03d3 65786563 		.ascii	"execute\000"
 2746      75746500 
 2747              	.LASF5:
 2748 03db 73686F72 		.ascii	"short int\000"
 2748      7420696E 
 2748      7400
 2749              	.LASF61:
 2750 03e5 6C617374 		.ascii	"lasttime\000"
 2750      74696D65 
 2750      00
 2751              	.LASF130:
 2752 03ee 74687265 		.ascii	"threads\000"
 2752      61647300 
 2753              	.LASF94:
 2754 03f6 65776D61 		.ascii	"ewmask\000"
 2754      736B00
 2755              	.LASF66:
 2756 03fd 63685F73 		.ascii	"ch_system\000"
 2756      79737465 
 2756      6D00
 2757              	.LASF137:
 2758 0407 5F5F6675 		.ascii	"__func__\000"
 2758      6E635F5F 
 2758      00
 2759              	.LASF136:
 2760 0410 63685379 		.ascii	"chSysLock\000"
 2760      734C6F63 
 2760      6B00
 2761              	.LASF56:
 2762 041a 63685F76 		.ascii	"ch_virtual_timer\000"
 2762      69727475 
 2762      616C5F74 
 2762      696D6572 
 2762      00
 2763              	.LASF95:
 2764 042b 63685F73 		.ascii	"ch_semaphore\000"
 2764      656D6170 
 2764      686F7265 
 2764      00
 2765              	.LASF83:
 2766 0438 43435852 		.ascii	"CCXR\000"
 2766      00
 2767              	.LASF107:
 2768 043d 73745F6C 		.ascii	"st_lld_get_counter\000"
 2768      6C645F67 
 2768      65745F63 
 2768      6F756E74 
 2768      657200
 2769              	.LASF16:
 2770 0450 75696E74 		.ascii	"uint32_t\000"
 2770      33325F74 
 2770      00
 2771              	.LASF93:
 2772 0459 77746D74 		.ascii	"wtmtxp\000"
 2772      787000
 2773              	.LASF46:
ARM GAS  /tmp/cc2AKB7B.s 			page 54


 2774 0460 63685F74 		.ascii	"ch_threads_list\000"
 2774      68726561 
 2774      64735F6C 
 2774      69737400 
 2775              	.LASF97:
 2776 0470 6F776E65 		.ascii	"owner\000"
 2776      7200
 2777              	.LASF10:
 2778 0476 6C6F6E67 		.ascii	"long unsigned int\000"
 2778      20756E73 
 2778      69676E65 
 2778      6420696E 
 2778      7400
 2779              	.LASF131:
 2780 0488 474E5520 		.ascii	"GNU C 4.9.3 20150529 (prerelease) -mcpu=cortex-m4 -"
 2780      4320342E 
 2780      392E3320 
 2780      32303135 
 2780      30353239 
 2781 04bb 6D6E6F2D 		.ascii	"mno-thumb-interwork -mthumb -ggdb -O0 -fomit-frame-"
 2781      7468756D 
 2781      622D696E 
 2781      74657277 
 2781      6F726B20 
 2782 04ee 706F696E 		.ascii	"pointer -falign-functions=16\000"
 2782      74657220 
 2782      2D66616C 
 2782      69676E2D 
 2782      66756E63 
 2783              	.LASF98:
 2784 050b 63686172 		.ascii	"char\000"
 2784      00
 2785              	.LASF31:
 2786 0510 6F6C6465 		.ascii	"older\000"
 2786      7200
 2787              	.LASF81:
 2788 0516 444D4152 		.ascii	"DMAR\000"
 2788      00
 2789              	.LASF27:
 2790 051b 74687265 		.ascii	"thread_t\000"
 2790      61645F74 
 2790      00
 2791              	.LASF128:
 2792 0524 74657374 		.ascii	"test_suite\000"
 2792      5F737569 
 2792      746500
 2793              	.LASF26:
 2794 052f 73797374 		.ascii	"systime_t\000"
 2794      696D655F 
 2794      7400
 2795              	.LASF54:
 2796 0539 76746675 		.ascii	"vtfunc_t\000"
 2796      6E635F74 
 2796      00
 2797              	.LASF134:
 2798 0542 5F5F7365 		.ascii	"__set_BASEPRI\000"
 2798      745F4241 
ARM GAS  /tmp/cc2AKB7B.s 			page 55


 2798      53455052 
 2798      4900
 2799              	.LASF64:
 2800 0550 70616E69 		.ascii	"panic_msg\000"
 2800      635F6D73 
 2800      6700
 2801              	.LASF85:
 2802 055a 6F666673 		.ascii	"offset\000"
 2802      657400
 2803              	.LASF6:
 2804 0561 73686F72 		.ascii	"short unsigned int\000"
 2804      7420756E 
 2804      7369676E 
 2804      65642069 
 2804      6E7400
 2805              	.LASF108:
 2806 0574 706F7274 		.ascii	"port_timer_get_time\000"
 2806      5F74696D 
 2806      65725F67 
 2806      65745F74 
 2806      696D6500 
 2807              	.LASF18:
 2808 0588 7274636E 		.ascii	"rtcnt_t\000"
 2808      745F7400 
 2809              	.LASF139:
 2810 0590 74657374 		.ascii	"test_print_port_info\000"
 2810      5F707269 
 2810      6E745F70 
 2810      6F72745F 
 2810      696E666F 
 2811              	.LASF48:
 2812 05a5 74687265 		.ascii	"threads_queue_t\000"
 2812      6164735F 
 2812      71756575 
 2812      655F7400 
 2813              	.LASF96:
 2814 05b5 63685F6D 		.ascii	"ch_mutex\000"
 2814      75746578 
 2814      00
 2815              	.LASF115:
 2816 05be 74657374 		.ascii	"test_sequence_001\000"
 2816      5F736571 
 2816      75656E63 
 2816      655F3030 
 2816      3100
 2817              	.LASF67:
 2818 05d0 726C6973 		.ascii	"rlist\000"
 2818      7400
 2819              	.LASF14:
 2820 05d6 75696E74 		.ascii	"uint8_t\000"
 2820      385F7400 
 2821              	.LASF35:
 2822 05de 666C6167 		.ascii	"flags\000"
 2822      7300
 2823              	.LASF132:
 2824 05e4 2E2E2F2E 		.ascii	"../../../test/rt/source/test/test_root.c\000"
 2824      2E2F2E2E 
ARM GAS  /tmp/cc2AKB7B.s 			page 56


 2824      2F746573 
 2824      742F7274 
 2824      2F736F75 
 2825              	.LASF116:
 2826 060d 74657374 		.ascii	"test_sequence_002\000"
 2826      5F736571 
 2826      75656E63 
 2826      655F3030 
 2826      3200
 2827              	.LASF117:
 2828 061f 74657374 		.ascii	"test_sequence_003\000"
 2828      5F736571 
 2828      75656E63 
 2828      655F3030 
 2828      3300
 2829              	.LASF118:
 2830 0631 74657374 		.ascii	"test_sequence_004\000"
 2830      5F736571 
 2830      75656E63 
 2830      655F3030 
 2830      3400
 2831              	.LASF119:
 2832 0643 74657374 		.ascii	"test_sequence_005\000"
 2832      5F736571 
 2832      75656E63 
 2832      655F3030 
 2832      3500
 2833              	.LASF120:
 2834 0655 74657374 		.ascii	"test_sequence_006\000"
 2834      5F736571 
 2834      75656E63 
 2834      655F3030 
 2834      3600
 2835              	.LASF121:
 2836 0667 74657374 		.ascii	"test_sequence_007\000"
 2836      5F736571 
 2836      75656E63 
 2836      655F3030 
 2836      3700
 2837              	.LASF122:
 2838 0679 74657374 		.ascii	"test_sequence_008\000"
 2838      5F736571 
 2838      75656E63 
 2838      655F3030 
 2838      3800
 2839              	.LASF123:
 2840 068b 74657374 		.ascii	"test_sequence_009\000"
 2840      5F736571 
 2840      75656E63 
 2840      655F3030 
 2840      3900
 2841              	.LASF89:
 2842 069d 77746F62 		.ascii	"wtobjp\000"
 2842      6A7000
 2843              	.LASF44:
 2844 06a4 74687265 		.ascii	"threads_list_t\000"
 2844      6164735F 
ARM GAS  /tmp/cc2AKB7B.s 			page 57


 2844      6C697374 
 2844      5F7400
 2845              	.LASF19:
 2846 06b3 746D6F64 		.ascii	"tmode_t\000"
 2846      655F7400 
 2847              	.LASF109:
 2848 06bb 63685379 		.ascii	"chSysUnlock\000"
 2848      73556E6C 
 2848      6F636B00 
 2849              	.LASF40:
 2850 06c7 6D74786C 		.ascii	"mtxlist\000"
 2850      69737400 
 2851              	.LASF140:
 2852 06cf 74657374 		.ascii	"test_wait_tick\000"
 2852      5F776169 
 2852      745F7469 
 2852      636B00
 2853              		.ident	"GCC: (15:4.9.3+svn231177-1) 4.9.3 20150529 (prerelease)"
ARM GAS  /tmp/cc2AKB7B.s 			page 58


DEFINED SYMBOLS
                            *ABS*:0000000000000000 test_root.c
     /tmp/cc2AKB7B.s:18     .text:0000000000000000 $t
     /tmp/cc2AKB7B.s:23     .text:0000000000000000 port_lock
     /tmp/cc2AKB7B.s:59     .text:0000000000000010 port_unlock
     /tmp/cc2AKB7B.s:93     .text:0000000000000020 st_lld_get_counter
     /tmp/cc2AKB7B.s:115    .text:0000000000000030 port_timer_get_time
     /tmp/cc2AKB7B.s:140    .text:0000000000000040 chSysLock
     /tmp/cc2AKB7B.s:163    .text:0000000000000050 chSysUnlock
     /tmp/cc2AKB7B.s:185    .text:0000000000000060 chVTGetSystemTimeX
     /tmp/cc2AKB7B.s:210    .text:0000000000000070 chVTGetSystemTime
     /tmp/cc2AKB7B.s:244    .data:0000000000000000 test_suite
     /tmp/cc2AKB7B.s:241    .data:0000000000000000 $d
     /tmp/cc2AKB7B.s:260    .rodata:0000000000000000 $d
     /tmp/cc2AKB7B.s:291    .text:0000000000000090 test_print_port_info
     /tmp/cc2AKB7B.s:331    .text:00000000000000c4 $d
                            *COM*:0000000000000668 test_buffer
                            *COM*:0000000000000014 threads
     /tmp/cc2AKB7B.s:349    .rodata:00000000000000a0 wa
     /tmp/cc2AKB7B.s:356    .text:00000000000000e4 $t
     /tmp/cc2AKB7B.s:362    .text:00000000000000f0 test_terminate_threads
     /tmp/cc2AKB7B.s:408    .text:0000000000000128 $d
     /tmp/cc2AKB7B.s:412    .text:000000000000012c $t
     /tmp/cc2AKB7B.s:418    .text:0000000000000130 test_wait_threads
     /tmp/cc2AKB7B.s:469    .text:0000000000000170 $d
     /tmp/cc2AKB7B.s:473    .text:0000000000000174 $t
     /tmp/cc2AKB7B.s:479    .text:0000000000000180 test_wait_tick
                     .debug_frame:0000000000000010 $d

UNDEFINED SYMBOLS
test_sequence_001
test_sequence_002
test_sequence_003
test_sequence_004
test_sequence_005
test_sequence_006
test_sequence_007
test_sequence_008
test_sequence_009
test_sequence_010
test_sequence_011
test_sequence_012
test_sequence_013
test_print
test_println
chThdTerminate
chThdWait
chThdSleep
