ARM GAS  /tmp/cc8Lx2qh.s 			page 1


   1              		.syntax unified
   2              		.cpu cortex-m4
   3              		.fpu softvfp
   4              		.eabi_attribute 20, 1
   5              		.eabi_attribute 21, 1
   6              		.eabi_attribute 23, 3
   7              		.eabi_attribute 24, 1
   8              		.eabi_attribute 25, 1
   9              		.eabi_attribute 26, 1
  10              		.eabi_attribute 30, 6
  11              		.eabi_attribute 34, 1
  12              		.eabi_attribute 18, 4
  13              		.thumb
  14              		.file	"test_sequence_005.c"
  15              		.text
  16              	.Ltext0:
  17              		.cfi_sections	.debug_frame
  18              		.align	2
  19              		.p2align 4,,15
  20              		.thumb
  21              		.thumb_func
  22              		.type	port_lock, %function
  23              	port_lock:
  24              	.LFB127:
  25              		.file 1 "../../../os/common/ports/ARMCMx/chcore_v7m.h"
  26              		.loc 1 594 0
  27              		.cfi_startproc
  28              		@ args = 0, pretend = 0, frame = 8
  29              		@ frame_needed = 0, uses_anonymous_args = 0
  30              		@ link register save eliminated.
  31 0000 82B0     		sub	sp, sp, #8
  32              		.cfi_def_cfa_offset 8
  33 0002 2023     		movs	r3, #32
  34 0004 0193     		str	r3, [sp, #4]
  35              	.LBB6:
  36              	.LBB7:
  37              		.file 2 "../../../os/common/ext/CMSIS/include/cmsis_gcc.h"
  38              		.loc 2 264 0
  39 0006 019B     		ldr	r3, [sp, #4]
  40              	@ 264 "../../../os/common/ext/CMSIS/include/cmsis_gcc.h" 1
  41 0008 83F31188 		MSR basepri, r3
  42              	@ 0 "" 2
  43              		.thumb
  44              	.LBE7:
  45              	.LBE6:
  46              		.loc 1 611 0
  47 000c 02B0     		add	sp, sp, #8
  48              		.cfi_def_cfa_offset 0
  49              		@ sp needed
  50 000e 7047     		bx	lr
  51              		.cfi_endproc
  52              	.LFE127:
  53              		.size	port_lock, .-port_lock
  54              		.align	2
  55              		.p2align 4,,15
  56              		.thumb
  57              		.thumb_func
ARM GAS  /tmp/cc8Lx2qh.s 			page 2


  58              		.type	port_unlock, %function
  59              	port_unlock:
  60              	.LFB128:
  61              		.loc 1 618 0
  62              		.cfi_startproc
  63              		@ args = 0, pretend = 0, frame = 8
  64              		@ frame_needed = 0, uses_anonymous_args = 0
  65              		@ link register save eliminated.
  66 0010 82B0     		sub	sp, sp, #8
  67              		.cfi_def_cfa_offset 8
  68 0012 0023     		movs	r3, #0
  69 0014 0193     		str	r3, [sp, #4]
  70              	.LBB8:
  71              	.LBB9:
  72              		.loc 2 264 0
  73 0016 019B     		ldr	r3, [sp, #4]
  74              	@ 264 "../../../os/common/ext/CMSIS/include/cmsis_gcc.h" 1
  75 0018 83F31188 		MSR basepri, r3
  76              	@ 0 "" 2
  77              		.thumb
  78              	.LBE9:
  79              	.LBE8:
  80              		.loc 1 625 0
  81 001c 02B0     		add	sp, sp, #8
  82              		.cfi_def_cfa_offset 0
  83              		@ sp needed
  84 001e 7047     		bx	lr
  85              		.cfi_endproc
  86              	.LFE128:
  87              		.size	port_unlock, .-port_unlock
  88              		.align	2
  89              		.p2align 4,,15
  90              		.thumb
  91              		.thumb_func
  92              		.type	queue_isempty, %function
  93              	queue_isempty:
  94              	.LFB151:
  95              		.file 3 "../../../os/rt/include/chschd.h"
  96              		.loc 3 562 0
  97              		.cfi_startproc
  98              		@ args = 0, pretend = 0, frame = 8
  99              		@ frame_needed = 0, uses_anonymous_args = 0
 100              		@ link register save eliminated.
 101 0020 82B0     		sub	sp, sp, #8
 102              		.cfi_def_cfa_offset 8
 103 0022 0190     		str	r0, [sp, #4]
 104              		.loc 3 564 0
 105 0024 019B     		ldr	r3, [sp, #4]
 106 0026 1A68     		ldr	r2, [r3]
 107 0028 019B     		ldr	r3, [sp, #4]
 108 002a 9A42     		cmp	r2, r3
 109 002c 0CBF     		ite	eq
 110 002e 0123     		moveq	r3, #1
 111 0030 0023     		movne	r3, #0
 112 0032 DBB2     		uxtb	r3, r3
 113              		.loc 3 565 0
 114 0034 1846     		mov	r0, r3
ARM GAS  /tmp/cc8Lx2qh.s 			page 3


 115 0036 02B0     		add	sp, sp, #8
 116              		.cfi_def_cfa_offset 0
 117              		@ sp needed
 118 0038 7047     		bx	lr
 119              		.cfi_endproc
 120              	.LFE151:
 121              		.size	queue_isempty, .-queue_isempty
 122 003a 00BF     		.align	2
 123 003c AFF30080 		.p2align 4,,15
 124              		.thumb
 125              		.thumb_func
 126              		.type	chSysLock, %function
 127              	chSysLock:
 128              	.LFB167:
 129              		.file 4 "../../../os/rt/include/chsys.h"
 130              		.loc 4 374 0
 131              		.cfi_startproc
 132              		@ args = 0, pretend = 0, frame = 0
 133              		@ frame_needed = 0, uses_anonymous_args = 0
 134 0040 08B5     		push	{r3, lr}
 135              		.cfi_def_cfa_offset 8
 136              		.cfi_offset 3, -8
 137              		.cfi_offset 14, -4
 138              		.loc 4 376 0
 139 0042 FFF7DDFF 		bl	port_lock
 140              		.loc 4 379 0
 141 0046 08BD     		pop	{r3, pc}
 142              		.cfi_endproc
 143              	.LFE167:
 144              		.size	chSysLock, .-chSysLock
 145              		.align	2
 146 0048 AFF30080 		.p2align 4,,15
 146      AFF30080 
 147              		.thumb
 148              		.thumb_func
 149              		.type	chSysUnlock, %function
 150              	chSysUnlock:
 151              	.LFB168:
 152              		.loc 4 386 0
 153              		.cfi_startproc
 154              		@ args = 0, pretend = 0, frame = 0
 155              		@ frame_needed = 0, uses_anonymous_args = 0
 156 0050 08B5     		push	{r3, lr}
 157              		.cfi_def_cfa_offset 8
 158              		.cfi_offset 3, -8
 159              		.cfi_offset 14, -4
 160              		.loc 4 399 0
 161 0052 FFF7DDFF 		bl	port_unlock
 162              		.loc 4 400 0
 163 0056 08BD     		pop	{r3, pc}
 164              		.cfi_endproc
 165              	.LFE168:
 166              		.size	chSysUnlock, .-chSysUnlock
 167              		.align	2
 168 0058 AFF30080 		.p2align 4,,15
 168      AFF30080 
 169              		.thumb
ARM GAS  /tmp/cc8Lx2qh.s 			page 4


 170              		.thumb_func
 171              		.type	chThdGetSelfX, %function
 172              	chThdGetSelfX:
 173              	.LFB195:
 174              		.file 5 "../../../os/rt/include/chthreads.h"
 175              		.loc 5 284 0
 176              		.cfi_startproc
 177              		@ args = 0, pretend = 0, frame = 0
 178              		@ frame_needed = 0, uses_anonymous_args = 0
 179              		@ link register save eliminated.
 180              		.loc 5 286 0
 181 0060 014B     		ldr	r3, .L9
 182 0062 9B69     		ldr	r3, [r3, #24]
 183              		.loc 5 287 0
 184 0064 1846     		mov	r0, r3
 185 0066 7047     		bx	lr
 186              	.L10:
 187              		.align	2
 188              	.L9:
 189 0068 00000000 		.word	ch
 190              		.cfi_endproc
 191              	.LFE195:
 192              		.size	chThdGetSelfX, .-chThdGetSelfX
 193              		.align	2
 194 006c AFF30080 		.p2align 4,,15
 195              		.thumb
 196              		.thumb_func
 197              		.type	chThdGetPriorityX, %function
 198              	chThdGetPriorityX:
 199              	.LFB196:
 200              		.loc 5 297 0
 201              		.cfi_startproc
 202              		@ args = 0, pretend = 0, frame = 0
 203              		@ frame_needed = 0, uses_anonymous_args = 0
 204 0070 08B5     		push	{r3, lr}
 205              		.cfi_def_cfa_offset 8
 206              		.cfi_offset 3, -8
 207              		.cfi_offset 14, -4
 208              		.loc 5 299 0
 209 0072 FFF7F5FF 		bl	chThdGetSelfX
 210 0076 0346     		mov	r3, r0
 211 0078 9B68     		ldr	r3, [r3, #8]
 212              		.loc 5 300 0
 213 007a 1846     		mov	r0, r3
 214 007c 08BD     		pop	{r3, pc}
 215              		.cfi_endproc
 216              	.LFE196:
 217              		.size	chThdGetPriorityX, .-chThdGetPriorityX
 218 007e 00BF     		.align	2
 219              		.p2align 4,,15
 220              		.thumb
 221              		.thumb_func
 222              		.type	chSemGetCounterI, %function
 223              	chSemGetCounterI:
 224              	.LFB210:
 225              		.file 6 "../../../os/rt/include/chsem.h"
 226              		.loc 6 149 0
ARM GAS  /tmp/cc8Lx2qh.s 			page 5


 227              		.cfi_startproc
 228              		@ args = 0, pretend = 0, frame = 8
 229              		@ frame_needed = 0, uses_anonymous_args = 0
 230              		@ link register save eliminated.
 231 0080 82B0     		sub	sp, sp, #8
 232              		.cfi_def_cfa_offset 8
 233 0082 0190     		str	r0, [sp, #4]
 234              		.loc 6 153 0
 235 0084 019B     		ldr	r3, [sp, #4]
 236 0086 9B68     		ldr	r3, [r3, #8]
 237              		.loc 6 154 0
 238 0088 1846     		mov	r0, r3
 239 008a 02B0     		add	sp, sp, #8
 240              		.cfi_def_cfa_offset 0
 241              		@ sp needed
 242 008c 7047     		bx	lr
 243              		.cfi_endproc
 244              	.LFE210:
 245              		.size	chSemGetCounterI, .-chSemGetCounterI
 246 008e 00BF     		.align	2
 247              		.p2align 4,,15
 248              		.thumb
 249              		.thumb_func
 250              		.type	chBSemObjectInit, %function
 251              	chBSemObjectInit:
 252              	.LFB211:
 253              		.file 7 "../../../os/common/oslib/include/chbsem.h"
 254              		.loc 7 124 0
 255              		.cfi_startproc
 256              		@ args = 0, pretend = 0, frame = 8
 257              		@ frame_needed = 0, uses_anonymous_args = 0
 258 0090 00B5     		push	{lr}
 259              		.cfi_def_cfa_offset 4
 260              		.cfi_offset 14, -4
 261 0092 83B0     		sub	sp, sp, #12
 262              		.cfi_def_cfa_offset 16
 263 0094 0190     		str	r0, [sp, #4]
 264 0096 0B46     		mov	r3, r1
 265 0098 8DF80330 		strb	r3, [sp, #3]
 266              		.loc 7 126 0
 267 009c 019A     		ldr	r2, [sp, #4]
 268 009e 9DF80330 		ldrb	r3, [sp, #3]	@ zero_extendqisi2
 269 00a2 002B     		cmp	r3, #0
 270 00a4 01D0     		beq	.L16
 271              		.loc 7 126 0 is_stmt 0 discriminator 1
 272 00a6 0023     		movs	r3, #0
 273 00a8 00E0     		b	.L17
 274              	.L16:
 275              		.loc 7 126 0 discriminator 2
 276 00aa 0123     		movs	r3, #1
 277              	.L17:
 278              		.loc 7 126 0 discriminator 4
 279 00ac 1046     		mov	r0, r2
 280 00ae 1946     		mov	r1, r3
 281 00b0 FFF7FEFF 		bl	chSemObjectInit
 282              		.loc 7 127 0 is_stmt 1 discriminator 4
 283 00b4 03B0     		add	sp, sp, #12
ARM GAS  /tmp/cc8Lx2qh.s 			page 6


 284              		.cfi_def_cfa_offset 4
 285              		@ sp needed
 286 00b6 5DF804FB 		ldr	pc, [sp], #4
 287              		.cfi_endproc
 288              	.LFE211:
 289              		.size	chBSemObjectInit, .-chBSemObjectInit
 290 00ba 00BF     		.align	2
 291 00bc AFF30080 		.p2align 4,,15
 292              		.thumb
 293              		.thumb_func
 294              		.type	chBSemWait, %function
 295              	chBSemWait:
 296              	.LFB212:
 297              		.loc 7 141 0
 298              		.cfi_startproc
 299              		@ args = 0, pretend = 0, frame = 8
 300              		@ frame_needed = 0, uses_anonymous_args = 0
 301 00c0 00B5     		push	{lr}
 302              		.cfi_def_cfa_offset 4
 303              		.cfi_offset 14, -4
 304 00c2 83B0     		sub	sp, sp, #12
 305              		.cfi_def_cfa_offset 16
 306 00c4 0190     		str	r0, [sp, #4]
 307              		.loc 7 143 0
 308 00c6 019B     		ldr	r3, [sp, #4]
 309 00c8 1846     		mov	r0, r3
 310 00ca FFF7FEFF 		bl	chSemWait
 311 00ce 0346     		mov	r3, r0
 312              		.loc 7 144 0
 313 00d0 1846     		mov	r0, r3
 314 00d2 03B0     		add	sp, sp, #12
 315              		.cfi_def_cfa_offset 4
 316              		@ sp needed
 317 00d4 5DF804FB 		ldr	pc, [sp], #4
 318              		.cfi_endproc
 319              	.LFE212:
 320              		.size	chBSemWait, .-chBSemWait
 321              		.align	2
 322 00d8 AFF30080 		.p2align 4,,15
 322      AFF30080 
 323              		.thumb
 324              		.thumb_func
 325              		.type	chBSemReset, %function
 326              	chBSemReset:
 327              	.LFB217:
 328              		.loc 7 253 0
 329              		.cfi_startproc
 330              		@ args = 0, pretend = 0, frame = 8
 331              		@ frame_needed = 0, uses_anonymous_args = 0
 332 00e0 00B5     		push	{lr}
 333              		.cfi_def_cfa_offset 4
 334              		.cfi_offset 14, -4
 335 00e2 83B0     		sub	sp, sp, #12
 336              		.cfi_def_cfa_offset 16
 337 00e4 0190     		str	r0, [sp, #4]
 338 00e6 0B46     		mov	r3, r1
 339 00e8 8DF80330 		strb	r3, [sp, #3]
ARM GAS  /tmp/cc8Lx2qh.s 			page 7


 340              		.loc 7 255 0
 341 00ec 019A     		ldr	r2, [sp, #4]
 342 00ee 9DF80330 		ldrb	r3, [sp, #3]	@ zero_extendqisi2
 343 00f2 002B     		cmp	r3, #0
 344 00f4 01D0     		beq	.L21
 345              		.loc 7 255 0 is_stmt 0 discriminator 1
 346 00f6 0023     		movs	r3, #0
 347 00f8 00E0     		b	.L22
 348              	.L21:
 349              		.loc 7 255 0 discriminator 2
 350 00fa 0123     		movs	r3, #1
 351              	.L22:
 352              		.loc 7 255 0 discriminator 4
 353 00fc 1046     		mov	r0, r2
 354 00fe 1946     		mov	r1, r3
 355 0100 FFF7FEFF 		bl	chSemReset
 356              		.loc 7 256 0 is_stmt 1 discriminator 4
 357 0104 03B0     		add	sp, sp, #12
 358              		.cfi_def_cfa_offset 4
 359              		@ sp needed
 360 0106 5DF804FB 		ldr	pc, [sp], #4
 361              		.cfi_endproc
 362              	.LFE217:
 363              		.size	chBSemReset, .-chBSemReset
 364 010a 00BF     		.align	2
 365 010c AFF30080 		.p2align 4,,15
 366              		.thumb
 367              		.thumb_func
 368              		.type	chBSemSignalI, %function
 369              	chBSemSignalI:
 370              	.LFB218:
 371              		.loc 7 266 0
 372              		.cfi_startproc
 373              		@ args = 0, pretend = 0, frame = 8
 374              		@ frame_needed = 0, uses_anonymous_args = 0
 375 0110 00B5     		push	{lr}
 376              		.cfi_def_cfa_offset 4
 377              		.cfi_offset 14, -4
 378 0112 83B0     		sub	sp, sp, #12
 379              		.cfi_def_cfa_offset 16
 380 0114 0190     		str	r0, [sp, #4]
 381              		.loc 7 270 0
 382 0116 019B     		ldr	r3, [sp, #4]
 383 0118 9B68     		ldr	r3, [r3, #8]
 384 011a 002B     		cmp	r3, #0
 385 011c 03DC     		bgt	.L23
 386              		.loc 7 271 0
 387 011e 019B     		ldr	r3, [sp, #4]
 388 0120 1846     		mov	r0, r3
 389 0122 FFF7FEFF 		bl	chSemSignalI
 390              	.L23:
 391              		.loc 7 273 0
 392 0126 03B0     		add	sp, sp, #12
 393              		.cfi_def_cfa_offset 4
 394              		@ sp needed
 395 0128 5DF804FB 		ldr	pc, [sp], #4
 396              		.cfi_endproc
ARM GAS  /tmp/cc8Lx2qh.s 			page 8


 397              	.LFE218:
 398              		.size	chBSemSignalI, .-chBSemSignalI
 399              		.align	2
 400 012c AFF30080 		.p2align 4,,15
 401              		.thumb
 402              		.thumb_func
 403              		.type	chBSemSignal, %function
 404              	chBSemSignal:
 405              	.LFB219:
 406              		.loc 7 282 0
 407              		.cfi_startproc
 408              		@ args = 0, pretend = 0, frame = 8
 409              		@ frame_needed = 0, uses_anonymous_args = 0
 410 0130 00B5     		push	{lr}
 411              		.cfi_def_cfa_offset 4
 412              		.cfi_offset 14, -4
 413 0132 83B0     		sub	sp, sp, #12
 414              		.cfi_def_cfa_offset 16
 415 0134 0190     		str	r0, [sp, #4]
 416              		.loc 7 284 0
 417 0136 FFF783FF 		bl	chSysLock
 418              		.loc 7 285 0
 419 013a 0198     		ldr	r0, [sp, #4]
 420 013c FFF7E8FF 		bl	chBSemSignalI
 421              		.loc 7 286 0
 422 0140 FFF7FEFF 		bl	chSchRescheduleS
 423              		.loc 7 287 0
 424 0144 FFF784FF 		bl	chSysUnlock
 425              		.loc 7 288 0
 426 0148 03B0     		add	sp, sp, #12
 427              		.cfi_def_cfa_offset 4
 428              		@ sp needed
 429 014a 5DF804FB 		ldr	pc, [sp], #4
 430              		.cfi_endproc
 431              	.LFE219:
 432              		.size	chBSemSignal, .-chBSemSignal
 433 014e 00BF     		.align	2
 434              		.p2align 4,,15
 435              		.thumb
 436              		.thumb_func
 437              		.type	chBSemGetStateI, %function
 438              	chBSemGetStateI:
 439              	.LFB220:
 440              		.loc 7 300 0
 441              		.cfi_startproc
 442              		@ args = 0, pretend = 0, frame = 8
 443              		@ frame_needed = 0, uses_anonymous_args = 0
 444              		@ link register save eliminated.
 445 0150 82B0     		sub	sp, sp, #8
 446              		.cfi_def_cfa_offset 8
 447 0152 0190     		str	r0, [sp, #4]
 448              		.loc 7 304 0
 449 0154 019B     		ldr	r3, [sp, #4]
 450 0156 9B68     		ldr	r3, [r3, #8]
 451 0158 002B     		cmp	r3, #0
 452 015a D4BF     		ite	le
 453 015c 0123     		movle	r3, #1
ARM GAS  /tmp/cc8Lx2qh.s 			page 9


 454 015e 0023     		movgt	r3, #0
 455 0160 DBB2     		uxtb	r3, r3
 456              		.loc 7 305 0
 457 0162 1846     		mov	r0, r3
 458 0164 02B0     		add	sp, sp, #8
 459              		.cfi_def_cfa_offset 0
 460              		@ sp needed
 461 0166 7047     		bx	lr
 462              		.cfi_endproc
 463              	.LFE220:
 464              		.size	chBSemGetStateI, .-chBSemGetStateI
 465              		.align	2
 466 0168 AFF30080 		.p2align 4,,15
 466      AFF30080 
 467              		.thumb
 468              		.thumb_func
 469              		.type	osalSysLock, %function
 470              	osalSysLock:
 471              	.LFB252:
 472              		.file 8 "../../../os/hal/osal/rt/osal.h"
 473              		.loc 8 491 0
 474              		.cfi_startproc
 475              		@ args = 0, pretend = 0, frame = 0
 476              		@ frame_needed = 0, uses_anonymous_args = 0
 477 0170 08B5     		push	{r3, lr}
 478              		.cfi_def_cfa_offset 8
 479              		.cfi_offset 3, -8
 480              		.cfi_offset 14, -4
 481              		.loc 8 493 0
 482 0172 FFF765FF 		bl	chSysLock
 483              		.loc 8 494 0
 484 0176 08BD     		pop	{r3, pc}
 485              		.cfi_endproc
 486              	.LFE252:
 487              		.size	osalSysLock, .-osalSysLock
 488              		.align	2
 489 0178 AFF30080 		.p2align 4,,15
 489      AFF30080 
 490              		.thumb
 491              		.thumb_func
 492              		.type	osalSysUnlock, %function
 493              	osalSysUnlock:
 494              	.LFB253:
 495              		.loc 8 502 0
 496              		.cfi_startproc
 497              		@ args = 0, pretend = 0, frame = 0
 498              		@ frame_needed = 0, uses_anonymous_args = 0
 499 0180 08B5     		push	{r3, lr}
 500              		.cfi_def_cfa_offset 8
 501              		.cfi_offset 3, -8
 502              		.cfi_offset 14, -4
 503              		.loc 8 504 0
 504 0182 FFF765FF 		bl	chSysUnlock
 505              		.loc 8 505 0
 506 0186 08BD     		pop	{r3, pc}
 507              		.cfi_endproc
 508              	.LFE253:
ARM GAS  /tmp/cc8Lx2qh.s 			page 10


 509              		.size	osalSysUnlock, .-osalSysUnlock
 510              		.bss
 511              		.align	2
 512              	sem1:
 513 0000 00000000 		.space	12
 513      00000000 
 513      00000000 
 514              		.text
 515              		.align	2
 516 0188 AFF30080 		.p2align 4,,15
 516      AFF30080 
 517              		.thumb
 518              		.thumb_func
 519              		.type	thread1, %function
 520              	thread1:
 521              	.LFB279:
 522              		.file 9 "../../../test/rt/source/test/test_sequence_005.c"
 523              		.loc 9 59 0
 524              		.cfi_startproc
 525              		@ args = 0, pretend = 0, frame = 8
 526              		@ frame_needed = 0, uses_anonymous_args = 0
 527 0190 00B5     		push	{lr}
 528              		.cfi_def_cfa_offset 4
 529              		.cfi_offset 14, -4
 530 0192 83B0     		sub	sp, sp, #12
 531              		.cfi_def_cfa_offset 16
 532 0194 0190     		str	r0, [sp, #4]
 533              		.loc 9 61 0
 534 0196 0548     		ldr	r0, .L31
 535 0198 FFF7FEFF 		bl	chSemWait
 536              		.loc 9 62 0
 537 019c 019B     		ldr	r3, [sp, #4]
 538 019e 1B78     		ldrb	r3, [r3]	@ zero_extendqisi2
 539 01a0 1846     		mov	r0, r3
 540 01a2 FFF7FEFF 		bl	test_emit_token
 541              		.loc 9 63 0
 542 01a6 03B0     		add	sp, sp, #12
 543              		.cfi_def_cfa_offset 4
 544              		@ sp needed
 545 01a8 5DF804FB 		ldr	pc, [sp], #4
 546              	.L32:
 547              		.align	2
 548              	.L31:
 549 01ac 00000000 		.word	sem1
 550              		.cfi_endproc
 551              	.LFE279:
 552              		.size	thread1, .-thread1
 553              		.align	2
 554              		.p2align 4,,15
 555              		.thumb
 556              		.thumb_func
 557              		.type	thread2, %function
 558              	thread2:
 559              	.LFB280:
 560              		.loc 9 65 0
 561              		.cfi_startproc
 562              		@ args = 0, pretend = 0, frame = 8
ARM GAS  /tmp/cc8Lx2qh.s 			page 11


 563              		@ frame_needed = 0, uses_anonymous_args = 0
 564 01b0 00B5     		push	{lr}
 565              		.cfi_def_cfa_offset 4
 566              		.cfi_offset 14, -4
 567 01b2 83B0     		sub	sp, sp, #12
 568              		.cfi_def_cfa_offset 16
 569 01b4 0190     		str	r0, [sp, #4]
 570              		.loc 9 68 0
 571 01b6 4FF4FA70 		mov	r0, #500
 572 01ba FFF7FEFF 		bl	chThdSleep
 573              		.loc 9 69 0
 574 01be FFF73FFF 		bl	chSysLock
 575              		.loc 9 70 0
 576 01c2 0548     		ldr	r0, .L34
 577 01c4 FFF7FEFF 		bl	chSemSignalI
 578              		.loc 9 71 0
 579 01c8 FFF7FEFF 		bl	chSchRescheduleS
 580              		.loc 9 72 0
 581 01cc FFF740FF 		bl	chSysUnlock
 582              		.loc 9 73 0
 583 01d0 03B0     		add	sp, sp, #12
 584              		.cfi_def_cfa_offset 4
 585              		@ sp needed
 586 01d2 5DF804FB 		ldr	pc, [sp], #4
 587              	.L35:
 588 01d6 00BF     		.align	2
 589              	.L34:
 590 01d8 00000000 		.word	sem1
 591              		.cfi_endproc
 592              	.LFE280:
 593              		.size	thread2, .-thread2
 594              		.align	2
 595 01dc AFF30080 		.p2align 4,,15
 596              		.thumb
 597              		.thumb_func
 598              		.type	thread3, %function
 599              	thread3:
 600              	.LFB281:
 601              		.loc 9 75 0
 602              		.cfi_startproc
 603              		@ args = 0, pretend = 0, frame = 8
 604              		@ frame_needed = 0, uses_anonymous_args = 0
 605 01e0 00B5     		push	{lr}
 606              		.cfi_def_cfa_offset 4
 607              		.cfi_offset 14, -4
 608 01e2 83B0     		sub	sp, sp, #12
 609              		.cfi_def_cfa_offset 16
 610 01e4 0190     		str	r0, [sp, #4]
 611              		.loc 9 78 0
 612 01e6 0448     		ldr	r0, .L37
 613 01e8 FFF7FEFF 		bl	chSemWait
 614              		.loc 9 79 0
 615 01ec 0248     		ldr	r0, .L37
 616 01ee FFF7FEFF 		bl	chSemSignal
 617              		.loc 9 80 0
 618 01f2 03B0     		add	sp, sp, #12
 619              		.cfi_def_cfa_offset 4
ARM GAS  /tmp/cc8Lx2qh.s 			page 12


 620              		@ sp needed
 621 01f4 5DF804FB 		ldr	pc, [sp], #4
 622              	.L38:
 623              		.align	2
 624              	.L37:
 625 01f8 00000000 		.word	sem1
 626              		.cfi_endproc
 627              	.LFE281:
 628              		.size	thread3, .-thread3
 629              		.align	2
 630 01fc AFF30080 		.p2align 4,,15
 631              		.thumb
 632              		.thumb_func
 633              		.type	thread4, %function
 634              	thread4:
 635              	.LFB282:
 636              		.loc 9 82 0
 637              		.cfi_startproc
 638              		@ args = 0, pretend = 0, frame = 8
 639              		@ frame_needed = 0, uses_anonymous_args = 0
 640 0200 00B5     		push	{lr}
 641              		.cfi_def_cfa_offset 4
 642              		.cfi_offset 14, -4
 643 0202 83B0     		sub	sp, sp, #12
 644              		.cfi_def_cfa_offset 16
 645 0204 0190     		str	r0, [sp, #4]
 646              		.loc 9 84 0
 647 0206 0198     		ldr	r0, [sp, #4]
 648 0208 FFF792FF 		bl	chBSemSignal
 649              		.loc 9 85 0
 650 020c 03B0     		add	sp, sp, #12
 651              		.cfi_def_cfa_offset 4
 652              		@ sp needed
 653 020e 5DF804FB 		ldr	pc, [sp], #4
 654              		.cfi_endproc
 655              	.LFE282:
 656              		.size	thread4, .-thread4
 657 0212 00BF     		.align	2
 658 0214 AFF30080 		.p2align 4,,15
 658      AFF30080 
 658      AFF30080 
 659              		.thumb
 660              		.thumb_func
 661              		.type	test_005_001_setup, %function
 662              	test_005_001_setup:
 663              	.LFB283:
 664              		.loc 9 108 0
 665              		.cfi_startproc
 666              		@ args = 0, pretend = 0, frame = 0
 667              		@ frame_needed = 0, uses_anonymous_args = 0
 668 0220 08B5     		push	{r3, lr}
 669              		.cfi_def_cfa_offset 8
 670              		.cfi_offset 3, -8
 671              		.cfi_offset 14, -4
 672              		.loc 9 109 0
 673 0222 0248     		ldr	r0, .L41
 674 0224 0121     		movs	r1, #1
ARM GAS  /tmp/cc8Lx2qh.s 			page 13


 675 0226 FFF7FEFF 		bl	chSemObjectInit
 676              		.loc 9 110 0
 677 022a 08BD     		pop	{r3, pc}
 678              	.L42:
 679              		.align	2
 680              	.L41:
 681 022c 00000000 		.word	sem1
 682              		.cfi_endproc
 683              	.LFE283:
 684              		.size	test_005_001_setup, .-test_005_001_setup
 685              		.align	2
 686              		.p2align 4,,15
 687              		.thumb
 688              		.thumb_func
 689              		.type	test_005_001_teardown, %function
 690              	test_005_001_teardown:
 691              	.LFB284:
 692              		.loc 9 112 0
 693              		.cfi_startproc
 694              		@ args = 0, pretend = 0, frame = 0
 695              		@ frame_needed = 0, uses_anonymous_args = 0
 696 0230 08B5     		push	{r3, lr}
 697              		.cfi_def_cfa_offset 8
 698              		.cfi_offset 3, -8
 699              		.cfi_offset 14, -4
 700              		.loc 9 113 0
 701 0232 0248     		ldr	r0, .L44
 702 0234 0021     		movs	r1, #0
 703 0236 FFF7FEFF 		bl	chSemReset
 704              		.loc 9 114 0
 705 023a 08BD     		pop	{r3, pc}
 706              	.L45:
 707              		.align	2
 708              	.L44:
 709 023c 00000000 		.word	sem1
 710              		.cfi_endproc
 711              	.LFE284:
 712              		.size	test_005_001_teardown, .-test_005_001_teardown
 713              		.section	.rodata
 714              		.align	2
 715              	.LC0:
 716 0000 77726F6E 		.ascii	"wrong counter value\000"
 716      6720636F 
 716      756E7465 
 716      72207661 
 716      6C756500 
 717              		.align	2
 718              	.LC1:
 719 0014 77726F6E 		.ascii	"wrong returned message\000"
 719      67207265 
 719      7475726E 
 719      6564206D 
 719      65737361 
 720              		.text
 721              		.align	2
 722              		.p2align 4,,15
 723              		.thumb
ARM GAS  /tmp/cc8Lx2qh.s 			page 14


 724              		.thumb_func
 725              		.type	test_005_001_execute, %function
 726              	test_005_001_execute:
 727              	.LFB285:
 728              		.loc 9 116 0
 729              		.cfi_startproc
 730              		@ args = 0, pretend = 0, frame = 8
 731              		@ frame_needed = 0, uses_anonymous_args = 0
 732 0240 00B5     		push	{lr}
 733              		.cfi_def_cfa_offset 4
 734              		.cfi_offset 14, -4
 735 0242 83B0     		sub	sp, sp, #12
 736              		.cfi_def_cfa_offset 16
 737              		.loc 9 120 0
 738 0244 344B     		ldr	r3, .L52
 739 0246 0122     		movs	r2, #1
 740 0248 1A60     		str	r2, [r3]
 741              	.LBB10:
 742              		.loc 9 124 0
 743 024a 3448     		ldr	r0, .L52+4
 744 024c FFF7FEFF 		bl	chSemWait
 745 0250 0190     		str	r0, [sp, #4]
 746              		.loc 9 125 0
 747 0252 FFF78DFF 		bl	osalSysLock
 748 0256 3148     		ldr	r0, .L52+4
 749 0258 FFF712FF 		bl	chSemGetCounterI
 750 025c 0346     		mov	r3, r0
 751 025e 002B     		cmp	r3, #0
 752 0260 0CBF     		ite	eq
 753 0262 0123     		moveq	r3, #1
 754 0264 0023     		movne	r3, #0
 755 0266 DBB2     		uxtb	r3, r3
 756 0268 1846     		mov	r0, r3
 757 026a 2D49     		ldr	r1, .L52+8
 758 026c FFF7FEFF 		bl	_test_assert
 759 0270 0346     		mov	r3, r0
 760 0272 002B     		cmp	r3, #0
 761 0274 02D0     		beq	.L47
 762              		.loc 9 125 0 is_stmt 0 discriminator 1
 763 0276 FFF783FF 		bl	osalSysUnlock
 764 027a 4AE0     		b	.L46
 765              	.L47:
 766              		.loc 9 125 0 discriminator 2
 767 027c FFF780FF 		bl	osalSysUnlock
 768              		.loc 9 126 0 is_stmt 1 discriminator 2
 769 0280 019B     		ldr	r3, [sp, #4]
 770 0282 002B     		cmp	r3, #0
 771 0284 0CBF     		ite	eq
 772 0286 0123     		moveq	r3, #1
 773 0288 0023     		movne	r3, #0
 774 028a DBB2     		uxtb	r3, r3
 775 028c 1846     		mov	r0, r3
 776 028e 2549     		ldr	r1, .L52+12
 777 0290 FFF7FEFF 		bl	_test_assert
 778 0294 0346     		mov	r3, r0
 779 0296 002B     		cmp	r3, #0
 780 0298 00D0     		beq	.L49
ARM GAS  /tmp/cc8Lx2qh.s 			page 15


 781              		.loc 9 126 0 is_stmt 0
 782 029a 3AE0     		b	.L46
 783              	.L49:
 784              	.LBE10:
 785              		.loc 9 131 0 is_stmt 1
 786 029c 1E4B     		ldr	r3, .L52
 787 029e 0222     		movs	r2, #2
 788 02a0 1A60     		str	r2, [r3]
 789              		.loc 9 133 0
 790 02a2 1E48     		ldr	r0, .L52+4
 791 02a4 FFF7FEFF 		bl	chSemSignal
 792              		.loc 9 134 0
 793 02a8 FFF762FF 		bl	osalSysLock
 794 02ac 1B48     		ldr	r0, .L52+4
 795 02ae FFF7E7FE 		bl	chSemGetCounterI
 796 02b2 0346     		mov	r3, r0
 797 02b4 012B     		cmp	r3, #1
 798 02b6 0CBF     		ite	eq
 799 02b8 0123     		moveq	r3, #1
 800 02ba 0023     		movne	r3, #0
 801 02bc DBB2     		uxtb	r3, r3
 802 02be 1846     		mov	r0, r3
 803 02c0 1749     		ldr	r1, .L52+8
 804 02c2 FFF7FEFF 		bl	_test_assert
 805 02c6 0346     		mov	r3, r0
 806 02c8 002B     		cmp	r3, #0
 807 02ca 02D0     		beq	.L50
 808              		.loc 9 134 0 is_stmt 0 discriminator 1
 809 02cc FFF758FF 		bl	osalSysUnlock
 810 02d0 1FE0     		b	.L46
 811              	.L50:
 812              		.loc 9 134 0 discriminator 2
 813 02d2 FFF755FF 		bl	osalSysUnlock
 814              		.loc 9 139 0 is_stmt 1 discriminator 2
 815 02d6 104B     		ldr	r3, .L52
 816 02d8 0322     		movs	r2, #3
 817 02da 1A60     		str	r2, [r3]
 818              		.loc 9 141 0 discriminator 2
 819 02dc 0F48     		ldr	r0, .L52+4
 820 02de 0221     		movs	r1, #2
 821 02e0 FFF7FEFF 		bl	chSemReset
 822              		.loc 9 142 0 discriminator 2
 823 02e4 FFF744FF 		bl	osalSysLock
 824 02e8 0C48     		ldr	r0, .L52+4
 825 02ea FFF7C9FE 		bl	chSemGetCounterI
 826 02ee 0346     		mov	r3, r0
 827 02f0 022B     		cmp	r3, #2
 828 02f2 0CBF     		ite	eq
 829 02f4 0123     		moveq	r3, #1
 830 02f6 0023     		movne	r3, #0
 831 02f8 DBB2     		uxtb	r3, r3
 832 02fa 1846     		mov	r0, r3
 833 02fc 0849     		ldr	r1, .L52+8
 834 02fe FFF7FEFF 		bl	_test_assert
 835 0302 0346     		mov	r3, r0
 836 0304 002B     		cmp	r3, #0
 837 0306 02D0     		beq	.L51
ARM GAS  /tmp/cc8Lx2qh.s 			page 16


 838              		.loc 9 142 0 is_stmt 0 discriminator 1
 839 0308 FFF73AFF 		bl	osalSysUnlock
 840 030c 01E0     		b	.L46
 841              	.L51:
 842              		.loc 9 142 0 discriminator 2
 843 030e FFF737FF 		bl	osalSysUnlock
 844              	.L46:
 845              		.loc 9 144 0 is_stmt 1
 846 0312 03B0     		add	sp, sp, #12
 847              		.cfi_def_cfa_offset 4
 848              		@ sp needed
 849 0314 5DF804FB 		ldr	pc, [sp], #4
 850              	.L53:
 851              		.align	2
 852              	.L52:
 853 0318 00000000 		.word	test_step
 854 031c 00000000 		.word	sem1
 855 0320 00000000 		.word	.LC0
 856 0324 14000000 		.word	.LC1
 857              		.cfi_endproc
 858              	.LFE285:
 859              		.size	test_005_001_execute, .-test_005_001_execute
 860              		.section	.rodata
 861 002b 00       		.align	2
 862              	.LC2:
 863 002c 53656D61 		.ascii	"Semaphore primitives, no state change\000"
 863      70686F72 
 863      65207072 
 863      696D6974 
 863      69766573 
 864 0052 0000     		.align	2
 865              		.type	test_005_001, %object
 866              		.size	test_005_001, 16
 867              	test_005_001:
 868 0054 2C000000 		.word	.LC2
 869 0058 00000000 		.word	test_005_001_setup
 870 005c 00000000 		.word	test_005_001_teardown
 871 0060 00000000 		.word	test_005_001_execute
 872              		.text
 873              		.align	2
 874 0328 AFF30080 		.p2align 4,,15
 874      AFF30080 
 875              		.thumb
 876              		.thumb_func
 877              		.type	test_005_002_setup, %function
 878              	test_005_002_setup:
 879              	.LFB286:
 880              		.loc 9 171 0
 881              		.cfi_startproc
 882              		@ args = 0, pretend = 0, frame = 0
 883              		@ frame_needed = 0, uses_anonymous_args = 0
 884 0330 08B5     		push	{r3, lr}
 885              		.cfi_def_cfa_offset 8
 886              		.cfi_offset 3, -8
 887              		.cfi_offset 14, -4
 888              		.loc 9 172 0
 889 0332 0248     		ldr	r0, .L55
ARM GAS  /tmp/cc8Lx2qh.s 			page 17


 890 0334 0021     		movs	r1, #0
 891 0336 FFF7FEFF 		bl	chSemObjectInit
 892              		.loc 9 173 0
 893 033a 08BD     		pop	{r3, pc}
 894              	.L56:
 895              		.align	2
 896              	.L55:
 897 033c 00000000 		.word	sem1
 898              		.cfi_endproc
 899              	.LFE286:
 900              		.size	test_005_002_setup, .-test_005_002_setup
 901              		.section	.rodata
 902              		.align	2
 903              	.LC3:
 904 0064 4100     		.ascii	"A\000"
 905 0066 0000     		.align	2
 906              	.LC4:
 907 0068 4200     		.ascii	"B\000"
 908 006a 0000     		.align	2
 909              	.LC5:
 910 006c 4300     		.ascii	"C\000"
 911 006e 0000     		.align	2
 912              	.LC6:
 913 0070 4400     		.ascii	"D\000"
 914 0072 0000     		.align	2
 915              	.LC7:
 916 0074 4500     		.ascii	"E\000"
 917 0076 0000     		.align	2
 918              	.LC8:
 919 0078 41424344 		.ascii	"ABCDE\000"
 919      4500
 920 007e 0000     		.align	2
 921              	.LC9:
 922 0080 696E7661 		.ascii	"invalid sequence\000"
 922      6C696420 
 922      73657175 
 922      656E6365 
 922      00
 923              		.text
 924              		.align	2
 925              		.p2align 4,,15
 926              		.thumb
 927              		.thumb_func
 928              		.type	test_005_002_execute, %function
 929              	test_005_002_execute:
 930              	.LFB287:
 931              		.loc 9 175 0
 932              		.cfi_startproc
 933              		@ args = 0, pretend = 0, frame = 0
 934              		@ frame_needed = 0, uses_anonymous_args = 0
 935 0340 10B5     		push	{r4, lr}
 936              		.cfi_def_cfa_offset 8
 937              		.cfi_offset 4, -8
 938              		.cfi_offset 14, -4
 939 0342 82B0     		sub	sp, sp, #8
 940              		.cfi_def_cfa_offset 16
 941              		.loc 9 180 0
ARM GAS  /tmp/cc8Lx2qh.s 			page 18


 942 0344 3A4B     		ldr	r3, .L59
 943 0346 0122     		movs	r2, #1
 944 0348 1A60     		str	r2, [r3]
 945              		.loc 9 182 0
 946 034a 3A4B     		ldr	r3, .L59+4
 947 034c 1C68     		ldr	r4, [r3]
 948 034e FFF78FFE 		bl	chThdGetPriorityX
 949 0352 0346     		mov	r3, r0
 950 0354 5A1D     		adds	r2, r3, #5
 951 0356 384B     		ldr	r3, .L59+8
 952 0358 0093     		str	r3, [sp]
 953 035a 2046     		mov	r0, r4
 954 035c 4FF4A471 		mov	r1, #328
 955 0360 364B     		ldr	r3, .L59+12
 956 0362 FFF7FEFF 		bl	chThdCreateStatic
 957 0366 0246     		mov	r2, r0
 958 0368 354B     		ldr	r3, .L59+16
 959 036a 1A60     		str	r2, [r3]
 960              		.loc 9 183 0
 961 036c 314B     		ldr	r3, .L59+4
 962 036e 5C68     		ldr	r4, [r3, #4]
 963 0370 FFF77EFE 		bl	chThdGetPriorityX
 964 0374 0346     		mov	r3, r0
 965 0376 5A1C     		adds	r2, r3, #1
 966 0378 324B     		ldr	r3, .L59+20
 967 037a 0093     		str	r3, [sp]
 968 037c 2046     		mov	r0, r4
 969 037e 4FF4A471 		mov	r1, #328
 970 0382 2E4B     		ldr	r3, .L59+12
 971 0384 FFF7FEFF 		bl	chThdCreateStatic
 972 0388 0246     		mov	r2, r0
 973 038a 2D4B     		ldr	r3, .L59+16
 974 038c 5A60     		str	r2, [r3, #4]
 975              		.loc 9 184 0
 976 038e 294B     		ldr	r3, .L59+4
 977 0390 9C68     		ldr	r4, [r3, #8]
 978 0392 FFF76DFE 		bl	chThdGetPriorityX
 979 0396 0346     		mov	r3, r0
 980 0398 DA1C     		adds	r2, r3, #3
 981 039a 2B4B     		ldr	r3, .L59+24
 982 039c 0093     		str	r3, [sp]
 983 039e 2046     		mov	r0, r4
 984 03a0 4FF4A471 		mov	r1, #328
 985 03a4 254B     		ldr	r3, .L59+12
 986 03a6 FFF7FEFF 		bl	chThdCreateStatic
 987 03aa 0246     		mov	r2, r0
 988 03ac 244B     		ldr	r3, .L59+16
 989 03ae 9A60     		str	r2, [r3, #8]
 990              		.loc 9 185 0
 991 03b0 204B     		ldr	r3, .L59+4
 992 03b2 DC68     		ldr	r4, [r3, #12]
 993 03b4 FFF75CFE 		bl	chThdGetPriorityX
 994 03b8 0346     		mov	r3, r0
 995 03ba 1A1D     		adds	r2, r3, #4
 996 03bc 234B     		ldr	r3, .L59+28
 997 03be 0093     		str	r3, [sp]
 998 03c0 2046     		mov	r0, r4
ARM GAS  /tmp/cc8Lx2qh.s 			page 19


 999 03c2 4FF4A471 		mov	r1, #328
 1000 03c6 1D4B     		ldr	r3, .L59+12
 1001 03c8 FFF7FEFF 		bl	chThdCreateStatic
 1002 03cc 0246     		mov	r2, r0
 1003 03ce 1C4B     		ldr	r3, .L59+16
 1004 03d0 DA60     		str	r2, [r3, #12]
 1005              		.loc 9 186 0
 1006 03d2 184B     		ldr	r3, .L59+4
 1007 03d4 1C69     		ldr	r4, [r3, #16]
 1008 03d6 FFF74BFE 		bl	chThdGetPriorityX
 1009 03da 0346     		mov	r3, r0
 1010 03dc 9A1C     		adds	r2, r3, #2
 1011 03de 1C4B     		ldr	r3, .L59+32
 1012 03e0 0093     		str	r3, [sp]
 1013 03e2 2046     		mov	r0, r4
 1014 03e4 4FF4A471 		mov	r1, #328
 1015 03e8 144B     		ldr	r3, .L59+12
 1016 03ea FFF7FEFF 		bl	chThdCreateStatic
 1017 03ee 0246     		mov	r2, r0
 1018 03f0 134B     		ldr	r3, .L59+16
 1019 03f2 1A61     		str	r2, [r3, #16]
 1020              		.loc 9 191 0
 1021 03f4 0E4B     		ldr	r3, .L59
 1022 03f6 0222     		movs	r2, #2
 1023 03f8 1A60     		str	r2, [r3]
 1024              		.loc 9 193 0
 1025 03fa 1648     		ldr	r0, .L59+36
 1026 03fc FFF7FEFF 		bl	chSemSignal
 1027              		.loc 9 194 0
 1028 0400 1448     		ldr	r0, .L59+36
 1029 0402 FFF7FEFF 		bl	chSemSignal
 1030              		.loc 9 195 0
 1031 0406 1348     		ldr	r0, .L59+36
 1032 0408 FFF7FEFF 		bl	chSemSignal
 1033              		.loc 9 196 0
 1034 040c 1148     		ldr	r0, .L59+36
 1035 040e FFF7FEFF 		bl	chSemSignal
 1036              		.loc 9 197 0
 1037 0412 1048     		ldr	r0, .L59+36
 1038 0414 FFF7FEFF 		bl	chSemSignal
 1039              		.loc 9 198 0
 1040 0418 FFF7FEFF 		bl	test_wait_threads
 1041              		.loc 9 202 0
 1042 041c 0E48     		ldr	r0, .L59+40
 1043 041e 0F49     		ldr	r1, .L59+44
 1044 0420 FFF7FEFF 		bl	_test_assert_sequence
 1045 0424 0346     		mov	r3, r0
 1046 0426 002B     		cmp	r3, #0
 1047 0428 00D0     		beq	.L57
 1048 042a 00BF     		nop
 1049              	.L57:
 1050              		.loc 9 205 0
 1051 042c 02B0     		add	sp, sp, #8
 1052              		.cfi_def_cfa_offset 8
 1053              		@ sp needed
 1054 042e 10BD     		pop	{r4, pc}
 1055              	.L60:
ARM GAS  /tmp/cc8Lx2qh.s 			page 20


 1056              		.align	2
 1057              	.L59:
 1058 0430 00000000 		.word	test_step
 1059 0434 00000000 		.word	wa
 1060 0438 64000000 		.word	.LC3
 1061 043c 00000000 		.word	thread1
 1062 0440 00000000 		.word	threads
 1063 0444 68000000 		.word	.LC4
 1064 0448 6C000000 		.word	.LC5
 1065 044c 70000000 		.word	.LC6
 1066 0450 74000000 		.word	.LC7
 1067 0454 00000000 		.word	sem1
 1068 0458 78000000 		.word	.LC8
 1069 045c 80000000 		.word	.LC9
 1070              		.cfi_endproc
 1071              	.LFE287:
 1072              		.size	test_005_002_execute, .-test_005_002_execute
 1073              		.section	.rodata
 1074 0091 000000   		.align	2
 1075              	.LC10:
 1076 0094 53656D61 		.ascii	"Semaphore enqueuing test\000"
 1076      70686F72 
 1076      6520656E 
 1076      71756575 
 1076      696E6720 
 1077 00ad 000000   		.align	2
 1078              		.type	test_005_002, %object
 1079              		.size	test_005_002, 16
 1080              	test_005_002:
 1081 00b0 94000000 		.word	.LC10
 1082 00b4 00000000 		.word	test_005_002_setup
 1083 00b8 00000000 		.word	0
 1084 00bc 00000000 		.word	test_005_002_execute
 1085              		.text
 1086              		.align	2
 1087              		.p2align 4,,15
 1088              		.thumb
 1089              		.thumb_func
 1090              		.type	test_005_003_setup, %function
 1091              	test_005_003_setup:
 1092              	.LFB288:
 1093              		.loc 9 231 0
 1094              		.cfi_startproc
 1095              		@ args = 0, pretend = 0, frame = 0
 1096              		@ frame_needed = 0, uses_anonymous_args = 0
 1097 0460 08B5     		push	{r3, lr}
 1098              		.cfi_def_cfa_offset 8
 1099              		.cfi_offset 3, -8
 1100              		.cfi_offset 14, -4
 1101              		.loc 9 232 0
 1102 0462 0248     		ldr	r0, .L62
 1103 0464 0021     		movs	r1, #0
 1104 0466 FFF7FEFF 		bl	chSemObjectInit
 1105              		.loc 9 233 0
 1106 046a 08BD     		pop	{r3, pc}
 1107              	.L63:
 1108              		.align	2
ARM GAS  /tmp/cc8Lx2qh.s 			page 21


 1109              	.L62:
 1110 046c 00000000 		.word	sem1
 1111              		.cfi_endproc
 1112              	.LFE288:
 1113              		.size	test_005_003_setup, .-test_005_003_setup
 1114              		.section	.rodata
 1115              		.align	2
 1116              	.LC11:
 1117 00c0 77726F6E 		.ascii	"wrong wake-up message\000"
 1117      67207761 
 1117      6B652D75 
 1117      70206D65 
 1117      73736167 
 1118 00d6 0000     		.align	2
 1119              	.LC12:
 1120 00d8 71756575 		.ascii	"queue not empty\000"
 1120      65206E6F 
 1120      7420656D 
 1120      70747900 
 1121              		.align	2
 1122              	.LC13:
 1123 00e8 636F756E 		.ascii	"counter not zero\000"
 1123      74657220 
 1123      6E6F7420 
 1123      7A65726F 
 1123      00
 1124 00f9 000000   		.align	2
 1125              	.LC14:
 1126 00fc 6F757420 		.ascii	"out of time window\000"
 1126      6F662074 
 1126      696D6520 
 1126      77696E64 
 1126      6F7700
 1127              		.text
 1128              		.align	2
 1129              		.p2align 4,,15
 1130              		.thumb
 1131              		.thumb_func
 1132              		.type	test_005_003_execute, %function
 1133              	test_005_003_execute:
 1134              	.LFB289:
 1135              		.loc 9 235 0
 1136              		.cfi_startproc
 1137              		@ args = 0, pretend = 0, frame = 16
 1138              		@ frame_needed = 0, uses_anonymous_args = 0
 1139 0470 10B5     		push	{r4, lr}
 1140              		.cfi_def_cfa_offset 8
 1141              		.cfi_offset 4, -8
 1142              		.cfi_offset 14, -4
 1143 0472 86B0     		sub	sp, sp, #24
 1144              		.cfi_def_cfa_offset 32
 1145              		.loc 9 241 0
 1146 0474 6A4B     		ldr	r3, .L78
 1147 0476 0122     		movs	r2, #1
 1148 0478 1A60     		str	r2, [r3]
 1149              		.loc 9 243 0
 1150 047a 6A48     		ldr	r0, .L78+4
ARM GAS  /tmp/cc8Lx2qh.s 			page 22


 1151 047c 0021     		movs	r1, #0
 1152 047e FFF7FEFF 		bl	chSemWaitTimeout
 1153 0482 0490     		str	r0, [sp, #16]
 1154              		.loc 9 244 0
 1155 0484 049B     		ldr	r3, [sp, #16]
 1156 0486 B3F1FF3F 		cmp	r3, #-1
 1157 048a 0CBF     		ite	eq
 1158 048c 0123     		moveq	r3, #1
 1159 048e 0023     		movne	r3, #0
 1160 0490 DBB2     		uxtb	r3, r3
 1161 0492 1846     		mov	r0, r3
 1162 0494 6449     		ldr	r1, .L78+8
 1163 0496 FFF7FEFF 		bl	_test_assert
 1164 049a 0346     		mov	r3, r0
 1165 049c 002B     		cmp	r3, #0
 1166 049e 00D0     		beq	.L65
 1167 04a0 BBE0     		b	.L64
 1168              	.L65:
 1169              		.loc 9 245 0
 1170 04a2 6048     		ldr	r0, .L78+4
 1171 04a4 FFF7BCFD 		bl	queue_isempty
 1172 04a8 0346     		mov	r3, r0
 1173 04aa 1846     		mov	r0, r3
 1174 04ac 5F49     		ldr	r1, .L78+12
 1175 04ae FFF7FEFF 		bl	_test_assert
 1176 04b2 0346     		mov	r3, r0
 1177 04b4 002B     		cmp	r3, #0
 1178 04b6 00D0     		beq	.L67
 1179              		.loc 9 245 0 is_stmt 0 discriminator 2
 1180 04b8 AFE0     		b	.L64
 1181              	.L67:
 1182              		.loc 9 246 0 is_stmt 1
 1183 04ba 5A4B     		ldr	r3, .L78+4
 1184 04bc 9B68     		ldr	r3, [r3, #8]
 1185 04be 002B     		cmp	r3, #0
 1186 04c0 0CBF     		ite	eq
 1187 04c2 0123     		moveq	r3, #1
 1188 04c4 0023     		movne	r3, #0
 1189 04c6 DBB2     		uxtb	r3, r3
 1190 04c8 1846     		mov	r0, r3
 1191 04ca 5949     		ldr	r1, .L78+16
 1192 04cc FFF7FEFF 		bl	_test_assert
 1193 04d0 0346     		mov	r3, r0
 1194 04d2 002B     		cmp	r3, #0
 1195 04d4 00D0     		beq	.L68
 1196              		.loc 9 246 0 is_stmt 0 discriminator 3
 1197 04d6 A0E0     		b	.L64
 1198              	.L68:
 1199              		.loc 9 250 0 is_stmt 1
 1200 04d8 514B     		ldr	r3, .L78
 1201 04da 0222     		movs	r2, #2
 1202 04dc 1A60     		str	r2, [r3]
 1203              		.loc 9 252 0
 1204 04de 554B     		ldr	r3, .L78+20
 1205 04e0 1C68     		ldr	r4, [r3]
 1206 04e2 FFF7C5FD 		bl	chThdGetPriorityX
 1207 04e6 0346     		mov	r3, r0
ARM GAS  /tmp/cc8Lx2qh.s 			page 23


 1208 04e8 5A1E     		subs	r2, r3, #1
 1209 04ea 0023     		movs	r3, #0
 1210 04ec 0093     		str	r3, [sp]
 1211 04ee 2046     		mov	r0, r4
 1212 04f0 4FF4A471 		mov	r1, #328
 1213 04f4 504B     		ldr	r3, .L78+24
 1214 04f6 FFF7FEFF 		bl	chThdCreateStatic
 1215 04fa 0246     		mov	r2, r0
 1216 04fc 4F4B     		ldr	r3, .L78+28
 1217 04fe 1A60     		str	r2, [r3]
 1218              		.loc 9 254 0
 1219 0500 4848     		ldr	r0, .L78+4
 1220 0502 41F28831 		movw	r1, #5000
 1221 0506 FFF7FEFF 		bl	chSemWaitTimeout
 1222 050a 0490     		str	r0, [sp, #16]
 1223              		.loc 9 255 0
 1224 050c FFF7FEFF 		bl	test_wait_threads
 1225              		.loc 9 256 0
 1226 0510 049B     		ldr	r3, [sp, #16]
 1227 0512 002B     		cmp	r3, #0
 1228 0514 0CBF     		ite	eq
 1229 0516 0123     		moveq	r3, #1
 1230 0518 0023     		movne	r3, #0
 1231 051a DBB2     		uxtb	r3, r3
 1232 051c 1846     		mov	r0, r3
 1233 051e 4249     		ldr	r1, .L78+8
 1234 0520 FFF7FEFF 		bl	_test_assert
 1235 0524 0346     		mov	r3, r0
 1236 0526 002B     		cmp	r3, #0
 1237 0528 00D0     		beq	.L69
 1238              		.loc 9 256 0 is_stmt 0 discriminator 4
 1239 052a 76E0     		b	.L64
 1240              	.L69:
 1241              		.loc 9 257 0 is_stmt 1
 1242 052c 3D48     		ldr	r0, .L78+4
 1243 052e FFF777FD 		bl	queue_isempty
 1244 0532 0346     		mov	r3, r0
 1245 0534 1846     		mov	r0, r3
 1246 0536 3D49     		ldr	r1, .L78+12
 1247 0538 FFF7FEFF 		bl	_test_assert
 1248 053c 0346     		mov	r3, r0
 1249 053e 002B     		cmp	r3, #0
 1250 0540 00D0     		beq	.L70
 1251              		.loc 9 257 0 is_stmt 0 discriminator 5
 1252 0542 6AE0     		b	.L64
 1253              	.L70:
 1254              		.loc 9 258 0 is_stmt 1
 1255 0544 374B     		ldr	r3, .L78+4
 1256 0546 9B68     		ldr	r3, [r3, #8]
 1257 0548 002B     		cmp	r3, #0
 1258 054a 0CBF     		ite	eq
 1259 054c 0123     		moveq	r3, #1
 1260 054e 0023     		movne	r3, #0
 1261 0550 DBB2     		uxtb	r3, r3
 1262 0552 1846     		mov	r0, r3
 1263 0554 3649     		ldr	r1, .L78+16
 1264 0556 FFF7FEFF 		bl	_test_assert
ARM GAS  /tmp/cc8Lx2qh.s 			page 24


 1265 055a 0346     		mov	r3, r0
 1266 055c 002B     		cmp	r3, #0
 1267 055e 00D0     		beq	.L71
 1268              		.loc 9 258 0 is_stmt 0 discriminator 6
 1269 0560 5BE0     		b	.L64
 1270              	.L71:
 1271              		.loc 9 262 0 is_stmt 1
 1272 0562 2F4B     		ldr	r3, .L78
 1273 0564 0322     		movs	r2, #3
 1274 0566 1A60     		str	r2, [r3]
 1275              		.loc 9 264 0
 1276 0568 FFF7FEFF 		bl	test_wait_tick
 1277 056c 0346     		mov	r3, r0
 1278 056e 03F6C413 		addw	r3, r3, #2500
 1279 0572 0393     		str	r3, [sp, #12]
 1280              		.loc 9 265 0
 1281 0574 0023     		movs	r3, #0
 1282 0576 0593     		str	r3, [sp, #20]
 1283 0578 39E0     		b	.L72
 1284              	.L76:
 1285              		.loc 9 266 0
 1286 057a 059B     		ldr	r3, [sp, #20]
 1287 057c DBB2     		uxtb	r3, r3
 1288 057e 4133     		adds	r3, r3, #65
 1289 0580 DBB2     		uxtb	r3, r3
 1290 0582 1846     		mov	r0, r3
 1291 0584 FFF7FEFF 		bl	test_emit_token
 1292              		.loc 9 267 0
 1293 0588 2648     		ldr	r0, .L78+4
 1294 058a 4FF4FA71 		mov	r1, #500
 1295 058e FFF7FEFF 		bl	chSemWaitTimeout
 1296 0592 0490     		str	r0, [sp, #16]
 1297              		.loc 9 268 0
 1298 0594 049B     		ldr	r3, [sp, #16]
 1299 0596 B3F1FF3F 		cmp	r3, #-1
 1300 059a 0CBF     		ite	eq
 1301 059c 0123     		moveq	r3, #1
 1302 059e 0023     		movne	r3, #0
 1303 05a0 DBB2     		uxtb	r3, r3
 1304 05a2 1846     		mov	r0, r3
 1305 05a4 2049     		ldr	r1, .L78+8
 1306 05a6 FFF7FEFF 		bl	_test_assert
 1307 05aa 0346     		mov	r3, r0
 1308 05ac 002B     		cmp	r3, #0
 1309 05ae 00D0     		beq	.L73
 1310              		.loc 9 268 0 is_stmt 0 discriminator 7
 1311 05b0 33E0     		b	.L64
 1312              	.L73:
 1313              		.loc 9 269 0 is_stmt 1
 1314 05b2 1C48     		ldr	r0, .L78+4
 1315 05b4 FFF734FD 		bl	queue_isempty
 1316 05b8 0346     		mov	r3, r0
 1317 05ba 1846     		mov	r0, r3
 1318 05bc 1B49     		ldr	r1, .L78+12
 1319 05be FFF7FEFF 		bl	_test_assert
 1320 05c2 0346     		mov	r3, r0
 1321 05c4 002B     		cmp	r3, #0
ARM GAS  /tmp/cc8Lx2qh.s 			page 25


 1322 05c6 00D0     		beq	.L74
 1323              		.loc 9 269 0 is_stmt 0 discriminator 8
 1324 05c8 27E0     		b	.L64
 1325              	.L74:
 1326              		.loc 9 270 0 is_stmt 1
 1327 05ca 164B     		ldr	r3, .L78+4
 1328 05cc 9B68     		ldr	r3, [r3, #8]
 1329 05ce 002B     		cmp	r3, #0
 1330 05d0 0CBF     		ite	eq
 1331 05d2 0123     		moveq	r3, #1
 1332 05d4 0023     		movne	r3, #0
 1333 05d6 DBB2     		uxtb	r3, r3
 1334 05d8 1846     		mov	r0, r3
 1335 05da 1549     		ldr	r1, .L78+16
 1336 05dc FFF7FEFF 		bl	_test_assert
 1337 05e0 0346     		mov	r3, r0
 1338 05e2 002B     		cmp	r3, #0
 1339 05e4 00D0     		beq	.L75
 1340              		.loc 9 270 0 is_stmt 0 discriminator 9
 1341 05e6 18E0     		b	.L64
 1342              	.L75:
 1343              		.loc 9 265 0 is_stmt 1 discriminator 2
 1344 05e8 059B     		ldr	r3, [sp, #20]
 1345 05ea 0133     		adds	r3, r3, #1
 1346 05ec 0593     		str	r3, [sp, #20]
 1347              	.L72:
 1348              		.loc 9 265 0 is_stmt 0 discriminator 1
 1349 05ee 059B     		ldr	r3, [sp, #20]
 1350 05f0 042B     		cmp	r3, #4
 1351 05f2 C2D9     		bls	.L76
 1352              		.loc 9 272 0 is_stmt 1
 1353 05f4 1248     		ldr	r0, .L78+32
 1354 05f6 1349     		ldr	r1, .L78+36
 1355 05f8 FFF7FEFF 		bl	_test_assert_sequence
 1356 05fc 0346     		mov	r3, r0
 1357 05fe 002B     		cmp	r3, #0
 1358 0600 00D0     		beq	.L77
 1359              		.loc 9 272 0 is_stmt 0 discriminator 10
 1360 0602 0AE0     		b	.L64
 1361              	.L77:
 1362              		.loc 9 273 0 is_stmt 1
 1363 0604 039B     		ldr	r3, [sp, #12]
 1364 0606 1433     		adds	r3, r3, #20
 1365 0608 0398     		ldr	r0, [sp, #12]
 1366 060a 1946     		mov	r1, r3
 1367 060c 0E4A     		ldr	r2, .L78+40
 1368 060e FFF7FEFF 		bl	_test_assert_time_window
 1369 0612 0346     		mov	r3, r0
 1370 0614 002B     		cmp	r3, #0
 1371 0616 00D0     		beq	.L64
 1372              		.loc 9 273 0 is_stmt 0 discriminator 11
 1373 0618 00BF     		nop
 1374              	.L64:
 1375              		.loc 9 276 0 is_stmt 1
 1376 061a 06B0     		add	sp, sp, #24
 1377              		.cfi_def_cfa_offset 8
 1378              		@ sp needed
ARM GAS  /tmp/cc8Lx2qh.s 			page 26


 1379 061c 10BD     		pop	{r4, pc}
 1380              	.L79:
 1381 061e 00BF     		.align	2
 1382              	.L78:
 1383 0620 00000000 		.word	test_step
 1384 0624 00000000 		.word	sem1
 1385 0628 C0000000 		.word	.LC11
 1386 062c D8000000 		.word	.LC12
 1387 0630 E8000000 		.word	.LC13
 1388 0634 00000000 		.word	wa
 1389 0638 00000000 		.word	thread2
 1390 063c 00000000 		.word	threads
 1391 0640 78000000 		.word	.LC8
 1392 0644 80000000 		.word	.LC9
 1393 0648 FC000000 		.word	.LC14
 1394              		.cfi_endproc
 1395              	.LFE289:
 1396              		.size	test_005_003_execute, .-test_005_003_execute
 1397              		.section	.rodata
 1398 010f 00       		.align	2
 1399              	.LC15:
 1400 0110 53656D61 		.ascii	"Semaphore timeout test\000"
 1400      70686F72 
 1400      65207469 
 1400      6D656F75 
 1400      74207465 
 1401 0127 00       		.align	2
 1402              		.type	test_005_003, %object
 1403              		.size	test_005_003, 16
 1404              	test_005_003:
 1405 0128 10010000 		.word	.LC15
 1406 012c 00000000 		.word	test_005_003_setup
 1407 0130 00000000 		.word	0
 1408 0134 00000000 		.word	test_005_003_execute
 1409              		.text
 1410              		.align	2
 1411 064c AFF30080 		.p2align 4,,15
 1412              		.thumb
 1413              		.thumb_func
 1414              		.type	test_005_004_setup, %function
 1415              	test_005_004_setup:
 1416              	.LFB290:
 1417              		.loc 9 299 0
 1418              		.cfi_startproc
 1419              		@ args = 0, pretend = 0, frame = 0
 1420              		@ frame_needed = 0, uses_anonymous_args = 0
 1421 0650 08B5     		push	{r3, lr}
 1422              		.cfi_def_cfa_offset 8
 1423              		.cfi_offset 3, -8
 1424              		.cfi_offset 14, -4
 1425              		.loc 9 300 0
 1426 0652 0248     		ldr	r0, .L81
 1427 0654 0021     		movs	r1, #0
 1428 0656 FFF7FEFF 		bl	chSemObjectInit
 1429              		.loc 9 301 0
 1430 065a 08BD     		pop	{r3, pc}
 1431              	.L82:
ARM GAS  /tmp/cc8Lx2qh.s 			page 27


 1432              		.align	2
 1433              	.L81:
 1434 065c 00000000 		.word	sem1
 1435              		.cfi_endproc
 1436              	.LFE290:
 1437              		.size	test_005_004_setup, .-test_005_004_setup
 1438              		.section	.rodata
 1439              		.align	2
 1440              	.LC16:
 1441 0138 696E7661 		.ascii	"invalid counter\000"
 1441      6C696420 
 1441      636F756E 
 1441      74657200 
 1442              		.text
 1443              		.align	2
 1444              		.p2align 4,,15
 1445              		.thumb
 1446              		.thumb_func
 1447              		.type	test_005_004_execute, %function
 1448              	test_005_004_execute:
 1449              	.LFB291:
 1450              		.loc 9 303 0
 1451              		.cfi_startproc
 1452              		@ args = 0, pretend = 0, frame = 0
 1453              		@ frame_needed = 0, uses_anonymous_args = 0
 1454 0660 10B5     		push	{r4, lr}
 1455              		.cfi_def_cfa_offset 8
 1456              		.cfi_offset 4, -8
 1457              		.cfi_offset 14, -4
 1458 0662 82B0     		sub	sp, sp, #8
 1459              		.cfi_def_cfa_offset 16
 1460              		.loc 9 306 0
 1461 0664 214B     		ldr	r3, .L86
 1462 0666 0122     		movs	r2, #1
 1463 0668 1A60     		str	r2, [r3]
 1464              		.loc 9 308 0
 1465 066a 214B     		ldr	r3, .L86+4
 1466 066c 1C68     		ldr	r4, [r3]
 1467 066e FFF7FFFC 		bl	chThdGetPriorityX
 1468 0672 0346     		mov	r3, r0
 1469 0674 5A1C     		adds	r2, r3, #1
 1470 0676 1F4B     		ldr	r3, .L86+8
 1471 0678 0093     		str	r3, [sp]
 1472 067a 2046     		mov	r0, r4
 1473 067c 4FF4A471 		mov	r1, #328
 1474 0680 1D4B     		ldr	r3, .L86+12
 1475 0682 FFF7FEFF 		bl	chThdCreateStatic
 1476 0686 0246     		mov	r2, r0
 1477 0688 1C4B     		ldr	r3, .L86+16
 1478 068a 1A60     		str	r2, [r3]
 1479              		.loc 9 313 0
 1480 068c 174B     		ldr	r3, .L86
 1481 068e 0222     		movs	r2, #2
 1482 0690 1A60     		str	r2, [r3]
 1483              		.loc 9 315 0
 1484 0692 FFF7D5FC 		bl	chSysLock
 1485              		.loc 9 316 0
ARM GAS  /tmp/cc8Lx2qh.s 			page 28


 1486 0696 1A48     		ldr	r0, .L86+20
 1487 0698 0221     		movs	r1, #2
 1488 069a FFF7FEFF 		bl	chSemAddCounterI
 1489              		.loc 9 317 0
 1490 069e FFF7FEFF 		bl	chSchRescheduleS
 1491              		.loc 9 318 0
 1492 06a2 FFF7D5FC 		bl	chSysUnlock
 1493              		.loc 9 319 0
 1494 06a6 FFF7FEFF 		bl	test_wait_threads
 1495              		.loc 9 320 0
 1496 06aa FFF761FD 		bl	osalSysLock
 1497 06ae 1448     		ldr	r0, .L86+20
 1498 06b0 FFF7E6FC 		bl	chSemGetCounterI
 1499 06b4 0346     		mov	r3, r0
 1500 06b6 012B     		cmp	r3, #1
 1501 06b8 0CBF     		ite	eq
 1502 06ba 0123     		moveq	r3, #1
 1503 06bc 0023     		movne	r3, #0
 1504 06be DBB2     		uxtb	r3, r3
 1505 06c0 1846     		mov	r0, r3
 1506 06c2 1049     		ldr	r1, .L86+24
 1507 06c4 FFF7FEFF 		bl	_test_assert
 1508 06c8 0346     		mov	r3, r0
 1509 06ca 002B     		cmp	r3, #0
 1510 06cc 02D0     		beq	.L84
 1511              		.loc 9 320 0 is_stmt 0 discriminator 1
 1512 06ce FFF757FD 		bl	osalSysUnlock
 1513 06d2 09E0     		b	.L83
 1514              	.L84:
 1515              		.loc 9 320 0 discriminator 2
 1516 06d4 FFF754FD 		bl	osalSysUnlock
 1517              		.loc 9 321 0 is_stmt 1 discriminator 2
 1518 06d8 0648     		ldr	r0, .L86+8
 1519 06da 0B49     		ldr	r1, .L86+28
 1520 06dc FFF7FEFF 		bl	_test_assert_sequence
 1521 06e0 0346     		mov	r3, r0
 1522 06e2 002B     		cmp	r3, #0
 1523 06e4 00D0     		beq	.L83
 1524              		.loc 9 321 0 is_stmt 0
 1525 06e6 00BF     		nop
 1526              	.L83:
 1527              		.loc 9 323 0 is_stmt 1
 1528 06e8 02B0     		add	sp, sp, #8
 1529              		.cfi_def_cfa_offset 8
 1530              		@ sp needed
 1531 06ea 10BD     		pop	{r4, pc}
 1532              	.L87:
 1533              		.align	2
 1534              	.L86:
 1535 06ec 00000000 		.word	test_step
 1536 06f0 00000000 		.word	wa
 1537 06f4 64000000 		.word	.LC3
 1538 06f8 00000000 		.word	thread1
 1539 06fc 00000000 		.word	threads
 1540 0700 00000000 		.word	sem1
 1541 0704 38010000 		.word	.LC16
 1542 0708 80000000 		.word	.LC9
ARM GAS  /tmp/cc8Lx2qh.s 			page 29


 1543              		.cfi_endproc
 1544              	.LFE291:
 1545              		.size	test_005_004_execute, .-test_005_004_execute
 1546              		.section	.rodata
 1547              		.align	2
 1548              	.LC17:
 1549 0148 54657374 		.ascii	"Testing chSemAddCounterI() functionality\000"
 1549      696E6720 
 1549      63685365 
 1549      6D416464 
 1549      436F756E 
 1550 0171 000000   		.align	2
 1551              		.type	test_005_004, %object
 1552              		.size	test_005_004, 16
 1553              	test_005_004:
 1554 0174 48010000 		.word	.LC17
 1555 0178 00000000 		.word	test_005_004_setup
 1556 017c 00000000 		.word	0
 1557 0180 00000000 		.word	test_005_004_execute
 1558              		.text
 1559              		.align	2
 1560 070c AFF30080 		.p2align 4,,15
 1561              		.thumb
 1562              		.thumb_func
 1563              		.type	test_005_005_setup, %function
 1564              	test_005_005_setup:
 1565              	.LFB292:
 1566              		.loc 9 355 0
 1567              		.cfi_startproc
 1568              		@ args = 0, pretend = 0, frame = 0
 1569              		@ frame_needed = 0, uses_anonymous_args = 0
 1570 0710 08B5     		push	{r3, lr}
 1571              		.cfi_def_cfa_offset 8
 1572              		.cfi_offset 3, -8
 1573              		.cfi_offset 14, -4
 1574              		.loc 9 356 0
 1575 0712 0248     		ldr	r0, .L89
 1576 0714 0021     		movs	r1, #0
 1577 0716 FFF7FEFF 		bl	chSemObjectInit
 1578              		.loc 9 357 0
 1579 071a 08BD     		pop	{r3, pc}
 1580              	.L90:
 1581              		.align	2
 1582              	.L89:
 1583 071c 00000000 		.word	sem1
 1584              		.cfi_endproc
 1585              	.LFE292:
 1586              		.size	test_005_005_setup, .-test_005_005_setup
 1587              		.align	2
 1588              		.p2align 4,,15
 1589              		.thumb
 1590              		.thumb_func
 1591              		.type	test_005_005_teardown, %function
 1592              	test_005_005_teardown:
 1593              	.LFB293:
 1594              		.loc 9 359 0
 1595              		.cfi_startproc
ARM GAS  /tmp/cc8Lx2qh.s 			page 30


 1596              		@ args = 0, pretend = 0, frame = 0
 1597              		@ frame_needed = 0, uses_anonymous_args = 0
 1598 0720 08B5     		push	{r3, lr}
 1599              		.cfi_def_cfa_offset 8
 1600              		.cfi_offset 3, -8
 1601              		.cfi_offset 14, -4
 1602              		.loc 9 360 0
 1603 0722 FFF7FEFF 		bl	test_wait_threads
 1604              		.loc 9 361 0
 1605 0726 08BD     		pop	{r3, pc}
 1606              		.cfi_endproc
 1607              	.LFE293:
 1608              		.size	test_005_005_teardown, .-test_005_005_teardown
 1609              		.align	2
 1610 0728 AFF30080 		.p2align 4,,15
 1610      AFF30080 
 1611              		.thumb
 1612              		.thumb_func
 1613              		.type	test_005_005_execute, %function
 1614              	test_005_005_execute:
 1615              	.LFB294:
 1616              		.loc 9 363 0
 1617              		.cfi_startproc
 1618              		@ args = 0, pretend = 0, frame = 0
 1619              		@ frame_needed = 0, uses_anonymous_args = 0
 1620 0730 10B5     		push	{r4, lr}
 1621              		.cfi_def_cfa_offset 8
 1622              		.cfi_offset 4, -8
 1623              		.cfi_offset 14, -4
 1624 0732 82B0     		sub	sp, sp, #8
 1625              		.cfi_def_cfa_offset 16
 1626              		.loc 9 367 0
 1627 0734 2C4B     		ldr	r3, .L97
 1628 0736 0122     		movs	r2, #1
 1629 0738 1A60     		str	r2, [r3]
 1630              		.loc 9 369 0
 1631 073a 2C4B     		ldr	r3, .L97+4
 1632 073c 1C68     		ldr	r4, [r3]
 1633 073e FFF797FC 		bl	chThdGetPriorityX
 1634 0742 0346     		mov	r3, r0
 1635 0744 5A1C     		adds	r2, r3, #1
 1636 0746 0023     		movs	r3, #0
 1637 0748 0093     		str	r3, [sp]
 1638 074a 2046     		mov	r0, r4
 1639 074c 4FF4A471 		mov	r1, #328
 1640 0750 274B     		ldr	r3, .L97+8
 1641 0752 FFF7FEFF 		bl	chThdCreateStatic
 1642 0756 0246     		mov	r2, r0
 1643 0758 264B     		ldr	r3, .L97+12
 1644 075a 1A60     		str	r2, [r3]
 1645              		.loc 9 375 0
 1646 075c 224B     		ldr	r3, .L97
 1647 075e 0222     		movs	r2, #2
 1648 0760 1A60     		str	r2, [r3]
 1649              		.loc 9 377 0
 1650 0762 2548     		ldr	r0, .L97+16
 1651 0764 2449     		ldr	r1, .L97+16
ARM GAS  /tmp/cc8Lx2qh.s 			page 31


 1652 0766 FFF7FEFF 		bl	chSemSignalWait
 1653              		.loc 9 378 0
 1654 076a 2348     		ldr	r0, .L97+16
 1655 076c FFF758FC 		bl	queue_isempty
 1656 0770 0346     		mov	r3, r0
 1657 0772 1846     		mov	r0, r3
 1658 0774 2149     		ldr	r1, .L97+20
 1659 0776 FFF7FEFF 		bl	_test_assert
 1660 077a 0346     		mov	r3, r0
 1661 077c 002B     		cmp	r3, #0
 1662 077e 00D0     		beq	.L93
 1663 0780 30E0     		b	.L92
 1664              	.L93:
 1665              		.loc 9 379 0
 1666 0782 1D4B     		ldr	r3, .L97+16
 1667 0784 9B68     		ldr	r3, [r3, #8]
 1668 0786 002B     		cmp	r3, #0
 1669 0788 0CBF     		ite	eq
 1670 078a 0123     		moveq	r3, #1
 1671 078c 0023     		movne	r3, #0
 1672 078e DBB2     		uxtb	r3, r3
 1673 0790 1846     		mov	r0, r3
 1674 0792 1B49     		ldr	r1, .L97+24
 1675 0794 FFF7FEFF 		bl	_test_assert
 1676 0798 0346     		mov	r3, r0
 1677 079a 002B     		cmp	r3, #0
 1678 079c 00D0     		beq	.L95
 1679              		.loc 9 379 0 is_stmt 0 discriminator 2
 1680 079e 21E0     		b	.L92
 1681              	.L95:
 1682              		.loc 9 385 0 is_stmt 1
 1683 07a0 114B     		ldr	r3, .L97
 1684 07a2 0322     		movs	r2, #3
 1685 07a4 1A60     		str	r2, [r3]
 1686              		.loc 9 387 0
 1687 07a6 1448     		ldr	r0, .L97+16
 1688 07a8 1349     		ldr	r1, .L97+16
 1689 07aa FFF7FEFF 		bl	chSemSignalWait
 1690              		.loc 9 388 0
 1691 07ae 1248     		ldr	r0, .L97+16
 1692 07b0 FFF736FC 		bl	queue_isempty
 1693 07b4 0346     		mov	r3, r0
 1694 07b6 1846     		mov	r0, r3
 1695 07b8 1049     		ldr	r1, .L97+20
 1696 07ba FFF7FEFF 		bl	_test_assert
 1697 07be 0346     		mov	r3, r0
 1698 07c0 002B     		cmp	r3, #0
 1699 07c2 00D0     		beq	.L96
 1700              		.loc 9 388 0 is_stmt 0 discriminator 3
 1701 07c4 0EE0     		b	.L92
 1702              	.L96:
 1703              		.loc 9 389 0 is_stmt 1
 1704 07c6 0C4B     		ldr	r3, .L97+16
 1705 07c8 9B68     		ldr	r3, [r3, #8]
 1706 07ca 002B     		cmp	r3, #0
 1707 07cc 0CBF     		ite	eq
 1708 07ce 0123     		moveq	r3, #1
ARM GAS  /tmp/cc8Lx2qh.s 			page 32


 1709 07d0 0023     		movne	r3, #0
 1710 07d2 DBB2     		uxtb	r3, r3
 1711 07d4 1846     		mov	r0, r3
 1712 07d6 0A49     		ldr	r1, .L97+24
 1713 07d8 FFF7FEFF 		bl	_test_assert
 1714 07dc 0346     		mov	r3, r0
 1715 07de 002B     		cmp	r3, #0
 1716 07e0 00D0     		beq	.L92
 1717              		.loc 9 389 0 is_stmt 0 discriminator 4
 1718 07e2 00BF     		nop
 1719              	.L92:
 1720              		.loc 9 391 0 is_stmt 1
 1721 07e4 02B0     		add	sp, sp, #8
 1722              		.cfi_def_cfa_offset 8
 1723              		@ sp needed
 1724 07e6 10BD     		pop	{r4, pc}
 1725              	.L98:
 1726              		.align	2
 1727              	.L97:
 1728 07e8 00000000 		.word	test_step
 1729 07ec 00000000 		.word	wa
 1730 07f0 00000000 		.word	thread3
 1731 07f4 00000000 		.word	threads
 1732 07f8 00000000 		.word	sem1
 1733 07fc D8000000 		.word	.LC12
 1734 0800 E8000000 		.word	.LC13
 1735              		.cfi_endproc
 1736              	.LFE294:
 1737              		.size	test_005_005_execute, .-test_005_005_execute
 1738              		.section	.rodata
 1739              		.align	2
 1740              	.LC18:
 1741 0184 54657374 		.ascii	"Testing chSemWaitSignal() functionality\000"
 1741      696E6720 
 1741      63685365 
 1741      6D576169 
 1741      74536967 
 1742              		.align	2
 1743              		.type	test_005_005, %object
 1744              		.size	test_005_005, 16
 1745              	test_005_005:
 1746 01ac 84010000 		.word	.LC18
 1747 01b0 00000000 		.word	test_005_005_setup
 1748 01b4 00000000 		.word	test_005_005_teardown
 1749 01b8 00000000 		.word	test_005_005_execute
 1750              		.text
 1751              		.align	2
 1752 0804 AFF30080 		.p2align 4,,15
 1752      AFF30080 
 1752      AFF30080 
 1753              		.thumb
 1754              		.thumb_func
 1755              		.type	test_005_006_teardown, %function
 1756              	test_005_006_teardown:
 1757              	.LFB295:
 1758              		.loc 9 424 0
 1759              		.cfi_startproc
ARM GAS  /tmp/cc8Lx2qh.s 			page 33


 1760              		@ args = 0, pretend = 0, frame = 0
 1761              		@ frame_needed = 0, uses_anonymous_args = 0
 1762 0810 08B5     		push	{r3, lr}
 1763              		.cfi_def_cfa_offset 8
 1764              		.cfi_offset 3, -8
 1765              		.cfi_offset 14, -4
 1766              		.loc 9 425 0
 1767 0812 FFF7FEFF 		bl	test_wait_threads
 1768              		.loc 9 426 0
 1769 0816 08BD     		pop	{r3, pc}
 1770              		.cfi_endproc
 1771              	.LFE295:
 1772              		.size	test_005_006_teardown, .-test_005_006_teardown
 1773              		.section	.rodata
 1774              		.align	2
 1775              	.LC19:
 1776 01bc 6E6F7420 		.ascii	"not taken\000"
 1776      74616B65 
 1776      6E00
 1777 01c6 0000     		.align	2
 1778              	.LC20:
 1779 01c8 756E6578 		.ascii	"unexpected message\000"
 1779      70656374 
 1779      6564206D 
 1779      65737361 
 1779      676500
 1780 01db 00       		.align	2
 1781              	.LC21:
 1782 01dc 7374696C 		.ascii	"still taken\000"
 1782      6C207461 
 1782      6B656E00 
 1783              		.align	2
 1784              	.LC22:
 1785 01e8 756E6578 		.ascii	"unexpected counter\000"
 1785      70656374 
 1785      65642063 
 1785      6F756E74 
 1785      657200
 1786 01fb 00       		.align	2
 1787              	.LC23:
 1788 01fc 74616B65 		.ascii	"taken\000"
 1788      6E00
 1789              		.text
 1790              		.align	2
 1791 0818 AFF30080 		.p2align 4,,15
 1791      AFF30080 
 1792              		.thumb
 1793              		.thumb_func
 1794              		.type	test_005_006_execute, %function
 1795              	test_005_006_execute:
 1796              	.LFB296:
 1797              		.loc 9 428 0
 1798              		.cfi_startproc
 1799              		@ args = 0, pretend = 0, frame = 16
 1800              		@ frame_needed = 0, uses_anonymous_args = 0
 1801 0820 10B5     		push	{r4, lr}
 1802              		.cfi_def_cfa_offset 8
ARM GAS  /tmp/cc8Lx2qh.s 			page 34


 1803              		.cfi_offset 4, -8
 1804              		.cfi_offset 14, -4
 1805 0822 86B0     		sub	sp, sp, #24
 1806              		.cfi_def_cfa_offset 32
 1807              		.loc 9 434 0
 1808 0824 7E4B     		ldr	r3, .L111
 1809 0826 0122     		movs	r2, #1
 1810 0828 1A60     		str	r2, [r3]
 1811              		.loc 9 436 0
 1812 082a 02AB     		add	r3, sp, #8
 1813 082c 1846     		mov	r0, r3
 1814 082e 0121     		movs	r1, #1
 1815 0830 FFF72EFC 		bl	chBSemObjectInit
 1816              		.loc 9 437 0
 1817 0834 FFF79CFC 		bl	osalSysLock
 1818 0838 02AB     		add	r3, sp, #8
 1819 083a 1846     		mov	r0, r3
 1820 083c FFF788FC 		bl	chBSemGetStateI
 1821 0840 0346     		mov	r3, r0
 1822 0842 002B     		cmp	r3, #0
 1823 0844 14BF     		ite	ne
 1824 0846 0123     		movne	r3, #1
 1825 0848 0023     		moveq	r3, #0
 1826 084a DBB2     		uxtb	r3, r3
 1827 084c 1846     		mov	r0, r3
 1828 084e 7549     		ldr	r1, .L111+4
 1829 0850 FFF7FEFF 		bl	_test_assert
 1830 0854 0346     		mov	r3, r0
 1831 0856 002B     		cmp	r3, #0
 1832 0858 02D0     		beq	.L101
 1833              		.loc 9 437 0 is_stmt 0 discriminator 1
 1834 085a FFF791FC 		bl	osalSysUnlock
 1835 085e DDE0     		b	.L100
 1836              	.L101:
 1837              		.loc 9 437 0 discriminator 2
 1838 0860 FFF78EFC 		bl	osalSysUnlock
 1839              		.loc 9 442 0 is_stmt 1 discriminator 2
 1840 0864 6E4B     		ldr	r3, .L111
 1841 0866 0222     		movs	r2, #2
 1842 0868 1A60     		str	r2, [r3]
 1843              		.loc 9 444 0 discriminator 2
 1844 086a 02AB     		add	r3, sp, #8
 1845 086c 1846     		mov	r0, r3
 1846 086e 0121     		movs	r1, #1
 1847 0870 FFF736FC 		bl	chBSemReset
 1848              		.loc 9 445 0 discriminator 2
 1849 0874 FFF77CFC 		bl	osalSysLock
 1850 0878 02AB     		add	r3, sp, #8
 1851 087a 1846     		mov	r0, r3
 1852 087c FFF768FC 		bl	chBSemGetStateI
 1853 0880 0346     		mov	r3, r0
 1854 0882 002B     		cmp	r3, #0
 1855 0884 14BF     		ite	ne
 1856 0886 0123     		movne	r3, #1
 1857 0888 0023     		moveq	r3, #0
 1858 088a DBB2     		uxtb	r3, r3
 1859 088c 1846     		mov	r0, r3
ARM GAS  /tmp/cc8Lx2qh.s 			page 35


 1860 088e 6549     		ldr	r1, .L111+4
 1861 0890 FFF7FEFF 		bl	_test_assert
 1862 0894 0346     		mov	r3, r0
 1863 0896 002B     		cmp	r3, #0
 1864 0898 02D0     		beq	.L103
 1865              		.loc 9 445 0 is_stmt 0 discriminator 1
 1866 089a FFF771FC 		bl	osalSysUnlock
 1867 089e BDE0     		b	.L100
 1868              	.L103:
 1869              		.loc 9 445 0 discriminator 2
 1870 08a0 FFF76EFC 		bl	osalSysUnlock
 1871              		.loc 9 449 0 is_stmt 1 discriminator 2
 1872 08a4 5E4B     		ldr	r3, .L111
 1873 08a6 0322     		movs	r2, #3
 1874 08a8 1A60     		str	r2, [r3]
 1875              		.loc 9 451 0 discriminator 2
 1876 08aa 5F4B     		ldr	r3, .L111+8
 1877 08ac 1C68     		ldr	r4, [r3]
 1878              		.loc 9 452 0 discriminator 2
 1879 08ae FFF7DFFB 		bl	chThdGetPriorityX
 1880 08b2 0346     		mov	r3, r0
 1881              		.loc 9 451 0 discriminator 2
 1882 08b4 5A1E     		subs	r2, r3, #1
 1883 08b6 02AB     		add	r3, sp, #8
 1884 08b8 0093     		str	r3, [sp]
 1885 08ba 2046     		mov	r0, r4
 1886 08bc 4FF4A471 		mov	r1, #328
 1887 08c0 5A4B     		ldr	r3, .L111+12
 1888 08c2 FFF7FEFF 		bl	chThdCreateStatic
 1889 08c6 0246     		mov	r2, r0
 1890 08c8 594B     		ldr	r3, .L111+16
 1891 08ca 1A60     		str	r2, [r3]
 1892              		.loc 9 457 0 discriminator 2
 1893 08cc 544B     		ldr	r3, .L111
 1894 08ce 0422     		movs	r2, #4
 1895 08d0 1A60     		str	r2, [r3]
 1896              		.loc 9 459 0 discriminator 2
 1897 08d2 02AB     		add	r3, sp, #8
 1898 08d4 1846     		mov	r0, r3
 1899 08d6 FFF7F3FB 		bl	chBSemWait
 1900 08da 0590     		str	r0, [sp, #20]
 1901              		.loc 9 460 0 discriminator 2
 1902 08dc FFF748FC 		bl	osalSysLock
 1903 08e0 02AB     		add	r3, sp, #8
 1904 08e2 1846     		mov	r0, r3
 1905 08e4 FFF734FC 		bl	chBSemGetStateI
 1906 08e8 0346     		mov	r3, r0
 1907 08ea 002B     		cmp	r3, #0
 1908 08ec 14BF     		ite	ne
 1909 08ee 0123     		movne	r3, #1
 1910 08f0 0023     		moveq	r3, #0
 1911 08f2 DBB2     		uxtb	r3, r3
 1912 08f4 1846     		mov	r0, r3
 1913 08f6 4B49     		ldr	r1, .L111+4
 1914 08f8 FFF7FEFF 		bl	_test_assert
 1915 08fc 0346     		mov	r3, r0
 1916 08fe 002B     		cmp	r3, #0
ARM GAS  /tmp/cc8Lx2qh.s 			page 36


 1917 0900 02D0     		beq	.L104
 1918              		.loc 9 460 0 is_stmt 0 discriminator 1
 1919 0902 FFF73DFC 		bl	osalSysUnlock
 1920 0906 89E0     		b	.L100
 1921              	.L104:
 1922              		.loc 9 460 0 discriminator 2
 1923 0908 FFF73AFC 		bl	osalSysUnlock
 1924              		.loc 9 461 0 is_stmt 1 discriminator 2
 1925 090c 059B     		ldr	r3, [sp, #20]
 1926 090e 002B     		cmp	r3, #0
 1927 0910 0CBF     		ite	eq
 1928 0912 0123     		moveq	r3, #1
 1929 0914 0023     		movne	r3, #0
 1930 0916 DBB2     		uxtb	r3, r3
 1931 0918 1846     		mov	r0, r3
 1932 091a 4649     		ldr	r1, .L111+20
 1933 091c FFF7FEFF 		bl	_test_assert
 1934 0920 0346     		mov	r3, r0
 1935 0922 002B     		cmp	r3, #0
 1936 0924 00D0     		beq	.L105
 1937              		.loc 9 461 0 is_stmt 0
 1938 0926 79E0     		b	.L100
 1939              	.L105:
 1940              		.loc 9 467 0 is_stmt 1
 1941 0928 3D4B     		ldr	r3, .L111
 1942 092a 0522     		movs	r2, #5
 1943 092c 1A60     		str	r2, [r3]
 1944              		.loc 9 469 0
 1945 092e 02AB     		add	r3, sp, #8
 1946 0930 1846     		mov	r0, r3
 1947 0932 FFF7FDFB 		bl	chBSemSignal
 1948              		.loc 9 470 0
 1949 0936 FFF71BFC 		bl	osalSysLock
 1950 093a 02AB     		add	r3, sp, #8
 1951 093c 1846     		mov	r0, r3
 1952 093e FFF707FC 		bl	chBSemGetStateI
 1953 0942 0346     		mov	r3, r0
 1954 0944 002B     		cmp	r3, #0
 1955 0946 14BF     		ite	ne
 1956 0948 0123     		movne	r3, #1
 1957 094a 0023     		moveq	r3, #0
 1958 094c DBB2     		uxtb	r3, r3
 1959 094e 83F00103 		eor	r3, r3, #1
 1960 0952 DBB2     		uxtb	r3, r3
 1961 0954 03F00103 		and	r3, r3, #1
 1962 0958 DBB2     		uxtb	r3, r3
 1963 095a 1846     		mov	r0, r3
 1964 095c 3649     		ldr	r1, .L111+24
 1965 095e FFF7FEFF 		bl	_test_assert
 1966 0962 0346     		mov	r3, r0
 1967 0964 002B     		cmp	r3, #0
 1968 0966 02D0     		beq	.L106
 1969              		.loc 9 470 0 is_stmt 0 discriminator 1
 1970 0968 FFF70AFC 		bl	osalSysUnlock
 1971 096c 56E0     		b	.L100
 1972              	.L106:
 1973              		.loc 9 470 0 discriminator 2
ARM GAS  /tmp/cc8Lx2qh.s 			page 37


 1974 096e FFF707FC 		bl	osalSysUnlock
 1975              		.loc 9 471 0 is_stmt 1 discriminator 2
 1976 0972 FFF7FDFB 		bl	osalSysLock
 1977 0976 02AB     		add	r3, sp, #8
 1978 0978 1846     		mov	r0, r3
 1979 097a FFF781FB 		bl	chSemGetCounterI
 1980 097e 0346     		mov	r3, r0
 1981 0980 012B     		cmp	r3, #1
 1982 0982 0CBF     		ite	eq
 1983 0984 0123     		moveq	r3, #1
 1984 0986 0023     		movne	r3, #0
 1985 0988 DBB2     		uxtb	r3, r3
 1986 098a 1846     		mov	r0, r3
 1987 098c 2B49     		ldr	r1, .L111+28
 1988 098e FFF7FEFF 		bl	_test_assert
 1989 0992 0346     		mov	r3, r0
 1990 0994 002B     		cmp	r3, #0
 1991 0996 02D0     		beq	.L107
 1992              		.loc 9 471 0 is_stmt 0 discriminator 1
 1993 0998 FFF7F2FB 		bl	osalSysUnlock
 1994 099c 3EE0     		b	.L100
 1995              	.L107:
 1996              		.loc 9 471 0 discriminator 2
 1997 099e FFF7EFFB 		bl	osalSysUnlock
 1998              		.loc 9 476 0 is_stmt 1 discriminator 2
 1999 09a2 1F4B     		ldr	r3, .L111
 2000 09a4 0622     		movs	r2, #6
 2001 09a6 1A60     		str	r2, [r3]
 2002              		.loc 9 478 0 discriminator 2
 2003 09a8 02AB     		add	r3, sp, #8
 2004 09aa 1846     		mov	r0, r3
 2005 09ac FFF7C0FB 		bl	chBSemSignal
 2006              		.loc 9 479 0 discriminator 2
 2007 09b0 FFF7DEFB 		bl	osalSysLock
 2008 09b4 02AB     		add	r3, sp, #8
 2009 09b6 1846     		mov	r0, r3
 2010 09b8 FFF7CAFB 		bl	chBSemGetStateI
 2011 09bc 0346     		mov	r3, r0
 2012 09be 002B     		cmp	r3, #0
 2013 09c0 14BF     		ite	ne
 2014 09c2 0123     		movne	r3, #1
 2015 09c4 0023     		moveq	r3, #0
 2016 09c6 DBB2     		uxtb	r3, r3
 2017 09c8 83F00103 		eor	r3, r3, #1
 2018 09cc DBB2     		uxtb	r3, r3
 2019 09ce 03F00103 		and	r3, r3, #1
 2020 09d2 DBB2     		uxtb	r3, r3
 2021 09d4 1846     		mov	r0, r3
 2022 09d6 1A49     		ldr	r1, .L111+32
 2023 09d8 FFF7FEFF 		bl	_test_assert
 2024 09dc 0346     		mov	r3, r0
 2025 09de 002B     		cmp	r3, #0
 2026 09e0 02D0     		beq	.L108
 2027              		.loc 9 479 0 is_stmt 0 discriminator 1
 2028 09e2 FFF7CDFB 		bl	osalSysUnlock
 2029 09e6 19E0     		b	.L100
 2030              	.L108:
ARM GAS  /tmp/cc8Lx2qh.s 			page 38


 2031              		.loc 9 479 0 discriminator 2
 2032 09e8 FFF7CAFB 		bl	osalSysUnlock
 2033              		.loc 9 480 0 is_stmt 1 discriminator 2
 2034 09ec FFF7C0FB 		bl	osalSysLock
 2035 09f0 02AB     		add	r3, sp, #8
 2036 09f2 1846     		mov	r0, r3
 2037 09f4 FFF744FB 		bl	chSemGetCounterI
 2038 09f8 0346     		mov	r3, r0
 2039 09fa 012B     		cmp	r3, #1
 2040 09fc 0CBF     		ite	eq
 2041 09fe 0123     		moveq	r3, #1
 2042 0a00 0023     		movne	r3, #0
 2043 0a02 DBB2     		uxtb	r3, r3
 2044 0a04 1846     		mov	r0, r3
 2045 0a06 0D49     		ldr	r1, .L111+28
 2046 0a08 FFF7FEFF 		bl	_test_assert
 2047 0a0c 0346     		mov	r3, r0
 2048 0a0e 002B     		cmp	r3, #0
 2049 0a10 02D0     		beq	.L109
 2050              		.loc 9 480 0 is_stmt 0 discriminator 1
 2051 0a12 FFF7B5FB 		bl	osalSysUnlock
 2052 0a16 01E0     		b	.L100
 2053              	.L109:
 2054              		.loc 9 480 0 discriminator 2
 2055 0a18 FFF7B2FB 		bl	osalSysUnlock
 2056              	.L100:
 2057              		.loc 9 482 0 is_stmt 1
 2058 0a1c 06B0     		add	sp, sp, #24
 2059              		.cfi_def_cfa_offset 8
 2060              		@ sp needed
 2061 0a1e 10BD     		pop	{r4, pc}
 2062              	.L112:
 2063              		.align	2
 2064              	.L111:
 2065 0a20 00000000 		.word	test_step
 2066 0a24 BC010000 		.word	.LC19
 2067 0a28 00000000 		.word	wa
 2068 0a2c 00000000 		.word	thread4
 2069 0a30 00000000 		.word	threads
 2070 0a34 C8010000 		.word	.LC20
 2071 0a38 DC010000 		.word	.LC21
 2072 0a3c E8010000 		.word	.LC22
 2073 0a40 FC010000 		.word	.LC23
 2074              		.cfi_endproc
 2075              	.LFE296:
 2076              		.size	test_005_006_execute, .-test_005_006_execute
 2077              		.section	.rodata
 2078 0202 0000     		.align	2
 2079              	.LC24:
 2080 0204 54657374 		.ascii	"Testing Binary Semaphores special case\000"
 2080      696E6720 
 2080      42696E61 
 2080      72792053 
 2080      656D6170 
 2081 022b 00       		.align	2
 2082              		.type	test_005_006, %object
 2083              		.size	test_005_006, 16
ARM GAS  /tmp/cc8Lx2qh.s 			page 39


 2084              	test_005_006:
 2085 022c 04020000 		.word	.LC24
 2086 0230 00000000 		.word	0
 2087 0234 00000000 		.word	test_005_006_teardown
 2088 0238 00000000 		.word	test_005_006_execute
 2089              		.global	test_sequence_005
 2090              		.align	2
 2091              		.type	test_sequence_005, %object
 2092              		.size	test_sequence_005, 28
 2093              	test_sequence_005:
 2094 023c 54000000 		.word	test_005_001
 2095 0240 B0000000 		.word	test_005_002
 2096 0244 28010000 		.word	test_005_003
 2097 0248 74010000 		.word	test_005_004
 2098 024c AC010000 		.word	test_005_005
 2099 0250 2C020000 		.word	test_005_006
 2100 0254 00000000 		.word	0
 2101              		.text
 2102              	.Letext0:
 2103              		.file 10 "/usr/lib/gcc/arm-none-eabi/4.9.3/include/stddef.h"
 2104              		.file 11 "/usr/include/newlib/machine/_default_types.h"
 2105              		.file 12 "/usr/include/newlib/sys/_stdint.h"
 2106              		.file 13 "../../../os/common/ports/ARMCMx/compilers/GCC/chtypes.h"
 2107              		.file 14 "../../../os/rt/include/chsystypes.h"
 2108              		.file 15 "../../../os/common/ports/ARMCMx/chcore.h"
 2109              		.file 16 "../../../os/rt/include/chtm.h"
 2110              		.file 17 "../../../os/rt/include/chmtx.h"
 2111              		.file 18 "../../../test/lib/ch_test.h"
 2112              		.file 19 "../../../os/common/ext/CMSIS/include/core_cm4.h"
 2113              		.file 20 "../../../test/rt/source/test/test_root.h"