ARM GAS  /tmp/cc4xFYVS.s 			page 1


   1              		.syntax unified
   2              		.cpu cortex-m4
   3              		.fpu softvfp
   4              		.eabi_attribute 20, 1
   5              		.eabi_attribute 21, 1
   6              		.eabi_attribute 23, 3
   7              		.eabi_attribute 24, 1
   8              		.eabi_attribute 25, 1
   9              		.eabi_attribute 26, 1
  10              		.eabi_attribute 30, 6
  11              		.eabi_attribute 34, 1
  12              		.eabi_attribute 18, 4
  13              		.thumb
  14              		.file	"test_sequence_002.c"
  15              		.text
  16              	.Ltext0:
  17              		.cfi_sections	.debug_frame
  18              		.align	2
  19              		.p2align 4,,15
  20              		.thumb
  21              		.thumb_func
  22              		.type	port_get_irq_status, %function
  23              	port_get_irq_status:
  24              	.LFB124:
  25              		.file 1 "../../../os/common/ports/ARMCMx/chcore_v7m.h"
  26              		.loc 1 548 0
  27              		.cfi_startproc
  28              		@ args = 0, pretend = 0, frame = 8
  29              		@ frame_needed = 0, uses_anonymous_args = 0
  30              		@ link register save eliminated.
  31 0000 82B0     		sub	sp, sp, #8
  32              		.cfi_def_cfa_offset 8
  33              	.LBB18:
  34              	.LBB19:
  35              		.file 2 "../../../os/common/ext/CMSIS/include/cmsis_gcc.h"
  36              		.loc 2 252 0
  37              	@ 252 "../../../os/common/ext/CMSIS/include/cmsis_gcc.h" 1
  38 0002 EFF31183 		MRS r3, basepri
  39              	@ 0 "" 2
  40              		.thumb
  41 0006 0093     		str	r3, [sp]
  42              		.loc 2 253 0
  43 0008 009B     		ldr	r3, [sp]
  44              	.LBE19:
  45              	.LBE18:
  46              		.loc 1 552 0
  47 000a 0193     		str	r3, [sp, #4]
  48              		.loc 1 556 0
  49 000c 019B     		ldr	r3, [sp, #4]
  50              		.loc 1 557 0
  51 000e 1846     		mov	r0, r3
  52 0010 02B0     		add	sp, sp, #8
  53              		.cfi_def_cfa_offset 0
  54              		@ sp needed
  55 0012 7047     		bx	lr
  56              		.cfi_endproc
  57              	.LFE124:
ARM GAS  /tmp/cc4xFYVS.s 			page 2


  58              		.size	port_get_irq_status, .-port_get_irq_status
  59              		.align	2
  60 0014 AFF30080 		.p2align 4,,15
  60      AFF30080 
  60      AFF30080 
  61              		.thumb
  62              		.thumb_func
  63              		.type	port_irq_enabled, %function
  64              	port_irq_enabled:
  65              	.LFB125:
  66              		.loc 1 568 0
  67              		.cfi_startproc
  68              		@ args = 0, pretend = 0, frame = 8
  69              		@ frame_needed = 0, uses_anonymous_args = 0
  70              		@ link register save eliminated.
  71 0020 82B0     		sub	sp, sp, #8
  72              		.cfi_def_cfa_offset 8
  73 0022 0190     		str	r0, [sp, #4]
  74              		.loc 1 571 0
  75 0024 019B     		ldr	r3, [sp, #4]
  76 0026 002B     		cmp	r3, #0
  77 0028 0CBF     		ite	eq
  78 002a 0123     		moveq	r3, #1
  79 002c 0023     		movne	r3, #0
  80 002e DBB2     		uxtb	r3, r3
  81              		.loc 1 575 0
  82 0030 1846     		mov	r0, r3
  83 0032 02B0     		add	sp, sp, #8
  84              		.cfi_def_cfa_offset 0
  85              		@ sp needed
  86 0034 7047     		bx	lr
  87              		.cfi_endproc
  88              	.LFE125:
  89              		.size	port_irq_enabled, .-port_irq_enabled
  90 0036 00BF     		.align	2
  91 0038 AFF30080 		.p2align 4,,15
  91      AFF30080 
  92              		.thumb
  93              		.thumb_func
  94              		.type	port_lock, %function
  95              	port_lock:
  96              	.LFB127:
  97              		.loc 1 594 0
  98              		.cfi_startproc
  99              		@ args = 0, pretend = 0, frame = 8
 100              		@ frame_needed = 0, uses_anonymous_args = 0
 101              		@ link register save eliminated.
 102 0040 82B0     		sub	sp, sp, #8
 103              		.cfi_def_cfa_offset 8
 104 0042 2023     		movs	r3, #32
 105 0044 0193     		str	r3, [sp, #4]
 106              	.LBB20:
 107              	.LBB21:
 108              		.loc 2 264 0
 109 0046 019B     		ldr	r3, [sp, #4]
 110              	@ 264 "../../../os/common/ext/CMSIS/include/cmsis_gcc.h" 1
 111 0048 83F31188 		MSR basepri, r3
ARM GAS  /tmp/cc4xFYVS.s 			page 3


 112              	@ 0 "" 2
 113              		.thumb
 114              	.LBE21:
 115              	.LBE20:
 116              		.loc 1 611 0
 117 004c 02B0     		add	sp, sp, #8
 118              		.cfi_def_cfa_offset 0
 119              		@ sp needed
 120 004e 7047     		bx	lr
 121              		.cfi_endproc
 122              	.LFE127:
 123              		.size	port_lock, .-port_lock
 124              		.align	2
 125              		.p2align 4,,15
 126              		.thumb
 127              		.thumb_func
 128              		.type	port_unlock, %function
 129              	port_unlock:
 130              	.LFB128:
 131              		.loc 1 618 0
 132              		.cfi_startproc
 133              		@ args = 0, pretend = 0, frame = 8
 134              		@ frame_needed = 0, uses_anonymous_args = 0
 135              		@ link register save eliminated.
 136 0050 82B0     		sub	sp, sp, #8
 137              		.cfi_def_cfa_offset 8
 138 0052 0023     		movs	r3, #0
 139 0054 0193     		str	r3, [sp, #4]
 140              	.LBB22:
 141              	.LBB23:
 142              		.loc 2 264 0
 143 0056 019B     		ldr	r3, [sp, #4]
 144              	@ 264 "../../../os/common/ext/CMSIS/include/cmsis_gcc.h" 1
 145 0058 83F31188 		MSR basepri, r3
 146              	@ 0 "" 2
 147              		.thumb
 148              	.LBE23:
 149              	.LBE22:
 150              		.loc 1 625 0
 151 005c 02B0     		add	sp, sp, #8
 152              		.cfi_def_cfa_offset 0
 153              		@ sp needed
 154 005e 7047     		bx	lr
 155              		.cfi_endproc
 156              	.LFE128:
 157              		.size	port_unlock, .-port_unlock
 158              		.align	2
 159              		.p2align 4,,15
 160              		.thumb
 161              		.thumb_func
 162              		.type	port_lock_from_isr, %function
 163              	port_lock_from_isr:
 164              	.LFB129:
 165              		.loc 1 633 0
 166              		.cfi_startproc
 167              		@ args = 0, pretend = 0, frame = 0
 168              		@ frame_needed = 0, uses_anonymous_args = 0
ARM GAS  /tmp/cc4xFYVS.s 			page 4


 169 0060 08B5     		push	{r3, lr}
 170              		.cfi_def_cfa_offset 8
 171              		.cfi_offset 3, -8
 172              		.cfi_offset 14, -4
 173              		.loc 1 635 0
 174 0062 FFF7EDFF 		bl	port_lock
 175              		.loc 1 636 0
 176 0066 08BD     		pop	{r3, pc}
 177              		.cfi_endproc
 178              	.LFE129:
 179              		.size	port_lock_from_isr, .-port_lock_from_isr
 180              		.align	2
 181 0068 AFF30080 		.p2align 4,,15
 181      AFF30080 
 182              		.thumb
 183              		.thumb_func
 184              		.type	port_unlock_from_isr, %function
 185              	port_unlock_from_isr:
 186              	.LFB130:
 187              		.loc 1 644 0
 188              		.cfi_startproc
 189              		@ args = 0, pretend = 0, frame = 0
 190              		@ frame_needed = 0, uses_anonymous_args = 0
 191 0070 08B5     		push	{r3, lr}
 192              		.cfi_def_cfa_offset 8
 193              		.cfi_offset 3, -8
 194              		.cfi_offset 14, -4
 195              		.loc 1 646 0
 196 0072 FFF7EDFF 		bl	port_unlock
 197              		.loc 1 647 0
 198 0076 08BD     		pop	{r3, pc}
 199              		.cfi_endproc
 200              	.LFE130:
 201              		.size	port_unlock_from_isr, .-port_unlock_from_isr
 202              		.align	2
 203 0078 AFF30080 		.p2align 4,,15
 203      AFF30080 
 204              		.thumb
 205              		.thumb_func
 206              		.type	port_disable, %function
 207              	port_disable:
 208              	.LFB131:
 209              		.loc 1 654 0
 210              		.cfi_startproc
 211              		@ args = 0, pretend = 0, frame = 0
 212              		@ frame_needed = 0, uses_anonymous_args = 0
 213              		@ link register save eliminated.
 214              	.LBB24:
 215              	.LBB25:
 216              		.loc 2 71 0
 217              	@ 71 "../../../os/common/ext/CMSIS/include/cmsis_gcc.h" 1
 218 0080 72B6     		cpsid i
 219              	@ 0 "" 2
 220              		.thumb
 221              	.LBE25:
 222              	.LBE24:
 223              		.loc 1 657 0
ARM GAS  /tmp/cc4xFYVS.s 			page 5


 224 0082 7047     		bx	lr
 225              		.cfi_endproc
 226              	.LFE131:
 227              		.size	port_disable, .-port_disable
 228              		.align	2
 229 0084 AFF30080 		.p2align 4,,15
 229      AFF30080 
 229      AFF30080 
 230              		.thumb
 231              		.thumb_func
 232              		.type	port_suspend, %function
 233              	port_suspend:
 234              	.LFB132:
 235              		.loc 1 664 0
 236              		.cfi_startproc
 237              		@ args = 0, pretend = 0, frame = 8
 238              		@ frame_needed = 0, uses_anonymous_args = 0
 239              		@ link register save eliminated.
 240 0090 82B0     		sub	sp, sp, #8
 241              		.cfi_def_cfa_offset 8
 242 0092 2023     		movs	r3, #32
 243 0094 0193     		str	r3, [sp, #4]
 244              	.LBB26:
 245              	.LBB27:
 246              		.loc 2 264 0
 247 0096 019B     		ldr	r3, [sp, #4]
 248              	@ 264 "../../../os/common/ext/CMSIS/include/cmsis_gcc.h" 1
 249 0098 83F31188 		MSR basepri, r3
 250              	@ 0 "" 2
 251              		.thumb
 252              	.LBE27:
 253              	.LBE26:
 254              	.LBB28:
 255              	.LBB29:
 256              		.loc 2 60 0
 257              	@ 60 "../../../os/common/ext/CMSIS/include/cmsis_gcc.h" 1
 258 009c 62B6     		cpsie i
 259              	@ 0 "" 2
 260              		.thumb
 261              	.LBE29:
 262              	.LBE28:
 263              		.loc 1 672 0
 264 009e 02B0     		add	sp, sp, #8
 265              		.cfi_def_cfa_offset 0
 266              		@ sp needed
 267 00a0 7047     		bx	lr
 268              		.cfi_endproc
 269              	.LFE132:
 270              		.size	port_suspend, .-port_suspend
 271 00a2 00BF     		.align	2
 272 00a4 AFF30080 		.p2align 4,,15
 272      AFF30080 
 272      AFF30080 
 273              		.thumb
 274              		.thumb_func
 275              		.type	port_enable, %function
 276              	port_enable:
ARM GAS  /tmp/cc4xFYVS.s 			page 6


 277              	.LFB133:
 278              		.loc 1 678 0
 279              		.cfi_startproc
 280              		@ args = 0, pretend = 0, frame = 8
 281              		@ frame_needed = 0, uses_anonymous_args = 0
 282              		@ link register save eliminated.
 283 00b0 82B0     		sub	sp, sp, #8
 284              		.cfi_def_cfa_offset 8
 285 00b2 0023     		movs	r3, #0
 286 00b4 0193     		str	r3, [sp, #4]
 287              	.LBB30:
 288              	.LBB31:
 289              		.loc 2 264 0
 290 00b6 019B     		ldr	r3, [sp, #4]
 291              	@ 264 "../../../os/common/ext/CMSIS/include/cmsis_gcc.h" 1
 292 00b8 83F31188 		MSR basepri, r3
 293              	@ 0 "" 2
 294              		.thumb
 295              	.LBE31:
 296              	.LBE30:
 297              	.LBB32:
 298              	.LBB33:
 299              		.loc 2 60 0
 300              	@ 60 "../../../os/common/ext/CMSIS/include/cmsis_gcc.h" 1
 301 00bc 62B6     		cpsie i
 302              	@ 0 "" 2
 303              		.thumb
 304              	.LBE33:
 305              	.LBE32:
 306              		.loc 1 684 0
 307 00be 02B0     		add	sp, sp, #8
 308              		.cfi_def_cfa_offset 0
 309              		@ sp needed
 310 00c0 7047     		bx	lr
 311              		.cfi_endproc
 312              	.LFE133:
 313              		.size	port_enable, .-port_enable
 314 00c2 00BF     		.align	2
 315 00c4 AFF30080 		.p2align 4,,15
 315      AFF30080 
 315      AFF30080 
 316              		.thumb
 317              		.thumb_func
 318              		.type	st_lld_get_counter, %function
 319              	st_lld_get_counter:
 320              	.LFB136:
 321              		.file 3 "../../../os/hal/ports/STM32/LLD/TIMv1/hal_st_lld.h"
 322              		.loc 3 139 0
 323              		.cfi_startproc
 324              		@ args = 0, pretend = 0, frame = 0
 325              		@ frame_needed = 0, uses_anonymous_args = 0
 326              		@ link register save eliminated.
 327              		.loc 3 141 0
 328 00d0 4FF08043 		mov	r3, #1073741824
 329 00d4 5B6A     		ldr	r3, [r3, #36]
 330              		.loc 3 142 0
 331 00d6 1846     		mov	r0, r3
ARM GAS  /tmp/cc4xFYVS.s 			page 7


 332 00d8 7047     		bx	lr
 333              		.cfi_endproc
 334              	.LFE136:
 335              		.size	st_lld_get_counter, .-st_lld_get_counter
 336 00da 00BF     		.align	2
 337 00dc AFF30080 		.p2align 4,,15
 338              		.thumb
 339              		.thumb_func
 340              		.type	port_timer_get_time, %function
 341              	port_timer_get_time:
 342              	.LFB145:
 343              		.file 4 "../../../os/common/ports/ARMCMx/chcore_timer.h"
 344              		.loc 4 105 0
 345              		.cfi_startproc
 346              		@ args = 0, pretend = 0, frame = 0
 347              		@ frame_needed = 0, uses_anonymous_args = 0
 348 00e0 08B5     		push	{r3, lr}
 349              		.cfi_def_cfa_offset 8
 350              		.cfi_offset 3, -8
 351              		.cfi_offset 14, -4
 352              		.loc 4 107 0
 353 00e2 FFF7F5FF 		bl	st_lld_get_counter
 354 00e6 0346     		mov	r3, r0
 355              		.loc 4 108 0
 356 00e8 1846     		mov	r0, r3
 357 00ea 08BD     		pop	{r3, pc}
 358              		.cfi_endproc
 359              	.LFE145:
 360              		.size	port_timer_get_time, .-port_timer_get_time
 361              		.align	2
 362 00ec AFF30080 		.p2align 4,,15
 363              		.thumb
 364              		.thumb_func
 365              		.type	chSysDisable, %function
 366              	chSysDisable:
 367              	.LFB164:
 368              		.file 5 "../../../os/rt/include/chsys.h"
 369              		.loc 5 331 0
 370              		.cfi_startproc
 371              		@ args = 0, pretend = 0, frame = 0
 372              		@ frame_needed = 0, uses_anonymous_args = 0
 373 00f0 08B5     		push	{r3, lr}
 374              		.cfi_def_cfa_offset 8
 375              		.cfi_offset 3, -8
 376              		.cfi_offset 14, -4
 377              		.loc 5 333 0
 378 00f2 FFF7C5FF 		bl	port_disable
 379              		.loc 5 335 0
 380 00f6 08BD     		pop	{r3, pc}
 381              		.cfi_endproc
 382              	.LFE164:
 383              		.size	chSysDisable, .-chSysDisable
 384              		.align	2
 385 00f8 AFF30080 		.p2align 4,,15
 385      AFF30080 
 386              		.thumb
 387              		.thumb_func
ARM GAS  /tmp/cc4xFYVS.s 			page 8


 388              		.type	chSysSuspend, %function
 389              	chSysSuspend:
 390              	.LFB165:
 391              		.loc 5 348 0
 392              		.cfi_startproc
 393              		@ args = 0, pretend = 0, frame = 0
 394              		@ frame_needed = 0, uses_anonymous_args = 0
 395 0100 08B5     		push	{r3, lr}
 396              		.cfi_def_cfa_offset 8
 397              		.cfi_offset 3, -8
 398              		.cfi_offset 14, -4
 399              		.loc 5 350 0
 400 0102 FFF7C5FF 		bl	port_suspend
 401              		.loc 5 352 0
 402 0106 08BD     		pop	{r3, pc}
 403              		.cfi_endproc
 404              	.LFE165:
 405              		.size	chSysSuspend, .-chSysSuspend
 406              		.align	2
 407 0108 AFF30080 		.p2align 4,,15
 407      AFF30080 
 408              		.thumb
 409              		.thumb_func
 410              		.type	chSysEnable, %function
 411              	chSysEnable:
 412              	.LFB166:
 413              		.loc 5 363 0
 414              		.cfi_startproc
 415              		@ args = 0, pretend = 0, frame = 0
 416              		@ frame_needed = 0, uses_anonymous_args = 0
 417 0110 08B5     		push	{r3, lr}
 418              		.cfi_def_cfa_offset 8
 419              		.cfi_offset 3, -8
 420              		.cfi_offset 14, -4
 421              		.loc 5 366 0
 422 0112 FFF7CDFF 		bl	port_enable
 423              		.loc 5 367 0
 424 0116 08BD     		pop	{r3, pc}
 425              		.cfi_endproc
 426              	.LFE166:
 427              		.size	chSysEnable, .-chSysEnable
 428              		.align	2
 429 0118 AFF30080 		.p2align 4,,15
 429      AFF30080 
 430              		.thumb
 431              		.thumb_func
 432              		.type	chSysLock, %function
 433              	chSysLock:
 434              	.LFB167:
 435              		.loc 5 374 0
 436              		.cfi_startproc
 437              		@ args = 0, pretend = 0, frame = 0
 438              		@ frame_needed = 0, uses_anonymous_args = 0
 439 0120 08B5     		push	{r3, lr}
 440              		.cfi_def_cfa_offset 8
 441              		.cfi_offset 3, -8
 442              		.cfi_offset 14, -4
ARM GAS  /tmp/cc4xFYVS.s 			page 9


 443              		.loc 5 376 0
 444 0122 FFF78DFF 		bl	port_lock
 445              		.loc 5 379 0
 446 0126 08BD     		pop	{r3, pc}
 447              		.cfi_endproc
 448              	.LFE167:
 449              		.size	chSysLock, .-chSysLock
 450              		.align	2
 451 0128 AFF30080 		.p2align 4,,15
 451      AFF30080 
 452              		.thumb
 453              		.thumb_func
 454              		.type	chSysUnlock, %function
 455              	chSysUnlock:
 456              	.LFB168:
 457              		.loc 5 386 0
 458              		.cfi_startproc
 459              		@ args = 0, pretend = 0, frame = 0
 460              		@ frame_needed = 0, uses_anonymous_args = 0
 461 0130 08B5     		push	{r3, lr}
 462              		.cfi_def_cfa_offset 8
 463              		.cfi_offset 3, -8
 464              		.cfi_offset 14, -4
 465              		.loc 5 399 0
 466 0132 FFF78DFF 		bl	port_unlock
 467              		.loc 5 400 0
 468 0136 08BD     		pop	{r3, pc}
 469              		.cfi_endproc
 470              	.LFE168:
 471              		.size	chSysUnlock, .-chSysUnlock
 472              		.align	2
 473 0138 AFF30080 		.p2align 4,,15
 473      AFF30080 
 474              		.thumb
 475              		.thumb_func
 476              		.type	chSysLockFromISR, %function
 477              	chSysLockFromISR:
 478              	.LFB169:
 479              		.loc 5 414 0
 480              		.cfi_startproc
 481              		@ args = 0, pretend = 0, frame = 0
 482              		@ frame_needed = 0, uses_anonymous_args = 0
 483 0140 08B5     		push	{r3, lr}
 484              		.cfi_def_cfa_offset 8
 485              		.cfi_offset 3, -8
 486              		.cfi_offset 14, -4
 487              		.loc 5 416 0
 488 0142 FFF78DFF 		bl	port_lock_from_isr
 489              		.loc 5 419 0
 490 0146 08BD     		pop	{r3, pc}
 491              		.cfi_endproc
 492              	.LFE169:
 493              		.size	chSysLockFromISR, .-chSysLockFromISR
 494              		.align	2
 495 0148 AFF30080 		.p2align 4,,15
 495      AFF30080 
 496              		.thumb
ARM GAS  /tmp/cc4xFYVS.s 			page 10


 497              		.thumb_func
 498              		.type	chSysUnlockFromISR, %function
 499              	chSysUnlockFromISR:
 500              	.LFB170:
 501              		.loc 5 434 0
 502              		.cfi_startproc
 503              		@ args = 0, pretend = 0, frame = 0
 504              		@ frame_needed = 0, uses_anonymous_args = 0
 505 0150 08B5     		push	{r3, lr}
 506              		.cfi_def_cfa_offset 8
 507              		.cfi_offset 3, -8
 508              		.cfi_offset 14, -4
 509              		.loc 5 438 0
 510 0152 FFF78DFF 		bl	port_unlock_from_isr
 511              		.loc 5 439 0
 512 0156 08BD     		pop	{r3, pc}
 513              		.cfi_endproc
 514              	.LFE170:
 515              		.size	chSysUnlockFromISR, .-chSysUnlockFromISR
 516              		.align	2
 517 0158 AFF30080 		.p2align 4,,15
 517      AFF30080 
 518              		.thumb
 519              		.thumb_func
 520              		.type	chSysUnconditionalLock, %function
 521              	chSysUnconditionalLock:
 522              	.LFB171:
 523              		.loc 5 448 0
 524              		.cfi_startproc
 525              		@ args = 0, pretend = 0, frame = 0
 526              		@ frame_needed = 0, uses_anonymous_args = 0
 527 0160 08B5     		push	{r3, lr}
 528              		.cfi_def_cfa_offset 8
 529              		.cfi_offset 3, -8
 530              		.cfi_offset 14, -4
 531              		.loc 5 450 0
 532 0162 FFF74DFF 		bl	port_get_irq_status
 533 0166 0346     		mov	r3, r0
 534 0168 1846     		mov	r0, r3
 535 016a FFF759FF 		bl	port_irq_enabled
 536 016e 0346     		mov	r3, r0
 537 0170 002B     		cmp	r3, #0
 538 0172 01D0     		beq	.L24
 539              		.loc 5 451 0
 540 0174 FFF7D4FF 		bl	chSysLock
 541              	.L24:
 542              		.loc 5 453 0
 543 0178 08BD     		pop	{r3, pc}
 544              		.cfi_endproc
 545              	.LFE171:
 546              		.size	chSysUnconditionalLock, .-chSysUnconditionalLock
 547 017a 00BF     		.align	2
 548 017c AFF30080 		.p2align 4,,15
 549              		.thumb
 550              		.thumb_func
 551              		.type	chSysUnconditionalUnlock, %function
 552              	chSysUnconditionalUnlock:
ARM GAS  /tmp/cc4xFYVS.s 			page 11


 553              	.LFB172:
 554              		.loc 5 462 0
 555              		.cfi_startproc
 556              		@ args = 0, pretend = 0, frame = 0
 557              		@ frame_needed = 0, uses_anonymous_args = 0
 558 0180 08B5     		push	{r3, lr}
 559              		.cfi_def_cfa_offset 8
 560              		.cfi_offset 3, -8
 561              		.cfi_offset 14, -4
 562              		.loc 5 464 0
 563 0182 FFF73DFF 		bl	port_get_irq_status
 564 0186 0346     		mov	r3, r0
 565 0188 1846     		mov	r0, r3
 566 018a FFF749FF 		bl	port_irq_enabled
 567 018e 0346     		mov	r3, r0
 568 0190 83F00103 		eor	r3, r3, #1
 569 0194 DBB2     		uxtb	r3, r3
 570 0196 002B     		cmp	r3, #0
 571 0198 01D0     		beq	.L26
 572              		.loc 5 465 0
 573 019a FFF7C9FF 		bl	chSysUnlock
 574              	.L26:
 575              		.loc 5 467 0
 576 019e 08BD     		pop	{r3, pc}
 577              		.cfi_endproc
 578              	.LFE172:
 579              		.size	chSysUnconditionalUnlock, .-chSysUnconditionalUnlock
 580              		.align	2
 581              		.p2align 4,,15
 582              		.thumb
 583              		.thumb_func
 584              		.type	chVTObjectInit, %function
 585              	chVTObjectInit:
 586              	.LFB180:
 587              		.file 6 "../../../os/rt/include/chvt.h"
 588              		.loc 6 374 0
 589              		.cfi_startproc
 590              		@ args = 0, pretend = 0, frame = 8
 591              		@ frame_needed = 0, uses_anonymous_args = 0
 592              		@ link register save eliminated.
 593 01a0 82B0     		sub	sp, sp, #8
 594              		.cfi_def_cfa_offset 8
 595 01a2 0190     		str	r0, [sp, #4]
 596              		.loc 6 376 0
 597 01a4 019B     		ldr	r3, [sp, #4]
 598 01a6 0022     		movs	r2, #0
 599 01a8 DA60     		str	r2, [r3, #12]
 600              		.loc 6 377 0
 601 01aa 02B0     		add	sp, sp, #8
 602              		.cfi_def_cfa_offset 0
 603              		@ sp needed
 604 01ac 7047     		bx	lr
 605              		.cfi_endproc
 606              	.LFE180:
 607              		.size	chVTObjectInit, .-chVTObjectInit
 608 01ae 00BF     		.align	2
 609              		.p2align 4,,15
ARM GAS  /tmp/cc4xFYVS.s 			page 12


 610              		.thumb
 611              		.thumb_func
 612              		.type	chVTGetSystemTimeX, %function
 613              	chVTGetSystemTimeX:
 614              	.LFB181:
 615              		.loc 6 392 0
 616              		.cfi_startproc
 617              		@ args = 0, pretend = 0, frame = 0
 618              		@ frame_needed = 0, uses_anonymous_args = 0
 619 01b0 08B5     		push	{r3, lr}
 620              		.cfi_def_cfa_offset 8
 621              		.cfi_offset 3, -8
 622              		.cfi_offset 14, -4
 623              		.loc 6 397 0
 624 01b2 FFF795FF 		bl	port_timer_get_time
 625 01b6 0346     		mov	r3, r0
 626              		.loc 6 399 0
 627 01b8 1846     		mov	r0, r3
 628 01ba 08BD     		pop	{r3, pc}
 629              		.cfi_endproc
 630              	.LFE181:
 631              		.size	chVTGetSystemTimeX, .-chVTGetSystemTimeX
 632              		.align	2
 633 01bc AFF30080 		.p2align 4,,15
 634              		.thumb
 635              		.thumb_func
 636              		.type	chVTIsArmedI, %function
 637              	chVTIsArmedI:
 638              	.LFB188:
 639              		.loc 6 537 0
 640              		.cfi_startproc
 641              		@ args = 0, pretend = 0, frame = 8
 642              		@ frame_needed = 0, uses_anonymous_args = 0
 643              		@ link register save eliminated.
 644 01c0 82B0     		sub	sp, sp, #8
 645              		.cfi_def_cfa_offset 8
 646 01c2 0190     		str	r0, [sp, #4]
 647              		.loc 6 541 0
 648 01c4 019B     		ldr	r3, [sp, #4]
 649 01c6 DB68     		ldr	r3, [r3, #12]
 650 01c8 002B     		cmp	r3, #0
 651 01ca 14BF     		ite	ne
 652 01cc 0123     		movne	r3, #1
 653 01ce 0023     		moveq	r3, #0
 654 01d0 DBB2     		uxtb	r3, r3
 655              		.loc 6 542 0
 656 01d2 1846     		mov	r0, r3
 657 01d4 02B0     		add	sp, sp, #8
 658              		.cfi_def_cfa_offset 0
 659              		@ sp needed
 660 01d6 7047     		bx	lr
 661              		.cfi_endproc
 662              	.LFE188:
 663              		.size	chVTIsArmedI, .-chVTIsArmedI
 664              		.align	2
 665 01d8 AFF30080 		.p2align 4,,15
 665      AFF30080 
ARM GAS  /tmp/cc4xFYVS.s 			page 13


 666              		.thumb
 667              		.thumb_func
 668              		.type	chVTIsArmed, %function
 669              	chVTIsArmed:
 670              	.LFB189:
 671              		.loc 6 554 0
 672              		.cfi_startproc
 673              		@ args = 0, pretend = 0, frame = 16
 674              		@ frame_needed = 0, uses_anonymous_args = 0
 675 01e0 00B5     		push	{lr}
 676              		.cfi_def_cfa_offset 4
 677              		.cfi_offset 14, -4
 678 01e2 85B0     		sub	sp, sp, #20
 679              		.cfi_def_cfa_offset 24
 680 01e4 0190     		str	r0, [sp, #4]
 681              		.loc 6 557 0
 682 01e6 FFF79BFF 		bl	chSysLock
 683              		.loc 6 558 0
 684 01ea 0198     		ldr	r0, [sp, #4]
 685 01ec FFF7E8FF 		bl	chVTIsArmedI
 686 01f0 0346     		mov	r3, r0
 687 01f2 8DF80F30 		strb	r3, [sp, #15]
 688              		.loc 6 559 0
 689 01f6 FFF79BFF 		bl	chSysUnlock
 690              		.loc 6 561 0
 691 01fa 9DF80F30 		ldrb	r3, [sp, #15]	@ zero_extendqisi2
 692              		.loc 6 562 0
 693 01fe 1846     		mov	r0, r3
 694 0200 05B0     		add	sp, sp, #20
 695              		.cfi_def_cfa_offset 4
 696              		@ sp needed
 697 0202 5DF804FB 		ldr	pc, [sp], #4
 698              		.cfi_endproc
 699              	.LFE189:
 700              		.size	chVTIsArmed, .-chVTIsArmed
 701 0206 00BF     		.align	2
 702 0208 AFF30080 		.p2align 4,,15
 702      AFF30080 
 703              		.thumb
 704              		.thumb_func
 705              		.type	chVTResetI, %function
 706              	chVTResetI:
 707              	.LFB190:
 708              		.loc 6 574 0
 709              		.cfi_startproc
 710              		@ args = 0, pretend = 0, frame = 8
 711              		@ frame_needed = 0, uses_anonymous_args = 0
 712 0210 00B5     		push	{lr}
 713              		.cfi_def_cfa_offset 4
 714              		.cfi_offset 14, -4
 715 0212 83B0     		sub	sp, sp, #12
 716              		.cfi_def_cfa_offset 16
 717 0214 0190     		str	r0, [sp, #4]
 718              		.loc 6 576 0
 719 0216 0198     		ldr	r0, [sp, #4]
 720 0218 FFF7D2FF 		bl	chVTIsArmedI
 721 021c 0346     		mov	r3, r0
ARM GAS  /tmp/cc4xFYVS.s 			page 14


 722 021e 002B     		cmp	r3, #0
 723 0220 02D0     		beq	.L35
 724              		.loc 6 577 0
 725 0222 0198     		ldr	r0, [sp, #4]
 726 0224 FFF7FEFF 		bl	chVTDoResetI
 727              	.L35:
 728              		.loc 6 579 0
 729 0228 03B0     		add	sp, sp, #12
 730              		.cfi_def_cfa_offset 4
 731              		@ sp needed
 732 022a 5DF804FB 		ldr	pc, [sp], #4
 733              		.cfi_endproc
 734              	.LFE190:
 735              		.size	chVTResetI, .-chVTResetI
 736 022e 00BF     		.align	2
 737              		.p2align 4,,15
 738              		.thumb
 739              		.thumb_func
 740              		.type	chVTSetI, %function
 741              	chVTSetI:
 742              	.LFB192:
 743              		.loc 6 621 0
 744              		.cfi_startproc
 745              		@ args = 0, pretend = 0, frame = 16
 746              		@ frame_needed = 0, uses_anonymous_args = 0
 747 0230 00B5     		push	{lr}
 748              		.cfi_def_cfa_offset 4
 749              		.cfi_offset 14, -4
 750 0232 85B0     		sub	sp, sp, #20
 751              		.cfi_def_cfa_offset 24
 752 0234 0390     		str	r0, [sp, #12]
 753 0236 0291     		str	r1, [sp, #8]
 754 0238 0192     		str	r2, [sp, #4]
 755 023a 0093     		str	r3, [sp]
 756              		.loc 6 623 0
 757 023c 0398     		ldr	r0, [sp, #12]
 758 023e FFF7E7FF 		bl	chVTResetI
 759              		.loc 6 624 0
 760 0242 0398     		ldr	r0, [sp, #12]
 761 0244 0299     		ldr	r1, [sp, #8]
 762 0246 019A     		ldr	r2, [sp, #4]
 763 0248 009B     		ldr	r3, [sp]
 764 024a FFF7FEFF 		bl	chVTDoSetI
 765              		.loc 6 625 0
 766 024e 05B0     		add	sp, sp, #20
 767              		.cfi_def_cfa_offset 4
 768              		@ sp needed
 769 0250 5DF804FB 		ldr	pc, [sp], #4
 770              		.cfi_endproc
 771              	.LFE192:
 772              		.size	chVTSetI, .-chVTSetI
 773              		.align	2
 774 0254 AFF30080 		.p2align 4,,15
 774      AFF30080 
 774      AFF30080 
 775              		.thumb
 776              		.thumb_func
ARM GAS  /tmp/cc4xFYVS.s 			page 15


 777              		.type	chVTSet, %function
 778              	chVTSet:
 779              	.LFB193:
 780              		.loc 6 650 0
 781              		.cfi_startproc
 782              		@ args = 0, pretend = 0, frame = 16
 783              		@ frame_needed = 0, uses_anonymous_args = 0
 784 0260 00B5     		push	{lr}
 785              		.cfi_def_cfa_offset 4
 786              		.cfi_offset 14, -4
 787 0262 85B0     		sub	sp, sp, #20
 788              		.cfi_def_cfa_offset 24
 789 0264 0390     		str	r0, [sp, #12]
 790 0266 0291     		str	r1, [sp, #8]
 791 0268 0192     		str	r2, [sp, #4]
 792 026a 0093     		str	r3, [sp]
 793              		.loc 6 652 0
 794 026c FFF758FF 		bl	chSysLock
 795              		.loc 6 653 0
 796 0270 0398     		ldr	r0, [sp, #12]
 797 0272 0299     		ldr	r1, [sp, #8]
 798 0274 019A     		ldr	r2, [sp, #4]
 799 0276 009B     		ldr	r3, [sp]
 800 0278 FFF7DAFF 		bl	chVTSetI
 801              		.loc 6 654 0
 802 027c FFF758FF 		bl	chSysUnlock
 803              		.loc 6 655 0
 804 0280 05B0     		add	sp, sp, #20
 805              		.cfi_def_cfa_offset 4
 806              		@ sp needed
 807 0282 5DF804FB 		ldr	pc, [sp], #4
 808              		.cfi_endproc
 809              	.LFE193:
 810              		.size	chVTSet, .-chVTSet
 811 0286 00BF     		.align	2
 812 0288 AFF30080 		.p2align 4,,15
 812      AFF30080 
 813              		.thumb
 814              		.thumb_func
 815              		.type	vtcb, %function
 816              	vtcb:
 817              	.LFB279:
 818              		.file 7 "../../../test/rt/source/test/test_sequence_002.c"
 819              		.loc 7 49 0
 820              		.cfi_startproc
 821              		@ args = 0, pretend = 0, frame = 16
 822              		@ frame_needed = 0, uses_anonymous_args = 0
 823 0290 00B5     		push	{lr}
 824              		.cfi_def_cfa_offset 4
 825              		.cfi_offset 14, -4
 826 0292 85B0     		sub	sp, sp, #20
 827              		.cfi_def_cfa_offset 24
 828 0294 0190     		str	r0, [sp, #4]
 829              		.loc 7 55 0
 830 0296 FFF753FF 		bl	chSysLockFromISR
 831              		.loc 7 56 0
 832 029a FFF759FF 		bl	chSysUnlockFromISR
ARM GAS  /tmp/cc4xFYVS.s 			page 16


 833              		.loc 7 59 0
 834 029e FFF74FFF 		bl	chSysLockFromISR
 835              		.loc 7 60 0
 836 02a2 FFF7FEFF 		bl	chSysGetStatusAndLockX
 837 02a6 0390     		str	r0, [sp, #12]
 838              		.loc 7 61 0
 839 02a8 0398     		ldr	r0, [sp, #12]
 840 02aa FFF7FEFF 		bl	chSysRestoreStatusX
 841              		.loc 7 62 0
 842 02ae FFF74FFF 		bl	chSysUnlockFromISR
 843              		.loc 7 63 0
 844 02b2 05B0     		add	sp, sp, #20
 845              		.cfi_def_cfa_offset 4
 846              		@ sp needed
 847 02b4 5DF804FB 		ldr	pc, [sp], #4
 848              		.cfi_endproc
 849              	.LFE279:
 850              		.size	vtcb, .-vtcb
 851              		.section	.rodata
 852              		.align	2
 853              	.LC0:
 854 0000 72656164 		.ascii	"ready list check failed\000"
 854      79206C69 
 854      73742063 
 854      6865636B 
 854      20666169 
 855              		.align	2
 856              	.LC1:
 857 0018 76697274 		.ascii	"virtual timers list check failed\000"
 857      75616C20 
 857      74696D65 
 857      7273206C 
 857      69737420 
 858 0039 000000   		.align	2
 859              	.LC2:
 860 003c 72656769 		.ascii	"registry list check failed\000"
 860      73747279 
 860      206C6973 
 860      74206368 
 860      65636B20 
 861 0057 00       		.align	2
 862              	.LC3:
 863 0058 706F7274 		.ascii	"port layer check failed\000"
 863      206C6179 
 863      65722063 
 863      6865636B 
 863      20666169 
 864              		.text
 865              		.align	2
 866 02b8 AFF30080 		.p2align 4,,15
 866      AFF30080 
 867              		.thumb
 868              		.thumb_func
 869              		.type	test_002_001_execute, %function
 870              	test_002_001_execute:
 871              	.LFB280:
 872              		.loc 7 84 0
ARM GAS  /tmp/cc4xFYVS.s 			page 17


 873              		.cfi_startproc
 874              		@ args = 0, pretend = 0, frame = 8
 875              		@ frame_needed = 0, uses_anonymous_args = 0
 876 02c0 00B5     		push	{lr}
 877              		.cfi_def_cfa_offset 4
 878              		.cfi_offset 14, -4
 879 02c2 83B0     		sub	sp, sp, #12
 880              		.cfi_def_cfa_offset 16
 881              		.loc 7 88 0
 882 02c4 454B     		ldr	r3, .L45
 883 02c6 0122     		movs	r2, #1
 884 02c8 1A60     		str	r2, [r3]
 885              		.loc 7 90 0
 886 02ca FFF729FF 		bl	chSysLock
 887              		.loc 7 91 0
 888 02ce 0120     		movs	r0, #1
 889 02d0 FFF7FEFF 		bl	chSysIntegrityCheckI
 890 02d4 0346     		mov	r3, r0
 891 02d6 8DF80730 		strb	r3, [sp, #7]
 892              		.loc 7 92 0
 893 02da FFF729FF 		bl	chSysUnlock
 894              		.loc 7 93 0
 895 02de 9DF80730 		ldrb	r3, [sp, #7]	@ zero_extendqisi2
 896 02e2 002B     		cmp	r3, #0
 897 02e4 14BF     		ite	ne
 898 02e6 0123     		movne	r3, #1
 899 02e8 0023     		moveq	r3, #0
 900 02ea DBB2     		uxtb	r3, r3
 901 02ec 83F00103 		eor	r3, r3, #1
 902 02f0 DBB2     		uxtb	r3, r3
 903 02f2 03F00103 		and	r3, r3, #1
 904 02f6 DBB2     		uxtb	r3, r3
 905 02f8 1846     		mov	r0, r3
 906 02fa 3949     		ldr	r1, .L45+4
 907 02fc FFF7FEFF 		bl	_test_assert
 908 0300 0346     		mov	r3, r0
 909 0302 002B     		cmp	r3, #0
 910 0304 00D0     		beq	.L41
 911 0306 65E0     		b	.L40
 912              	.L41:
 913              		.loc 7 97 0
 914 0308 344B     		ldr	r3, .L45
 915 030a 0222     		movs	r2, #2
 916 030c 1A60     		str	r2, [r3]
 917              		.loc 7 99 0
 918 030e FFF707FF 		bl	chSysLock
 919              		.loc 7 100 0
 920 0312 0220     		movs	r0, #2
 921 0314 FFF7FEFF 		bl	chSysIntegrityCheckI
 922 0318 0346     		mov	r3, r0
 923 031a 8DF80730 		strb	r3, [sp, #7]
 924              		.loc 7 101 0
 925 031e FFF707FF 		bl	chSysUnlock
 926              		.loc 7 102 0
 927 0322 9DF80730 		ldrb	r3, [sp, #7]	@ zero_extendqisi2
 928 0326 002B     		cmp	r3, #0
 929 0328 14BF     		ite	ne
ARM GAS  /tmp/cc4xFYVS.s 			page 18


 930 032a 0123     		movne	r3, #1
 931 032c 0023     		moveq	r3, #0
 932 032e DBB2     		uxtb	r3, r3
 933 0330 83F00103 		eor	r3, r3, #1
 934 0334 DBB2     		uxtb	r3, r3
 935 0336 03F00103 		and	r3, r3, #1
 936 033a DBB2     		uxtb	r3, r3
 937 033c 1846     		mov	r0, r3
 938 033e 2949     		ldr	r1, .L45+8
 939 0340 FFF7FEFF 		bl	_test_assert
 940 0344 0346     		mov	r3, r0
 941 0346 002B     		cmp	r3, #0
 942 0348 00D0     		beq	.L43
 943              		.loc 7 102 0 is_stmt 0 discriminator 2
 944 034a 43E0     		b	.L40
 945              	.L43:
 946              		.loc 7 106 0 is_stmt 1
 947 034c 234B     		ldr	r3, .L45
 948 034e 0322     		movs	r2, #3
 949 0350 1A60     		str	r2, [r3]
 950              		.loc 7 108 0
 951 0352 FFF7E5FE 		bl	chSysLock
 952              		.loc 7 109 0
 953 0356 0420     		movs	r0, #4
 954 0358 FFF7FEFF 		bl	chSysIntegrityCheckI
 955 035c 0346     		mov	r3, r0
 956 035e 8DF80730 		strb	r3, [sp, #7]
 957              		.loc 7 110 0
 958 0362 FFF7E5FE 		bl	chSysUnlock
 959              		.loc 7 111 0
 960 0366 9DF80730 		ldrb	r3, [sp, #7]	@ zero_extendqisi2
 961 036a 002B     		cmp	r3, #0
 962 036c 14BF     		ite	ne
 963 036e 0123     		movne	r3, #1
 964 0370 0023     		moveq	r3, #0
 965 0372 DBB2     		uxtb	r3, r3
 966 0374 83F00103 		eor	r3, r3, #1
 967 0378 DBB2     		uxtb	r3, r3
 968 037a 03F00103 		and	r3, r3, #1
 969 037e DBB2     		uxtb	r3, r3
 970 0380 1846     		mov	r0, r3
 971 0382 1949     		ldr	r1, .L45+12
 972 0384 FFF7FEFF 		bl	_test_assert
 973 0388 0346     		mov	r3, r0
 974 038a 002B     		cmp	r3, #0
 975 038c 00D0     		beq	.L44
 976              		.loc 7 111 0 is_stmt 0 discriminator 3
 977 038e 21E0     		b	.L40
 978              	.L44:
 979              		.loc 7 115 0 is_stmt 1
 980 0390 124B     		ldr	r3, .L45
 981 0392 0422     		movs	r2, #4
 982 0394 1A60     		str	r2, [r3]
 983              		.loc 7 117 0
 984 0396 FFF7C3FE 		bl	chSysLock
 985              		.loc 7 118 0
 986 039a 0820     		movs	r0, #8
ARM GAS  /tmp/cc4xFYVS.s 			page 19


 987 039c FFF7FEFF 		bl	chSysIntegrityCheckI
 988 03a0 0346     		mov	r3, r0
 989 03a2 8DF80730 		strb	r3, [sp, #7]
 990              		.loc 7 119 0
 991 03a6 FFF7C3FE 		bl	chSysUnlock
 992              		.loc 7 120 0
 993 03aa 9DF80730 		ldrb	r3, [sp, #7]	@ zero_extendqisi2
 994 03ae 002B     		cmp	r3, #0
 995 03b0 14BF     		ite	ne
 996 03b2 0123     		movne	r3, #1
 997 03b4 0023     		moveq	r3, #0
 998 03b6 DBB2     		uxtb	r3, r3
 999 03b8 83F00103 		eor	r3, r3, #1
 1000 03bc DBB2     		uxtb	r3, r3
 1001 03be 03F00103 		and	r3, r3, #1
 1002 03c2 DBB2     		uxtb	r3, r3
 1003 03c4 1846     		mov	r0, r3
 1004 03c6 0949     		ldr	r1, .L45+16
 1005 03c8 FFF7FEFF 		bl	_test_assert
 1006 03cc 0346     		mov	r3, r0
 1007 03ce 002B     		cmp	r3, #0
 1008 03d0 00D0     		beq	.L40
 1009              		.loc 7 120 0 is_stmt 0 discriminator 4
 1010 03d2 00BF     		nop
 1011              	.L40:
 1012              		.loc 7 122 0 is_stmt 1
 1013 03d4 03B0     		add	sp, sp, #12
 1014              		.cfi_def_cfa_offset 4
 1015              		@ sp needed
 1016 03d6 5DF804FB 		ldr	pc, [sp], #4
 1017              	.L46:
 1018 03da 00BF     		.align	2
 1019              	.L45:
 1020 03dc 00000000 		.word	test_step
 1021 03e0 00000000 		.word	.LC0
 1022 03e4 18000000 		.word	.LC1
 1023 03e8 3C000000 		.word	.LC2
 1024 03ec 58000000 		.word	.LC3
 1025              		.cfi_endproc
 1026              	.LFE280:
 1027              		.size	test_002_001_execute, .-test_002_001_execute
 1028              		.section	.rodata
 1029              		.align	2
 1030              	.LC4:
 1031 0070 53797374 		.ascii	"System integrity functionality\000"
 1031      656D2069 
 1031      6E746567 
 1031      72697479 
 1031      2066756E 
 1032 008f 00       		.align	2
 1033              		.type	test_002_001, %object
 1034              		.size	test_002_001, 16
 1035              	test_002_001:
 1036 0090 70000000 		.word	.LC4
 1037 0094 00000000 		.word	0
 1038 0098 00000000 		.word	0
 1039 009c 00000000 		.word	test_002_001_execute
ARM GAS  /tmp/cc4xFYVS.s 			page 20


 1040              		.align	2
 1041              	.LC5:
 1042 00a0 74696D65 		.ascii	"timer still armed\000"
 1042      72207374 
 1042      696C6C20 
 1042      61726D65 
 1042      6400
 1043              		.text
 1044              		.align	2
 1045              		.p2align 4,,15
 1046              		.thumb
 1047              		.thumb_func
 1048              		.type	test_002_002_execute, %function
 1049              	test_002_002_execute:
 1050              	.LFB281:
 1051              		.loc 7 148 0
 1052              		.cfi_startproc
 1053              		@ args = 0, pretend = 0, frame = 24
 1054              		@ frame_needed = 0, uses_anonymous_args = 0
 1055 03f0 00B5     		push	{lr}
 1056              		.cfi_def_cfa_offset 4
 1057              		.cfi_offset 14, -4
 1058 03f2 87B0     		sub	sp, sp, #28
 1059              		.cfi_def_cfa_offset 32
 1060              		.loc 7 154 0
 1061 03f4 284B     		ldr	r3, .L50
 1062 03f6 0122     		movs	r2, #1
 1063 03f8 1A60     		str	r2, [r3]
 1064              		.loc 7 156 0
 1065 03fa FFF7FEFF 		bl	chSysGetStatusAndLockX
 1066 03fe 0590     		str	r0, [sp, #20]
 1067              		.loc 7 157 0
 1068 0400 0598     		ldr	r0, [sp, #20]
 1069 0402 FFF7FEFF 		bl	chSysRestoreStatusX
 1070              		.loc 7 162 0
 1071 0406 244B     		ldr	r3, .L50
 1072 0408 0222     		movs	r2, #2
 1073 040a 1A60     		str	r2, [r3]
 1074              		.loc 7 164 0
 1075 040c FFF788FE 		bl	chSysLock
 1076              		.loc 7 165 0
 1077 0410 FFF7FEFF 		bl	chSysGetStatusAndLockX
 1078 0414 0590     		str	r0, [sp, #20]
 1079              		.loc 7 166 0
 1080 0416 0598     		ldr	r0, [sp, #20]
 1081 0418 FFF7FEFF 		bl	chSysRestoreStatusX
 1082              		.loc 7 167 0
 1083 041c FFF788FE 		bl	chSysUnlock
 1084              		.loc 7 171 0
 1085 0420 1D4B     		ldr	r3, .L50
 1086 0422 0322     		movs	r2, #3
 1087 0424 1A60     		str	r2, [r3]
 1088              		.loc 7 173 0
 1089 0426 FFF79BFE 		bl	chSysUnconditionalLock
 1090              		.loc 7 174 0
 1091 042a FFF799FE 		bl	chSysUnconditionalLock
 1092              		.loc 7 175 0
ARM GAS  /tmp/cc4xFYVS.s 			page 21


 1093 042e FFF77FFE 		bl	chSysUnlock
 1094              		.loc 7 179 0
 1095 0432 194B     		ldr	r3, .L50
 1096 0434 0422     		movs	r2, #4
 1097 0436 1A60     		str	r2, [r3]
 1098              		.loc 7 181 0
 1099 0438 FFF772FE 		bl	chSysLock
 1100              		.loc 7 182 0
 1101 043c FFF7A0FE 		bl	chSysUnconditionalUnlock
 1102              		.loc 7 183 0
 1103 0440 FFF79EFE 		bl	chSysUnconditionalUnlock
 1104              		.loc 7 187 0
 1105 0444 144B     		ldr	r3, .L50
 1106 0446 0522     		movs	r2, #5
 1107 0448 1A60     		str	r2, [r3]
 1108              		.loc 7 189 0
 1109 044a 6B46     		mov	r3, sp
 1110 044c 1846     		mov	r0, r3
 1111 044e FFF7A7FE 		bl	chVTObjectInit
 1112              		.loc 7 190 0
 1113 0452 6B46     		mov	r3, sp
 1114 0454 1846     		mov	r0, r3
 1115 0456 0121     		movs	r1, #1
 1116 0458 104A     		ldr	r2, .L50+4
 1117 045a 0023     		movs	r3, #0
 1118 045c FFF700FF 		bl	chVTSet
 1119              		.loc 7 191 0
 1120 0460 0A20     		movs	r0, #10
 1121 0462 FFF7FEFF 		bl	chThdSleep
 1122              		.loc 7 193 0
 1123 0466 6B46     		mov	r3, sp
 1124 0468 1846     		mov	r0, r3
 1125 046a FFF7B9FE 		bl	chVTIsArmed
 1126 046e 0346     		mov	r3, r0
 1127 0470 002B     		cmp	r3, #0
 1128 0472 14BF     		ite	ne
 1129 0474 0123     		movne	r3, #1
 1130 0476 0023     		moveq	r3, #0
 1131 0478 DBB2     		uxtb	r3, r3
 1132 047a 83F00103 		eor	r3, r3, #1
 1133 047e DBB2     		uxtb	r3, r3
 1134 0480 03F00103 		and	r3, r3, #1
 1135 0484 DBB2     		uxtb	r3, r3
 1136 0486 1846     		mov	r0, r3
 1137 0488 0549     		ldr	r1, .L50+8
 1138 048a FFF7FEFF 		bl	_test_assert
 1139 048e 0346     		mov	r3, r0
 1140 0490 002B     		cmp	r3, #0
 1141              		.loc 7 195 0
 1142 0492 07B0     		add	sp, sp, #28
 1143              		.cfi_def_cfa_offset 4
 1144              		@ sp needed
 1145 0494 5DF804FB 		ldr	pc, [sp], #4
 1146              	.L51:
 1147              		.align	2
 1148              	.L50:
 1149 0498 00000000 		.word	test_step
ARM GAS  /tmp/cc4xFYVS.s 			page 22


 1150 049c 00000000 		.word	vtcb
 1151 04a0 A0000000 		.word	.LC5
 1152              		.cfi_endproc
 1153              	.LFE281:
 1154              		.size	test_002_002_execute, .-test_002_002_execute
 1155              		.section	.rodata
 1156 00b2 0000     		.align	2
 1157              	.LC6:
 1158 00b4 43726974 		.ascii	"Critical zones functionality\000"
 1158      6963616C 
 1158      207A6F6E 
 1158      65732066 
 1158      756E6374 
 1159 00d1 000000   		.align	2
 1160              		.type	test_002_002, %object
 1161              		.size	test_002_002, 16
 1162              	test_002_002:
 1163 00d4 B4000000 		.word	.LC6
 1164 00d8 00000000 		.word	0
 1165 00dc 00000000 		.word	0
 1166 00e0 00000000 		.word	test_002_002_execute
 1167              		.text
 1168              		.align	2
 1169 04a4 AFF30080 		.p2align 4,,15
 1169      AFF30080 
 1169      AFF30080 
 1170              		.thumb
 1171              		.thumb_func
 1172              		.type	test_002_003_execute, %function
 1173              	test_002_003_execute:
 1174              	.LFB282:
 1175              		.loc 7 215 0
 1176              		.cfi_startproc
 1177              		@ args = 0, pretend = 0, frame = 0
 1178              		@ frame_needed = 0, uses_anonymous_args = 0
 1179 04b0 08B5     		push	{r3, lr}
 1180              		.cfi_def_cfa_offset 8
 1181              		.cfi_offset 3, -8
 1182              		.cfi_offset 14, -4
 1183              		.loc 7 219 0
 1184 04b2 064B     		ldr	r3, .L53
 1185 04b4 0122     		movs	r2, #1
 1186 04b6 1A60     		str	r2, [r3]
 1187              		.loc 7 221 0
 1188 04b8 FFF722FE 		bl	chSysSuspend
 1189              		.loc 7 222 0
 1190 04bc FFF718FE 		bl	chSysDisable
 1191              		.loc 7 223 0
 1192 04c0 FFF71EFE 		bl	chSysSuspend
 1193              		.loc 7 224 0
 1194 04c4 FFF724FE 		bl	chSysEnable
 1195              		.loc 7 226 0
 1196 04c8 08BD     		pop	{r3, pc}
 1197              	.L54:
 1198 04ca 00BF     		.align	2
 1199              	.L53:
 1200 04cc 00000000 		.word	test_step
ARM GAS  /tmp/cc4xFYVS.s 			page 23


 1201              		.cfi_endproc
 1202              	.LFE282:
 1203              		.size	test_002_003_execute, .-test_002_003_execute
 1204              		.section	.rodata
 1205              		.align	2
 1206              	.LC7:
 1207 00e4 496E7465 		.ascii	"Interrupts handling functionality\000"
 1207      72727570 
 1207      74732068 
 1207      616E646C 
 1207      696E6720 
 1208 0106 0000     		.align	2
 1209              		.type	test_002_003, %object
 1210              		.size	test_002_003, 16
 1211              	test_002_003:
 1212 0108 E4000000 		.word	.LC7
 1213 010c 00000000 		.word	0
 1214 0110 00000000 		.word	0
 1215 0114 00000000 		.word	test_002_003_execute
 1216              		.text
 1217              		.align	2
 1218              		.p2align 4,,15
 1219              		.thumb
 1220              		.thumb_func
 1221              		.type	test_002_004_execute, %function
 1222              	test_002_004_execute:
 1223              	.LFB283:
 1224              		.loc 7 247 0
 1225              		.cfi_startproc
 1226              		@ args = 0, pretend = 0, frame = 8
 1227              		@ frame_needed = 0, uses_anonymous_args = 0
 1228 04d0 00B5     		push	{lr}
 1229              		.cfi_def_cfa_offset 4
 1230              		.cfi_offset 14, -4
 1231 04d2 83B0     		sub	sp, sp, #12
 1232              		.cfi_def_cfa_offset 16
 1233              		.loc 7 251 0
 1234 04d4 074B     		ldr	r3, .L57
 1235 04d6 0122     		movs	r2, #1
 1236 04d8 1A60     		str	r2, [r3]
 1237              	.LBB34:
 1238              		.loc 7 253 0
 1239 04da FFF769FE 		bl	chVTGetSystemTimeX
 1240 04de 0190     		str	r0, [sp, #4]
 1241              		.loc 7 254 0
 1242 04e0 00BF     		nop
 1243              	.L56:
 1244              		.loc 7 254 0 is_stmt 0 discriminator 1
 1245 04e2 FFF765FE 		bl	chVTGetSystemTimeX
 1246 04e6 0246     		mov	r2, r0
 1247 04e8 019B     		ldr	r3, [sp, #4]
 1248 04ea 9A42     		cmp	r2, r3
 1249 04ec F9D0     		beq	.L56
 1250              	.LBE34:
 1251              		.loc 7 260 0 is_stmt 1
 1252 04ee 03B0     		add	sp, sp, #12
 1253              		.cfi_def_cfa_offset 4
ARM GAS  /tmp/cc4xFYVS.s 			page 24


 1254              		@ sp needed
 1255 04f0 5DF804FB 		ldr	pc, [sp], #4
 1256              	.L58:
 1257              		.align	2
 1258              	.L57:
 1259 04f4 00000000 		.word	test_step
 1260              		.cfi_endproc
 1261              	.LFE283:
 1262              		.size	test_002_004_execute, .-test_002_004_execute
 1263              		.section	.rodata
 1264              		.align	2
 1265              	.LC8:
 1266 0118 53797374 		.ascii	"System Tick Counter functionality\000"
 1266      656D2054 
 1266      69636B20 
 1266      436F756E 
 1266      74657220 
 1267 013a 0000     		.align	2
 1268              		.type	test_002_004, %object
 1269              		.size	test_002_004, 16
 1270              	test_002_004:
 1271 013c 18010000 		.word	.LC8
 1272 0140 00000000 		.word	0
 1273 0144 00000000 		.word	0
 1274 0148 00000000 		.word	test_002_004_execute
 1275              		.global	test_sequence_002
 1276              		.align	2
 1277              		.type	test_sequence_002, %object
 1278              		.size	test_sequence_002, 20
 1279              	test_sequence_002:
 1280 014c 90000000 		.word	test_002_001
 1281 0150 D4000000 		.word	test_002_002
 1282 0154 08010000 		.word	test_002_003
 1283 0158 3C010000 		.word	test_002_004
 1284 015c 00000000 		.word	0
 1285              		.text
 1286              	.Letext0:
 1287              		.file 8 "/usr/lib/gcc/arm-none-eabi/4.9.3/include/stddef.h"
 1288              		.file 9 "/usr/include/newlib/machine/_default_types.h"
 1289              		.file 10 "/usr/include/newlib/sys/_stdint.h"
 1290              		.file 11 "../../../os/common/ports/ARMCMx/compilers/GCC/chtypes.h"
 1291              		.file 12 "../../../os/rt/include/chsystypes.h"
 1292              		.file 13 "../../../os/rt/include/chschd.h"
 1293              		.file 14 "../../../os/common/ports/ARMCMx/chcore.h"
 1294              		.file 15 "../../../os/hal/ports/STM32/LLD/TIMv1/stm32_tim.h"
 1295              		.file 16 "../../../os/rt/include/chtm.h"
 1296              		.file 17 "../../../os/rt/include/chsem.h"
 1297              		.file 18 "../../../os/rt/include/chmtx.h"
 1298              		.file 19 "../../../test/lib/ch_test.h"
 1299              		.file 20 "../../../os/common/ext/CMSIS/include/core_cm4.h"