ARM GAS  /tmp/cc8ZryaH.s 			page 1


   1              		.syntax unified
   2              		.cpu cortex-m4
   3              		.fpu softvfp
   4              		.eabi_attribute 20, 1
   5              		.eabi_attribute 21, 1
   6              		.eabi_attribute 23, 3
   7              		.eabi_attribute 24, 1
   8              		.eabi_attribute 25, 1
   9              		.eabi_attribute 26, 1
  10              		.eabi_attribute 30, 6
  11              		.eabi_attribute 34, 1
  12              		.eabi_attribute 18, 4
  13              		.thumb
  14              		.file	"test_sequence_007.c"
  15              		.text
  16              	.Ltext0:
  17              		.cfi_sections	.debug_frame
  18              		.align	2
  19              		.p2align 4,,15
  20              		.thumb
  21              		.thumb_func
  22              		.type	chThdGetSelfX, %function
  23              	chThdGetSelfX:
  24              	.LFB195:
  25              		.file 1 "../../../os/rt/include/chthreads.h"
  26              		.loc 1 284 0
  27              		.cfi_startproc
  28              		@ args = 0, pretend = 0, frame = 0
  29              		@ frame_needed = 0, uses_anonymous_args = 0
  30              		@ link register save eliminated.
  31              		.loc 1 286 0
  32 0000 014B     		ldr	r3, .L3
  33 0002 9B69     		ldr	r3, [r3, #24]
  34              		.loc 1 287 0
  35 0004 1846     		mov	r0, r3
  36 0006 7047     		bx	lr
  37              	.L4:
  38              		.align	2
  39              	.L3:
  40 0008 00000000 		.word	ch
  41              		.cfi_endproc
  42              	.LFE195:
  43              		.size	chThdGetSelfX, .-chThdGetSelfX
  44              		.align	2
  45 000c AFF30080 		.p2align 4,,15
  46              		.thumb
  47              		.thumb_func
  48              		.type	chThdGetPriorityX, %function
  49              	chThdGetPriorityX:
  50              	.LFB196:
  51              		.loc 1 297 0
  52              		.cfi_startproc
  53              		@ args = 0, pretend = 0, frame = 0
  54              		@ frame_needed = 0, uses_anonymous_args = 0
  55 0010 08B5     		push	{r3, lr}
  56              		.cfi_def_cfa_offset 8
  57              		.cfi_offset 3, -8
ARM GAS  /tmp/cc8ZryaH.s 			page 2


  58              		.cfi_offset 14, -4
  59              		.loc 1 299 0
  60 0012 FFF7F5FF 		bl	chThdGetSelfX
  61 0016 0346     		mov	r3, r0
  62 0018 9B68     		ldr	r3, [r3, #8]
  63              		.loc 1 300 0
  64 001a 1846     		mov	r0, r3
  65 001c 08BD     		pop	{r3, pc}
  66              		.cfi_endproc
  67              	.LFE196:
  68              		.size	chThdGetPriorityX, .-chThdGetPriorityX
  69 001e 00BF     		.align	2
  70              		.p2align 4,,15
  71              		.thumb
  72              		.thumb_func
  73              		.type	chMsgGet, %function
  74              	chMsgGet:
  75              	.LFB231:
  76              		.file 2 "../../../os/rt/include/chmsg.h"
  77              		.loc 2 96 0
  78              		.cfi_startproc
  79              		@ args = 0, pretend = 0, frame = 8
  80              		@ frame_needed = 0, uses_anonymous_args = 0
  81              		@ link register save eliminated.
  82 0020 82B0     		sub	sp, sp, #8
  83              		.cfi_def_cfa_offset 8
  84 0022 0190     		str	r0, [sp, #4]
  85              		.loc 2 100 0
  86 0024 019B     		ldr	r3, [sp, #4]
  87 0026 5B6A     		ldr	r3, [r3, #36]
  88              		.loc 2 101 0
  89 0028 1846     		mov	r0, r3
  90 002a 02B0     		add	sp, sp, #8
  91              		.cfi_def_cfa_offset 0
  92              		@ sp needed
  93 002c 7047     		bx	lr
  94              		.cfi_endproc
  95              	.LFE231:
  96              		.size	chMsgGet, .-chMsgGet
  97 002e 00BF     		.align	2
  98              		.p2align 4,,15
  99              		.thumb
 100              		.thumb_func
 101              		.type	msg_thread1, %function
 102              	msg_thread1:
 103              	.LFB279:
 104              		.file 3 "../../../test/rt/source/test/test_sequence_007.c"
 105              		.loc 3 50 0
 106              		.cfi_startproc
 107              		@ args = 0, pretend = 0, frame = 8
 108              		@ frame_needed = 0, uses_anonymous_args = 0
 109 0030 00B5     		push	{lr}
 110              		.cfi_def_cfa_offset 4
 111              		.cfi_offset 14, -4
 112 0032 83B0     		sub	sp, sp, #12
 113              		.cfi_def_cfa_offset 16
 114 0034 0190     		str	r0, [sp, #4]
ARM GAS  /tmp/cc8ZryaH.s 			page 3


 115              		.loc 3 52 0
 116 0036 0198     		ldr	r0, [sp, #4]
 117 0038 4121     		movs	r1, #65
 118 003a FFF7FEFF 		bl	chMsgSend
 119              		.loc 3 53 0
 120 003e 0198     		ldr	r0, [sp, #4]
 121 0040 4221     		movs	r1, #66
 122 0042 FFF7FEFF 		bl	chMsgSend
 123              		.loc 3 54 0
 124 0046 0198     		ldr	r0, [sp, #4]
 125 0048 4321     		movs	r1, #67
 126 004a FFF7FEFF 		bl	chMsgSend
 127              		.loc 3 55 0
 128 004e 0198     		ldr	r0, [sp, #4]
 129 0050 4421     		movs	r1, #68
 130 0052 FFF7FEFF 		bl	chMsgSend
 131              		.loc 3 56 0
 132 0056 03B0     		add	sp, sp, #12
 133              		.cfi_def_cfa_offset 4
 134              		@ sp needed
 135 0058 5DF804FB 		ldr	pc, [sp], #4
 136              		.cfi_endproc
 137              	.LFE279:
 138              		.size	msg_thread1, .-msg_thread1
 139              		.section	.rodata
 140              		.align	2
 141              	.LC0:
 142 0000 41424344 		.ascii	"ABCD\000"
 142      00
 143 0005 000000   		.align	2
 144              	.LC1:
 145 0008 696E7661 		.ascii	"invalid sequence\000"
 145      6C696420 
 145      73657175 
 145      656E6365 
 145      00
 146              		.text
 147              		.align	2
 148 005c AFF30080 		.p2align 4,,15
 149              		.thumb
 150              		.thumb_func
 151              		.type	test_007_001_execute, %function
 152              	test_007_001_execute:
 153              	.LFB280:
 154              		.loc 3 76 0
 155              		.cfi_startproc
 156              		@ args = 0, pretend = 0, frame = 16
 157              		@ frame_needed = 0, uses_anonymous_args = 0
 158 0060 30B5     		push	{r4, r5, lr}
 159              		.cfi_def_cfa_offset 12
 160              		.cfi_offset 4, -12
 161              		.cfi_offset 5, -8
 162              		.cfi_offset 14, -4
 163 0062 87B0     		sub	sp, sp, #28
 164              		.cfi_def_cfa_offset 40
 165              		.loc 3 81 0
 166 0064 1F4B     		ldr	r3, .L14
ARM GAS  /tmp/cc8ZryaH.s 			page 4


 167 0066 0122     		movs	r2, #1
 168 0068 1A60     		str	r2, [r3]
 169              		.loc 3 83 0
 170 006a 1F4B     		ldr	r3, .L14+4
 171 006c 1D68     		ldr	r5, [r3]
 172 006e FFF7CFFF 		bl	chThdGetPriorityX
 173 0072 0346     		mov	r3, r0
 174 0074 5C1C     		adds	r4, r3, #1
 175              		.loc 3 84 0
 176 0076 FFF7C3FF 		bl	chThdGetSelfX
 177 007a 0346     		mov	r3, r0
 178              		.loc 3 83 0
 179 007c 0093     		str	r3, [sp]
 180 007e 2846     		mov	r0, r5
 181 0080 4FF4A471 		mov	r1, #328
 182 0084 2246     		mov	r2, r4
 183 0086 194B     		ldr	r3, .L14+8
 184 0088 FFF7FEFF 		bl	chThdCreateStatic
 185 008c 0246     		mov	r2, r0
 186 008e 184B     		ldr	r3, .L14+12
 187 0090 1A60     		str	r2, [r3]
 188              		.loc 3 89 0
 189 0092 144B     		ldr	r3, .L14
 190 0094 0222     		movs	r2, #2
 191 0096 1A60     		str	r2, [r3]
 192              	.LBB2:
 193              		.loc 3 93 0
 194 0098 0023     		movs	r3, #0
 195 009a 0593     		str	r3, [sp, #20]
 196 009c 12E0     		b	.L11
 197              	.L12:
 198              		.loc 3 94 0 discriminator 3
 199 009e FFF7FEFF 		bl	chMsgWait
 200 00a2 0490     		str	r0, [sp, #16]
 201              		.loc 3 95 0 discriminator 3
 202 00a4 0498     		ldr	r0, [sp, #16]
 203 00a6 FFF7BBFF 		bl	chMsgGet
 204 00aa 0390     		str	r0, [sp, #12]
 205              		.loc 3 96 0 discriminator 3
 206 00ac 0498     		ldr	r0, [sp, #16]
 207 00ae 0399     		ldr	r1, [sp, #12]
 208 00b0 FFF7FEFF 		bl	chMsgRelease
 209              		.loc 3 97 0 discriminator 3
 210 00b4 039B     		ldr	r3, [sp, #12]
 211 00b6 DBB2     		uxtb	r3, r3
 212 00b8 1846     		mov	r0, r3
 213 00ba FFF7FEFF 		bl	test_emit_token
 214              		.loc 3 93 0 discriminator 3
 215 00be 059B     		ldr	r3, [sp, #20]
 216 00c0 0133     		adds	r3, r3, #1
 217 00c2 0593     		str	r3, [sp, #20]
 218              	.L11:
 219              		.loc 3 93 0 is_stmt 0 discriminator 1
 220 00c4 059B     		ldr	r3, [sp, #20]
 221 00c6 032B     		cmp	r3, #3
 222 00c8 E9D9     		bls	.L12
 223              		.loc 3 99 0 is_stmt 1
ARM GAS  /tmp/cc8ZryaH.s 			page 5


 224 00ca FFF7FEFF 		bl	test_wait_threads
 225              		.loc 3 100 0
 226 00ce 0948     		ldr	r0, .L14+16
 227 00d0 0949     		ldr	r1, .L14+20
 228 00d2 FFF7FEFF 		bl	_test_assert_sequence
 229 00d6 0346     		mov	r3, r0
 230 00d8 002B     		cmp	r3, #0
 231 00da 00D0     		beq	.L10
 232 00dc 00BF     		nop
 233              	.L10:
 234              	.LBE2:
 235              		.loc 3 102 0
 236 00de 07B0     		add	sp, sp, #28
 237              		.cfi_def_cfa_offset 12
 238              		@ sp needed
 239 00e0 30BD     		pop	{r4, r5, pc}
 240              	.L15:
 241 00e2 00BF     		.align	2
 242              	.L14:
 243 00e4 00000000 		.word	test_step
 244 00e8 00000000 		.word	wa
 245 00ec 00000000 		.word	msg_thread1
 246 00f0 00000000 		.word	threads
 247 00f4 00000000 		.word	.LC0
 248 00f8 08000000 		.word	.LC1
 249              		.cfi_endproc
 250              	.LFE280:
 251              		.size	test_007_001_execute, .-test_007_001_execute
 252              		.section	.rodata
 253 0019 000000   		.align	2
 254              	.LC2:
 255 001c 4D657373 		.ascii	"Messages Server loop\000"
 255      61676573 
 255      20536572 
 255      76657220 
 255      6C6F6F70 
 256 0031 000000   		.align	2
 257              		.type	test_007_001, %object
 258              		.size	test_007_001, 16
 259              	test_007_001:
 260 0034 1C000000 		.word	.LC2
 261 0038 00000000 		.word	0
 262 003c 00000000 		.word	0
 263 0040 00000000 		.word	test_007_001_execute
 264              		.global	test_sequence_007
 265              		.align	2
 266              		.type	test_sequence_007, %object
 267              		.size	test_sequence_007, 8
 268              	test_sequence_007:
 269 0044 34000000 		.word	test_007_001
 270 0048 00000000 		.word	0
 271              		.text
 272              	.Letext0:
 273              		.file 4 "/usr/lib/gcc/arm-none-eabi/4.9.3/include/stddef.h"
 274              		.file 5 "/usr/include/newlib/machine/_default_types.h"
 275              		.file 6 "/usr/include/newlib/sys/_stdint.h"
 276              		.file 7 "../../../os/common/ports/ARMCMx/compilers/GCC/chtypes.h"
ARM GAS  /tmp/cc8ZryaH.s 			page 6


 277              		.file 8 "../../../os/rt/include/chsystypes.h"
 278              		.file 9 "../../../os/rt/include/chschd.h"
 279              		.file 10 "../../../os/common/ports/ARMCMx/chcore.h"
 280              		.file 11 "../../../os/common/ports/ARMCMx/chcore_v7m.h"
 281              		.file 12 "../../../os/rt/include/chtm.h"
 282              		.file 13 "../../../os/rt/include/chsem.h"
 283              		.file 14 "../../../os/rt/include/chmtx.h"
 284              		.file 15 "../../../test/lib/ch_test.h"
 285              		.file 16 "../../../os/common/ext/CMSIS/include/core_cm4.h"
 286              		.file 17 "../../../test/rt/source/test/test_root.h"
 287              		.section	.debug_info,"",%progbits
 288              	.Ldebug_info0:
 289 0000 CC070000 		.4byte	0x7cc
 290 0004 0400     		.2byte	0x4
 291 0006 00000000 		.4byte	.Ldebug_abbrev0
 292 000a 04       		.byte	0x4
 293 000b 01       		.uleb128 0x1
 294 000c C7030000 		.4byte	.LASF104
 295 0010 01       		.byte	0x1
 296 0011 8A040000 		.4byte	.LASF105
 297 0015 83010000 		.4byte	.LASF106
 298 0019 00000000 		.4byte	.Ltext0
 299 001d FC000000 		.4byte	.Letext0-.Ltext0
 300 0021 00000000 		.4byte	.Ldebug_line0
 301 0025 02       		.uleb128 0x2
 302 0026 04       		.byte	0x4
 303 0027 05       		.byte	0x5
 304 0028 696E7400 		.ascii	"int\000"
 305 002c 03       		.uleb128 0x3
 306 002d 0D000000 		.4byte	.LASF2
 307 0031 04       		.byte	0x4
 308 0032 D4       		.byte	0xd4
 309 0033 37000000 		.4byte	0x37
 310 0037 04       		.uleb128 0x4
 311 0038 04       		.byte	0x4
 312 0039 07       		.byte	0x7
 313 003a 57010000 		.4byte	.LASF0
 314 003e 04       		.uleb128 0x4
 315 003f 01       		.byte	0x1
 316 0040 06       		.byte	0x6
 317 0041 DA000000 		.4byte	.LASF1
 318 0045 03       		.uleb128 0x3
 319 0046 2A000000 		.4byte	.LASF3
 320 004a 05       		.byte	0x5
 321 004b 1D       		.byte	0x1d
 322 004c 50000000 		.4byte	0x50
 323 0050 04       		.uleb128 0x4
 324 0051 01       		.byte	0x1
 325 0052 08       		.byte	0x8
 326 0053 2E030000 		.4byte	.LASF4
 327 0057 04       		.uleb128 0x4
 328 0058 02       		.byte	0x2
 329 0059 05       		.byte	0x5
 330 005a 3C030000 		.4byte	.LASF5
 331 005e 04       		.uleb128 0x4
 332 005f 02       		.byte	0x2
 333 0060 07       		.byte	0x7
ARM GAS  /tmp/cc8ZryaH.s 			page 7


 334 0061 CF010000 		.4byte	.LASF6
 335 0065 03       		.uleb128 0x3
 336 0066 29020000 		.4byte	.LASF7
 337 006a 05       		.byte	0x5
 338 006b 3F       		.byte	0x3f
 339 006c 70000000 		.4byte	0x70
 340 0070 04       		.uleb128 0x4
 341 0071 04       		.byte	0x4
 342 0072 05       		.byte	0x5
 343 0073 09010000 		.4byte	.LASF8
 344 0077 03       		.uleb128 0x3
 345 0078 2D010000 		.4byte	.LASF9
 346 007c 05       		.byte	0x5
 347 007d 41       		.byte	0x41
 348 007e 82000000 		.4byte	0x82
 349 0082 04       		.uleb128 0x4
 350 0083 04       		.byte	0x4
 351 0084 07       		.byte	0x7
 352 0085 B5030000 		.4byte	.LASF10
 353 0089 04       		.uleb128 0x4
 354 008a 08       		.byte	0x8
 355 008b 05       		.byte	0x5
 356 008c CC000000 		.4byte	.LASF11
 357 0090 03       		.uleb128 0x3
 358 0091 D8020000 		.4byte	.LASF12
 359 0095 05       		.byte	0x5
 360 0096 5B       		.byte	0x5b
 361 0097 9B000000 		.4byte	0x9b
 362 009b 04       		.uleb128 0x4
 363 009c 08       		.byte	0x8
 364 009d 07       		.byte	0x7
 365 009e 60000000 		.4byte	.LASF13
 366 00a2 03       		.uleb128 0x3
 367 00a3 E8040000 		.4byte	.LASF14
 368 00a7 06       		.byte	0x6
 369 00a8 14       		.byte	0x14
 370 00a9 45000000 		.4byte	0x45
 371 00ad 03       		.uleb128 0x3
 372 00ae 26030000 		.4byte	.LASF15
 373 00b2 06       		.byte	0x6
 374 00b3 1F       		.byte	0x1f
 375 00b4 65000000 		.4byte	0x65
 376 00b8 03       		.uleb128 0x3
 377 00b9 8F030000 		.4byte	.LASF16
 378 00bd 06       		.byte	0x6
 379 00be 20       		.byte	0x20
 380 00bf 77000000 		.4byte	0x77
 381 00c3 03       		.uleb128 0x3
 382 00c4 21000000 		.4byte	.LASF17
 383 00c8 06       		.byte	0x6
 384 00c9 26       		.byte	0x26
 385 00ca 90000000 		.4byte	0x90
 386 00ce 03       		.uleb128 0x3
 387 00cf 82040000 		.4byte	.LASF18
 388 00d3 07       		.byte	0x7
 389 00d4 39       		.byte	0x39
 390 00d5 B8000000 		.4byte	0xb8
ARM GAS  /tmp/cc8ZryaH.s 			page 8


 391 00d9 03       		.uleb128 0x3
 392 00da 07020000 		.4byte	.LASF19
 393 00de 07       		.byte	0x7
 394 00df 3C       		.byte	0x3c
 395 00e0 A2000000 		.4byte	0xa2
 396 00e4 03       		.uleb128 0x3
 397 00e5 12010000 		.4byte	.LASF20
 398 00e9 07       		.byte	0x7
 399 00ea 3D       		.byte	0x3d
 400 00eb A2000000 		.4byte	0xa2
 401 00ef 03       		.uleb128 0x3
 402 00f0 E3020000 		.4byte	.LASF21
 403 00f4 07       		.byte	0x7
 404 00f5 3E       		.byte	0x3e
 405 00f6 A2000000 		.4byte	0xa2
 406 00fa 03       		.uleb128 0x3
 407 00fb 08030000 		.4byte	.LASF22
 408 00ff 07       		.byte	0x7
 409 0100 40       		.byte	0x40
 410 0101 B8000000 		.4byte	0xb8
 411 0105 03       		.uleb128 0x3
 412 0106 EC010000 		.4byte	.LASF23
 413 010a 07       		.byte	0x7
 414 010b 41       		.byte	0x41
 415 010c AD000000 		.4byte	0xad
 416 0110 03       		.uleb128 0x3
 417 0111 1D020000 		.4byte	.LASF24
 418 0115 07       		.byte	0x7
 419 0116 43       		.byte	0x43
 420 0117 B8000000 		.4byte	0xb8
 421 011b 03       		.uleb128 0x3
 422 011c 51010000 		.4byte	.LASF25
 423 0120 07       		.byte	0x7
 424 0121 45       		.byte	0x45
 425 0122 AD000000 		.4byte	0xad
 426 0126 03       		.uleb128 0x3
 427 0127 5E040000 		.4byte	.LASF26
 428 012b 08       		.byte	0x8
 429 012c 33       		.byte	0x33
 430 012d B8000000 		.4byte	0xb8
 431 0131 03       		.uleb128 0x3
 432 0132 55040000 		.4byte	.LASF27
 433 0136 08       		.byte	0x8
 434 0137 3F       		.byte	0x3f
 435 0138 3C010000 		.4byte	0x13c
 436 013c 05       		.uleb128 0x5
 437 013d E2010000 		.4byte	.LASF45
 438 0141 44       		.byte	0x44
 439 0142 09       		.byte	0x9
 440 0143 9A       		.byte	0x9a
 441 0144 1A020000 		.4byte	0x21a
 442 0148 06       		.uleb128 0x6
 443 0149 20010000 		.4byte	.LASF28
 444 014d 09       		.byte	0x9
 445 014e 9B       		.byte	0x9b
 446 014f 4F020000 		.4byte	0x24f
 447 0153 00       		.byte	0
ARM GAS  /tmp/cc8ZryaH.s 			page 9


 448 0154 06       		.uleb128 0x6
 449 0155 CB020000 		.4byte	.LASF29
 450 0159 09       		.byte	0x9
 451 015a 9C       		.byte	0x9c
 452 015b FA000000 		.4byte	0xfa
 453 015f 08       		.byte	0x8
 454 0160 07       		.uleb128 0x7
 455 0161 63747800 		.ascii	"ctx\000"
 456 0165 09       		.byte	0x9
 457 0166 9D       		.byte	0x9d
 458 0167 47040000 		.4byte	0x447
 459 016b 0C       		.byte	0xc
 460 016c 06       		.uleb128 0x6
 461 016d 49020000 		.4byte	.LASF30
 462 0171 09       		.byte	0x9
 463 0172 9F       		.byte	0x9f
 464 0173 25020000 		.4byte	0x225
 465 0177 10       		.byte	0x10
 466 0178 06       		.uleb128 0x6
 467 0179 4F040000 		.4byte	.LASF31
 468 017d 09       		.byte	0x9
 469 017e A0       		.byte	0xa0
 470 017f 25020000 		.4byte	0x225
 471 0183 14       		.byte	0x14
 472 0184 06       		.uleb128 0x6
 473 0185 C4010000 		.4byte	.LASF32
 474 0189 09       		.byte	0x9
 475 018a A7       		.byte	0xa7
 476 018b CC050000 		.4byte	0x5cc
 477 018f 18       		.byte	0x18
 478 0190 06       		.uleb128 0x6
 479 0191 26010000 		.4byte	.LASF33
 480 0195 09       		.byte	0x9
 481 0196 B0       		.byte	0xb0
 482 0197 DE050000 		.4byte	0x5de
 483 019b 1C       		.byte	0x1c
 484 019c 06       		.uleb128 0x6
 485 019d 03010000 		.4byte	.LASF34
 486 01a1 09       		.byte	0x9
 487 01a2 B5       		.byte	0xb5
 488 01a3 E4000000 		.4byte	0xe4
 489 01a7 20       		.byte	0x20
 490 01a8 06       		.uleb128 0x6
 491 01a9 F0040000 		.4byte	.LASF35
 492 01ad 09       		.byte	0x9
 493 01ae B9       		.byte	0xb9
 494 01af D9000000 		.4byte	0xd9
 495 01b3 21       		.byte	0x21
 496 01b4 06       		.uleb128 0x6
 497 01b5 EB020000 		.4byte	.LASF36
 498 01b9 09       		.byte	0x9
 499 01ba BE       		.byte	0xbe
 500 01bb EF000000 		.4byte	0xef
 501 01bf 22       		.byte	0x22
 502 01c0 08       		.uleb128 0x8
 503 01c1 7500     		.ascii	"u\000"
 504 01c3 09       		.byte	0x9
ARM GAS  /tmp/cc8ZryaH.s 			page 10


 505 01c4 0F01     		.2byte	0x10f
 506 01c6 01050000 		.4byte	0x501
 507 01ca 24       		.byte	0x24
 508 01cb 09       		.uleb128 0x9
 509 01cc 41010000 		.4byte	.LASF37
 510 01d0 09       		.byte	0x9
 511 01d1 1401     		.2byte	0x114
 512 01d3 2B020000 		.4byte	0x22b
 513 01d7 28       		.byte	0x28
 514 01d8 09       		.uleb128 0x9
 515 01d9 FA000000 		.4byte	.LASF38
 516 01dd 09       		.byte	0x9
 517 01de 1A01     		.2byte	0x11a
 518 01e0 4F020000 		.4byte	0x24f
 519 01e4 2C       		.byte	0x2c
 520 01e5 09       		.uleb128 0x9
 521 01e6 F2010000 		.4byte	.LASF39
 522 01ea 09       		.byte	0x9
 523 01eb 2001     		.2byte	0x120
 524 01ed 10010000 		.4byte	0x110
 525 01f1 34       		.byte	0x34
 526 01f2 09       		.uleb128 0x9
 527 01f3 33050000 		.4byte	.LASF40
 528 01f7 09       		.byte	0x9
 529 01f8 2701     		.2byte	0x127
 530 01fa C6050000 		.4byte	0x5c6
 531 01fe 38       		.byte	0x38
 532 01ff 09       		.uleb128 0x9
 533 0200 4F020000 		.4byte	.LASF41
 534 0204 09       		.byte	0x9
 535 0205 2B01     		.2byte	0x12b
 536 0207 FA000000 		.4byte	0xfa
 537 020b 3C       		.byte	0x3c
 538 020c 09       		.uleb128 0x9
 539 020d C9010000 		.4byte	.LASF42
 540 0211 09       		.byte	0x9
 541 0212 3201     		.2byte	0x132
 542 0214 02030000 		.4byte	0x302
 543 0218 40       		.byte	0x40
 544 0219 00       		.byte	0
 545 021a 03       		.uleb128 0x3
 546 021b 61020000 		.4byte	.LASF43
 547 021f 08       		.byte	0x8
 548 0220 44       		.byte	0x44
 549 0221 25020000 		.4byte	0x225
 550 0225 0A       		.uleb128 0xa
 551 0226 04       		.byte	0x4
 552 0227 31010000 		.4byte	0x131
 553 022b 03       		.uleb128 0x3
 554 022c 0F050000 		.4byte	.LASF44
 555 0230 08       		.byte	0x8
 556 0231 49       		.byte	0x49
 557 0232 36020000 		.4byte	0x236
 558 0236 05       		.uleb128 0x5
 559 0237 9F030000 		.4byte	.LASF46
 560 023b 04       		.byte	0x4
 561 023c 09       		.byte	0x9
ARM GAS  /tmp/cc8ZryaH.s 			page 11


 562 023d 88       		.byte	0x88
 563 023e 4F020000 		.4byte	0x24f
 564 0242 06       		.uleb128 0x6
 565 0243 B6000000 		.4byte	.LASF47
 566 0247 09       		.byte	0x9
 567 0248 89       		.byte	0x89
 568 0249 25020000 		.4byte	0x225
 569 024d 00       		.byte	0
 570 024e 00       		.byte	0
 571 024f 03       		.uleb128 0x3
 572 0250 BB040000 		.4byte	.LASF48
 573 0254 08       		.byte	0x8
 574 0255 50       		.byte	0x50
 575 0256 5A020000 		.4byte	0x25a
 576 025a 05       		.uleb128 0x5
 577 025b BB000000 		.4byte	.LASF49
 578 025f 08       		.byte	0x8
 579 0260 09       		.byte	0x9
 580 0261 8F       		.byte	0x8f
 581 0262 7F020000 		.4byte	0x27f
 582 0266 06       		.uleb128 0x6
 583 0267 B6000000 		.4byte	.LASF47
 584 026b 09       		.byte	0x9
 585 026c 90       		.byte	0x90
 586 026d 25020000 		.4byte	0x225
 587 0271 00       		.byte	0
 588 0272 06       		.uleb128 0x6
 589 0273 34000000 		.4byte	.LASF50
 590 0277 09       		.byte	0x9
 591 0278 91       		.byte	0x91
 592 0279 25020000 		.4byte	0x225
 593 027d 04       		.byte	0x4
 594 027e 00       		.byte	0
 595 027f 03       		.uleb128 0x3
 596 0280 00000000 		.4byte	.LASF51
 597 0284 08       		.byte	0x8
 598 0285 57       		.byte	0x57
 599 0286 8A020000 		.4byte	0x28a
 600 028a 0B       		.uleb128 0xb
 601 028b 0F020000 		.4byte	.LASF52
 602 028f 1C       		.byte	0x1c
 603 0290 09       		.byte	0x9
 604 0291 6A01     		.2byte	0x16a
 605 0293 E6020000 		.4byte	0x2e6
 606 0297 09       		.uleb128 0x9
 607 0298 20010000 		.4byte	.LASF28
 608 029c 09       		.byte	0x9
 609 029d 6B01     		.2byte	0x16b
 610 029f 4F020000 		.4byte	0x24f
 611 02a3 00       		.byte	0
 612 02a4 09       		.uleb128 0x9
 613 02a5 CB020000 		.4byte	.LASF29
 614 02a9 09       		.byte	0x9
 615 02aa 6C01     		.2byte	0x16c
 616 02ac FA000000 		.4byte	0xfa
 617 02b0 08       		.byte	0x8
 618 02b1 08       		.uleb128 0x8
ARM GAS  /tmp/cc8ZryaH.s 			page 12


 619 02b2 63747800 		.ascii	"ctx\000"
 620 02b6 09       		.byte	0x9
 621 02b7 6E01     		.2byte	0x16e
 622 02b9 47040000 		.4byte	0x447
 623 02bd 0C       		.byte	0xc
 624 02be 09       		.uleb128 0x9
 625 02bf 49020000 		.4byte	.LASF30
 626 02c3 09       		.byte	0x9
 627 02c4 7101     		.2byte	0x171
 628 02c6 25020000 		.4byte	0x225
 629 02ca 10       		.byte	0x10
 630 02cb 09       		.uleb128 0x9
 631 02cc 4F040000 		.4byte	.LASF31
 632 02d0 09       		.byte	0x9
 633 02d1 7201     		.2byte	0x172
 634 02d3 25020000 		.4byte	0x225
 635 02d7 14       		.byte	0x14
 636 02d8 09       		.uleb128 0x9
 637 02d9 D0020000 		.4byte	.LASF53
 638 02dd 09       		.byte	0x9
 639 02de 7501     		.2byte	0x175
 640 02e0 25020000 		.4byte	0x225
 641 02e4 18       		.byte	0x18
 642 02e5 00       		.byte	0
 643 02e6 03       		.uleb128 0x3
 644 02e7 68040000 		.4byte	.LASF54
 645 02eb 08       		.byte	0x8
 646 02ec 5C       		.byte	0x5c
 647 02ed F1020000 		.4byte	0x2f1
 648 02f1 0A       		.uleb128 0xa
 649 02f2 04       		.byte	0x4
 650 02f3 F7020000 		.4byte	0x2f7
 651 02f7 0C       		.uleb128 0xc
 652 02f8 02030000 		.4byte	0x302
 653 02fc 0D       		.uleb128 0xd
 654 02fd 02030000 		.4byte	0x302
 655 0301 00       		.byte	0
 656 0302 0E       		.uleb128 0xe
 657 0303 04       		.byte	0x4
 658 0304 03       		.uleb128 0x3
 659 0305 F0020000 		.4byte	.LASF55
 660 0309 08       		.byte	0x8
 661 030a 61       		.byte	0x61
 662 030b 0F030000 		.4byte	0x30f
 663 030f 0B       		.uleb128 0xb
 664 0310 71030000 		.4byte	.LASF56
 665 0314 14       		.byte	0x14
 666 0315 09       		.byte	0x9
 667 0316 4501     		.2byte	0x145
 668 0318 5E030000 		.4byte	0x35e
 669 031c 09       		.uleb128 0x9
 670 031d B6000000 		.4byte	.LASF47
 671 0321 09       		.byte	0x9
 672 0322 4601     		.2byte	0x146
 673 0324 E4050000 		.4byte	0x5e4
 674 0328 00       		.byte	0
 675 0329 09       		.uleb128 0x9
ARM GAS  /tmp/cc8ZryaH.s 			page 13


 676 032a 34000000 		.4byte	.LASF50
 677 032e 09       		.byte	0x9
 678 032f 4701     		.2byte	0x147
 679 0331 E4050000 		.4byte	0x5e4
 680 0335 04       		.byte	0x4
 681 0336 09       		.uleb128 0x9
 682 0337 14000000 		.4byte	.LASF57
 683 033b 09       		.byte	0x9
 684 033c 4801     		.2byte	0x148
 685 033e 26010000 		.4byte	0x126
 686 0342 08       		.byte	0x8
 687 0343 09       		.uleb128 0x9
 688 0344 1B010000 		.4byte	.LASF58
 689 0348 09       		.byte	0x9
 690 0349 4901     		.2byte	0x149
 691 034b E6020000 		.4byte	0x2e6
 692 034f 0C       		.byte	0xc
 693 0350 08       		.uleb128 0x8
 694 0351 70617200 		.ascii	"par\000"
 695 0355 09       		.byte	0x9
 696 0356 4B01     		.2byte	0x14b
 697 0358 02030000 		.4byte	0x302
 698 035c 10       		.byte	0x10
 699 035d 00       		.byte	0
 700 035e 03       		.uleb128 0x3
 701 035f 93000000 		.4byte	.LASF59
 702 0363 08       		.byte	0x8
 703 0364 66       		.byte	0x66
 704 0365 69030000 		.4byte	0x369
 705 0369 0B       		.uleb128 0xb
 706 036a 74020000 		.4byte	.LASF60
 707 036e 10       		.byte	0x10
 708 036f 09       		.byte	0x9
 709 0370 5501     		.2byte	0x155
 710 0372 AB030000 		.4byte	0x3ab
 711 0376 09       		.uleb128 0x9
 712 0377 B6000000 		.4byte	.LASF47
 713 037b 09       		.byte	0x9
 714 037c 5601     		.2byte	0x156
 715 037e E4050000 		.4byte	0x5e4
 716 0382 00       		.byte	0
 717 0383 09       		.uleb128 0x9
 718 0384 34000000 		.4byte	.LASF50
 719 0388 09       		.byte	0x9
 720 0389 5801     		.2byte	0x158
 721 038b E4050000 		.4byte	0x5e4
 722 038f 04       		.byte	0x4
 723 0390 09       		.uleb128 0x9
 724 0391 14000000 		.4byte	.LASF57
 725 0395 09       		.byte	0x9
 726 0396 5A01     		.2byte	0x15a
 727 0398 26010000 		.4byte	0x126
 728 039c 08       		.byte	0x8
 729 039d 09       		.uleb128 0x9
 730 039e 46030000 		.4byte	.LASF61
 731 03a2 09       		.byte	0x9
 732 03a3 6201     		.2byte	0x162
ARM GAS  /tmp/cc8ZryaH.s 			page 14


 733 03a5 26010000 		.4byte	0x126
 734 03a9 0C       		.byte	0xc
 735 03aa 00       		.byte	0
 736 03ab 03       		.uleb128 0x3
 737 03ac 45000000 		.4byte	.LASF62
 738 03b0 08       		.byte	0x8
 739 03b1 6B       		.byte	0x6b
 740 03b2 B6030000 		.4byte	0x3b6
 741 03b6 0B       		.uleb128 0xb
 742 03b7 10030000 		.4byte	.LASF63
 743 03bb 04       		.byte	0x4
 744 03bc 09       		.byte	0x9
 745 03bd 7C01     		.2byte	0x17c
 746 03bf D1030000 		.4byte	0x3d1
 747 03c3 09       		.uleb128 0x9
 748 03c4 71040000 		.4byte	.LASF64
 749 03c8 09       		.byte	0x9
 750 03c9 8401     		.2byte	0x184
 751 03cb EA050000 		.4byte	0x5ea
 752 03cf 00       		.byte	0
 753 03d0 00       		.byte	0
 754 03d1 03       		.uleb128 0x3
 755 03d2 FB010000 		.4byte	.LASF65
 756 03d6 08       		.byte	0x8
 757 03d7 70       		.byte	0x70
 758 03d8 DC030000 		.4byte	0x3dc
 759 03dc 0B       		.uleb128 0xb
 760 03dd 5E030000 		.4byte	.LASF66
 761 03e1 78       		.byte	0x78
 762 03e2 09       		.byte	0x9
 763 03e3 9C01     		.2byte	0x19c
 764 03e5 2A040000 		.4byte	0x42a
 765 03e9 09       		.uleb128 0x9
 766 03ea D4040000 		.4byte	.LASF67
 767 03ee 09       		.byte	0x9
 768 03ef A001     		.2byte	0x1a0
 769 03f1 7F020000 		.4byte	0x27f
 770 03f5 00       		.byte	0
 771 03f6 09       		.uleb128 0x9
 772 03f7 F3000000 		.4byte	.LASF68
 773 03fb 09       		.byte	0x9
 774 03fc A401     		.2byte	0x1a4
 775 03fe 5E030000 		.4byte	0x35e
 776 0402 1C       		.byte	0x1c
 777 0403 08       		.uleb128 0x8
 778 0404 64626700 		.ascii	"dbg\000"
 779 0408 09       		.byte	0x9
 780 0409 A801     		.2byte	0x1a8
 781 040b AB030000 		.4byte	0x3ab
 782 040f 2C       		.byte	0x2c
 783 0410 09       		.uleb128 0x9
 784 0411 80000000 		.4byte	.LASF69
 785 0415 09       		.byte	0x9
 786 0416 AC01     		.2byte	0x1ac
 787 0418 31010000 		.4byte	0x131
 788 041c 30       		.byte	0x30
 789 041d 08       		.uleb128 0x8
ARM GAS  /tmp/cc8ZryaH.s 			page 15


 790 041e 746D00   		.ascii	"tm\000"
 791 0421 09       		.byte	0x9
 792 0422 B101     		.2byte	0x1b1
 793 0424 F6040000 		.4byte	0x4f6
 794 0428 74       		.byte	0x74
 795 0429 00       		.byte	0
 796 042a 04       		.uleb128 0x4
 797 042b 04       		.byte	0x4
 798 042c 07       		.byte	0x7
 799 042d 58020000 		.4byte	.LASF70
 800 0431 03       		.uleb128 0x3
 801 0432 38010000 		.4byte	.LASF71
 802 0436 0A       		.byte	0xa
 803 0437 65       		.byte	0x65
 804 0438 02030000 		.4byte	0x302
 805 043c 03       		.uleb128 0x3
 806 043d 33020000 		.4byte	.LASF72
 807 0441 0A       		.byte	0xa
 808 0442 6D       		.byte	0x6d
 809 0443 C3000000 		.4byte	0xc3
 810 0447 05       		.uleb128 0x5
 811 0448 A6020000 		.4byte	.LASF73
 812 044c 04       		.byte	0x4
 813 044d 0A       		.byte	0xa
 814 044e 89       		.byte	0x89
 815 044f 5F040000 		.4byte	0x45f
 816 0453 07       		.uleb128 0x7
 817 0454 737000   		.ascii	"sp\000"
 818 0457 0A       		.byte	0xa
 819 0458 8A       		.byte	0x8a
 820 0459 DB040000 		.4byte	0x4db
 821 045d 00       		.byte	0
 822 045e 00       		.byte	0
 823 045f 0B       		.uleb128 0xb
 824 0460 39000000 		.4byte	.LASF74
 825 0464 24       		.byte	0x24
 826 0465 0B       		.byte	0xb
 827 0466 5901     		.2byte	0x159
 828 0468 DB040000 		.4byte	0x4db
 829 046c 08       		.uleb128 0x8
 830 046d 723400   		.ascii	"r4\000"
 831 0470 0B       		.byte	0xb
 832 0471 6C01     		.2byte	0x16c
 833 0473 31040000 		.4byte	0x431
 834 0477 00       		.byte	0
 835 0478 08       		.uleb128 0x8
 836 0479 723500   		.ascii	"r5\000"
 837 047c 0B       		.byte	0xb
 838 047d 6D01     		.2byte	0x16d
 839 047f 31040000 		.4byte	0x431
 840 0483 04       		.byte	0x4
 841 0484 08       		.uleb128 0x8
 842 0485 723600   		.ascii	"r6\000"
 843 0488 0B       		.byte	0xb
 844 0489 6E01     		.2byte	0x16e
 845 048b 31040000 		.4byte	0x431
 846 048f 08       		.byte	0x8
ARM GAS  /tmp/cc8ZryaH.s 			page 16


 847 0490 08       		.uleb128 0x8
 848 0491 723700   		.ascii	"r7\000"
 849 0494 0B       		.byte	0xb
 850 0495 6F01     		.2byte	0x16f
 851 0497 31040000 		.4byte	0x431
 852 049b 0C       		.byte	0xc
 853 049c 08       		.uleb128 0x8
 854 049d 723800   		.ascii	"r8\000"
 855 04a0 0B       		.byte	0xb
 856 04a1 7001     		.2byte	0x170
 857 04a3 31040000 		.4byte	0x431
 858 04a7 10       		.byte	0x10
 859 04a8 08       		.uleb128 0x8
 860 04a9 723900   		.ascii	"r9\000"
 861 04ac 0B       		.byte	0xb
 862 04ad 7101     		.2byte	0x171
 863 04af 31040000 		.4byte	0x431
 864 04b3 14       		.byte	0x14
 865 04b4 08       		.uleb128 0x8
 866 04b5 72313000 		.ascii	"r10\000"
 867 04b9 0B       		.byte	0xb
 868 04ba 7201     		.2byte	0x172
 869 04bc 31040000 		.4byte	0x431
 870 04c0 18       		.byte	0x18
 871 04c1 08       		.uleb128 0x8
 872 04c2 72313100 		.ascii	"r11\000"
 873 04c6 0B       		.byte	0xb
 874 04c7 7301     		.2byte	0x173
 875 04c9 31040000 		.4byte	0x431
 876 04cd 1C       		.byte	0x1c
 877 04ce 08       		.uleb128 0x8
 878 04cf 6C7200   		.ascii	"lr\000"
 879 04d2 0B       		.byte	0xb
 880 04d3 7401     		.2byte	0x174
 881 04d5 31040000 		.4byte	0x431
 882 04d9 20       		.byte	0x20
 883 04da 00       		.byte	0
 884 04db 0A       		.uleb128 0xa
 885 04dc 04       		.byte	0x4
 886 04dd 5F040000 		.4byte	0x45f
 887 04e1 0F       		.uleb128 0xf
 888 04e2 04       		.byte	0x4
 889 04e3 0C       		.byte	0xc
 890 04e4 38       		.byte	0x38
 891 04e5 F6040000 		.4byte	0x4f6
 892 04e9 06       		.uleb128 0x6
 893 04ea 7B040000 		.4byte	.LASF75
 894 04ee 0C       		.byte	0xc
 895 04ef 3C       		.byte	0x3c
 896 04f0 CE000000 		.4byte	0xce
 897 04f4 00       		.byte	0
 898 04f5 00       		.byte	0
 899 04f6 03       		.uleb128 0x3
 900 04f7 95020000 		.4byte	.LASF76
 901 04fb 0C       		.byte	0xc
 902 04fc 3D       		.byte	0x3d
 903 04fd E1040000 		.4byte	0x4e1
ARM GAS  /tmp/cc8ZryaH.s 			page 17


 904 0501 10       		.uleb128 0x10
 905 0502 04       		.byte	0x4
 906 0503 09       		.byte	0x9
 907 0504 D2       		.byte	0xd2
 908 0505 64050000 		.4byte	0x564
 909 0509 11       		.uleb128 0x11
 910 050a 1A000000 		.4byte	.LASF77
 911 050e 09       		.byte	0x9
 912 050f D9       		.byte	0xd9
 913 0510 05010000 		.4byte	0x105
 914 0514 11       		.uleb128 0x11
 915 0515 77000000 		.4byte	.LASF78
 916 0519 09       		.byte	0x9
 917 051a E0       		.byte	0xe0
 918 051b 05010000 		.4byte	0x105
 919 051f 11       		.uleb128 0x11
 920 0520 08050000 		.4byte	.LASF79
 921 0524 09       		.byte	0x9
 922 0525 E7       		.byte	0xe7
 923 0526 02030000 		.4byte	0x302
 924 052a 11       		.uleb128 0x11
 925 052b 6B010000 		.4byte	.LASF80
 926 052f 09       		.byte	0x9
 927 0530 EE       		.byte	0xee
 928 0531 64050000 		.4byte	0x564
 929 0535 11       		.uleb128 0x11
 930 0536 8B000000 		.4byte	.LASF81
 931 053a 09       		.byte	0x9
 932 053b F3       		.byte	0xf3
 933 053c 05010000 		.4byte	0x105
 934 0540 11       		.uleb128 0x11
 935 0541 64010000 		.4byte	.LASF82
 936 0545 09       		.byte	0x9
 937 0546 FC       		.byte	0xfc
 938 0547 8F050000 		.4byte	0x58f
 939 054b 12       		.uleb128 0x12
 940 054c 98030000 		.4byte	.LASF83
 941 0550 09       		.byte	0x9
 942 0551 0501     		.2byte	0x105
 943 0553 C6050000 		.4byte	0x5c6
 944 0557 12       		.uleb128 0x12
 945 0558 57030000 		.4byte	.LASF84
 946 055c 09       		.byte	0x9
 947 055d 0D01     		.2byte	0x10d
 948 055f 10010000 		.4byte	0x110
 949 0563 00       		.byte	0
 950 0564 0A       		.uleb128 0xa
 951 0565 04       		.byte	0x4
 952 0566 1A020000 		.4byte	0x21a
 953 056a 05       		.uleb128 0x5
 954 056b 82030000 		.4byte	.LASF85
 955 056f 0C       		.byte	0xc
 956 0570 0D       		.byte	0xd
 957 0571 34       		.byte	0x34
 958 0572 8F050000 		.4byte	0x58f
 959 0576 06       		.uleb128 0x6
 960 0577 20010000 		.4byte	.LASF28
ARM GAS  /tmp/cc8ZryaH.s 			page 18


 961 057b 0D       		.byte	0xd
 962 057c 35       		.byte	0x35
 963 057d 4F020000 		.4byte	0x24f
 964 0581 00       		.byte	0
 965 0582 07       		.uleb128 0x7
 966 0583 636E7400 		.ascii	"cnt\000"
 967 0587 0D       		.byte	0xd
 968 0588 37       		.byte	0x37
 969 0589 1B010000 		.4byte	0x11b
 970 058d 08       		.byte	0x8
 971 058e 00       		.byte	0
 972 058f 0A       		.uleb128 0xa
 973 0590 04       		.byte	0x4
 974 0591 6A050000 		.4byte	0x56a
 975 0595 05       		.uleb128 0x5
 976 0596 CB040000 		.4byte	.LASF86
 977 059a 10       		.byte	0x10
 978 059b 0E       		.byte	0xe
 979 059c 39       		.byte	0x39
 980 059d C6050000 		.4byte	0x5c6
 981 05a1 06       		.uleb128 0x6
 982 05a2 20010000 		.4byte	.LASF28
 983 05a6 0E       		.byte	0xe
 984 05a7 3A       		.byte	0x3a
 985 05a8 4F020000 		.4byte	0x24f
 986 05ac 00       		.byte	0
 987 05ad 06       		.uleb128 0x6
 988 05ae AF030000 		.4byte	.LASF87
 989 05b2 0E       		.byte	0xe
 990 05b3 3C       		.byte	0x3c
 991 05b4 25020000 		.4byte	0x225
 992 05b8 08       		.byte	0x8
 993 05b9 06       		.uleb128 0x6
 994 05ba B6000000 		.4byte	.LASF47
 995 05be 0E       		.byte	0xe
 996 05bf 3E       		.byte	0x3e
 997 05c0 FA050000 		.4byte	0x5fa
 998 05c4 0C       		.byte	0xc
 999 05c5 00       		.byte	0
 1000 05c6 0A       		.uleb128 0xa
 1001 05c7 04       		.byte	0x4
 1002 05c8 95050000 		.4byte	0x595
 1003 05cc 0A       		.uleb128 0xa
 1004 05cd 04       		.byte	0x4
 1005 05ce D2050000 		.4byte	0x5d2
 1006 05d2 13       		.uleb128 0x13
 1007 05d3 D7050000 		.4byte	0x5d7
 1008 05d7 04       		.uleb128 0x4
 1009 05d8 01       		.byte	0x1
 1010 05d9 08       		.byte	0x8
 1011 05da 4A040000 		.4byte	.LASF88
 1012 05de 0A       		.uleb128 0xa
 1013 05df 04       		.byte	0x4
 1014 05e0 3C040000 		.4byte	0x43c
 1015 05e4 0A       		.uleb128 0xa
 1016 05e5 04       		.byte	0x4
 1017 05e6 04030000 		.4byte	0x304
ARM GAS  /tmp/cc8ZryaH.s 			page 19


 1018 05ea 14       		.uleb128 0x14
 1019 05eb CC050000 		.4byte	0x5cc
 1020 05ef 03       		.uleb128 0x3
 1021 05f0 49010000 		.4byte	.LASF89
 1022 05f4 0E       		.byte	0xe
 1023 05f5 34       		.byte	0x34
 1024 05f6 95050000 		.4byte	0x595
 1025 05fa 0A       		.uleb128 0xa
 1026 05fb 04       		.byte	0x4
 1027 05fc EF050000 		.4byte	0x5ef
 1028 0600 04       		.uleb128 0x4
 1029 0601 01       		.byte	0x1
 1030 0602 02       		.byte	0x2
 1031 0603 20030000 		.4byte	.LASF90
 1032 0607 0A       		.uleb128 0xa
 1033 0608 04       		.byte	0x4
 1034 0609 0D060000 		.4byte	0x60d
 1035 060d 15       		.uleb128 0x15
 1036 060e 0F       		.uleb128 0xf
 1037 060f 10       		.byte	0x10
 1038 0610 0F       		.byte	0xf
 1039 0611 3D       		.byte	0x3d
 1040 0612 47060000 		.4byte	0x647
 1041 0616 06       		.uleb128 0x6
 1042 0617 C4010000 		.4byte	.LASF32
 1043 061b 0F       		.byte	0xf
 1044 061c 3E       		.byte	0x3e
 1045 061d CC050000 		.4byte	0x5cc
 1046 0621 00       		.byte	0
 1047 0622 06       		.uleb128 0x6
 1048 0623 C5020000 		.4byte	.LASF91
 1049 0627 0F       		.byte	0xf
 1050 0628 3F       		.byte	0x3f
 1051 0629 07060000 		.4byte	0x607
 1052 062d 04       		.byte	0x4
 1053 062e 06       		.uleb128 0x6
 1054 062f 71010000 		.4byte	.LASF92
 1055 0633 0F       		.byte	0xf
 1056 0634 40       		.byte	0x40
 1057 0635 07060000 		.4byte	0x607
 1058 0639 08       		.byte	0x8
 1059 063a 06       		.uleb128 0x6
 1060 063b 00030000 		.4byte	.LASF93
 1061 063f 0F       		.byte	0xf
 1062 0640 41       		.byte	0x41
 1063 0641 07060000 		.4byte	0x607
 1064 0645 0C       		.byte	0xc
 1065 0646 00       		.byte	0
 1066 0647 03       		.uleb128 0x3
 1067 0648 3E020000 		.4byte	.LASF94
 1068 064c 0F       		.byte	0xf
 1069 064d 42       		.byte	0x42
 1070 064e 0E060000 		.4byte	0x60e
 1071 0652 16       		.uleb128 0x16
 1072 0653 DA040000 		.4byte	.LASF95
 1073 0657 01       		.byte	0x1
 1074 0658 1C01     		.2byte	0x11c
ARM GAS  /tmp/cc8ZryaH.s 			page 20


 1075 065a 25020000 		.4byte	0x225
 1076 065e 00000000 		.4byte	.LFB195
 1077 0662 0C000000 		.4byte	.LFE195-.LFB195
 1078 0666 01       		.uleb128 0x1
 1079 0667 9C       		.byte	0x9c
 1080 0668 17       		.uleb128 0x17
 1081 0669 B3020000 		.4byte	.LASF96
 1082 066d 01       		.byte	0x1
 1083 066e 2901     		.2byte	0x129
 1084 0670 FA000000 		.4byte	0xfa
 1085 0674 10000000 		.4byte	.LFB196
 1086 0678 0E000000 		.4byte	.LFE196-.LFB196
 1087 067c 01       		.uleb128 0x1
 1088 067d 9C       		.byte	0x9c
 1089 067e 18       		.uleb128 0x18
 1090 067f 7A010000 		.4byte	.LASF107
 1091 0683 02       		.byte	0x2
 1092 0684 60       		.byte	0x60
 1093 0685 05010000 		.4byte	0x105
 1094 0689 20000000 		.4byte	.LFB231
 1095 068d 0E000000 		.4byte	.LFE231-.LFB231
 1096 0691 01       		.uleb128 0x1
 1097 0692 9C       		.byte	0x9c
 1098 0693 AE060000 		.4byte	0x6ae
 1099 0697 19       		.uleb128 0x19
 1100 0698 747000   		.ascii	"tp\000"
 1101 069b 02       		.byte	0x2
 1102 069c 60       		.byte	0x60
 1103 069d 25020000 		.4byte	0x225
 1104 06a1 02       		.uleb128 0x2
 1105 06a2 91       		.byte	0x91
 1106 06a3 7C       		.sleb128 -4
 1107 06a4 1A       		.uleb128 0x1a
 1108 06a5 68030000 		.4byte	.LASF108
 1109 06a9 BE060000 		.4byte	0x6be
 1110 06ad 00       		.byte	0
 1111 06ae 1B       		.uleb128 0x1b
 1112 06af D7050000 		.4byte	0x5d7
 1113 06b3 BE060000 		.4byte	0x6be
 1114 06b7 1C       		.uleb128 0x1c
 1115 06b8 2A040000 		.4byte	0x42a
 1116 06bc 08       		.byte	0x8
 1117 06bd 00       		.byte	0
 1118 06be 13       		.uleb128 0x13
 1119 06bf AE060000 		.4byte	0x6ae
 1120 06c3 1D       		.uleb128 0x1d
 1121 06c4 54000000 		.4byte	.LASF97
 1122 06c8 03       		.byte	0x3
 1123 06c9 32       		.byte	0x32
 1124 06ca 30000000 		.4byte	.LFB279
 1125 06ce 2C000000 		.4byte	.LFE279-.LFB279
 1126 06d2 01       		.uleb128 0x1
 1127 06d3 9C       		.byte	0x9c
 1128 06d4 E5060000 		.4byte	0x6e5
 1129 06d8 19       		.uleb128 0x19
 1130 06d9 7000     		.ascii	"p\000"
 1131 06db 03       		.byte	0x3
ARM GAS  /tmp/cc8ZryaH.s 			page 21


 1132 06dc 32       		.byte	0x32
 1133 06dd 02030000 		.4byte	0x302
 1134 06e1 02       		.uleb128 0x2
 1135 06e2 91       		.byte	0x91
 1136 06e3 74       		.sleb128 -12
 1137 06e4 00       		.byte	0
 1138 06e5 1D       		.uleb128 0x1d
 1139 06e6 1E050000 		.4byte	.LASF98
 1140 06ea 03       		.byte	0x3
 1141 06eb 4C       		.byte	0x4c
 1142 06ec 60000000 		.4byte	.LFB280
 1143 06f0 9C000000 		.4byte	.LFE280-.LFB280
 1144 06f4 01       		.uleb128 0x1
 1145 06f5 9C       		.byte	0x9c
 1146 06f6 2C070000 		.4byte	0x72c
 1147 06fa 1E       		.uleb128 0x1e
 1148 06fb 747000   		.ascii	"tp\000"
 1149 06fe 03       		.byte	0x3
 1150 06ff 4D       		.byte	0x4d
 1151 0700 25020000 		.4byte	0x225
 1152 0704 02       		.uleb128 0x2
 1153 0705 91       		.byte	0x91
 1154 0706 68       		.sleb128 -24
 1155 0707 1E       		.uleb128 0x1e
 1156 0708 6D736700 		.ascii	"msg\000"
 1157 070c 03       		.byte	0x3
 1158 070d 4E       		.byte	0x4e
 1159 070e 05010000 		.4byte	0x105
 1160 0712 02       		.uleb128 0x2
 1161 0713 91       		.byte	0x91
 1162 0714 64       		.sleb128 -28
 1163 0715 1F       		.uleb128 0x1f
 1164 0716 98000000 		.4byte	.LBB2
 1165 071a 46000000 		.4byte	.LBE2-.LBB2
 1166 071e 1E       		.uleb128 0x1e
 1167 071f 6900     		.ascii	"i\000"
 1168 0721 03       		.byte	0x3
 1169 0722 5B       		.byte	0x5b
 1170 0723 37000000 		.4byte	0x37
 1171 0727 02       		.uleb128 0x2
 1172 0728 91       		.byte	0x91
 1173 0729 6C       		.sleb128 -20
 1174 072a 00       		.byte	0
 1175 072b 00       		.byte	0
 1176 072c 20       		.uleb128 0x20
 1177 072d E6000000 		.4byte	.LASF99
 1178 0731 03       		.byte	0x3
 1179 0732 68       		.byte	0x68
 1180 0733 3D070000 		.4byte	0x73d
 1181 0737 05       		.uleb128 0x5
 1182 0738 03       		.byte	0x3
 1183 0739 34000000 		.4byte	test_007_001
 1184 073d 13       		.uleb128 0x13
 1185 073e 47060000 		.4byte	0x647
 1186 0742 21       		.uleb128 0x21
 1187 0743 A9000000 		.4byte	.LASF100
 1188 0747 10       		.byte	0x10
ARM GAS  /tmp/cc8ZryaH.s 			page 22


 1189 0748 4407     		.2byte	0x744
 1190 074a 4E070000 		.4byte	0x74e
 1191 074e 14       		.uleb128 0x14
 1192 074f AD000000 		.4byte	0xad
 1193 0753 22       		.uleb128 0x22
 1194 0754 636800   		.ascii	"ch\000"
 1195 0757 09       		.byte	0x9
 1196 0758 D201     		.2byte	0x1d2
 1197 075a D1030000 		.4byte	0x3d1
 1198 075e 23       		.uleb128 0x23
 1199 075f 8B020000 		.4byte	.LASF101
 1200 0763 0F       		.byte	0xf
 1201 0764 9E       		.byte	0x9e
 1202 0765 37000000 		.4byte	0x37
 1203 0769 1B       		.uleb128 0x1b
 1204 076a 79070000 		.4byte	0x779
 1205 076e 79070000 		.4byte	0x779
 1206 0772 1C       		.uleb128 0x1c
 1207 0773 2A040000 		.4byte	0x42a
 1208 0777 01       		.byte	0x1
 1209 0778 00       		.byte	0
 1210 0779 0A       		.uleb128 0xa
 1211 077a 04       		.byte	0x4
 1212 077b 3D070000 		.4byte	0x73d
 1213 077f 24       		.uleb128 0x24
 1214 0780 F6040000 		.4byte	.LASF102
 1215 0784 03       		.byte	0x3
 1216 0785 76       		.byte	0x76
 1217 0786 90070000 		.4byte	0x790
 1218 078a 05       		.uleb128 0x5
 1219 078b 03       		.byte	0x3
 1220 078c 00000000 		.4byte	test_sequence_007
 1221 0790 13       		.uleb128 0x13
 1222 0791 69070000 		.4byte	0x769
 1223 0795 1B       		.uleb128 0x1b
 1224 0796 25020000 		.4byte	0x225
 1225 079a A5070000 		.4byte	0x7a5
 1226 079e 1C       		.uleb128 0x1c
 1227 079f 2A040000 		.4byte	0x42a
 1228 07a3 04       		.byte	0x4
 1229 07a4 00       		.byte	0
 1230 07a5 23       		.uleb128 0x23
 1231 07a6 4F030000 		.4byte	.LASF103
 1232 07aa 11       		.byte	0x11
 1233 07ab 5C       		.byte	0x5c
 1234 07ac 95070000 		.4byte	0x795
 1235 07b0 1B       		.uleb128 0x1b
 1236 07b1 02030000 		.4byte	0x302
 1237 07b5 C0070000 		.4byte	0x7c0
 1238 07b9 1C       		.uleb128 0x1c
 1239 07ba 2A040000 		.4byte	0x42a
 1240 07be 04       		.byte	0x4
 1241 07bf 00       		.byte	0
 1242 07c0 25       		.uleb128 0x25
 1243 07c1 776100   		.ascii	"wa\000"
 1244 07c4 11       		.byte	0x11
 1245 07c5 5D       		.byte	0x5d
ARM GAS  /tmp/cc8ZryaH.s 			page 23


 1246 07c6 CA070000 		.4byte	0x7ca
 1247 07ca 13       		.uleb128 0x13
 1248 07cb B0070000 		.4byte	0x7b0
 1249 07cf 00       		.byte	0
 1250              		.section	.debug_abbrev,"",%progbits
 1251              	.Ldebug_abbrev0:
 1252 0000 01       		.uleb128 0x1
 1253 0001 11       		.uleb128 0x11
 1254 0002 01       		.byte	0x1
 1255 0003 25       		.uleb128 0x25
 1256 0004 0E       		.uleb128 0xe
 1257 0005 13       		.uleb128 0x13
 1258 0006 0B       		.uleb128 0xb
 1259 0007 03       		.uleb128 0x3
 1260 0008 0E       		.uleb128 0xe
 1261 0009 1B       		.uleb128 0x1b
 1262 000a 0E       		.uleb128 0xe
 1263 000b 11       		.uleb128 0x11
 1264 000c 01       		.uleb128 0x1
 1265 000d 12       		.uleb128 0x12
 1266 000e 06       		.uleb128 0x6
 1267 000f 10       		.uleb128 0x10
 1268 0010 17       		.uleb128 0x17
 1269 0011 00       		.byte	0
 1270 0012 00       		.byte	0
 1271 0013 02       		.uleb128 0x2
 1272 0014 24       		.uleb128 0x24
 1273 0015 00       		.byte	0
 1274 0016 0B       		.uleb128 0xb
 1275 0017 0B       		.uleb128 0xb
 1276 0018 3E       		.uleb128 0x3e
 1277 0019 0B       		.uleb128 0xb
 1278 001a 03       		.uleb128 0x3
 1279 001b 08       		.uleb128 0x8
 1280 001c 00       		.byte	0
 1281 001d 00       		.byte	0
 1282 001e 03       		.uleb128 0x3
 1283 001f 16       		.uleb128 0x16
 1284 0020 00       		.byte	0
 1285 0021 03       		.uleb128 0x3
 1286 0022 0E       		.uleb128 0xe
 1287 0023 3A       		.uleb128 0x3a
 1288 0024 0B       		.uleb128 0xb
 1289 0025 3B       		.uleb128 0x3b
 1290 0026 0B       		.uleb128 0xb
 1291 0027 49       		.uleb128 0x49
 1292 0028 13       		.uleb128 0x13
 1293 0029 00       		.byte	0
 1294 002a 00       		.byte	0
 1295 002b 04       		.uleb128 0x4
 1296 002c 24       		.uleb128 0x24
 1297 002d 00       		.byte	0
 1298 002e 0B       		.uleb128 0xb
 1299 002f 0B       		.uleb128 0xb
 1300 0030 3E       		.uleb128 0x3e
 1301 0031 0B       		.uleb128 0xb
 1302 0032 03       		.uleb128 0x3
ARM GAS  /tmp/cc8ZryaH.s 			page 24


 1303 0033 0E       		.uleb128 0xe
 1304 0034 00       		.byte	0
 1305 0035 00       		.byte	0
 1306 0036 05       		.uleb128 0x5
 1307 0037 13       		.uleb128 0x13
 1308 0038 01       		.byte	0x1
 1309 0039 03       		.uleb128 0x3
 1310 003a 0E       		.uleb128 0xe
 1311 003b 0B       		.uleb128 0xb
 1312 003c 0B       		.uleb128 0xb
 1313 003d 3A       		.uleb128 0x3a
 1314 003e 0B       		.uleb128 0xb
 1315 003f 3B       		.uleb128 0x3b
 1316 0040 0B       		.uleb128 0xb
 1317 0041 01       		.uleb128 0x1
 1318 0042 13       		.uleb128 0x13
 1319 0043 00       		.byte	0
 1320 0044 00       		.byte	0
 1321 0045 06       		.uleb128 0x6
 1322 0046 0D       		.uleb128 0xd
 1323 0047 00       		.byte	0
 1324 0048 03       		.uleb128 0x3
 1325 0049 0E       		.uleb128 0xe
 1326 004a 3A       		.uleb128 0x3a
 1327 004b 0B       		.uleb128 0xb
 1328 004c 3B       		.uleb128 0x3b
 1329 004d 0B       		.uleb128 0xb
 1330 004e 49       		.uleb128 0x49
 1331 004f 13       		.uleb128 0x13
 1332 0050 38       		.uleb128 0x38
 1333 0051 0B       		.uleb128 0xb
 1334 0052 00       		.byte	0
 1335 0053 00       		.byte	0
 1336 0054 07       		.uleb128 0x7
 1337 0055 0D       		.uleb128 0xd
 1338 0056 00       		.byte	0
 1339 0057 03       		.uleb128 0x3
 1340 0058 08       		.uleb128 0x8
 1341 0059 3A       		.uleb128 0x3a
 1342 005a 0B       		.uleb128 0xb
 1343 005b 3B       		.uleb128 0x3b
 1344 005c 0B       		.uleb128 0xb
 1345 005d 49       		.uleb128 0x49
 1346 005e 13       		.uleb128 0x13
 1347 005f 38       		.uleb128 0x38
 1348 0060 0B       		.uleb128 0xb
 1349 0061 00       		.byte	0
 1350 0062 00       		.byte	0
 1351 0063 08       		.uleb128 0x8
 1352 0064 0D       		.uleb128 0xd
 1353 0065 00       		.byte	0
 1354 0066 03       		.uleb128 0x3
 1355 0067 08       		.uleb128 0x8
 1356 0068 3A       		.uleb128 0x3a
 1357 0069 0B       		.uleb128 0xb
 1358 006a 3B       		.uleb128 0x3b
 1359 006b 05       		.uleb128 0x5
ARM GAS  /tmp/cc8ZryaH.s 			page 25


 1360 006c 49       		.uleb128 0x49
 1361 006d 13       		.uleb128 0x13
 1362 006e 38       		.uleb128 0x38
 1363 006f 0B       		.uleb128 0xb
 1364 0070 00       		.byte	0
 1365 0071 00       		.byte	0
 1366 0072 09       		.uleb128 0x9
 1367 0073 0D       		.uleb128 0xd
 1368 0074 00       		.byte	0
 1369 0075 03       		.uleb128 0x3
 1370 0076 0E       		.uleb128 0xe
 1371 0077 3A       		.uleb128 0x3a
 1372 0078 0B       		.uleb128 0xb
 1373 0079 3B       		.uleb128 0x3b
 1374 007a 05       		.uleb128 0x5
 1375 007b 49       		.uleb128 0x49
 1376 007c 13       		.uleb128 0x13
 1377 007d 38       		.uleb128 0x38
 1378 007e 0B       		.uleb128 0xb
 1379 007f 00       		.byte	0
 1380 0080 00       		.byte	0
 1381 0081 0A       		.uleb128 0xa
 1382 0082 0F       		.uleb128 0xf
 1383 0083 00       		.byte	0
 1384 0084 0B       		.uleb128 0xb
 1385 0085 0B       		.uleb128 0xb
 1386 0086 49       		.uleb128 0x49
 1387 0087 13       		.uleb128 0x13
 1388 0088 00       		.byte	0
 1389 0089 00       		.byte	0
 1390 008a 0B       		.uleb128 0xb
 1391 008b 13       		.uleb128 0x13
 1392 008c 01       		.byte	0x1
 1393 008d 03       		.uleb128 0x3
 1394 008e 0E       		.uleb128 0xe
 1395 008f 0B       		.uleb128 0xb
 1396 0090 0B       		.uleb128 0xb
 1397 0091 3A       		.uleb128 0x3a
 1398 0092 0B       		.uleb128 0xb
 1399 0093 3B       		.uleb128 0x3b
 1400 0094 05       		.uleb128 0x5
 1401 0095 01       		.uleb128 0x1
 1402 0096 13       		.uleb128 0x13
 1403 0097 00       		.byte	0
 1404 0098 00       		.byte	0
 1405 0099 0C       		.uleb128 0xc
 1406 009a 15       		.uleb128 0x15
 1407 009b 01       		.byte	0x1
 1408 009c 27       		.uleb128 0x27
 1409 009d 19       		.uleb128 0x19
 1410 009e 01       		.uleb128 0x1
 1411 009f 13       		.uleb128 0x13
 1412 00a0 00       		.byte	0
 1413 00a1 00       		.byte	0
 1414 00a2 0D       		.uleb128 0xd
 1415 00a3 05       		.uleb128 0x5
 1416 00a4 00       		.byte	0
ARM GAS  /tmp/cc8ZryaH.s 			page 26


 1417 00a5 49       		.uleb128 0x49
 1418 00a6 13       		.uleb128 0x13
 1419 00a7 00       		.byte	0
 1420 00a8 00       		.byte	0
 1421 00a9 0E       		.uleb128 0xe
 1422 00aa 0F       		.uleb128 0xf
 1423 00ab 00       		.byte	0
 1424 00ac 0B       		.uleb128 0xb
 1425 00ad 0B       		.uleb128 0xb
 1426 00ae 00       		.byte	0
 1427 00af 00       		.byte	0
 1428 00b0 0F       		.uleb128 0xf
 1429 00b1 13       		.uleb128 0x13
 1430 00b2 01       		.byte	0x1
 1431 00b3 0B       		.uleb128 0xb
 1432 00b4 0B       		.uleb128 0xb
 1433 00b5 3A       		.uleb128 0x3a
 1434 00b6 0B       		.uleb128 0xb
 1435 00b7 3B       		.uleb128 0x3b
 1436 00b8 0B       		.uleb128 0xb
 1437 00b9 01       		.uleb128 0x1
 1438 00ba 13       		.uleb128 0x13
 1439 00bb 00       		.byte	0
 1440 00bc 00       		.byte	0
 1441 00bd 10       		.uleb128 0x10
 1442 00be 17       		.uleb128 0x17
 1443 00bf 01       		.byte	0x1
 1444 00c0 0B       		.uleb128 0xb
 1445 00c1 0B       		.uleb128 0xb
 1446 00c2 3A       		.uleb128 0x3a
 1447 00c3 0B       		.uleb128 0xb
 1448 00c4 3B       		.uleb128 0x3b
 1449 00c5 0B       		.uleb128 0xb
 1450 00c6 01       		.uleb128 0x1
 1451 00c7 13       		.uleb128 0x13
 1452 00c8 00       		.byte	0
 1453 00c9 00       		.byte	0
 1454 00ca 11       		.uleb128 0x11
 1455 00cb 0D       		.uleb128 0xd
 1456 00cc 00       		.byte	0
 1457 00cd 03       		.uleb128 0x3
 1458 00ce 0E       		.uleb128 0xe
 1459 00cf 3A       		.uleb128 0x3a
 1460 00d0 0B       		.uleb128 0xb
 1461 00d1 3B       		.uleb128 0x3b
 1462 00d2 0B       		.uleb128 0xb
 1463 00d3 49       		.uleb128 0x49
 1464 00d4 13       		.uleb128 0x13
 1465 00d5 00       		.byte	0
 1466 00d6 00       		.byte	0
 1467 00d7 12       		.uleb128 0x12
 1468 00d8 0D       		.uleb128 0xd
 1469 00d9 00       		.byte	0
 1470 00da 03       		.uleb128 0x3
 1471 00db 0E       		.uleb128 0xe
 1472 00dc 3A       		.uleb128 0x3a
 1473 00dd 0B       		.uleb128 0xb
ARM GAS  /tmp/cc8ZryaH.s 			page 27


 1474 00de 3B       		.uleb128 0x3b
 1475 00df 05       		.uleb128 0x5
 1476 00e0 49       		.uleb128 0x49
 1477 00e1 13       		.uleb128 0x13
 1478 00e2 00       		.byte	0
 1479 00e3 00       		.byte	0
 1480 00e4 13       		.uleb128 0x13
 1481 00e5 26       		.uleb128 0x26
 1482 00e6 00       		.byte	0
 1483 00e7 49       		.uleb128 0x49
 1484 00e8 13       		.uleb128 0x13
 1485 00e9 00       		.byte	0
 1486 00ea 00       		.byte	0
 1487 00eb 14       		.uleb128 0x14
 1488 00ec 35       		.uleb128 0x35
 1489 00ed 00       		.byte	0
 1490 00ee 49       		.uleb128 0x49
 1491 00ef 13       		.uleb128 0x13
 1492 00f0 00       		.byte	0
 1493 00f1 00       		.byte	0
 1494 00f2 15       		.uleb128 0x15
 1495 00f3 15       		.uleb128 0x15
 1496 00f4 00       		.byte	0
 1497 00f5 27       		.uleb128 0x27
 1498 00f6 19       		.uleb128 0x19
 1499 00f7 00       		.byte	0
 1500 00f8 00       		.byte	0
 1501 00f9 16       		.uleb128 0x16
 1502 00fa 2E       		.uleb128 0x2e
 1503 00fb 00       		.byte	0
 1504 00fc 03       		.uleb128 0x3
 1505 00fd 0E       		.uleb128 0xe
 1506 00fe 3A       		.uleb128 0x3a
 1507 00ff 0B       		.uleb128 0xb
 1508 0100 3B       		.uleb128 0x3b
 1509 0101 05       		.uleb128 0x5
 1510 0102 27       		.uleb128 0x27
 1511 0103 19       		.uleb128 0x19
 1512 0104 49       		.uleb128 0x49
 1513 0105 13       		.uleb128 0x13
 1514 0106 11       		.uleb128 0x11
 1515 0107 01       		.uleb128 0x1
 1516 0108 12       		.uleb128 0x12
 1517 0109 06       		.uleb128 0x6
 1518 010a 40       		.uleb128 0x40
 1519 010b 18       		.uleb128 0x18
 1520 010c 9742     		.uleb128 0x2117
 1521 010e 19       		.uleb128 0x19
 1522 010f 00       		.byte	0
 1523 0110 00       		.byte	0
 1524 0111 17       		.uleb128 0x17
 1525 0112 2E       		.uleb128 0x2e
 1526 0113 00       		.byte	0
 1527 0114 03       		.uleb128 0x3
 1528 0115 0E       		.uleb128 0xe
 1529 0116 3A       		.uleb128 0x3a
 1530 0117 0B       		.uleb128 0xb
ARM GAS  /tmp/cc8ZryaH.s 			page 28


 1531 0118 3B       		.uleb128 0x3b
 1532 0119 05       		.uleb128 0x5
 1533 011a 27       		.uleb128 0x27
 1534 011b 19       		.uleb128 0x19
 1535 011c 49       		.uleb128 0x49
 1536 011d 13       		.uleb128 0x13
 1537 011e 11       		.uleb128 0x11
 1538 011f 01       		.uleb128 0x1
 1539 0120 12       		.uleb128 0x12
 1540 0121 06       		.uleb128 0x6
 1541 0122 40       		.uleb128 0x40
 1542 0123 18       		.uleb128 0x18
 1543 0124 9642     		.uleb128 0x2116
 1544 0126 19       		.uleb128 0x19
 1545 0127 00       		.byte	0
 1546 0128 00       		.byte	0
 1547 0129 18       		.uleb128 0x18
 1548 012a 2E       		.uleb128 0x2e
 1549 012b 01       		.byte	0x1
 1550 012c 03       		.uleb128 0x3
 1551 012d 0E       		.uleb128 0xe
 1552 012e 3A       		.uleb128 0x3a
 1553 012f 0B       		.uleb128 0xb
 1554 0130 3B       		.uleb128 0x3b
 1555 0131 0B       		.uleb128 0xb
 1556 0132 27       		.uleb128 0x27
 1557 0133 19       		.uleb128 0x19
 1558 0134 49       		.uleb128 0x49
 1559 0135 13       		.uleb128 0x13
 1560 0136 11       		.uleb128 0x11
 1561 0137 01       		.uleb128 0x1
 1562 0138 12       		.uleb128 0x12
 1563 0139 06       		.uleb128 0x6
 1564 013a 40       		.uleb128 0x40
 1565 013b 18       		.uleb128 0x18
 1566 013c 9742     		.uleb128 0x2117
 1567 013e 19       		.uleb128 0x19
 1568 013f 01       		.uleb128 0x1
 1569 0140 13       		.uleb128 0x13
 1570 0141 00       		.byte	0
 1571 0142 00       		.byte	0
 1572 0143 19       		.uleb128 0x19
 1573 0144 05       		.uleb128 0x5
 1574 0145 00       		.byte	0
 1575 0146 03       		.uleb128 0x3
 1576 0147 08       		.uleb128 0x8
 1577 0148 3A       		.uleb128 0x3a
 1578 0149 0B       		.uleb128 0xb
 1579 014a 3B       		.uleb128 0x3b
 1580 014b 0B       		.uleb128 0xb
 1581 014c 49       		.uleb128 0x49
 1582 014d 13       		.uleb128 0x13
 1583 014e 02       		.uleb128 0x2
 1584 014f 18       		.uleb128 0x18
 1585 0150 00       		.byte	0
 1586 0151 00       		.byte	0
 1587 0152 1A       		.uleb128 0x1a
ARM GAS  /tmp/cc8ZryaH.s 			page 29


 1588 0153 34       		.uleb128 0x34
 1589 0154 00       		.byte	0
 1590 0155 03       		.uleb128 0x3
 1591 0156 0E       		.uleb128 0xe
 1592 0157 49       		.uleb128 0x49
 1593 0158 13       		.uleb128 0x13
 1594 0159 34       		.uleb128 0x34
 1595 015a 19       		.uleb128 0x19
 1596 015b 00       		.byte	0
 1597 015c 00       		.byte	0
 1598 015d 1B       		.uleb128 0x1b
 1599 015e 01       		.uleb128 0x1
 1600 015f 01       		.byte	0x1
 1601 0160 49       		.uleb128 0x49
 1602 0161 13       		.uleb128 0x13
 1603 0162 01       		.uleb128 0x1
 1604 0163 13       		.uleb128 0x13
 1605 0164 00       		.byte	0
 1606 0165 00       		.byte	0
 1607 0166 1C       		.uleb128 0x1c
 1608 0167 21       		.uleb128 0x21
 1609 0168 00       		.byte	0
 1610 0169 49       		.uleb128 0x49
 1611 016a 13       		.uleb128 0x13
 1612 016b 2F       		.uleb128 0x2f
 1613 016c 0B       		.uleb128 0xb
 1614 016d 00       		.byte	0
 1615 016e 00       		.byte	0
 1616 016f 1D       		.uleb128 0x1d
 1617 0170 2E       		.uleb128 0x2e
 1618 0171 01       		.byte	0x1
 1619 0172 03       		.uleb128 0x3
 1620 0173 0E       		.uleb128 0xe
 1621 0174 3A       		.uleb128 0x3a
 1622 0175 0B       		.uleb128 0xb
 1623 0176 3B       		.uleb128 0x3b
 1624 0177 0B       		.uleb128 0xb
 1625 0178 27       		.uleb128 0x27
 1626 0179 19       		.uleb128 0x19
 1627 017a 11       		.uleb128 0x11
 1628 017b 01       		.uleb128 0x1
 1629 017c 12       		.uleb128 0x12
 1630 017d 06       		.uleb128 0x6
 1631 017e 40       		.uleb128 0x40
 1632 017f 18       		.uleb128 0x18
 1633 0180 9642     		.uleb128 0x2116
 1634 0182 19       		.uleb128 0x19
 1635 0183 01       		.uleb128 0x1
 1636 0184 13       		.uleb128 0x13
 1637 0185 00       		.byte	0
 1638 0186 00       		.byte	0
 1639 0187 1E       		.uleb128 0x1e
 1640 0188 34       		.uleb128 0x34
 1641 0189 00       		.byte	0
 1642 018a 03       		.uleb128 0x3
 1643 018b 08       		.uleb128 0x8
 1644 018c 3A       		.uleb128 0x3a
ARM GAS  /tmp/cc8ZryaH.s 			page 30


 1645 018d 0B       		.uleb128 0xb
 1646 018e 3B       		.uleb128 0x3b
 1647 018f 0B       		.uleb128 0xb
 1648 0190 49       		.uleb128 0x49
 1649 0191 13       		.uleb128 0x13
 1650 0192 02       		.uleb128 0x2
 1651 0193 18       		.uleb128 0x18
 1652 0194 00       		.byte	0
 1653 0195 00       		.byte	0
 1654 0196 1F       		.uleb128 0x1f
 1655 0197 0B       		.uleb128 0xb
 1656 0198 01       		.byte	0x1
 1657 0199 11       		.uleb128 0x11
 1658 019a 01       		.uleb128 0x1
 1659 019b 12       		.uleb128 0x12
 1660 019c 06       		.uleb128 0x6
 1661 019d 00       		.byte	0
 1662 019e 00       		.byte	0
 1663 019f 20       		.uleb128 0x20
 1664 01a0 34       		.uleb128 0x34
 1665 01a1 00       		.byte	0
 1666 01a2 03       		.uleb128 0x3
 1667 01a3 0E       		.uleb128 0xe
 1668 01a4 3A       		.uleb128 0x3a
 1669 01a5 0B       		.uleb128 0xb
 1670 01a6 3B       		.uleb128 0x3b
 1671 01a7 0B       		.uleb128 0xb
 1672 01a8 49       		.uleb128 0x49
 1673 01a9 13       		.uleb128 0x13
 1674 01aa 02       		.uleb128 0x2
 1675 01ab 18       		.uleb128 0x18
 1676 01ac 00       		.byte	0
 1677 01ad 00       		.byte	0
 1678 01ae 21       		.uleb128 0x21
 1679 01af 34       		.uleb128 0x34
 1680 01b0 00       		.byte	0
 1681 01b1 03       		.uleb128 0x3
 1682 01b2 0E       		.uleb128 0xe
 1683 01b3 3A       		.uleb128 0x3a
 1684 01b4 0B       		.uleb128 0xb
 1685 01b5 3B       		.uleb128 0x3b
 1686 01b6 05       		.uleb128 0x5
 1687 01b7 49       		.uleb128 0x49
 1688 01b8 13       		.uleb128 0x13
 1689 01b9 3F       		.uleb128 0x3f
 1690 01ba 19       		.uleb128 0x19
 1691 01bb 3C       		.uleb128 0x3c
 1692 01bc 19       		.uleb128 0x19
 1693 01bd 00       		.byte	0
 1694 01be 00       		.byte	0
 1695 01bf 22       		.uleb128 0x22
 1696 01c0 34       		.uleb128 0x34
 1697 01c1 00       		.byte	0
 1698 01c2 03       		.uleb128 0x3
 1699 01c3 08       		.uleb128 0x8
 1700 01c4 3A       		.uleb128 0x3a
 1701 01c5 0B       		.uleb128 0xb
ARM GAS  /tmp/cc8ZryaH.s 			page 31


 1702 01c6 3B       		.uleb128 0x3b
 1703 01c7 05       		.uleb128 0x5
 1704 01c8 49       		.uleb128 0x49
 1705 01c9 13       		.uleb128 0x13
 1706 01ca 3F       		.uleb128 0x3f
 1707 01cb 19       		.uleb128 0x19
 1708 01cc 3C       		.uleb128 0x3c
 1709 01cd 19       		.uleb128 0x19
 1710 01ce 00       		.byte	0
 1711 01cf 00       		.byte	0
 1712 01d0 23       		.uleb128 0x23
 1713 01d1 34       		.uleb128 0x34
 1714 01d2 00       		.byte	0
 1715 01d3 03       		.uleb128 0x3
 1716 01d4 0E       		.uleb128 0xe
 1717 01d5 3A       		.uleb128 0x3a
 1718 01d6 0B       		.uleb128 0xb
 1719 01d7 3B       		.uleb128 0x3b
 1720 01d8 0B       		.uleb128 0xb
 1721 01d9 49       		.uleb128 0x49
 1722 01da 13       		.uleb128 0x13
 1723 01db 3F       		.uleb128 0x3f
 1724 01dc 19       		.uleb128 0x19
 1725 01dd 3C       		.uleb128 0x3c
 1726 01de 19       		.uleb128 0x19
 1727 01df 00       		.byte	0
 1728 01e0 00       		.byte	0
 1729 01e1 24       		.uleb128 0x24
 1730 01e2 34       		.uleb128 0x34
 1731 01e3 00       		.byte	0
 1732 01e4 03       		.uleb128 0x3
 1733 01e5 0E       		.uleb128 0xe
 1734 01e6 3A       		.uleb128 0x3a
 1735 01e7 0B       		.uleb128 0xb
 1736 01e8 3B       		.uleb128 0x3b
 1737 01e9 0B       		.uleb128 0xb
 1738 01ea 49       		.uleb128 0x49
 1739 01eb 13       		.uleb128 0x13
 1740 01ec 3F       		.uleb128 0x3f
 1741 01ed 19       		.uleb128 0x19
 1742 01ee 02       		.uleb128 0x2
 1743 01ef 18       		.uleb128 0x18
 1744 01f0 00       		.byte	0
 1745 01f1 00       		.byte	0
 1746 01f2 25       		.uleb128 0x25
 1747 01f3 34       		.uleb128 0x34
 1748 01f4 00       		.byte	0
 1749 01f5 03       		.uleb128 0x3
 1750 01f6 08       		.uleb128 0x8
 1751 01f7 3A       		.uleb128 0x3a
 1752 01f8 0B       		.uleb128 0xb
 1753 01f9 3B       		.uleb128 0x3b
 1754 01fa 0B       		.uleb128 0xb
 1755 01fb 49       		.uleb128 0x49
 1756 01fc 13       		.uleb128 0x13
 1757 01fd 3F       		.uleb128 0x3f
 1758 01fe 19       		.uleb128 0x19
ARM GAS  /tmp/cc8ZryaH.s 			page 32


 1759 01ff 3C       		.uleb128 0x3c
 1760 0200 19       		.uleb128 0x19
 1761 0201 00       		.byte	0
 1762 0202 00       		.byte	0
 1763 0203 00       		.byte	0
 1764              		.section	.debug_aranges,"",%progbits
 1765 0000 1C000000 		.4byte	0x1c
 1766 0004 0200     		.2byte	0x2
 1767 0006 00000000 		.4byte	.Ldebug_info0
 1768 000a 04       		.byte	0x4
 1769 000b 00       		.byte	0
 1770 000c 0000     		.2byte	0
 1771 000e 0000     		.2byte	0
 1772 0010 00000000 		.4byte	.Ltext0
 1773 0014 FC000000 		.4byte	.Letext0-.Ltext0
 1774 0018 00000000 		.4byte	0
 1775 001c 00000000 		.4byte	0
 1776              		.section	.debug_line,"",%progbits
 1777              	.Ldebug_line0:
 1778 0000 71020000 		.section	.debug_str,"MS",%progbits,1
 1778      02001602 
 1778      00000201 
 1778      FB0E0D00 
 1778      01010101 
 1779              	.LASF51:
 1780 0000 72656164 		.ascii	"ready_list_t\000"
 1780      795F6C69 
 1780      73745F74 
 1780      00
 1781              	.LASF2:
 1782 000d 73697A65 		.ascii	"size_t\000"
 1782      5F7400
 1783              	.LASF57:
 1784 0014 64656C74 		.ascii	"delta\000"
 1784      6100
 1785              	.LASF77:
 1786 001a 7264796D 		.ascii	"rdymsg\000"
 1786      736700
 1787              	.LASF17:
 1788 0021 75696E74 		.ascii	"uint64_t\000"
 1788      36345F74 
 1788      00
 1789              	.LASF3:
 1790 002a 5F5F7569 		.ascii	"__uint8_t\000"
 1790      6E74385F 
 1790      7400
 1791              	.LASF50:
 1792 0034 70726576 		.ascii	"prev\000"
 1792      00
 1793              	.LASF74:
 1794 0039 706F7274 		.ascii	"port_intctx\000"
 1794      5F696E74 
 1794      63747800 
 1795              	.LASF62:
 1796 0045 73797374 		.ascii	"system_debug_t\000"
 1796      656D5F64 
 1796      65627567 
ARM GAS  /tmp/cc8ZryaH.s 			page 33


 1796      5F7400
 1797              	.LASF97:
 1798 0054 6D73675F 		.ascii	"msg_thread1\000"
 1798      74687265 
 1798      61643100 
 1799              	.LASF13:
 1800 0060 6C6F6E67 		.ascii	"long long unsigned int\000"
 1800      206C6F6E 
 1800      6720756E 
 1800      7369676E 
 1800      65642069 
 1801              	.LASF78:
 1802 0077 65786974 		.ascii	"exitcode\000"
 1802      636F6465 
 1802      00
 1803              	.LASF69:
 1804 0080 6D61696E 		.ascii	"mainthread\000"
 1804      74687265 
 1804      616400
 1805              	.LASF81:
 1806 008b 73656E74 		.ascii	"sentmsg\000"
 1806      6D736700 
 1807              	.LASF59:
 1808 0093 76697274 		.ascii	"virtual_timers_list_t\000"
 1808      75616C5F 
 1808      74696D65 
 1808      72735F6C 
 1808      6973745F 
 1809              	.LASF100:
 1810 00a9 49544D5F 		.ascii	"ITM_RxBuffer\000"
 1810      52784275 
 1810      66666572 
 1810      00
 1811              	.LASF47:
 1812 00b6 6E657874 		.ascii	"next\000"
 1812      00
 1813              	.LASF49:
 1814 00bb 63685F74 		.ascii	"ch_threads_queue\000"
 1814      68726561 
 1814      64735F71 
 1814      75657565 
 1814      00
 1815              	.LASF11:
 1816 00cc 6C6F6E67 		.ascii	"long long int\000"
 1816      206C6F6E 
 1816      6720696E 
 1816      7400
 1817              	.LASF1:
 1818 00da 7369676E 		.ascii	"signed char\000"
 1818      65642063 
 1818      68617200 
 1819              	.LASF99:
 1820 00e6 74657374 		.ascii	"test_007_001\000"
 1820      5F303037 
 1820      5F303031 
 1820      00
 1821              	.LASF68:
ARM GAS  /tmp/cc8ZryaH.s 			page 34


 1822 00f3 76746C69 		.ascii	"vtlist\000"
 1822      737400
 1823              	.LASF38:
 1824 00fa 6D736771 		.ascii	"msgqueue\000"
 1824      75657565 
 1824      00
 1825              	.LASF34:
 1826 0103 73746174 		.ascii	"state\000"
 1826      6500
 1827              	.LASF8:
 1828 0109 6C6F6E67 		.ascii	"long int\000"
 1828      20696E74 
 1828      00
 1829              	.LASF20:
 1830 0112 74737461 		.ascii	"tstate_t\000"
 1830      74655F74 
 1830      00
 1831              	.LASF58:
 1832 011b 66756E63 		.ascii	"func\000"
 1832      00
 1833              	.LASF28:
 1834 0120 71756575 		.ascii	"queue\000"
 1834      6500
 1835              	.LASF33:
 1836 0126 77616261 		.ascii	"wabase\000"
 1836      736500
 1837              	.LASF9:
 1838 012d 5F5F7569 		.ascii	"__uint32_t\000"
 1838      6E743332 
 1838      5F7400
 1839              	.LASF71:
 1840 0138 72656761 		.ascii	"regarm_t\000"
 1840      726D5F74 
 1840      00
 1841              	.LASF37:
 1842 0141 77616974 		.ascii	"waiting\000"
 1842      696E6700 
 1843              	.LASF89:
 1844 0149 6D757465 		.ascii	"mutex_t\000"
 1844      785F7400 
 1845              	.LASF25:
 1846 0151 636E745F 		.ascii	"cnt_t\000"
 1846      7400
 1847              	.LASF0:
 1848 0157 756E7369 		.ascii	"unsigned int\000"
 1848      676E6564 
 1848      20696E74 
 1848      00
 1849              	.LASF82:
 1850 0164 77747365 		.ascii	"wtsemp\000"
 1850      6D7000
 1851              	.LASF80:
 1852 016b 77747472 		.ascii	"wttrp\000"
 1852      7000
 1853              	.LASF92:
 1854 0171 74656172 		.ascii	"teardown\000"
 1854      646F776E 
ARM GAS  /tmp/cc8ZryaH.s 			page 35


 1854      00
 1855              	.LASF107:
 1856 017a 63684D73 		.ascii	"chMsgGet\000"
 1856      67476574 
 1856      00
 1857              	.LASF106:
 1858 0183 2F686F6D 		.ascii	"/home/declan/ChibiOS2/ChibiOS/demos/STM32/RT-STM32F"
 1858      652F6465 
 1858      636C616E 
 1858      2F436869 
 1858      62694F53 
 1859 01b6 3430372D 		.ascii	"407-DISCOVERY\000"
 1859      44495343 
 1859      4F564552 
 1859      5900
 1860              	.LASF32:
 1861 01c4 6E616D65 		.ascii	"name\000"
 1861      00
 1862              	.LASF42:
 1863 01c9 6D706F6F 		.ascii	"mpool\000"
 1863      6C00
 1864              	.LASF6:
 1865 01cf 73686F72 		.ascii	"short unsigned int\000"
 1865      7420756E 
 1865      7369676E 
 1865      65642069 
 1865      6E7400
 1866              	.LASF45:
 1867 01e2 63685F74 		.ascii	"ch_thread\000"
 1867      68726561 
 1867      6400
 1868              	.LASF23:
 1869 01ec 6D73675F 		.ascii	"msg_t\000"
 1869      7400
 1870              	.LASF39:
 1871 01f2 6570656E 		.ascii	"epending\000"
 1871      64696E67 
 1871      00
 1872              	.LASF65:
 1873 01fb 63685F73 		.ascii	"ch_system_t\000"
 1873      79737465 
 1873      6D5F7400 
 1874              	.LASF19:
 1875 0207 746D6F64 		.ascii	"tmode_t\000"
 1875      655F7400 
 1876              	.LASF52:
 1877 020f 63685F72 		.ascii	"ch_ready_list\000"
 1877      65616479 
 1877      5F6C6973 
 1877      7400
 1878              	.LASF24:
 1879 021d 6576656E 		.ascii	"eventmask_t\000"
 1879      746D6173 
 1879      6B5F7400 
 1880              	.LASF7:
 1881 0229 5F5F696E 		.ascii	"__int32_t\000"
 1881      7433325F 
ARM GAS  /tmp/cc8ZryaH.s 			page 36


 1881      7400
 1882              	.LASF72:
 1883 0233 73746B61 		.ascii	"stkalign_t\000"
 1883      6C69676E 
 1883      5F7400
 1884              	.LASF94:
 1885 023e 74657374 		.ascii	"testcase_t\000"
 1885      63617365 
 1885      5F7400
 1886              	.LASF30:
 1887 0249 6E657765 		.ascii	"newer\000"
 1887      7200
 1888              	.LASF41:
 1889 024f 7265616C 		.ascii	"realprio\000"
 1889      7072696F 
 1889      00
 1890              	.LASF70:
 1891 0258 73697A65 		.ascii	"sizetype\000"
 1891      74797065 
 1891      00
 1892              	.LASF43:
 1893 0261 74687265 		.ascii	"thread_reference_t\000"
 1893      61645F72 
 1893      65666572 
 1893      656E6365 
 1893      5F7400
 1894              	.LASF60:
 1895 0274 63685F76 		.ascii	"ch_virtual_timers_list\000"
 1895      69727475 
 1895      616C5F74 
 1895      696D6572 
 1895      735F6C69 
 1896              	.LASF101:
 1897 028b 74657374 		.ascii	"test_step\000"
 1897      5F737465 
 1897      7000
 1898              	.LASF76:
 1899 0295 746D5F63 		.ascii	"tm_calibration_t\000"
 1899      616C6962 
 1899      72617469 
 1899      6F6E5F74 
 1899      00
 1900              	.LASF73:
 1901 02a6 706F7274 		.ascii	"port_context\000"
 1901      5F636F6E 
 1901      74657874 
 1901      00
 1902              	.LASF96:
 1903 02b3 63685468 		.ascii	"chThdGetPriorityX\000"
 1903      64476574 
 1903      5072696F 
 1903      72697479 
 1903      5800
 1904              	.LASF91:
 1905 02c5 73657475 		.ascii	"setup\000"
 1905      7000
 1906              	.LASF29:
ARM GAS  /tmp/cc8ZryaH.s 			page 37


 1907 02cb 7072696F 		.ascii	"prio\000"
 1907      00
 1908              	.LASF53:
 1909 02d0 63757272 		.ascii	"current\000"
 1909      656E7400 
 1910              	.LASF12:
 1911 02d8 5F5F7569 		.ascii	"__uint64_t\000"
 1911      6E743634 
 1911      5F7400
 1912              	.LASF21:
 1913 02e3 74726566 		.ascii	"trefs_t\000"
 1913      735F7400 
 1914              	.LASF36:
 1915 02eb 72656673 		.ascii	"refs\000"
 1915      00
 1916              	.LASF55:
 1917 02f0 76697274 		.ascii	"virtual_timer_t\000"
 1917      75616C5F 
 1917      74696D65 
 1917      725F7400 
 1918              	.LASF93:
 1919 0300 65786563 		.ascii	"execute\000"
 1919      75746500 
 1920              	.LASF22:
 1921 0308 74707269 		.ascii	"tprio_t\000"
 1921      6F5F7400 
 1922              	.LASF63:
 1923 0310 63685F73 		.ascii	"ch_system_debug\000"
 1923      79737465 
 1923      6D5F6465 
 1923      62756700 
 1924              	.LASF90:
 1925 0320 5F426F6F 		.ascii	"_Bool\000"
 1925      6C00
 1926              	.LASF15:
 1927 0326 696E7433 		.ascii	"int32_t\000"
 1927      325F7400 
 1928              	.LASF4:
 1929 032e 756E7369 		.ascii	"unsigned char\000"
 1929      676E6564 
 1929      20636861 
 1929      7200
 1930              	.LASF5:
 1931 033c 73686F72 		.ascii	"short int\000"
 1931      7420696E 
 1931      7400
 1932              	.LASF61:
 1933 0346 6C617374 		.ascii	"lasttime\000"
 1933      74696D65 
 1933      00
 1934              	.LASF103:
 1935 034f 74687265 		.ascii	"threads\000"
 1935      61647300 
 1936              	.LASF84:
 1937 0357 65776D61 		.ascii	"ewmask\000"
 1937      736B00
 1938              	.LASF66:
ARM GAS  /tmp/cc8ZryaH.s 			page 38


 1939 035e 63685F73 		.ascii	"ch_system\000"
 1939      79737465 
 1939      6D00
 1940              	.LASF108:
 1941 0368 5F5F6675 		.ascii	"__func__\000"
 1941      6E635F5F 
 1941      00
 1942              	.LASF56:
 1943 0371 63685F76 		.ascii	"ch_virtual_timer\000"
 1943      69727475 
 1943      616C5F74 
 1943      696D6572 
 1943      00
 1944              	.LASF85:
 1945 0382 63685F73 		.ascii	"ch_semaphore\000"
 1945      656D6170 
 1945      686F7265 
 1945      00
 1946              	.LASF16:
 1947 038f 75696E74 		.ascii	"uint32_t\000"
 1947      33325F74 
 1947      00
 1948              	.LASF83:
 1949 0398 77746D74 		.ascii	"wtmtxp\000"
 1949      787000
 1950              	.LASF46:
 1951 039f 63685F74 		.ascii	"ch_threads_list\000"
 1951      68726561 
 1951      64735F6C 
 1951      69737400 
 1952              	.LASF87:
 1953 03af 6F776E65 		.ascii	"owner\000"
 1953      7200
 1954              	.LASF10:
 1955 03b5 6C6F6E67 		.ascii	"long unsigned int\000"
 1955      20756E73 
 1955      69676E65 
 1955      6420696E 
 1955      7400
 1956              	.LASF104:
 1957 03c7 474E5520 		.ascii	"GNU C 4.9.3 20150529 (prerelease) -mcpu=cortex-m4 -"
 1957      4320342E 
 1957      392E3320 
 1957      32303135 
 1957      30353239 
 1958 03fa 6D6E6F2D 		.ascii	"mno-thumb-interwork -mthumb -ggdb -O0 -fomit-frame-"
 1958      7468756D 
 1958      622D696E 
 1958      74657277 
 1958      6F726B20 
 1959 042d 706F696E 		.ascii	"pointer -falign-functions=16\000"
 1959      74657220 
 1959      2D66616C 
 1959      69676E2D 
 1959      66756E63 
 1960              	.LASF88:
 1961 044a 63686172 		.ascii	"char\000"
ARM GAS  /tmp/cc8ZryaH.s 			page 39


 1961      00
 1962              	.LASF31:
 1963 044f 6F6C6465 		.ascii	"older\000"
 1963      7200
 1964              	.LASF27:
 1965 0455 74687265 		.ascii	"thread_t\000"
 1965      61645F74 
 1965      00
 1966              	.LASF26:
 1967 045e 73797374 		.ascii	"systime_t\000"
 1967      696D655F 
 1967      7400
 1968              	.LASF54:
 1969 0468 76746675 		.ascii	"vtfunc_t\000"
 1969      6E635F74 
 1969      00
 1970              	.LASF64:
 1971 0471 70616E69 		.ascii	"panic_msg\000"
 1971      635F6D73 
 1971      6700
 1972              	.LASF75:
 1973 047b 6F666673 		.ascii	"offset\000"
 1973      657400
 1974              	.LASF18:
 1975 0482 7274636E 		.ascii	"rtcnt_t\000"
 1975      745F7400 
 1976              	.LASF105:
 1977 048a 2E2E2F2E 		.ascii	"../../../test/rt/source/test/test_sequence_007.c\000"
 1977      2E2F2E2E 
 1977      2F746573 
 1977      742F7274 
 1977      2F736F75 
 1978              	.LASF48:
 1979 04bb 74687265 		.ascii	"threads_queue_t\000"
 1979      6164735F 
 1979      71756575 
 1979      655F7400 
 1980              	.LASF86:
 1981 04cb 63685F6D 		.ascii	"ch_mutex\000"
 1981      75746578 
 1981      00
 1982              	.LASF67:
 1983 04d4 726C6973 		.ascii	"rlist\000"
 1983      7400
 1984              	.LASF95:
 1985 04da 63685468 		.ascii	"chThdGetSelfX\000"
 1985      64476574 
 1985      53656C66 
 1985      5800
 1986              	.LASF14:
 1987 04e8 75696E74 		.ascii	"uint8_t\000"
 1987      385F7400 
 1988              	.LASF35:
 1989 04f0 666C6167 		.ascii	"flags\000"
 1989      7300
 1990              	.LASF102:
 1991 04f6 74657374 		.ascii	"test_sequence_007\000"
ARM GAS  /tmp/cc8ZryaH.s 			page 40


 1991      5F736571 
 1991      75656E63 
 1991      655F3030 
 1991      3700
 1992              	.LASF79:
 1993 0508 77746F62 		.ascii	"wtobjp\000"
 1993      6A7000
 1994              	.LASF44:
 1995 050f 74687265 		.ascii	"threads_list_t\000"
 1995      6164735F 
 1995      6C697374 
 1995      5F7400
 1996              	.LASF98:
 1997 051e 74657374 		.ascii	"test_007_001_execute\000"
 1997      5F303037 
 1997      5F303031 
 1997      5F657865 
 1997      63757465 
 1998              	.LASF40:
 1999 0533 6D74786C 		.ascii	"mtxlist\000"
 1999      69737400 
 2000              		.ident	"GCC: (15:4.9.3+svn231177-1) 4.9.3 20150529 (prerelease)"
ARM GAS  /tmp/cc8ZryaH.s 			page 41


DEFINED SYMBOLS
                            *ABS*:0000000000000000 test_sequence_007.c
     /tmp/cc8ZryaH.s:18     .text:0000000000000000 $t
     /tmp/cc8ZryaH.s:23     .text:0000000000000000 chThdGetSelfX
     /tmp/cc8ZryaH.s:40     .text:0000000000000008 $d
     /tmp/cc8ZryaH.s:44     .text:000000000000000c $t
     /tmp/cc8ZryaH.s:49     .text:0000000000000010 chThdGetPriorityX
     /tmp/cc8ZryaH.s:74     .text:0000000000000020 chMsgGet
     /tmp/cc8ZryaH.s:102    .text:0000000000000030 msg_thread1
     /tmp/cc8ZryaH.s:140    .rodata:0000000000000000 $d
     /tmp/cc8ZryaH.s:152    .text:0000000000000060 test_007_001_execute
     /tmp/cc8ZryaH.s:243    .text:00000000000000e4 $d
     /tmp/cc8ZryaH.s:259    .rodata:0000000000000034 test_007_001
     /tmp/cc8ZryaH.s:268    .rodata:0000000000000044 test_sequence_007
                     .debug_frame:0000000000000010 $d

UNDEFINED SYMBOLS
ch
chMsgSend
chThdCreateStatic
chMsgWait
chMsgRelease
test_emit_token
test_wait_threads
_test_assert_sequence
test_step
wa
threads
