ARM GAS  /tmp/ccwqe1P3.s 			page 1


   1              		.syntax unified
   2              		.cpu cortex-m4
   3              		.fpu softvfp
   4              		.eabi_attribute 20, 1
   5              		.eabi_attribute 21, 1
   6              		.eabi_attribute 23, 3
   7              		.eabi_attribute 24, 1
   8              		.eabi_attribute 25, 1
   9              		.eabi_attribute 26, 1
  10              		.eabi_attribute 30, 6
  11              		.eabi_attribute 34, 1
  12              		.eabi_attribute 18, 4
  13              		.thumb
  14              		.file	"test_sequence_012.c"
  15              		.text
  16              	.Ltext0:
  17              		.cfi_sections	.debug_frame
  18              		.align	2
  19              		.p2align 4,,15
  20              		.thumb
  21              		.thumb_func
  22              		.type	chThdGetSelfX, %function
  23              	chThdGetSelfX:
  24              	.LFB195:
  25              		.file 1 "../../../os/rt/include/chthreads.h"
  26              		.loc 1 284 0
  27              		.cfi_startproc
  28              		@ args = 0, pretend = 0, frame = 0
  29              		@ frame_needed = 0, uses_anonymous_args = 0
  30              		@ link register save eliminated.
  31              		.loc 1 286 0
  32 0000 014B     		ldr	r3, .L3
  33 0002 9B69     		ldr	r3, [r3, #24]
  34              		.loc 1 287 0
  35 0004 1846     		mov	r0, r3
  36 0006 7047     		bx	lr
  37              	.L4:
  38              		.align	2
  39              	.L3:
  40 0008 00000000 		.word	ch
  41              		.cfi_endproc
  42              	.LFE195:
  43              		.size	chThdGetSelfX, .-chThdGetSelfX
  44              		.align	2
  45 000c AFF30080 		.p2align 4,,15
  46              		.thumb
  47              		.thumb_func
  48              		.type	chThdGetPriorityX, %function
  49              	chThdGetPriorityX:
  50              	.LFB196:
  51              		.loc 1 297 0
  52              		.cfi_startproc
  53              		@ args = 0, pretend = 0, frame = 0
  54              		@ frame_needed = 0, uses_anonymous_args = 0
  55 0010 08B5     		push	{r3, lr}
  56              		.cfi_def_cfa_offset 8
  57              		.cfi_offset 3, -8
ARM GAS  /tmp/ccwqe1P3.s 			page 2


  58              		.cfi_offset 14, -4
  59              		.loc 1 299 0
  60 0012 FFF7F5FF 		bl	chThdGetSelfX
  61 0016 0346     		mov	r3, r0
  62 0018 9B68     		ldr	r3, [r3, #8]
  63              		.loc 1 300 0
  64 001a 1846     		mov	r0, r3
  65 001c 08BD     		pop	{r3, pc}
  66              		.cfi_endproc
  67              	.LFE196:
  68              		.size	chThdGetPriorityX, .-chThdGetPriorityX
  69              		.bss
  70              		.align	3
  71              	heap1:
  72 0000 00000000 		.space	32
  72      00000000 
  72      00000000 
  72      00000000 
  72      00000000 
  73              		.align	2
  74              	mp1:
  75 0020 00000000 		.space	12
  75      00000000 
  75      00000000 
  76              		.text
  77 001e 00BF     		.align	2
  78              		.p2align 4,,15
  79              		.thumb
  80              		.thumb_func
  81              		.type	dyn_thread1, %function
  82              	dyn_thread1:
  83              	.LFB279:
  84              		.file 2 "../../../test/rt/source/test/test_sequence_012.c"
  85              		.loc 2 58 0
  86              		.cfi_startproc
  87              		@ args = 0, pretend = 0, frame = 8
  88              		@ frame_needed = 0, uses_anonymous_args = 0
  89 0020 00B5     		push	{lr}
  90              		.cfi_def_cfa_offset 4
  91              		.cfi_offset 14, -4
  92 0022 83B0     		sub	sp, sp, #12
  93              		.cfi_def_cfa_offset 16
  94 0024 0190     		str	r0, [sp, #4]
  95              		.loc 2 60 0
  96 0026 019B     		ldr	r3, [sp, #4]
  97 0028 1B78     		ldrb	r3, [r3]	@ zero_extendqisi2
  98 002a 1846     		mov	r0, r3
  99 002c FFF7FEFF 		bl	test_emit_token
 100              		.loc 2 61 0
 101 0030 03B0     		add	sp, sp, #12
 102              		.cfi_def_cfa_offset 4
 103              		@ sp needed
 104 0032 5DF804FB 		ldr	pc, [sp], #4
 105              		.cfi_endproc
 106              	.LFE279:
 107              		.size	dyn_thread1, .-dyn_thread1
 108 0036 00BF     		.align	2
ARM GAS  /tmp/ccwqe1P3.s 			page 3


 109 0038 AFF30080 		.p2align 4,,15
 109      AFF30080 
 110              		.thumb
 111              		.thumb_func
 112              		.type	test_012_001_setup, %function
 113              	test_012_001_setup:
 114              	.LFB280:
 115              		.loc 2 95 0
 116              		.cfi_startproc
 117              		@ args = 0, pretend = 0, frame = 0
 118              		@ frame_needed = 0, uses_anonymous_args = 0
 119 0040 08B5     		push	{r3, lr}
 120              		.cfi_def_cfa_offset 8
 121              		.cfi_offset 3, -8
 122              		.cfi_offset 14, -4
 123              		.loc 2 96 0
 124 0042 0348     		ldr	r0, .L9
 125 0044 0349     		ldr	r1, .L9+4
 126 0046 4FF4CD62 		mov	r2, #1640
 127 004a FFF7FEFF 		bl	chHeapObjectInit
 128              		.loc 2 97 0
 129 004e 08BD     		pop	{r3, pc}
 130              	.L10:
 131              		.align	2
 132              	.L9:
 133 0050 00000000 		.word	heap1
 134 0054 00000000 		.word	test_buffer
 135              		.cfi_endproc
 136              	.LFE280:
 137              		.size	test_012_001_setup, .-test_012_001_setup
 138              		.section	.rodata
 139              		.align	2
 140              	.LC0:
 141 0000 68656170 		.ascii	"heap fragmented\000"
 141      20667261 
 141      676D656E 
 141      74656400 
 142              		.align	2
 143              	.LC1:
 144 0010 64796E31 		.ascii	"dyn1\000"
 144      00
 145 0015 000000   		.align	2
 146              	.LC2:
 147 0018 4100     		.ascii	"A\000"
 148 001a 0000     		.align	2
 149              	.LC3:
 150 001c 74687265 		.ascii	"thread creation failed\000"
 150      61642063 
 150      72656174 
 150      696F6E20 
 150      6661696C 
 151 0033 00       		.align	2
 152              	.LC4:
 153 0034 64796E32 		.ascii	"dyn2\000"
 153      00
 154 0039 000000   		.align	2
 155              	.LC5:
ARM GAS  /tmp/ccwqe1P3.s 			page 4


 156 003c 4200     		.ascii	"B\000"
 157 003e 0000     		.align	2
 158              	.LC6:
 159 0040 64796E33 		.ascii	"dyn3\000"
 159      00
 160 0045 000000   		.align	2
 161              	.LC7:
 162 0048 4300     		.ascii	"C\000"
 163 004a 0000     		.align	2
 164              	.LC8:
 165 004c 74687265 		.ascii	"thread creation not failed\000"
 165      61642063 
 165      72656174 
 165      696F6E20 
 165      6E6F7420 
 166 0067 00       		.align	2
 167              	.LC9:
 168 0068 414200   		.ascii	"AB\000"
 169 006b 00       		.align	2
 170              	.LC10:
 171 006c 696E7661 		.ascii	"invalid sequence\000"
 171      6C696420 
 171      73657175 
 171      656E6365 
 171      00
 172 007d 000000   		.align	2
 173              	.LC11:
 174 0080 66726167 		.ascii	"fragmentation changed\000"
 174      6D656E74 
 174      6174696F 
 174      6E206368 
 174      616E6765 
 175 0096 0000     		.align	2
 176              	.LC12:
 177 0098 746F7461 		.ascii	"total free space changed\000"
 177      6C206672 
 177      65652073 
 177      70616365 
 177      20636861 
 178 00b1 000000   		.align	2
 179              	.LC13:
 180 00b4 6C617267 		.ascii	"largest fragment size changed\000"
 180      65737420 
 180      66726167 
 180      6D656E74 
 180      2073697A 
 181              		.text
 182              		.align	2
 183 0058 AFF30080 		.p2align 4,,15
 183      AFF30080 
 184              		.thumb
 185              		.thumb_func
 186              		.type	test_012_001_execute, %function
 187              	test_012_001_execute:
 188              	.LFB281:
 189              		.loc 2 99 0
 190              		.cfi_startproc
ARM GAS  /tmp/ccwqe1P3.s 			page 5


 191              		@ args = 0, pretend = 0, frame = 32
 192              		@ frame_needed = 0, uses_anonymous_args = 0
 193 0060 10B5     		push	{r4, lr}
 194              		.cfi_def_cfa_offset 8
 195              		.cfi_offset 4, -8
 196              		.cfi_offset 14, -4
 197 0062 8AB0     		sub	sp, sp, #40
 198              		.cfi_def_cfa_offset 48
 199              		.loc 2 105 0
 200 0064 654B     		ldr	r3, .L22
 201 0066 0122     		movs	r2, #1
 202 0068 1A60     		str	r2, [r3]
 203              		.loc 2 107 0
 204 006a FFF7D1FF 		bl	chThdGetPriorityX
 205 006e 0990     		str	r0, [sp, #36]
 206              		.loc 2 111 0
 207 0070 624B     		ldr	r3, .L22
 208 0072 0222     		movs	r2, #2
 209 0074 1A60     		str	r2, [r3]
 210              		.loc 2 113 0
 211 0076 06AA     		add	r2, sp, #24
 212 0078 05AB     		add	r3, sp, #20
 213 007a 6148     		ldr	r0, .L22+4
 214 007c 1146     		mov	r1, r2
 215 007e 1A46     		mov	r2, r3
 216 0080 FFF7FEFF 		bl	chHeapStatus
 217 0084 0890     		str	r0, [sp, #32]
 218              		.loc 2 114 0
 219 0086 089B     		ldr	r3, [sp, #32]
 220 0088 012B     		cmp	r3, #1
 221 008a 0CBF     		ite	eq
 222 008c 0123     		moveq	r3, #1
 223 008e 0023     		movne	r3, #0
 224 0090 DBB2     		uxtb	r3, r3
 225 0092 1846     		mov	r0, r3
 226 0094 5B49     		ldr	r1, .L22+8
 227 0096 FFF7FEFF 		bl	_test_assert
 228 009a 0346     		mov	r3, r0
 229 009c 002B     		cmp	r3, #0
 230 009e 00D0     		beq	.L12
 231 00a0 A9E0     		b	.L11
 232              	.L12:
 233              		.loc 2 118 0
 234 00a2 564B     		ldr	r3, .L22
 235 00a4 0322     		movs	r2, #3
 236 00a6 1A60     		str	r2, [r3]
 237              		.loc 2 120 0
 238 00a8 099B     		ldr	r3, [sp, #36]
 239 00aa 5C1E     		subs	r4, r3, #1
 240 00ac 564B     		ldr	r3, .L22+12
 241 00ae 0093     		str	r3, [sp]
 242 00b0 564B     		ldr	r3, .L22+16
 243 00b2 0193     		str	r3, [sp, #4]
 244 00b4 5248     		ldr	r0, .L22+4
 245 00b6 4FF4A471 		mov	r1, #328
 246 00ba 554A     		ldr	r2, .L22+20
 247 00bc 2346     		mov	r3, r4
ARM GAS  /tmp/ccwqe1P3.s 			page 6


 248 00be FFF7FEFF 		bl	chThdCreateFromHeap
 249 00c2 0246     		mov	r2, r0
 250 00c4 534B     		ldr	r3, .L22+24
 251 00c6 1A60     		str	r2, [r3]
 252              		.loc 2 124 0
 253 00c8 524B     		ldr	r3, .L22+24
 254 00ca 1B68     		ldr	r3, [r3]
 255 00cc 002B     		cmp	r3, #0
 256 00ce 14BF     		ite	ne
 257 00d0 0123     		movne	r3, #1
 258 00d2 0023     		moveq	r3, #0
 259 00d4 DBB2     		uxtb	r3, r3
 260 00d6 1846     		mov	r0, r3
 261 00d8 4F49     		ldr	r1, .L22+28
 262 00da FFF7FEFF 		bl	_test_assert
 263 00de 0346     		mov	r3, r0
 264 00e0 002B     		cmp	r3, #0
 265 00e2 00D0     		beq	.L14
 266 00e4 87E0     		b	.L11
 267              	.L14:
 268              		.loc 2 128 0
 269 00e6 454B     		ldr	r3, .L22
 270 00e8 0422     		movs	r2, #4
 271 00ea 1A60     		str	r2, [r3]
 272              		.loc 2 130 0
 273 00ec 099B     		ldr	r3, [sp, #36]
 274 00ee 9C1E     		subs	r4, r3, #2
 275 00f0 454B     		ldr	r3, .L22+12
 276 00f2 0093     		str	r3, [sp]
 277 00f4 494B     		ldr	r3, .L22+32
 278 00f6 0193     		str	r3, [sp, #4]
 279 00f8 4148     		ldr	r0, .L22+4
 280 00fa 4FF4A471 		mov	r1, #328
 281 00fe 484A     		ldr	r2, .L22+36
 282 0100 2346     		mov	r3, r4
 283 0102 FFF7FEFF 		bl	chThdCreateFromHeap
 284 0106 0246     		mov	r2, r0
 285 0108 424B     		ldr	r3, .L22+24
 286 010a 5A60     		str	r2, [r3, #4]
 287              		.loc 2 134 0
 288 010c 414B     		ldr	r3, .L22+24
 289 010e 5B68     		ldr	r3, [r3, #4]
 290 0110 002B     		cmp	r3, #0
 291 0112 14BF     		ite	ne
 292 0114 0123     		movne	r3, #1
 293 0116 0023     		moveq	r3, #0
 294 0118 DBB2     		uxtb	r3, r3
 295 011a 1846     		mov	r0, r3
 296 011c 3E49     		ldr	r1, .L22+28
 297 011e FFF7FEFF 		bl	_test_assert
 298 0122 0346     		mov	r3, r0
 299 0124 002B     		cmp	r3, #0
 300 0126 00D0     		beq	.L15
 301 0128 65E0     		b	.L11
 302              	.L15:
 303              		.loc 2 138 0
 304 012a 344B     		ldr	r3, .L22
ARM GAS  /tmp/ccwqe1P3.s 			page 7


 305 012c 0522     		movs	r2, #5
 306 012e 1A60     		str	r2, [r3]
 307              		.loc 2 140 0
 308 0130 099B     		ldr	r3, [sp, #36]
 309 0132 DC1E     		subs	r4, r3, #3
 310 0134 344B     		ldr	r3, .L22+12
 311 0136 0093     		str	r3, [sp]
 312 0138 3A4B     		ldr	r3, .L22+40
 313 013a 0193     		str	r3, [sp, #4]
 314 013c 3048     		ldr	r0, .L22+4
 315 013e 3A49     		ldr	r1, .L22+44
 316 0140 3A4A     		ldr	r2, .L22+48
 317 0142 2346     		mov	r3, r4
 318 0144 FFF7FEFF 		bl	chThdCreateFromHeap
 319 0148 0246     		mov	r2, r0
 320 014a 324B     		ldr	r3, .L22+24
 321 014c 9A60     		str	r2, [r3, #8]
 322              		.loc 2 144 0
 323 014e 314B     		ldr	r3, .L22+24
 324 0150 9B68     		ldr	r3, [r3, #8]
 325 0152 002B     		cmp	r3, #0
 326 0154 0CBF     		ite	eq
 327 0156 0123     		moveq	r3, #1
 328 0158 0023     		movne	r3, #0
 329 015a DBB2     		uxtb	r3, r3
 330 015c 1846     		mov	r0, r3
 331 015e 3449     		ldr	r1, .L22+52
 332 0160 FFF7FEFF 		bl	_test_assert
 333 0164 0346     		mov	r3, r0
 334 0166 002B     		cmp	r3, #0
 335 0168 00D0     		beq	.L16
 336 016a 44E0     		b	.L11
 337              	.L16:
 338              		.loc 2 149 0
 339 016c 234B     		ldr	r3, .L22
 340 016e 0622     		movs	r2, #6
 341 0170 1A60     		str	r2, [r3]
 342              		.loc 2 151 0
 343 0172 FFF7FEFF 		bl	test_wait_threads
 344              		.loc 2 152 0
 345 0176 2F48     		ldr	r0, .L22+56
 346 0178 2F49     		ldr	r1, .L22+60
 347 017a FFF7FEFF 		bl	_test_assert_sequence
 348 017e 0346     		mov	r3, r0
 349 0180 002B     		cmp	r3, #0
 350 0182 00D0     		beq	.L17
 351 0184 37E0     		b	.L11
 352              	.L17:
 353              		.loc 2 156 0
 354 0186 1D4B     		ldr	r3, .L22
 355 0188 0722     		movs	r2, #7
 356 018a 1A60     		str	r2, [r3]
 357              		.loc 2 158 0
 358 018c 04AA     		add	r2, sp, #16
 359 018e 03AB     		add	r3, sp, #12
 360 0190 1B48     		ldr	r0, .L22+4
 361 0192 1146     		mov	r1, r2
ARM GAS  /tmp/ccwqe1P3.s 			page 8


 362 0194 1A46     		mov	r2, r3
 363 0196 FFF7FEFF 		bl	chHeapStatus
 364 019a 0790     		str	r0, [sp, #28]
 365              		.loc 2 159 0
 366 019c 089A     		ldr	r2, [sp, #32]
 367 019e 079B     		ldr	r3, [sp, #28]
 368 01a0 9A42     		cmp	r2, r3
 369 01a2 0CBF     		ite	eq
 370 01a4 0123     		moveq	r3, #1
 371 01a6 0023     		movne	r3, #0
 372 01a8 DBB2     		uxtb	r3, r3
 373 01aa 1846     		mov	r0, r3
 374 01ac 2349     		ldr	r1, .L22+64
 375 01ae FFF7FEFF 		bl	_test_assert
 376 01b2 0346     		mov	r3, r0
 377 01b4 002B     		cmp	r3, #0
 378 01b6 00D0     		beq	.L18
 379 01b8 1DE0     		b	.L11
 380              	.L18:
 381              		.loc 2 160 0
 382 01ba 069A     		ldr	r2, [sp, #24]
 383 01bc 049B     		ldr	r3, [sp, #16]
 384 01be 9A42     		cmp	r2, r3
 385 01c0 0CBF     		ite	eq
 386 01c2 0123     		moveq	r3, #1
 387 01c4 0023     		movne	r3, #0
 388 01c6 DBB2     		uxtb	r3, r3
 389 01c8 1846     		mov	r0, r3
 390 01ca 1D49     		ldr	r1, .L22+68
 391 01cc FFF7FEFF 		bl	_test_assert
 392 01d0 0346     		mov	r3, r0
 393 01d2 002B     		cmp	r3, #0
 394 01d4 00D0     		beq	.L19
 395 01d6 0EE0     		b	.L11
 396              	.L19:
 397              		.loc 2 161 0
 398 01d8 059A     		ldr	r2, [sp, #20]
 399 01da 039B     		ldr	r3, [sp, #12]
 400 01dc 9A42     		cmp	r2, r3
 401 01de 0CBF     		ite	eq
 402 01e0 0123     		moveq	r3, #1
 403 01e2 0023     		movne	r3, #0
 404 01e4 DBB2     		uxtb	r3, r3
 405 01e6 1846     		mov	r0, r3
 406 01e8 1649     		ldr	r1, .L22+72
 407 01ea FFF7FEFF 		bl	_test_assert
 408 01ee 0346     		mov	r3, r0
 409 01f0 002B     		cmp	r3, #0
 410 01f2 00D0     		beq	.L11
 411 01f4 00BF     		nop
 412              	.L11:
 413              		.loc 2 163 0
 414 01f6 0AB0     		add	sp, sp, #40
 415              		.cfi_def_cfa_offset 8
 416              		@ sp needed
 417 01f8 10BD     		pop	{r4, pc}
 418              	.L23:
ARM GAS  /tmp/ccwqe1P3.s 			page 9


 419 01fa 00BF     		.align	2
 420              	.L22:
 421 01fc 00000000 		.word	test_step
 422 0200 00000000 		.word	heap1
 423 0204 00000000 		.word	.LC0
 424 0208 00000000 		.word	dyn_thread1
 425 020c 18000000 		.word	.LC2
 426 0210 10000000 		.word	.LC1
 427 0214 00000000 		.word	threads
 428 0218 1C000000 		.word	.LC3
 429 021c 3C000000 		.word	.LC5
 430 0220 34000000 		.word	.LC4
 431 0224 48000000 		.word	.LC7
 432 0228 C8000200 		.word	131272
 433 022c 40000000 		.word	.LC6
 434 0230 4C000000 		.word	.LC8
 435 0234 68000000 		.word	.LC9
 436 0238 6C000000 		.word	.LC10
 437 023c 80000000 		.word	.LC11
 438 0240 98000000 		.word	.LC12
 439 0244 B4000000 		.word	.LC13
 440              		.cfi_endproc
 441              	.LFE281:
 442              		.size	test_012_001_execute, .-test_012_001_execute
 443              		.section	.rodata
 444 00d2 0000     		.align	2
 445              	.LC14:
 446 00d4 54687265 		.ascii	"Threads creation from Memory Heap\000"
 446      61647320 
 446      63726561 
 446      74696F6E 
 446      2066726F 
 447 00f6 0000     		.align	2
 448              		.type	test_012_001, %object
 449              		.size	test_012_001, 16
 450              	test_012_001:
 451 00f8 D4000000 		.word	.LC14
 452 00fc 00000000 		.word	test_012_001_setup
 453 0100 00000000 		.word	0
 454 0104 00000000 		.word	test_012_001_execute
 455              		.text
 456              		.align	2
 457 0248 AFF30080 		.p2align 4,,15
 457      AFF30080 
 458              		.thumb
 459              		.thumb_func
 460              		.type	test_012_002_setup, %function
 461              	test_012_002_setup:
 462              	.LFB282:
 463              		.loc 2 199 0
 464              		.cfi_startproc
 465              		@ args = 0, pretend = 0, frame = 0
 466              		@ frame_needed = 0, uses_anonymous_args = 0
 467 0250 08B5     		push	{r3, lr}
 468              		.cfi_def_cfa_offset 8
 469              		.cfi_offset 3, -8
 470              		.cfi_offset 14, -4
ARM GAS  /tmp/ccwqe1P3.s 			page 10


 471              		.loc 2 200 0
 472 0252 0348     		ldr	r0, .L25
 473 0254 4FF4A471 		mov	r1, #328
 474 0258 0022     		movs	r2, #0
 475 025a FFF7FEFF 		bl	chPoolObjectInit
 476              		.loc 2 201 0
 477 025e 08BD     		pop	{r3, pc}
 478              	.L26:
 479              		.align	2
 480              	.L25:
 481 0260 20000000 		.word	mp1
 482              		.cfi_endproc
 483              	.LFE282:
 484              		.size	test_012_002_setup, .-test_012_002_setup
 485              		.section	.rodata
 486              		.align	2
 487              	.LC15:
 488 0108 64796E34 		.ascii	"dyn4\000"
 488      00
 489 010d 000000   		.align	2
 490              	.LC16:
 491 0110 4400     		.ascii	"D\000"
 492 0112 0000     		.align	2
 493              	.LC17:
 494 0114 64796E35 		.ascii	"dyn5\000"
 494      00
 495 0119 000000   		.align	2
 496              	.LC18:
 497 011c 4500     		.ascii	"E\000"
 498 011e 0000     		.align	2
 499              	.LC19:
 500 0120 41424344 		.ascii	"ABCD\000"
 500      00
 501 0125 000000   		.align	2
 502              	.LC20:
 503 0128 706F6F6C 		.ascii	"pool list empty\000"
 503      206C6973 
 503      7420656D 
 503      70747900 
 504              		.align	2
 505              	.LC21:
 506 0138 706F6F6C 		.ascii	"pool list not empty\000"
 506      206C6973 
 506      74206E6F 
 506      7420656D 
 506      70747900 
 507              		.text
 508              		.align	2
 509 0264 AFF30080 		.p2align 4,,15
 509      AFF30080 
 509      AFF30080 
 510              		.thumb
 511              		.thumb_func
 512              		.type	test_012_002_execute, %function
 513              	test_012_002_execute:
 514              	.LFB283:
 515              		.loc 2 203 0
ARM GAS  /tmp/ccwqe1P3.s 			page 11


 516              		.cfi_startproc
 517              		@ args = 0, pretend = 0, frame = 8
 518              		@ frame_needed = 0, uses_anonymous_args = 0
 519 0270 00B5     		push	{lr}
 520              		.cfi_def_cfa_offset 4
 521              		.cfi_offset 14, -4
 522 0272 85B0     		sub	sp, sp, #20
 523              		.cfi_def_cfa_offset 24
 524              		.loc 2 208 0
 525 0274 634B     		ldr	r3, .L39
 526 0276 0122     		movs	r2, #1
 527 0278 1A60     		str	r2, [r3]
 528              		.loc 2 210 0
 529 027a 0023     		movs	r3, #0
 530 027c 0393     		str	r3, [sp, #12]
 531 027e 0AE0     		b	.L28
 532              	.L29:
 533              		.loc 2 211 0 discriminator 3
 534 0280 614A     		ldr	r2, .L39+4
 535 0282 039B     		ldr	r3, [sp, #12]
 536 0284 52F82330 		ldr	r3, [r2, r3, lsl #2]
 537 0288 6048     		ldr	r0, .L39+8
 538 028a 1946     		mov	r1, r3
 539 028c FFF7FEFF 		bl	chPoolFree
 540              		.loc 2 210 0 discriminator 3
 541 0290 039B     		ldr	r3, [sp, #12]
 542 0292 0133     		adds	r3, r3, #1
 543 0294 0393     		str	r3, [sp, #12]
 544              	.L28:
 545              		.loc 2 210 0 is_stmt 0 discriminator 1
 546 0296 039B     		ldr	r3, [sp, #12]
 547 0298 032B     		cmp	r3, #3
 548 029a F1D9     		bls	.L29
 549              		.loc 2 215 0 is_stmt 1
 550 029c 594B     		ldr	r3, .L39
 551 029e 0222     		movs	r2, #2
 552 02a0 1A60     		str	r2, [r3]
 553              		.loc 2 217 0
 554 02a2 FFF7B5FE 		bl	chThdGetPriorityX
 555 02a6 0290     		str	r0, [sp, #8]
 556              		.loc 2 221 0
 557 02a8 564B     		ldr	r3, .L39
 558 02aa 0322     		movs	r2, #3
 559 02ac 1A60     		str	r2, [r3]
 560              		.loc 2 223 0
 561 02ae 029B     		ldr	r3, [sp, #8]
 562 02b0 5A1E     		subs	r2, r3, #1
 563 02b2 574B     		ldr	r3, .L39+12
 564 02b4 0093     		str	r3, [sp]
 565 02b6 5548     		ldr	r0, .L39+8
 566 02b8 5649     		ldr	r1, .L39+16
 567 02ba 574B     		ldr	r3, .L39+20
 568 02bc FFF7FEFF 		bl	chThdCreateFromMemoryPool
 569 02c0 0246     		mov	r2, r0
 570 02c2 564B     		ldr	r3, .L39+24
 571 02c4 1A60     		str	r2, [r3]
 572              		.loc 2 224 0
ARM GAS  /tmp/ccwqe1P3.s 			page 12


 573 02c6 029B     		ldr	r3, [sp, #8]
 574 02c8 9A1E     		subs	r2, r3, #2
 575 02ca 554B     		ldr	r3, .L39+28
 576 02cc 0093     		str	r3, [sp]
 577 02ce 4F48     		ldr	r0, .L39+8
 578 02d0 5449     		ldr	r1, .L39+32
 579 02d2 514B     		ldr	r3, .L39+20
 580 02d4 FFF7FEFF 		bl	chThdCreateFromMemoryPool
 581 02d8 0246     		mov	r2, r0
 582 02da 504B     		ldr	r3, .L39+24
 583 02dc 5A60     		str	r2, [r3, #4]
 584              		.loc 2 225 0
 585 02de 029B     		ldr	r3, [sp, #8]
 586 02e0 DA1E     		subs	r2, r3, #3
 587 02e2 514B     		ldr	r3, .L39+36
 588 02e4 0093     		str	r3, [sp]
 589 02e6 4948     		ldr	r0, .L39+8
 590 02e8 5049     		ldr	r1, .L39+40
 591 02ea 4B4B     		ldr	r3, .L39+20
 592 02ec FFF7FEFF 		bl	chThdCreateFromMemoryPool
 593 02f0 0246     		mov	r2, r0
 594 02f2 4A4B     		ldr	r3, .L39+24
 595 02f4 9A60     		str	r2, [r3, #8]
 596              		.loc 2 226 0
 597 02f6 029B     		ldr	r3, [sp, #8]
 598 02f8 1A1F     		subs	r2, r3, #4
 599 02fa 4D4B     		ldr	r3, .L39+44
 600 02fc 0093     		str	r3, [sp]
 601 02fe 4348     		ldr	r0, .L39+8
 602 0300 4C49     		ldr	r1, .L39+48
 603 0302 454B     		ldr	r3, .L39+20
 604 0304 FFF7FEFF 		bl	chThdCreateFromMemoryPool
 605 0308 0246     		mov	r2, r0
 606 030a 444B     		ldr	r3, .L39+24
 607 030c DA60     		str	r2, [r3, #12]
 608              		.loc 2 227 0
 609 030e 029B     		ldr	r3, [sp, #8]
 610 0310 5A1F     		subs	r2, r3, #5
 611 0312 494B     		ldr	r3, .L39+52
 612 0314 0093     		str	r3, [sp]
 613 0316 3D48     		ldr	r0, .L39+8
 614 0318 4849     		ldr	r1, .L39+56
 615 031a 3F4B     		ldr	r3, .L39+20
 616 031c FFF7FEFF 		bl	chThdCreateFromMemoryPool
 617 0320 0246     		mov	r2, r0
 618 0322 3E4B     		ldr	r3, .L39+24
 619 0324 1A61     		str	r2, [r3, #16]
 620              		.loc 2 231 0
 621 0326 374B     		ldr	r3, .L39
 622 0328 0422     		movs	r2, #4
 623 032a 1A60     		str	r2, [r3]
 624              		.loc 2 233 0
 625 032c 3B4B     		ldr	r3, .L39+24
 626 032e 1B68     		ldr	r3, [r3]
 627 0330 002B     		cmp	r3, #0
 628 0332 0DD0     		beq	.L30
 629              		.loc 2 233 0 is_stmt 0 discriminator 1
ARM GAS  /tmp/ccwqe1P3.s 			page 13


 630 0334 394B     		ldr	r3, .L39+24
 631 0336 5B68     		ldr	r3, [r3, #4]
 632 0338 002B     		cmp	r3, #0
 633 033a 09D0     		beq	.L30
 634              		.loc 2 233 0 discriminator 3
 635 033c 374B     		ldr	r3, .L39+24
 636 033e 9B68     		ldr	r3, [r3, #8]
 637 0340 002B     		cmp	r3, #0
 638 0342 05D0     		beq	.L30
 639              		.loc 2 233 0 discriminator 5
 640 0344 354B     		ldr	r3, .L39+24
 641 0346 DB68     		ldr	r3, [r3, #12]
 642 0348 002B     		cmp	r3, #0
 643 034a 01D0     		beq	.L30
 644              		.loc 2 233 0 discriminator 7
 645 034c 0123     		movs	r3, #1
 646 034e 00E0     		b	.L31
 647              	.L30:
 648              		.loc 2 233 0 discriminator 8
 649 0350 0023     		movs	r3, #0
 650              	.L31:
 651              		.loc 2 233 0 discriminator 10
 652 0352 03F00103 		and	r3, r3, #1
 653 0356 DBB2     		uxtb	r3, r3
 654 0358 1846     		mov	r0, r3
 655 035a 3949     		ldr	r1, .L39+60
 656 035c FFF7FEFF 		bl	_test_assert
 657 0360 0346     		mov	r3, r0
 658 0362 002B     		cmp	r3, #0
 659 0364 00D0     		beq	.L32
 660              		.loc 2 233 0
 661 0366 49E0     		b	.L27
 662              	.L32:
 663              		.loc 2 238 0 is_stmt 1
 664 0368 2C4B     		ldr	r3, .L39+24
 665 036a 1B69     		ldr	r3, [r3, #16]
 666 036c 002B     		cmp	r3, #0
 667 036e 0CBF     		ite	eq
 668 0370 0123     		moveq	r3, #1
 669 0372 0023     		movne	r3, #0
 670 0374 DBB2     		uxtb	r3, r3
 671 0376 1846     		mov	r0, r3
 672 0378 3249     		ldr	r1, .L39+64
 673 037a FFF7FEFF 		bl	_test_assert
 674 037e 0346     		mov	r3, r0
 675 0380 002B     		cmp	r3, #0
 676 0382 00D0     		beq	.L34
 677              		.loc 2 238 0 is_stmt 0 discriminator 2
 678 0384 3AE0     		b	.L27
 679              	.L34:
 680              		.loc 2 244 0 is_stmt 1
 681 0386 1F4B     		ldr	r3, .L39
 682 0388 0522     		movs	r2, #5
 683 038a 1A60     		str	r2, [r3]
 684              		.loc 2 246 0
 685 038c FFF7FEFF 		bl	test_wait_threads
 686              		.loc 2 247 0
ARM GAS  /tmp/ccwqe1P3.s 			page 14


 687 0390 2D48     		ldr	r0, .L39+68
 688 0392 2E49     		ldr	r1, .L39+72
 689 0394 FFF7FEFF 		bl	_test_assert_sequence
 690 0398 0346     		mov	r3, r0
 691 039a 002B     		cmp	r3, #0
 692 039c 00D0     		beq	.L35
 693              		.loc 2 247 0 is_stmt 0 discriminator 3
 694 039e 2DE0     		b	.L27
 695              	.L35:
 696              		.loc 2 251 0 is_stmt 1
 697 03a0 184B     		ldr	r3, .L39
 698 03a2 0622     		movs	r2, #6
 699 03a4 1A60     		str	r2, [r3]
 700              		.loc 2 253 0
 701 03a6 0023     		movs	r3, #0
 702 03a8 0393     		str	r3, [sp, #12]
 703 03aa 13E0     		b	.L36
 704              	.L38:
 705              		.loc 2 254 0
 706 03ac 1748     		ldr	r0, .L39+8
 707 03ae FFF7FEFF 		bl	chPoolAlloc
 708 03b2 0346     		mov	r3, r0
 709 03b4 002B     		cmp	r3, #0
 710 03b6 14BF     		ite	ne
 711 03b8 0123     		movne	r3, #1
 712 03ba 0023     		moveq	r3, #0
 713 03bc DBB2     		uxtb	r3, r3
 714 03be 1846     		mov	r0, r3
 715 03c0 2349     		ldr	r1, .L39+76
 716 03c2 FFF7FEFF 		bl	_test_assert
 717 03c6 0346     		mov	r3, r0
 718 03c8 002B     		cmp	r3, #0
 719 03ca 00D0     		beq	.L37
 720              		.loc 2 254 0 is_stmt 0 discriminator 4
 721 03cc 16E0     		b	.L27
 722              	.L37:
 723              		.loc 2 253 0 is_stmt 1 discriminator 2
 724 03ce 039B     		ldr	r3, [sp, #12]
 725 03d0 0133     		adds	r3, r3, #1
 726 03d2 0393     		str	r3, [sp, #12]
 727              	.L36:
 728              		.loc 2 253 0 is_stmt 0 discriminator 1
 729 03d4 039B     		ldr	r3, [sp, #12]
 730 03d6 032B     		cmp	r3, #3
 731 03d8 E8D9     		bls	.L38
 732              		.loc 2 255 0 is_stmt 1
 733 03da 0C48     		ldr	r0, .L39+8
 734 03dc FFF7FEFF 		bl	chPoolAlloc
 735 03e0 0346     		mov	r3, r0
 736 03e2 002B     		cmp	r3, #0
 737 03e4 0CBF     		ite	eq
 738 03e6 0123     		moveq	r3, #1
 739 03e8 0023     		movne	r3, #0
 740 03ea DBB2     		uxtb	r3, r3
 741 03ec 1846     		mov	r0, r3
 742 03ee 1949     		ldr	r1, .L39+80
 743 03f0 FFF7FEFF 		bl	_test_assert
ARM GAS  /tmp/ccwqe1P3.s 			page 15


 744 03f4 0346     		mov	r3, r0
 745 03f6 002B     		cmp	r3, #0
 746 03f8 00D0     		beq	.L27
 747              		.loc 2 255 0 is_stmt 0 discriminator 5
 748 03fa 00BF     		nop
 749              	.L27:
 750              		.loc 2 257 0 is_stmt 1
 751 03fc 05B0     		add	sp, sp, #20
 752              		.cfi_def_cfa_offset 4
 753              		@ sp needed
 754 03fe 5DF804FB 		ldr	pc, [sp], #4
 755              	.L40:
 756 0402 00BF     		.align	2
 757              	.L39:
 758 0404 00000000 		.word	test_step
 759 0408 00000000 		.word	wa
 760 040c 20000000 		.word	mp1
 761 0410 18000000 		.word	.LC2
 762 0414 10000000 		.word	.LC1
 763 0418 00000000 		.word	dyn_thread1
 764 041c 00000000 		.word	threads
 765 0420 3C000000 		.word	.LC5
 766 0424 34000000 		.word	.LC4
 767 0428 48000000 		.word	.LC7
 768 042c 40000000 		.word	.LC6
 769 0430 10010000 		.word	.LC16
 770 0434 08010000 		.word	.LC15
 771 0438 1C010000 		.word	.LC18
 772 043c 14010000 		.word	.LC17
 773 0440 1C000000 		.word	.LC3
 774 0444 4C000000 		.word	.LC8
 775 0448 20010000 		.word	.LC19
 776 044c 6C000000 		.word	.LC10
 777 0450 28010000 		.word	.LC20
 778 0454 38010000 		.word	.LC21
 779              		.cfi_endproc
 780              	.LFE283:
 781              		.size	test_012_002_execute, .-test_012_002_execute
 782              		.section	.rodata
 783              		.align	2
 784              	.LC22:
 785 014c 54687265 		.ascii	"Threads creation from Memory Pool\000"
 785      61647320 
 785      63726561 
 785      74696F6E 
 785      2066726F 
 786 016e 0000     		.align	2
 787              		.type	test_012_002, %object
 788              		.size	test_012_002, 16
 789              	test_012_002:
 790 0170 4C010000 		.word	.LC22
 791 0174 00000000 		.word	test_012_002_setup
 792 0178 00000000 		.word	0
 793 017c 00000000 		.word	test_012_002_execute
 794              		.global	test_sequence_012
 795              		.align	2
 796              		.type	test_sequence_012, %object
ARM GAS  /tmp/ccwqe1P3.s 			page 16


 797              		.size	test_sequence_012, 12
 798              	test_sequence_012:
 799 0180 F8000000 		.word	test_012_001
 800 0184 70010000 		.word	test_012_002
 801 0188 00000000 		.word	0
 802              		.text
 803              	.Letext0:
 804              		.file 3 "/usr/lib/gcc/arm-none-eabi/4.9.3/include/stddef.h"
 805              		.file 4 "/usr/include/newlib/machine/_default_types.h"
 806              		.file 5 "/usr/include/newlib/sys/_stdint.h"
 807              		.file 6 "../../../os/common/ports/ARMCMx/compilers/GCC/chtypes.h"
 808              		.file 7 "../../../os/rt/include/chsystypes.h"
 809              		.file 8 "../../../os/rt/include/chschd.h"
 810              		.file 9 "../../../os/common/ports/ARMCMx/chcore.h"
 811              		.file 10 "../../../os/common/ports/ARMCMx/chcore_v7m.h"
 812              		.file 11 "../../../os/rt/include/chtm.h"
 813              		.file 12 "../../../os/rt/include/chsem.h"
 814              		.file 13 "../../../os/rt/include/chmtx.h"
 815              		.file 14 "../../../os/common/oslib/include/chmemcore.h"
 816              		.file 15 "../../../os/common/oslib/include/chheap.h"
 817              		.file 16 "../../../os/common/oslib/include/chmempools.h"
 818              		.file 17 "../../../test/lib/ch_test.h"
 819              		.file 18 "../../../os/common/ext/CMSIS/include/core_cm4.h"
 820              		.file 19 "../../../test/rt/source/test/test_root.h"